	.file	"blocksort.c"
	.text
.Ltext0:
	.file 0 "/root/crown-rust/bzip2-real-test" "blocksort.c"
	.section	.rodata.str1.1,"aMS",@progbits,1
.LC0:
	.string	"        bucket sorting ...\n"
.LC1:
	.string	"        depth %6d has "
.LC2:
	.string	"%6d unresolved strings\n"
	.section	.rodata.str1.8,"aMS",@progbits,1
	.align 8
.LC3:
	.string	"        reconstructing block ...\n"
	.text
	.p2align 4
	.type	fallbackSort, @function
fallbackSort:
.LVL0:
.LFB55:
	.file 1 "blocksort.c"
	.loc 1 217 1 view -0
	.cfi_startproc
	.loc 1 217 1 is_stmt 0 view .LVU1
	pushq	%r15
	.cfi_def_cfa_offset 16
	.cfi_offset 15, -16
	movq	%rdx, %r15
	pushq	%r14
	.cfi_def_cfa_offset 24
	.cfi_offset 14, -24
	pushq	%r13
	.cfi_def_cfa_offset 32
	.cfi_offset 13, -32
	movq	%rsi, %r13
	pushq	%r12
	.cfi_def_cfa_offset 40
	.cfi_offset 12, -40
	movq	%rdi, %r12
	pushq	%rbp
	.cfi_def_cfa_offset 48
	.cfi_offset 6, -48
	pushq	%rbx
	.cfi_def_cfa_offset 56
	.cfi_offset 3, -56
	subq	$2952, %rsp
	.cfi_def_cfa_offset 3008
	.loc 1 217 1 view .LVU2
	movl	%ecx, 24(%rsp)
	movl	%r8d, 60(%rsp)
	movq	%fs:40, %rax
	movq	%rax, 2936(%rsp)
	xorl	%eax, %eax
	.loc 1 218 4 is_stmt 1 view .LVU3
	.loc 1 219 4 view .LVU4
	.loc 1 220 4 view .LVU5
	.loc 1 221 4 view .LVU6
	.loc 1 222 4 view .LVU7
	.loc 1 223 4 view .LVU8
.LVL1:
	.loc 1 229 4 view .LVU9
	.loc 1 229 7 is_stmt 0 view .LVU10
	cmpl	$3, %r8d
	jg	.L159
.LVL2:
.L2:
	.loc 1 231 38 discriminator 3 view .LVU11
	leaq	1904(%rsp), %rsi
	xorl	%eax, %eax
	movl	$128, %ecx
	movslq	24(%rsp), %rdx
	movq	%rsi, %rdi
	rep stosq
	movq	%rdx, %rbx
	movq	%r13, %rax
	addq	%r13, %rdx
	movl	$0, (%rdi)
.LVL3:
	.loc 1 232 18 is_stmt 1 discriminator 3 view .LVU12
	testl	%ebx, %ebx
	jle	.L6
.LVL4:
.L5:
	.loc 1 232 33 discriminator 3 view .LVU13
	.loc 1 232 49 is_stmt 0 discriminator 3 view .LVU14
	movzbl	(%rax), %ecx
	.loc 1 232 18 discriminator 3 view .LVU15
	addq	$1, %rax
.LVL5:
	.loc 1 232 49 discriminator 3 view .LVU16
	addl	$1, 1904(%rsp,%rcx,4)
	.loc 1 232 29 is_stmt 1 discriminator 3 view .LVU17
	.loc 1 232 18 discriminator 3 view .LVU18
	cmpq	%rax, %rdx
	jne	.L5
.L6:
	.loc 1 233 42 is_stmt 0 view .LVU19
	leaq	880(%rsp), %rdi
	leaq	1904(%rsp), %rbp
	movl	$128, %ecx
	movq	%rdi, 72(%rsp)
	leaq	1908(%rsp), %rax
	movq	%rbp, %rbx
	rep movsq
	leaq	2932(%rsp), %rcx
	.p2align 4,,10
	.p2align 3
.L4:
.LVL6:
	.loc 1 234 30 is_stmt 1 discriminator 3 view .LVU20
	.loc 1 234 38 is_stmt 0 discriminator 3 view .LVU21
	movl	-4(%rax), %edx
	addl	%edx, (%rax)
	.loc 1 234 26 is_stmt 1 discriminator 3 view .LVU22
.LVL7:
	.loc 1 234 18 discriminator 3 view .LVU23
	addq	$4, %rax
.LVL8:
	.loc 1 234 18 is_stmt 0 discriminator 3 view .LVU24
	cmpq	%rax, %rcx
	jne	.L4
.LVL9:
	.loc 1 236 18 is_stmt 1 view .LVU25
	.loc 1 243 25 is_stmt 0 view .LVU26
	movl	24(%rsp), %eax
	testl	%eax, %eax
	leal	31(%rax), %edx
	cmovns	%eax, %edx
	sarl	$5, %edx
	.loc 1 236 18 view .LVU27
	testl	%eax, %eax
	jle	.L7
	movslq	%eax, %rdi
	xorl	%ecx, %ecx
.LVL10:
.L8:
	.loc 1 237 7 is_stmt 1 discriminator 3 view .LVU28
	.loc 1 238 7 discriminator 3 view .LVU29
	.loc 1 238 15 is_stmt 0 discriminator 3 view .LVU30
	movzbl	0(%r13,%rcx), %esi
	.loc 1 238 9 discriminator 3 view .LVU31
	movl	1904(%rsp,%rsi,4), %eax
	subl	$1, %eax
.LVL11:
	.loc 1 239 7 is_stmt 1 discriminator 3 view .LVU32
	.loc 1 239 15 is_stmt 0 discriminator 3 view .LVU33
	movl	%eax, 1904(%rsp,%rsi,4)
	.loc 1 240 7 is_stmt 1 discriminator 3 view .LVU34
	.loc 1 240 11 is_stmt 0 discriminator 3 view .LVU35
	cltq
.LVL12:
	.loc 1 240 15 discriminator 3 view .LVU36
	movl	%ecx, (%r12,%rax,4)
.LVL13:
	.loc 1 236 29 is_stmt 1 discriminator 3 view .LVU37
	.loc 1 236 18 discriminator 3 view .LVU38
	addq	$1, %rcx
.LVL14:
	.loc 1 236 18 is_stmt 0 discriminator 3 view .LVU39
	cmpq	%rcx, %rdi
	jne	.L8
.LVL15:
.L10:
	.loc 1 244 42 view .LVU40
	leal	1(%rdx), %eax
	cmpl	$-63, 24(%rsp)
	movq	%r15, %rdi
	leaq	4(,%rax,4), %rdx
	movl	$4, %eax
	cmovl	%rax, %rdx
	xorl	%esi, %esi
	call	memset@PLT
.LVL16:
.L9:
	.loc 1 244 42 view .LVU41
	leaq	1024(%rbp), %rsi
	.loc 1 245 66 view .LVU42
	movl	$1, %edi
	.p2align 4,,10
	.p2align 3
.L11:
.LVL17:
	.loc 1 245 30 is_stmt 1 discriminator 3 view .LVU43
	.loc 1 245 41 is_stmt 0 discriminator 3 view .LVU44
	movl	(%rbx), %ecx
	.loc 1 245 66 discriminator 3 view .LVU45
	movl	%edi, %edx
	.loc 1 245 18 discriminator 3 view .LVU46
	addq	$4, %rbx
.LVL18:
	.loc 1 245 52 discriminator 3 view .LVU47
	movl	%ecx, %eax
	.loc 1 245 66 discriminator 3 view .LVU48
	sall	%cl, %edx
	.loc 1 245 52 discriminator 3 view .LVU49
	sarl	$5, %eax
	cltq
	orl	%edx, (%r15,%rax,4)
	.loc 1 245 26 is_stmt 1 discriminator 3 view .LVU50
.LVL19:
	.loc 1 245 18 discriminator 3 view .LVU51
	cmpq	%rbx, %rsi
	jne	.L11
	movl	24(%rsp), %eax
	.loc 1 255 48 is_stmt 0 view .LVU52
	movl	$1, %esi
	leal	64(%rax), %edi
.L12:
	.loc 1 255 7 is_stmt 1 discriminator 3 view .LVU53
	.loc 1 255 34 is_stmt 0 discriminator 3 view .LVU54
	movl	%eax, %edx
	.loc 1 255 48 discriminator 3 view .LVU55
	movl	%eax, %ecx
	movl	%esi, %ebx
	.loc 1 255 34 discriminator 3 view .LVU56
	sarl	$5, %edx
	.loc 1 255 48 discriminator 3 view .LVU57
	sall	%cl, %ebx
	leal	1(%rax), %ecx
	.loc 1 254 18 discriminator 3 view .LVU58
	addl	$2, %eax
	.loc 1 255 34 discriminator 3 view .LVU59
	movslq	%edx, %rdx
	orl	%ebx, (%r15,%rdx,4)
	.loc 1 256 7 is_stmt 1 discriminator 3 view .LVU60
	.loc 1 256 38 is_stmt 0 discriminator 3 view .LVU61
	movl	%ecx, %edx
	.loc 1 256 53 discriminator 3 view .LVU62
	movl	%esi, %ebx
	.loc 1 256 38 discriminator 3 view .LVU63
	sarl	$5, %edx
	.loc 1 256 53 discriminator 3 view .LVU64
	sall	%cl, %ebx
	.loc 1 256 38 discriminator 3 view .LVU65
	movslq	%edx, %rdx
	.loc 1 256 53 discriminator 3 view .LVU66
	movl	%ebx, %ecx
	.loc 1 256 41 discriminator 3 view .LVU67
	notl	%ecx
	.loc 1 256 38 discriminator 3 view .LVU68
	andl	%ecx, (%r15,%rdx,4)
	.loc 1 254 25 is_stmt 1 discriminator 3 view .LVU69
	.loc 1 254 18 discriminator 3 view .LVU70
	cmpl	%eax, %edi
	jne	.L12
	.loc 1 260 6 is_stmt 0 view .LVU71
	movl	$1, 56(%rsp)
.LBB57:
.LBB58:
	.loc 1 127 10 view .LVU72
	movq	%r15, %rax
	movq	%r13, %r14
	movq	%r12, %r15
.LVL20:
	.loc 1 127 10 view .LVU73
	movq	%rax, %r12
.LVL21:
.L76:
	.loc 1 127 10 view .LVU74
.LBE58:
.LBE57:
	.loc 1 261 4 is_stmt 1 view .LVU75
	.loc 1 263 7 view .LVU76
	.loc 1 263 10 is_stmt 0 view .LVU77
	cmpl	$3, 60(%rsp)
	jg	.L160
.L13:
.LVL22:
	.loc 1 267 21 is_stmt 1 discriminator 1 view .LVU78
	movl	24(%rsp), %ecx
	testl	%ecx, %ecx
	jle	.L19
	movl	24(%rsp), %r10d
	movl	56(%rsp), %r9d
	.loc 1 269 22 is_stmt 0 view .LVU79
	xorl	%ecx, %ecx
	xorl	%esi, %esi
	.loc 1 268 44 view .LVU80
	movl	$1, %edi
	leal	-1(%r10), %r8d
	jmp	.L18
.LVL23:
	.p2align 4,,10
	.p2align 3
.L92:
	.loc 1 268 44 view .LVU81
	movq	%rax, %rcx
.LVL24:
.L18:
	.loc 1 268 10 is_stmt 1 view .LVU82
	.loc 1 268 25 is_stmt 0 view .LVU83
	movl	%ecx, %edx
	.loc 1 268 44 view .LVU84
	movl	%edi, %eax
	.loc 1 268 25 view .LVU85
	sarl	$5, %edx
	.loc 1 268 44 view .LVU86
	sall	%cl, %eax
	.loc 1 268 25 view .LVU87
	movslq	%edx, %rdx
	.loc 1 268 31 view .LVU88
	andl	(%r12,%rdx,4), %eax
	.loc 1 269 22 view .LVU89
	movl	(%r15,%rcx,4), %eax
	.loc 1 268 13 view .LVU90
	cmovne	%ecx, %esi
.LVL25:
	.loc 1 269 10 is_stmt 1 view .LVU91
	.loc 1 269 22 is_stmt 0 view .LVU92
	subl	%r9d, %eax
.LVL26:
	.loc 1 269 27 is_stmt 1 view .LVU93
	.loc 1 269 40 is_stmt 0 view .LVU94
	leal	(%rax,%r10), %edx
	cmovs	%edx, %eax
.LVL27:
	.loc 1 270 10 is_stmt 1 view .LVU95
	.loc 1 270 16 is_stmt 0 view .LVU96
	cltq
	.loc 1 270 20 view .LVU97
	movl	%esi, (%r14,%rax,4)
	.loc 1 267 32 is_stmt 1 view .LVU98
.LVL28:
	.loc 1 267 21 view .LVU99
	leaq	1(%rcx), %rax
.LVL29:
	.loc 1 267 21 is_stmt 0 view .LVU100
	cmpq	%rcx, %r8
	.loc 1 267 21 view .LVU101
	jne	.L92
.LVL30:
.L19:
	.loc 1 273 16 view .LVU102
	movl	$0, 44(%rsp)
	movq	%r12, %rax
	.loc 1 279 47 view .LVU103
	movl	$1, %r13d
	movq	%r14, %r12
	.loc 1 274 9 view .LVU104
	movl	$-1, 20(%rsp)
	movq	%r15, %r14
.LVL31:
	.loc 1 274 9 view .LVU105
	movq	%rax, %r15
.LVL32:
	.p2align 4,,10
	.p2align 3
.L15:
	.loc 1 275 7 is_stmt 1 view .LVU106
	.loc 1 278 10 view .LVU107
	.loc 1 278 12 is_stmt 0 view .LVU108
	movl	20(%rsp), %eax
	.loc 1 279 47 view .LVU109
	movl	%r13d, %ebx
	.loc 1 278 12 view .LVU110
	addl	$1, %eax
.LVL33:
	.loc 1 279 10 is_stmt 1 view .LVU111
	.loc 1 279 63 view .LVU112
	.loc 1 279 28 is_stmt 0 view .LVU113
	movl	%eax, %edx
	.loc 1 279 47 view .LVU114
	movl	%eax, %ecx
	.loc 1 279 55 view .LVU115
	movl	%eax, %esi
	.loc 1 279 28 view .LVU116
	sarl	$5, %edx
	.loc 1 279 47 view .LVU117
	sall	%cl, %ebx
	.loc 1 279 55 view .LVU118
	andl	$31, %esi
	.loc 1 279 28 view .LVU119
	movslq	%edx, %rdx
	.loc 1 279 23 view .LVU120
	movl	(%r15,%rdx,4), %edx
	.loc 1 279 63 view .LVU121
	testl	%edx, %ebx
	je	.L93
	testl	%esi, %esi
	je	.L153
	movl	%eax, %ecx
	jmp	.L22
.LVL34:
	.p2align 4,,10
	.p2align 3
.L162:
	.loc 1 279 63 discriminator 2 view .LVU122
	testl	%esi, %esi
	je	.L161
.L22:
	.loc 1 279 81 is_stmt 1 discriminator 3 view .LVU123
	movl	%ecx, %edi
	.loc 1 279 82 is_stmt 0 discriminator 3 view .LVU124
	addl	$1, %ecx
.LVL35:
	.loc 1 279 63 is_stmt 1 discriminator 3 view .LVU125
	.loc 1 279 28 is_stmt 0 discriminator 3 view .LVU126
	movl	%ecx, %eax
	.loc 1 279 55 discriminator 3 view .LVU127
	movl	%ecx, %esi
	.loc 1 279 28 discriminator 3 view .LVU128
	sarl	$5, %eax
	.loc 1 279 55 discriminator 3 view .LVU129
	andl	$31, %esi
	.loc 1 279 28 discriminator 3 view .LVU130
	cltq
	.loc 1 279 23 discriminator 3 view .LVU131
	movl	(%r15,%rax,4), %edx
	.loc 1 279 47 discriminator 3 view .LVU132
	movl	%r13d, %eax
	sall	%cl, %eax
	.loc 1 279 63 discriminator 3 view .LVU133
	testl	%edx, %eax
	jne	.L162
	movl	%edi, 32(%rsp)
	movl	%ecx, %eax
.LVL36:
.L20:
	.loc 1 284 10 is_stmt 1 view .LVU134
	.loc 1 285 10 view .LVU135
	.loc 1 285 13 is_stmt 0 view .LVU136
	movl	32(%rsp), %edi
	cmpl	%edi, 24(%rsp)
	jle	.L145
.LVL37:
.L139:
	.loc 1 286 64 is_stmt 1 view .LVU137
	.loc 1 286 64 is_stmt 0 view .LVU138
	movl	%eax, %ecx
	testb	$31, %al
	jne	.L27
	.loc 1 286 64 view .LVU139
	jmp	.L163
.LVL38:
	.p2align 4,,10
	.p2align 3
.L164:
	.loc 1 286 64 discriminator 2 view .LVU140
	testl	%edi, %edi
	je	.L154
.L27:
	.loc 1 286 82 is_stmt 1 discriminator 3 view .LVU141
	movl	%ecx, %r8d
	.loc 1 286 83 is_stmt 0 discriminator 3 view .LVU142
	addl	$1, %ecx
.LVL39:
	.loc 1 286 64 is_stmt 1 discriminator 3 view .LVU143
	.loc 1 286 48 is_stmt 0 discriminator 3 view .LVU144
	movl	%r13d, %esi
	.loc 1 286 29 discriminator 3 view .LVU145
	movl	%ecx, %edx
	.loc 1 286 56 discriminator 3 view .LVU146
	movl	%ecx, %edi
	.loc 1 286 48 discriminator 3 view .LVU147
	sall	%cl, %esi
	.loc 1 286 29 discriminator 3 view .LVU148
	sarl	$5, %edx
	.loc 1 286 56 discriminator 3 view .LVU149
	andl	$31, %edi
	.loc 1 286 29 discriminator 3 view .LVU150
	movslq	%edx, %rdx
	.loc 1 286 24 discriminator 3 view .LVU151
	movl	(%r15,%rdx,4), %edx
	.loc 1 286 64 discriminator 3 view .LVU152
	testl	%edx, %esi
	je	.L164
	movl	%r8d, 20(%rsp)
.LVL40:
.L26:
	.loc 1 291 10 is_stmt 1 view .LVU153
	.loc 1 292 10 view .LVU154
	.loc 1 292 13 is_stmt 0 view .LVU155
	movl	20(%rsp), %edi
	cmpl	%edi, 24(%rsp)
	jle	.L145
	.loc 1 295 10 is_stmt 1 view .LVU156
	.loc 1 295 13 is_stmt 0 view .LVU157
	cmpl	%eax, %ecx
	jle	.L15
	.loc 1 296 13 is_stmt 1 view .LVU158
	.loc 1 296 28 is_stmt 0 view .LVU159
	subl	%eax, %ecx
.LVL41:
	.loc 1 296 22 view .LVU160
	movl	44(%rsp), %eax
.LBB81:
.LBB75:
	.loc 1 107 38 view .LVU161
	movl	%edi, 480(%rsp)
	movl	%edi, %ebp
	.loc 1 104 6 view .LVU162
	movl	$0, 40(%rsp)
.LBE75:
.LBE81:
	.loc 1 296 22 view .LVU163
	leal	1(%rax,%rcx), %eax
.LBB82:
.LBB76:
	.loc 1 107 48 view .LVU164
	movl	$1, 16(%rsp)
.LBE76:
.LBE82:
	.loc 1 296 22 view .LVU165
	movl	%eax, 44(%rsp)
.LVL42:
	.loc 1 297 13 is_stmt 1 view .LVU166
.LBB83:
.LBI57:
	.loc 1 93 6 view .LVU167
.LBB77:
	.loc 1 98 4 view .LVU168
	.loc 1 99 4 view .LVU169
	.loc 1 100 4 view .LVU170
	.loc 1 101 4 view .LVU171
	.loc 1 102 4 view .LVU172
	.loc 1 104 4 view .LVU173
	.loc 1 106 4 view .LVU174
	.loc 1 107 6 view .LVU175
	.loc 1 107 18 is_stmt 0 view .LVU176
	movl	32(%rsp), %eax
.LVL43:
	.loc 1 107 18 view .LVU177
	movq	%r15, 64(%rsp)
	movl	%eax, 80(%rsp)
	.loc 1 107 26 is_stmt 1 view .LVU178
	.loc 1 107 46 view .LVU179
.LVL44:
	.loc 1 107 53 view .LVU180
	.loc 1 109 4 view .LVU181
	.loc 1 177 54 view .LVU182
	.loc 1 109 14 view .LVU183
	.loc 1 111 9 view .LVU184
	.loc 1 107 38 is_stmt 0 view .LVU185
	movl	%eax, 12(%rsp)
.LVL45:
	.p2align 4,,10
	.p2align 3
.L33:
	.loc 1 111 63 is_stmt 1 view .LVU186
	.loc 1 113 9 view .LVU187
	.loc 1 113 11 is_stmt 0 view .LVU188
	movl	16(%rsp), %eax
	subl	$1, %eax
	movl	%eax, 28(%rsp)
.LVL46:
	.loc 1 113 15 is_stmt 1 view .LVU189
	.loc 1 113 33 view .LVU190
	.loc 1 113 52 view .LVU191
	.loc 1 114 7 view .LVU192
	.loc 1 114 14 is_stmt 0 view .LVU193
	movl	%ebp, %eax
.LVL47:
	.loc 1 114 14 view .LVU194
	subl	12(%rsp), %eax
	.loc 1 114 10 view .LVU195
	cmpl	$9, %eax
	jle	.L165
	.loc 1 126 7 is_stmt 1 view .LVU196
	.loc 1 126 15 is_stmt 0 view .LVU197
	imull	$7621, 40(%rsp), %eax
	.loc 1 127 10 view .LVU198
	movl	$2863311531, %edi
	.loc 1 126 23 view .LVU199
	addl	$1, %eax
	.loc 1 126 9 view .LVU200
	andl	$32767, %eax
	movl	%eax, %ebx
	movl	%eax, 40(%rsp)
.LVL48:
	.loc 1 127 7 is_stmt 1 view .LVU201
	.loc 1 127 10 is_stmt 0 view .LVU202
	imulq	%rdi, %rax
.LVL49:
	.loc 1 127 10 view .LVU203
	shrq	$33, %rax
	leal	(%rax,%rax,2), %edx
.LVL50:
	.loc 1 128 7 is_stmt 1 view .LVU204
	.loc 1 128 10 is_stmt 0 view .LVU205
	movl	%ebx, %eax
	subl	%edx, %eax
.LVL51:
	.loc 1 128 10 view .LVU206
	jne	.L49
	.loc 1 128 20 is_stmt 1 view .LVU207
	.loc 1 128 37 is_stmt 0 view .LVU208
	movslq	12(%rsp), %rax
.LVL52:
	.loc 1 128 37 view .LVU209
	movl	(%r14,%rax,4), %eax
	.loc 1 128 24 view .LVU210
	movl	(%r12,%rax,4), %r8d
.LVL53:
.L50:
	.loc 1 132 7 is_stmt 1 view .LVU211
	.loc 1 133 7 view .LVU212
	.loc 1 135 7 view .LVU213
	.loc 1 136 10 view .LVU214
	.loc 1 137 13 view .LVU215
	.loc 1 137 16 is_stmt 0 view .LVU216
	movl	12(%rsp), %eax
	cmpl	%ebp, %eax
	jg	.L35
	.loc 1 137 16 view .LVU217
	movslq	%eax, %rbx
.LVL54:
	.loc 1 138 45 view .LVU218
	movl	%eax, 8(%rsp)
	movl	%eax, %edi
	leal	1(%rax), %r11d
	movq	%rbx, 48(%rsp)
	leaq	(%r14,%rbx,4), %r15
	movl	%ebp, %r9d
	movl	%ebp, %edx
.LVL55:
	.loc 1 138 45 view .LVU219
	movq	%r15, %r10
.LVL56:
	.p2align 4,,10
	.p2align 3
.L52:
	.loc 1 138 35 view .LVU220
	movl	(%r10), %eax
	movl	%edi, %ebx
.LVL57:
	.loc 1 138 13 is_stmt 1 view .LVU221
	.loc 1 138 35 is_stmt 0 view .LVU222
	movq	%rax, %rcx
	.loc 1 138 15 view .LVU223
	movl	(%r12,%rax,4), %eax
	subl	%r8d, %eax
.LVL58:
	.loc 1 139 13 is_stmt 1 view .LVU224
	.loc 1 139 16 is_stmt 0 view .LVU225
	testl	%eax, %eax
	je	.L166
	.loc 1 143 14 is_stmt 1 view .LVU226
	.loc 1 144 13 view .LVU227
	.loc 1 144 16 is_stmt 0 view .LVU228
	jle	.L155
	.loc 1 147 10 is_stmt 1 view .LVU229
	.loc 1 148 13 view .LVU230
	.loc 1 148 16 is_stmt 0 view .LVU231
	cmpl	%edx, %edi
	jg	.L53
	movslq	%edx, %rax
.LVL59:
	.loc 1 148 16 view .LVU232
	movl	%edi, 36(%rsp)
	leaq	(%r14,%rax,4), %rax
	jmp	.L57
.LVL60:
	.p2align 4,,10
	.p2align 3
.L58:
	.loc 1 154 14 is_stmt 1 view .LVU233
	.loc 1 155 13 view .LVU234
	.loc 1 155 16 is_stmt 0 view .LVU235
	js	.L167
.LVL61:
.L59:
	.loc 1 147 10 is_stmt 1 view .LVU236
	.loc 1 148 13 view .LVU237
	.loc 1 148 16 is_stmt 0 view .LVU238
	subq	$4, %rax
	cmpl	%edx, %edi
	jg	.L150
.L57:
	.loc 1 149 13 is_stmt 1 view .LVU239
	.loc 1 149 35 is_stmt 0 view .LVU240
	movl	(%rax), %esi
.LVL62:
	.loc 1 150 13 is_stmt 1 view .LVU241
	.loc 1 152 28 is_stmt 0 view .LVU242
	subl	$1, %edx
.LVL63:
	.loc 1 149 35 view .LVU243
	movq	%rsi, %rcx
	.loc 1 150 16 view .LVU244
	cmpl	%r8d, (%r12,%rsi,4)
	jne	.L58
.LBB59:
	.loc 1 151 18 is_stmt 1 view .LVU245
.LVL64:
	.loc 1 151 44 view .LVU246
	.loc 1 151 61 is_stmt 0 view .LVU247
	movslq	%r9d, %rsi
.LVL65:
	.loc 1 151 61 view .LVU248
.LBE59:
	.loc 1 152 20 view .LVU249
	subl	$1, %r9d
.LVL66:
.LBB60:
	.loc 1 151 61 view .LVU250
	leaq	(%r14,%rsi,4), %rsi
	.loc 1 151 55 view .LVU251
	movl	(%rsi), %ebx
	movl	%ebx, (%rax)
.LVL67:
	.loc 1 151 69 is_stmt 1 view .LVU252
	.loc 1 151 80 is_stmt 0 view .LVU253
	movl	%ecx, (%rsi)
.LBE60:
	.loc 1 151 90 is_stmt 1 view .LVU254
	.loc 1 152 16 view .LVU255
.LVL68:
	.loc 1 152 24 view .LVU256
	.loc 1 153 16 view .LVU257
	jmp	.L59
.LVL69:
	.p2align 4,,10
	.p2align 3
.L24:
	.loc 1 153 16 is_stmt 0 view .LVU258
.LBE77:
.LBE83:
	.loc 1 281 51 is_stmt 1 discriminator 2 view .LVU259
	.loc 1 281 53 is_stmt 0 discriminator 2 view .LVU260
	addl	$32, %eax
.LVL70:
	.loc 1 281 36 is_stmt 1 discriminator 2 view .LVU261
	.loc 1 281 30 is_stmt 0 discriminator 2 view .LVU262
	movl	%eax, %edx
	sarl	$5, %edx
	movslq	%edx, %rdx
	.loc 1 281 25 discriminator 2 view .LVU263
	movl	(%r15,%rdx,4), %edx
.L153:
	.loc 1 281 36 discriminator 2 view .LVU264
	cmpl	$-1, %edx
	je	.L24
	.loc 1 282 20 is_stmt 1 view .LVU265
	.loc 1 282 50 is_stmt 0 view .LVU266
	movl	%r13d, %ebx
	movl	%eax, %ecx
	sall	%cl, %ebx
	.loc 1 282 20 view .LVU267
	testl	%edx, %ebx
	je	.L168
	.loc 1 282 20 view .LVU268
	movl	%eax, %ecx
.LVL71:
	.p2align 4,,10
	.p2align 3
.L25:
	.loc 1 282 67 is_stmt 1 discriminator 2 view .LVU269
	movl	%ecx, %esi
	.loc 1 282 68 is_stmt 0 discriminator 2 view .LVU270
	addl	$1, %ecx
.LVL72:
	.loc 1 282 20 is_stmt 1 discriminator 2 view .LVU271
	.loc 1 282 50 is_stmt 0 discriminator 2 view .LVU272
	movl	%r13d, %eax
	.loc 1 282 31 discriminator 2 view .LVU273
	movl	%ecx, %edx
	.loc 1 282 50 discriminator 2 view .LVU274
	sall	%cl, %eax
	.loc 1 282 31 discriminator 2 view .LVU275
	sarl	$5, %edx
	movslq	%edx, %rdx
	.loc 1 282 37 discriminator 2 view .LVU276
	andl	(%r15,%rdx,4), %eax
	.loc 1 282 20 discriminator 2 view .LVU277
	jne	.L25
	movl	%esi, 32(%rsp)
	movl	%ecx, %eax
	.loc 1 284 10 is_stmt 1 view .LVU278
.LVL73:
	.loc 1 285 10 view .LVU279
	.loc 1 285 13 is_stmt 0 view .LVU280
	movl	32(%rsp), %edi
	cmpl	%edi, 24(%rsp)
	jg	.L139
.LVL74:
.L145:
	.loc 1 285 13 view .LVU281
	movq	%r15, %rax
	.loc 1 308 10 view .LVU282
	cmpl	$3, 60(%rsp)
	movq	%r14, %r15
	movq	%r12, %r14
.LVL75:
	.loc 1 308 10 view .LVU283
	movq	%rax, %r12
.LVL76:
	.loc 1 308 7 is_stmt 1 view .LVU284
	.loc 1 308 10 is_stmt 0 view .LVU285
	jle	.L75
	.loc 1 309 10 is_stmt 1 view .LVU286
.LVL77:
.LBB84:
.LBI84:
	.file 2 "/usr/include/x86_64-linux-gnu/bits/stdio2.h"
	.loc 2 103 1 view .LVU287
.LBB85:
	.loc 2 105 3 view .LVU288
	.loc 2 105 10 is_stmt 0 view .LVU289
	movl	44(%rsp), %ecx
	movq	stderr(%rip), %rdi
	leaq	.LC2(%rip), %rdx
	xorl	%eax, %eax
	movl	$1, %esi
	call	__fprintf_chk@PLT
.LVL78:
.L75:
	.loc 2 105 10 view .LVU290
.LBE85:
.LBE84:
	.loc 1 311 7 is_stmt 1 view .LVU291
	.loc 1 311 9 is_stmt 0 view .LVU292
	sall	56(%rsp)
.LVL79:
	.loc 1 311 9 view .LVU293
	movl	56(%rsp), %eax
.LVL80:
	.loc 1 312 7 is_stmt 1 view .LVU294
	.loc 1 312 10 is_stmt 0 view .LVU295
	cmpl	%eax, 24(%rsp)
	jl	.L95
	movl	44(%rsp), %edx
	testl	%edx, %edx
	jne	.L76
.L95:
	.loc 1 320 7 view .LVU296
	cmpl	$3, 60(%rsp)
	movq	%r15, %r12
	movq	%r14, %r13
	.loc 1 320 4 is_stmt 1 view .LVU297
	.loc 1 320 7 is_stmt 0 view .LVU298
	jg	.L169
.LVL81:
.L156:
	.loc 1 323 18 is_stmt 1 view .LVU299
	movl	24(%rsp), %eax
	testl	%eax, %eax
	jle	.L1
	.loc 1 324 22 is_stmt 0 view .LVU300
	movl	880(%rsp), %edx
	movq	72(%rsp), %rdi
	xorl	%esi, %esi
	xorl	%ecx, %ecx
.LVL82:
.L81:
	.loc 1 324 26 is_stmt 1 view .LVU301
	leal	1(%rcx), %eax
	cltq
	testl	%edx, %edx
	jne	.L86
	.p2align 4,,10
	.p2align 3
.L83:
.LVL83:
	.loc 1 324 32 discriminator 2 view .LVU302
	.loc 1 324 33 is_stmt 0 discriminator 2 view .LVU303
	movl	%eax, %ecx
.LVL84:
	.loc 1 324 26 is_stmt 1 discriminator 2 view .LVU304
	addq	$1, %rax
.LVL85:
	.loc 1 324 22 is_stmt 0 discriminator 2 view .LVU305
	movl	-4(%rdi,%rax,4), %edx
	.loc 1 324 26 discriminator 2 view .LVU306
	testl	%edx, %edx
	je	.L83
.L86:
	.loc 1 325 7 is_stmt 1 discriminator 2 view .LVU307
	.loc 1 325 18 is_stmt 0 discriminator 2 view .LVU308
	movslq	%ecx, %rax
	subl	$1, %edx
	movl	%edx, 880(%rsp,%rax,4)
	.loc 1 326 7 is_stmt 1 discriminator 2 view .LVU309
	.loc 1 326 19 is_stmt 0 discriminator 2 view .LVU310
	movl	(%r12,%rsi,4), %eax
	.loc 1 323 18 discriminator 2 view .LVU311
	addq	$1, %rsi
.LVL86:
	.loc 1 326 26 discriminator 2 view .LVU312
	movb	%cl, 0(%r13,%rax)
	.loc 1 323 29 is_stmt 1 discriminator 2 view .LVU313
	.loc 1 323 18 discriminator 2 view .LVU314
	cmpl	%esi, 24(%rsp)
	jg	.L81
	.loc 1 328 6 view .LVU315
	.loc 1 328 9 is_stmt 0 view .LVU316
	cmpl	$255, %ecx
	jg	.L170
.LVL87:
.L1:
	.loc 1 329 1 view .LVU317
	movq	2936(%rsp), %rax
	subq	%fs:40, %rax
	jne	.L157
	addq	$2952, %rsp
	.cfi_remember_state
	.cfi_def_cfa_offset 56
	popq	%rbx
	.cfi_def_cfa_offset 48
	popq	%rbp
	.cfi_def_cfa_offset 40
	popq	%r12
	.cfi_def_cfa_offset 32
.LVL88:
	.loc 1 329 1 view .LVU318
	popq	%r13
	.cfi_def_cfa_offset 24
.LVL89:
	.loc 1 329 1 view .LVU319
	popq	%r14
	.cfi_def_cfa_offset 16
.LVL90:
	.loc 1 329 1 view .LVU320
	popq	%r15
	.cfi_def_cfa_offset 8
.LVL91:
	.loc 1 329 1 view .LVU321
	ret
.LVL92:
	.p2align 4,,10
	.p2align 3
.L29:
	.cfi_restore_state
	.loc 1 288 51 is_stmt 1 discriminator 2 view .LVU322
	.loc 1 288 53 is_stmt 0 discriminator 2 view .LVU323
	addl	$32, %ecx
.LVL93:
	.loc 1 288 36 is_stmt 1 discriminator 2 view .LVU324
	.loc 1 288 30 is_stmt 0 discriminator 2 view .LVU325
	movl	%ecx, %edx
	sarl	$5, %edx
	movslq	%edx, %rdx
	.loc 1 288 25 discriminator 2 view .LVU326
	movl	(%r15,%rdx,4), %edx
.L154:
	.loc 1 288 36 discriminator 2 view .LVU327
	testl	%edx, %edx
	je	.L29
	.loc 1 289 20 is_stmt 1 view .LVU328
	.loc 1 289 51 is_stmt 0 view .LVU329
	movl	%r13d, %esi
	sall	%cl, %esi
	.loc 1 289 20 view .LVU330
	testl	%edx, %esi
	jne	.L171
	.p2align 4,,10
	.p2align 3
.L30:
	.loc 1 289 68 is_stmt 1 discriminator 2 view .LVU331
	movl	%ecx, %edi
	.loc 1 289 69 is_stmt 0 discriminator 2 view .LVU332
	addl	$1, %ecx
.LVL94:
	.loc 1 289 20 is_stmt 1 discriminator 2 view .LVU333
	.loc 1 289 51 is_stmt 0 discriminator 2 view .LVU334
	movl	%r13d, %edx
	.loc 1 289 32 discriminator 2 view .LVU335
	movl	%ecx, %esi
	.loc 1 289 51 discriminator 2 view .LVU336
	sall	%cl, %edx
	.loc 1 289 32 discriminator 2 view .LVU337
	sarl	$5, %esi
	movslq	%esi, %rsi
	.loc 1 289 38 discriminator 2 view .LVU338
	andl	(%r15,%rsi,4), %edx
	.loc 1 289 20 discriminator 2 view .LVU339
	je	.L30
	movl	%edi, 20(%rsp)
.LVL95:
	.loc 1 289 20 discriminator 2 view .LVU340
	jmp	.L26
.LVL96:
	.p2align 4,,10
	.p2align 3
.L167:
.LBB86:
.LBB78:
	.loc 1 158 10 is_stmt 1 view .LVU341
.LBB61:
	.loc 1 159 12 view .LVU342
	.loc 1 159 30 is_stmt 0 view .LVU343
	movl	(%r10), %esi
.LVL97:
	.loc 1 159 38 is_stmt 1 view .LVU344
	.loc 1 159 49 is_stmt 0 view .LVU345
	movl	%ecx, (%r10)
.LVL98:
	.loc 1 159 63 is_stmt 1 view .LVU346
	.loc 1 159 74 is_stmt 0 view .LVU347
	movl	%esi, (%rax)
.LVL99:
.L155:
	.loc 1 159 74 view .LVU348
.LBE61:
	.loc 1 159 84 is_stmt 1 view .LVU349
	.loc 1 159 86 view .LVU350
	.loc 1 159 90 is_stmt 0 view .LVU351
	movl	%r11d, %ebx
.LVL100:
	.loc 1 159 94 is_stmt 1 view .LVU352
	.loc 1 135 13 view .LVU353
.L55:
	.loc 1 135 7 view .LVU354
	.loc 1 136 10 view .LVU355
	.loc 1 137 13 view .LVU356
	.loc 1 137 16 is_stmt 0 view .LVU357
	addq	$4, %r10
	addl	$1, %r11d
	addl	$1, %edi
	cmpl	%edx, %ebx
	jle	.L52
.LVL101:
.L53:
	.loc 1 158 10 is_stmt 1 view .LVU358
	.loc 1 162 7 view .LVU359
	.loc 1 164 7 view .LVU360
	.loc 1 164 10 is_stmt 0 view .LVU361
	movl	8(%rsp), %edi
	cmpl	%r9d, %edi
	jle	.L172
.LVL102:
.L35:
	.loc 1 177 54 is_stmt 1 view .LVU362
	.loc 1 109 14 view .LVU363
	movl	28(%rsp), %eax
	testl	%eax, %eax
	je	.L70
	.loc 1 113 11 is_stmt 0 view .LVU364
	movl	16(%rsp), %ebx
	movl	%eax, 16(%rsp)
	subl	$2, %ebx
.LVL103:
.L88:
	.loc 1 111 9 is_stmt 1 view .LVU365
	.loc 1 111 12 is_stmt 0 view .LVU366
	cmpl	$98, 16(%rsp)
	jle	.L72
	.loc 1 111 30 is_stmt 1 view .LVU367
	movl	$1004, %edi
	call	BZ2_bz__AssertH__fail@PLT
.LVL104:
.L72:
	.loc 1 113 18 is_stmt 0 view .LVU368
	movslq	%ebx, %rax
	movl	80(%rsp,%rax,4), %ebx
	.loc 1 113 36 view .LVU369
	movl	480(%rsp,%rax,4), %ebp
	.loc 1 113 18 view .LVU370
	movl	%ebx, 12(%rsp)
	jmp	.L33
.LVL105:
	.p2align 4,,10
	.p2align 3
.L166:
.LBB62:
	.loc 1 140 18 is_stmt 1 view .LVU371
	.loc 1 140 44 view .LVU372
	.loc 1 140 61 is_stmt 0 view .LVU373
	movslq	8(%rsp), %rax
.LVL106:
	.loc 1 140 61 view .LVU374
	movq	%rax, %rbx
.LVL107:
	.loc 1 140 61 view .LVU375
	leaq	(%r14,%rax,4), %rax
	movl	(%rax), %esi
.LBE62:
	.loc 1 141 20 view .LVU376
	addl	$1, %ebx
	movl	%ebx, 8(%rsp)
.LVL108:
	.loc 1 141 28 view .LVU377
	movl	%r11d, %ebx
.LBB63:
	.loc 1 140 55 view .LVU378
	movl	%esi, (%r10)
.LVL109:
	.loc 1 140 69 is_stmt 1 view .LVU379
	.loc 1 140 80 is_stmt 0 view .LVU380
	movl	%ecx, (%rax)
.LBE63:
	.loc 1 140 90 is_stmt 1 view .LVU381
	.loc 1 141 16 view .LVU382
.LVL110:
	.loc 1 141 24 view .LVU383
	.loc 1 142 16 view .LVU384
	jmp	.L55
.LVL111:
.L165:
	.loc 1 115 10 view .LVU385
.LBB64:
.LBI64:
	.loc 1 32 6 view .LVU386
.LBB65:
	.loc 1 37 4 view .LVU387
	.loc 1 38 4 view .LVU388
	.loc 1 40 4 view .LVU389
	.loc 1 40 7 is_stmt 0 view .LVU390
	cmpl	%ebp, 12(%rsp)
	je	.L35
	.loc 1 42 4 is_stmt 1 view .LVU391
	.loc 1 42 7 is_stmt 0 view .LVU392
	cmpl	$3, %eax
	jle	.L38
	.loc 1 43 7 is_stmt 1 view .LVU393
	.loc 1 43 25 is_stmt 0 view .LVU394
	movl	12(%rsp), %ebx
	.loc 1 43 15 view .LVU395
	leal	-4(%rbp), %eax
.LVL112:
	.loc 1 43 25 is_stmt 1 view .LVU396
	cmpl	%ebx, %eax
	jl	.L38
	cltq
	.loc 1 43 25 is_stmt 0 view .LVU397
	movl	%ebp, %r8d
	leal	3(%rbx), %r11d
	leaq	16(,%rax,4), %r9
.LVL113:
	.p2align 4,,10
	.p2align 3
.L43:
	.loc 1 44 10 is_stmt 1 view .LVU398
	.loc 1 44 20 is_stmt 0 view .LVU399
	movslq	-16(%r14,%r9), %rax
	.loc 1 46 18 view .LVU400
	movl	%r8d, %edx
	.loc 1 45 17 view .LVU401
	movl	(%r12,%rax,4), %edi
	.loc 1 44 20 view .LVU402
	movq	%rax, %r10
.LVL114:
	.loc 1 45 10 is_stmt 1 view .LVU403
	.loc 1 46 10 view .LVU404
	.loc 1 46 33 view .LVU405
	movslq	%r8d, %rax
.LVL115:
	.loc 1 46 33 is_stmt 0 view .LVU406
	salq	$2, %rax
	cmpl	%ebp, %r8d
	jle	.L41
	jmp	.L173
.LVL116:
	.p2align 4,,10
	.p2align 3
.L42:
	.loc 1 47 13 is_stmt 1 view .LVU407
	.loc 1 46 64 is_stmt 0 view .LVU408
	addl	$4, %edx
.LVL117:
	.loc 1 47 23 view .LVU409
	movl	%ecx, -16(%r14,%rax)
	.loc 1 46 64 is_stmt 1 view .LVU410
.LVL118:
	.loc 1 46 33 view .LVU411
	addq	$16, %rax
	cmpl	%ebp, %edx
	jg	.L174
.L41:
	.loc 1 46 56 is_stmt 0 view .LVU412
	movl	(%r14,%rax), %esi
	movq	%rsi, %rcx
	.loc 1 46 33 view .LVU413
	cmpl	(%r12,%rsi,4), %edi
	ja	.L42
.LVL119:
.L40:
	.loc 1 48 10 is_stmt 1 view .LVU414
	.loc 1 43 25 is_stmt 0 view .LVU415
	subl	$1, %r8d
.LVL120:
	.loc 1 48 20 view .LVU416
	movl	%r10d, -16(%r14,%rax)
	.loc 1 43 33 is_stmt 1 view .LVU417
.LVL121:
	.loc 1 43 25 view .LVU418
	subq	$4, %r9
	cmpl	%r8d, %r11d
	jne	.L43
.LVL122:
.L38:
	.loc 1 52 4 view .LVU419
	.loc 1 52 12 is_stmt 0 view .LVU420
	leal	-1(%rbp), %eax
.LVL123:
	.loc 1 52 22 is_stmt 1 view .LVU421
	cmpl	12(%rsp), %eax
	jl	.L35
	cltq
	.loc 1 52 22 is_stmt 0 view .LVU422
	movl	12(%rsp), %r11d
	movl	%ebp, %r8d
	leaq	4(,%rax,4), %r9
.LVL124:
	.p2align 4,,10
	.p2align 3
.L48:
	.loc 1 53 7 is_stmt 1 view .LVU423
	.loc 1 53 17 is_stmt 0 view .LVU424
	movslq	-4(%r14,%r9), %rax
	.loc 1 55 15 view .LVU425
	movl	%r8d, %edx
	.loc 1 54 14 view .LVU426
	movl	(%r12,%rax,4), %edi
	.loc 1 53 17 view .LVU427
	movq	%rax, %r10
.LVL125:
	.loc 1 54 7 is_stmt 1 view .LVU428
	.loc 1 55 7 view .LVU429
	.loc 1 55 30 view .LVU430
	movslq	%r8d, %rax
.LVL126:
	.loc 1 55 30 is_stmt 0 view .LVU431
	salq	$2, %rax
	cmpl	%ebp, %r8d
	jle	.L46
	jmp	.L175
.LVL127:
	.p2align 4,,10
	.p2align 3
.L47:
	.loc 1 56 10 is_stmt 1 view .LVU432
	.loc 1 55 60 is_stmt 0 view .LVU433
	addl	$1, %edx
.LVL128:
	.loc 1 56 20 view .LVU434
	movl	%ecx, -4(%r14,%rax)
	.loc 1 55 60 is_stmt 1 view .LVU435
.LVL129:
	.loc 1 55 30 view .LVU436
	addq	$4, %rax
	cmpl	%ebp, %edx
	jg	.L176
.L46:
	.loc 1 55 53 is_stmt 0 view .LVU437
	movl	(%r14,%rax), %esi
	movq	%rsi, %rcx
	.loc 1 55 30 view .LVU438
	cmpl	(%r12,%rsi,4), %edi
	ja	.L47
.LVL130:
.L45:
	.loc 1 57 7 is_stmt 1 view .LVU439
	.loc 1 52 22 is_stmt 0 view .LVU440
	subl	$1, %r8d
.LVL131:
	.loc 1 57 17 view .LVU441
	movl	%r10d, -4(%r14,%rax)
	.loc 1 52 30 is_stmt 1 view .LVU442
.LVL132:
	.loc 1 52 22 view .LVU443
	subq	$4, %r9
	cmpl	%r11d, %r8d
	jne	.L48
	jmp	.L35
.LVL133:
	.p2align 4,,10
	.p2align 3
.L176:
	.loc 1 57 11 is_stmt 0 view .LVU444
	movslq	%edx, %rdx
	.loc 1 57 11 view .LVU445
	leaq	0(,%rdx,4), %rax
	jmp	.L45
.LVL134:
.L174:
	.loc 1 48 14 view .LVU446
	movslq	%edx, %rdx
	.loc 1 48 14 view .LVU447
	leaq	0(,%rdx,4), %rax
	jmp	.L40
.LVL135:
.L161:
	.loc 1 48 14 view .LVU448
	movl	%ecx, %eax
.LVL136:
	.loc 1 48 14 view .LVU449
.LBE65:
.LBE64:
.LBE78:
.LBE86:
	.loc 1 281 36 is_stmt 1 view .LVU450
	jmp	.L153
.LVL137:
.L49:
.LBB87:
.LBB79:
	.loc 1 129 7 view .LVU451
	.loc 1 129 10 is_stmt 0 view .LVU452
	cmpl	$1, %eax
	je	.L177
	.loc 1 130 20 is_stmt 1 view .LVU453
	.loc 1 130 37 is_stmt 0 view .LVU454
	movslq	%ebp, %rax
.LVL138:
	.loc 1 130 37 view .LVU455
	movl	(%r14,%rax,4), %eax
	.loc 1 130 24 view .LVU456
	movl	(%r12,%rax,4), %r8d
.LVL139:
	.loc 1 130 24 view .LVU457
	jmp	.L50
.LVL140:
	.p2align 4,,10
	.p2align 3
.L172:
	.loc 1 166 7 is_stmt 1 view .LVU458
	.loc 1 166 29 is_stmt 0 view .LVU459
	movl	%ebx, %eax
	subl	%edi, %eax
	.loc 1 166 17 view .LVU460
	subl	12(%rsp), %edi
	.loc 1 166 9 view .LVU461
	cmpl	%edi, %eax
	.loc 1 166 17 view .LVU462
	movl	%edi, %ecx
	.loc 1 166 9 view .LVU463
	cmovle	%eax, %ecx
.LVL141:
.LBB68:
	.loc 1 166 66 is_stmt 1 view .LVU464
	.loc 1 166 85 view .LVU465
	.loc 1 166 91 is_stmt 0 view .LVU466
	movl	%ebx, %eax
	subl	%ecx, %eax
.LVL142:
	.loc 1 166 108 is_stmt 1 view .LVU467
	.loc 1 166 125 view .LVU468
	.loc 1 166 136 view .LVU469
	testl	%ecx, %ecx
	jle	.L65
	movq	48(%rsp), %rdi
	subl	$1, %ecx
.LVL143:
	.loc 1 166 136 is_stmt 0 view .LVU470
	cltq
	.loc 1 166 136 view .LVU471
	addq	%rdi, %rcx
	subq	%rdi, %rax
.LVL144:
	.loc 1 166 136 view .LVU472
	leaq	4(%r14,%rcx,4), %rsi
.LVL145:
	.p2align 4,,10
	.p2align 3
.L64:
.LBB69:
	.loc 1 166 145 is_stmt 1 view .LVU473
	.loc 1 166 163 is_stmt 0 view .LVU474
	movl	(%r15), %ecx
.LVL146:
	.loc 1 166 171 is_stmt 1 view .LVU475
	.loc 1 166 188 is_stmt 0 view .LVU476
	movl	(%r15,%rax,4), %edi
	.loc 1 166 182 view .LVU477
	movl	%edi, (%r15)
	.loc 1 166 196 is_stmt 1 view .LVU478
	.loc 1 166 207 is_stmt 0 view .LVU479
	movl	%ecx, (%r15,%rax,4)
.LBE69:
	.loc 1 166 217 is_stmt 1 view .LVU480
	.loc 1 166 219 view .LVU481
.LVL147:
	.loc 1 166 227 view .LVU482
	.loc 1 166 235 view .LVU483
	.loc 1 166 136 view .LVU484
	addq	$4, %r15
.LVL148:
	.loc 1 166 136 is_stmt 0 view .LVU485
	cmpq	%r15, %rsi
	jne	.L64
.LVL149:
.L65:
	.loc 1 166 136 view .LVU486
.LBE68:
	.loc 1 166 245 is_stmt 1 view .LVU487
	.loc 1 167 7 view .LVU488
	.loc 1 167 29 is_stmt 0 view .LVU489
	movl	%r9d, %ecx
	.loc 1 167 15 view .LVU490
	movl	%ebp, %edi
	.loc 1 167 29 view .LVU491
	subl	%edx, %ecx
	.loc 1 167 15 view .LVU492
	subl	%r9d, %edi
.LBB70:
	.loc 1 167 103 view .LVU493
	movl	%ebp, %edx
.LVL150:
	.loc 1 167 103 view .LVU494
.LBE70:
	.loc 1 167 9 view .LVU495
	cmpl	%ecx, %edi
	cmovg	%ecx, %edi
.LVL151:
.LBB72:
	.loc 1 167 66 is_stmt 1 view .LVU496
	.loc 1 167 87 view .LVU497
	.loc 1 167 103 is_stmt 0 view .LVU498
	subl	%edi, %edx
.LVL152:
	.loc 1 167 110 is_stmt 1 view .LVU499
	.loc 1 167 127 view .LVU500
	.loc 1 167 138 view .LVU501
	testl	%edi, %edi
	jle	.L63
	movslq	%ebx, %rsi
	subl	$1, %edi
.LVL153:
	.loc 1 167 138 is_stmt 0 view .LVU502
	movslq	%edx, %rdx
	.loc 1 167 138 view .LVU503
	addq	%rsi, %rdi
	leaq	(%r14,%rsi,4), %rax
	subq	%rsi, %rdx
.LVL154:
	.loc 1 167 138 view .LVU504
	leaq	4(%r14,%rdi,4), %rdi
.LVL155:
	.p2align 4,,10
	.p2align 3
.L68:
.LBB71:
	.loc 1 167 147 is_stmt 1 view .LVU505
	.loc 1 167 165 is_stmt 0 view .LVU506
	movl	(%rax), %esi
.LVL156:
	.loc 1 167 173 is_stmt 1 view .LVU507
	.loc 1 167 190 is_stmt 0 view .LVU508
	movl	4(%rax,%rdx,4), %r8d
	.loc 1 167 184 view .LVU509
	movl	%r8d, (%rax)
	.loc 1 167 198 is_stmt 1 view .LVU510
	.loc 1 167 209 is_stmt 0 view .LVU511
	movl	%esi, 4(%rax,%rdx,4)
.LBE71:
	.loc 1 167 219 is_stmt 1 view .LVU512
	.loc 1 167 221 view .LVU513
.LVL157:
	.loc 1 167 229 view .LVU514
	.loc 1 167 237 view .LVU515
	.loc 1 167 138 view .LVU516
	addq	$4, %rax
.LVL158:
	.loc 1 167 138 is_stmt 0 view .LVU517
	cmpq	%rax, %rdi
	jne	.L68
.LVL159:
.L63:
	.loc 1 167 138 view .LVU518
.LBE72:
	.loc 1 167 247 is_stmt 1 view .LVU519
	.loc 1 169 7 view .LVU520
	.loc 1 169 14 is_stmt 0 view .LVU521
	movl	12(%rsp), %r11d
	.loc 1 170 14 view .LVU522
	movl	%ebp, %edx
	subl	%ecx, %edx
	.loc 1 172 23 view .LVU523
	movl	%ebp, %ecx
.LVL160:
	.loc 1 169 14 view .LVU524
	leal	(%rbx,%r11), %eax
	.loc 1 169 21 view .LVU525
	subl	8(%rsp), %eax
	.loc 1 174 49 view .LVU526
	movl	16(%rsp), %ebx
.LVL161:
	.loc 1 170 9 view .LVU527
	addl	$1, %edx
	.loc 1 169 9 view .LVU528
	subl	$1, %eax
.LVL162:
	.loc 1 170 7 is_stmt 1 view .LVU529
	.loc 1 172 7 view .LVU530
	.loc 1 172 23 is_stmt 0 view .LVU531
	subl	%edx, %ecx
	.loc 1 172 13 view .LVU532
	movl	%eax, %edi
	.loc 1 174 49 view .LVU533
	leal	1(%rbx), %esi
	.loc 1 172 13 view .LVU534
	subl	%r11d, %edi
	.loc 1 172 10 view .LVU535
	cmpl	%ecx, %edi
	jle	.L178
	.loc 1 173 12 is_stmt 1 view .LVU536
	.loc 1 173 30 view .LVU537
	.loc 1 173 42 is_stmt 0 view .LVU538
	movslq	28(%rsp), %rcx
	movl	%eax, 480(%rsp,%rcx,4)
.LVL163:
	.loc 1 173 47 is_stmt 1 view .LVU539
	.loc 1 173 54 view .LVU540
	.loc 1 174 12 view .LVU541
	.loc 1 174 29 view .LVU542
	.loc 1 174 47 view .LVU543
	.loc 1 174 54 view .LVU544
	movl	%ebp, %eax
.LVL164:
.L69:
	.loc 1 174 24 is_stmt 0 view .LVU545
	movslq	16(%rsp), %rcx
	.loc 1 174 41 view .LVU546
	movl	%esi, 16(%rsp)
	.loc 1 174 24 view .LVU547
	movl	%edx, 80(%rsp,%rcx,4)
	movq	%rcx, %rbx
	.loc 1 174 41 view .LVU548
	movl	%eax, 480(%rsp,%rcx,4)
.LVL165:
	.loc 1 177 54 is_stmt 1 view .LVU549
	.loc 1 109 14 view .LVU550
	jmp	.L88
.LVL166:
.L175:
.LBB73:
.LBB66:
	.loc 1 55 30 is_stmt 0 view .LVU551
	movq	%r9, %rax
	jmp	.L45
.LVL167:
.L178:
	.loc 1 55 30 view .LVU552
.LBE66:
.LBE73:
	.loc 1 176 12 is_stmt 1 view .LVU553
	.loc 1 176 24 is_stmt 0 view .LVU554
	movslq	28(%rsp), %rcx
	movl	%edx, 80(%rsp,%rcx,4)
.LVL168:
	.loc 1 176 29 is_stmt 1 view .LVU555
	.loc 1 176 47 view .LVU556
	.loc 1 176 54 view .LVU557
	.loc 1 177 12 view .LVU558
	.loc 1 177 30 view .LVU559
	.loc 1 177 47 view .LVU560
	.loc 1 176 24 is_stmt 0 view .LVU561
	movl	12(%rsp), %edx
.LVL169:
	.loc 1 176 24 view .LVU562
	jmp	.L69
.LVL170:
.L70:
	.loc 1 176 24 view .LVU563
	movq	64(%rsp), %r15
.LVL171:
	.loc 1 176 24 view .LVU564
.LBE79:
.LBE87:
	.loc 1 301 27 is_stmt 1 view .LVU565
	movslq	32(%rsp), %rcx
	.loc 1 300 16 is_stmt 0 view .LVU566
	movl	$-1, %eax
	movl	20(%rsp), %edi
.LVL172:
	.p2align 4,,10
	.p2align 3
.L74:
	.loc 1 302 16 is_stmt 1 view .LVU567
	movl	%eax, %edx
	.loc 1 302 33 is_stmt 0 view .LVU568
	movl	(%r14,%rcx,4), %eax
.LVL173:
	.loc 1 302 20 view .LVU569
	movl	(%r12,%rax,4), %eax
.LVL174:
	.loc 1 303 16 is_stmt 1 view .LVU570
	.loc 1 303 19 is_stmt 0 view .LVU571
	cmpl	%edx, %eax
	je	.L73
	.loc 1 303 33 is_stmt 1 discriminator 1 view .LVU572
	.loc 1 303 49 is_stmt 0 discriminator 1 view .LVU573
	movl	%ecx, %edx
.LVL175:
	.loc 1 303 63 discriminator 1 view .LVU574
	movl	%r13d, %esi
	.loc 1 303 49 discriminator 1 view .LVU575
	sarl	$5, %edx
	.loc 1 303 63 discriminator 1 view .LVU576
	sall	%cl, %esi
	.loc 1 303 49 discriminator 1 view .LVU577
	movslq	%edx, %rdx
	orl	%esi, (%r15,%rdx,4)
	.loc 1 303 79 is_stmt 1 discriminator 1 view .LVU578
.LVL176:
.L73:
	.loc 1 303 90 discriminator 3 view .LVU579
	.loc 1 301 34 discriminator 3 view .LVU580
	.loc 1 301 27 discriminator 3 view .LVU581
	addq	$1, %rcx
.LVL177:
	.loc 1 301 27 is_stmt 0 discriminator 3 view .LVU582
	cmpl	%ecx, %edi
	jge	.L74
	jmp	.L15
.LVL178:
.L177:
.LBB88:
.LBB80:
	.loc 1 129 20 is_stmt 1 view .LVU583
	.loc 1 129 41 is_stmt 0 view .LVU584
	movl	12(%rsp), %eax
.LVL179:
	.loc 1 129 41 view .LVU585
	addl	%ebp, %eax
	.loc 1 129 45 view .LVU586
	sarl	%eax
	cltq
	.loc 1 129 37 view .LVU587
	movl	(%r14,%rax,4), %eax
	.loc 1 129 24 view .LVU588
	movl	(%r12,%rax,4), %r8d
.LVL180:
	.loc 1 129 24 view .LVU589
	jmp	.L50
.LVL181:
.L173:
.LBB74:
.LBB67:
	.loc 1 46 33 view .LVU590
	movq	%r9, %rax
	jmp	.L40
.LVL182:
.L93:
	.loc 1 46 33 view .LVU591
.LBE67:
.LBE74:
.LBE80:
.LBE88:
	.loc 1 279 63 view .LVU592
	movl	20(%rsp), %ebx
	movl	%ebx, 32(%rsp)
	jmp	.L20
.L163:
	.loc 1 288 30 view .LVU593
	movl	%eax, %edx
	sarl	$5, %edx
	movslq	%edx, %rdx
	.loc 1 288 25 view .LVU594
	movl	(%r15,%rdx,4), %edx
	jmp	.L154
.LVL183:
.L160:
	.loc 1 264 10 is_stmt 1 view .LVU595
.LBB89:
.LBI89:
	.loc 2 103 1 view .LVU596
.LBB90:
	.loc 2 105 3 view .LVU597
	.loc 2 105 10 is_stmt 0 view .LVU598
	movl	56(%rsp), %ecx
	movq	stderr(%rip), %rdi
	leaq	.LC1(%rip), %rdx
	xorl	%eax, %eax
	movl	$1, %esi
	call	__fprintf_chk@PLT
.LVL184:
	.loc 2 105 10 view .LVU599
	jmp	.L13
.LVL185:
.L168:
	.loc 2 105 10 view .LVU600
.LBE90:
.LBE89:
	.loc 1 284 12 view .LVU601
	leal	-1(%rax), %ebx
	movl	%ebx, 32(%rsp)
	jmp	.L20
.LVL186:
.L171:
	.loc 1 291 12 view .LVU602
	leal	-1(%rcx), %ebx
	movl	%ebx, 20(%rsp)
.LVL187:
	.loc 1 291 12 view .LVU603
	jmp	.L26
.LVL188:
.L159:
	.loc 1 230 7 is_stmt 1 view .LVU604
.LBB91:
.LBI91:
	.loc 2 103 1 view .LVU605
.LBB92:
	.loc 2 105 3 view .LVU606
	.loc 2 105 10 is_stmt 0 view .LVU607
	movq	stderr(%rip), %rcx
.LVL189:
	.loc 2 105 10 view .LVU608
	movl	$27, %edx
.LVL190:
	.loc 2 105 10 view .LVU609
	movl	$1, %esi
.LVL191:
	.loc 2 105 10 view .LVU610
	leaq	.LC0(%rip), %rdi
.LVL192:
	.loc 2 105 10 view .LVU611
	call	fwrite@PLT
.LVL193:
	.loc 2 105 10 view .LVU612
	jmp	.L2
.LVL194:
.L170:
	.loc 2 105 10 view .LVU613
.LBE92:
.LBE91:
	.loc 1 328 22 is_stmt 1 discriminator 1 view .LVU614
	movq	2936(%rsp), %rax
	subq	%fs:40, %rax
	jne	.L157
	.loc 1 329 1 is_stmt 0 discriminator 1 view .LVU615
	addq	$2952, %rsp
	.cfi_remember_state
	.cfi_def_cfa_offset 56
	.loc 1 328 22 discriminator 1 view .LVU616
	movl	$1005, %edi
	.loc 1 329 1 discriminator 1 view .LVU617
	popq	%rbx
	.cfi_def_cfa_offset 48
	popq	%rbp
	.cfi_def_cfa_offset 40
	popq	%r12
	.cfi_def_cfa_offset 32
.LVL195:
	.loc 1 329 1 discriminator 1 view .LVU618
	popq	%r13
	.cfi_def_cfa_offset 24
.LVL196:
	.loc 1 329 1 discriminator 1 view .LVU619
	popq	%r14
	.cfi_def_cfa_offset 16
.LVL197:
	.loc 1 329 1 discriminator 1 view .LVU620
	popq	%r15
	.cfi_def_cfa_offset 8
.LVL198:
	.loc 1 328 22 discriminator 1 view .LVU621
	jmp	BZ2_bz__AssertH__fail@PLT
.LVL199:
.L169:
	.cfi_restore_state
	.loc 1 321 7 is_stmt 1 view .LVU622
.LBB93:
.LBI93:
	.loc 2 103 1 view .LVU623
.LBB94:
	.loc 2 105 3 view .LVU624
	.loc 2 105 10 is_stmt 0 view .LVU625
	movq	stderr(%rip), %rcx
	movl	$33, %edx
	movl	$1, %esi
	leaq	.LC3(%rip), %rdi
	call	fwrite@PLT
.LVL200:
	.loc 2 105 10 view .LVU626
	jmp	.L156
.LVL201:
.L7:
	.loc 2 105 10 view .LVU627
.LBE94:
.LBE93:
	.loc 1 243 4 is_stmt 1 view .LVU628
	.loc 1 244 4 view .LVU629
	.loc 1 244 18 view .LVU630
	cmpl	$-63, 24(%rsp)
	jl	.L9
	jmp	.L10
.LVL202:
.L157:
	.loc 1 329 1 is_stmt 0 view .LVU631
	call	__stack_chk_fail@PLT
.LVL203:
.L150:
	.loc 1 329 1 view .LVU632
	movl	36(%rsp), %ebx
	jmp	.L53
	.cfi_endproc
.LFE55:
	.size	fallbackSort, .-fallbackSort
	.p2align 4
	.type	mainGtU, @function
mainGtU:
.LVL204:
.LFB56:
	.loc 1 353 1 is_stmt 1 view -0
	.cfi_startproc
	.loc 1 354 4 view .LVU634
	.loc 1 355 4 view .LVU635
	.loc 1 356 4 view .LVU636
	.loc 1 358 4 view .LVU637
	.loc 1 360 4 view .LVU638
	.loc 1 353 1 is_stmt 0 view .LVU639
	movq	%rdx, %rax
	movq	%rcx, %r10
	.loc 1 360 30 view .LVU640
	movl	%esi, %edx
.LVL205:
	.loc 1 360 14 view .LVU641
	movl	%edi, %ecx
.LVL206:
	.loc 1 360 20 is_stmt 1 view .LVU642
	.loc 1 361 4 view .LVU643
	.loc 1 361 7 is_stmt 0 view .LVU644
	movzbl	(%rax,%rdx), %edx
.LVL207:
	.loc 1 361 7 view .LVU645
	cmpb	%dl, (%rax,%rcx)
	jne	.L217
	.loc 1 362 4 is_stmt 1 view .LVU646
.LVL208:
	.loc 1 362 10 view .LVU647
	.loc 1 364 4 view .LVU648
	.loc 1 364 20 view .LVU649
	.loc 1 364 30 is_stmt 0 view .LVU650
	leal	1(%rsi), %ecx
.LVL209:
	.loc 1 365 4 is_stmt 1 view .LVU651
	.loc 1 364 14 is_stmt 0 view .LVU652
	leal	1(%rdi), %edx
	.loc 1 365 7 view .LVU653
	movzbl	(%rax,%rcx), %ecx
.LVL210:
	.loc 1 365 7 view .LVU654
	cmpb	%cl, (%rax,%rdx)
	je	.L182
.LVL211:
.L217:
.LBB97:
.LBB98:
	.loc 1 405 18 is_stmt 1 view .LVU655
	.loc 1 405 29 is_stmt 0 view .LVU656
	seta	%al
.LVL212:
	.loc 1 405 29 view .LVU657
.LBE98:
.LBE97:
	.loc 1 469 1 view .LVU658
	ret
.LVL213:
	.p2align 4,,10
	.p2align 3
.L182:
	.loc 1 366 4 is_stmt 1 view .LVU659
	.loc 1 366 10 view .LVU660
	.loc 1 368 4 view .LVU661
	.loc 1 368 20 view .LVU662
	.loc 1 368 30 is_stmt 0 view .LVU663
	leal	2(%rsi), %ecx
.LVL214:
	.loc 1 369 4 is_stmt 1 view .LVU664
	.loc 1 368 14 is_stmt 0 view .LVU665
	leal	2(%rdi), %edx
	.loc 1 369 7 view .LVU666
	movzbl	(%rax,%rcx), %ecx
.LVL215:
	.loc 1 369 7 view .LVU667
	cmpb	%cl, (%rax,%rdx)
	jne	.L217
	.loc 1 370 4 is_stmt 1 view .LVU668
.LVL216:
	.loc 1 370 10 view .LVU669
	.loc 1 372 4 view .LVU670
	.loc 1 372 20 view .LVU671
	.loc 1 372 30 is_stmt 0 view .LVU672
	leal	3(%rsi), %ecx
.LVL217:
	.loc 1 373 4 is_stmt 1 view .LVU673
	.loc 1 372 14 is_stmt 0 view .LVU674
	leal	3(%rdi), %edx
	.loc 1 373 7 view .LVU675
	movzbl	(%rax,%rcx), %ecx
.LVL218:
	.loc 1 373 7 view .LVU676
	cmpb	%cl, (%rax,%rdx)
	jne	.L217
	.loc 1 374 4 is_stmt 1 view .LVU677
.LVL219:
	.loc 1 374 10 view .LVU678
	.loc 1 376 4 view .LVU679
	.loc 1 376 20 view .LVU680
	.loc 1 376 30 is_stmt 0 view .LVU681
	leal	4(%rsi), %ecx
.LVL220:
	.loc 1 377 4 is_stmt 1 view .LVU682
	.loc 1 376 14 is_stmt 0 view .LVU683
	leal	4(%rdi), %edx
	.loc 1 377 7 view .LVU684
	movzbl	(%rax,%rcx), %ecx
.LVL221:
	.loc 1 377 7 view .LVU685
	cmpb	%cl, (%rax,%rdx)
	jne	.L217
	.loc 1 378 4 is_stmt 1 view .LVU686
.LVL222:
	.loc 1 378 10 view .LVU687
	.loc 1 380 4 view .LVU688
	.loc 1 380 20 view .LVU689
	.loc 1 380 30 is_stmt 0 view .LVU690
	leal	5(%rsi), %ecx
.LVL223:
	.loc 1 381 4 is_stmt 1 view .LVU691
	.loc 1 380 14 is_stmt 0 view .LVU692
	leal	5(%rdi), %edx
	.loc 1 381 7 view .LVU693
	movzbl	(%rax,%rcx), %ecx
.LVL224:
	.loc 1 381 7 view .LVU694
	cmpb	%cl, (%rax,%rdx)
	jne	.L217
	.loc 1 382 4 is_stmt 1 view .LVU695
.LVL225:
	.loc 1 382 10 view .LVU696
	.loc 1 384 4 view .LVU697
	.loc 1 384 20 view .LVU698
	.loc 1 384 30 is_stmt 0 view .LVU699
	leal	6(%rsi), %ecx
.LVL226:
	.loc 1 385 4 is_stmt 1 view .LVU700
	.loc 1 384 14 is_stmt 0 view .LVU701
	leal	6(%rdi), %edx
	.loc 1 385 7 view .LVU702
	movzbl	(%rax,%rcx), %ecx
.LVL227:
	.loc 1 385 7 view .LVU703
	cmpb	%cl, (%rax,%rdx)
	jne	.L217
	.loc 1 386 4 is_stmt 1 view .LVU704
.LVL228:
	.loc 1 386 10 view .LVU705
	.loc 1 388 4 view .LVU706
	.loc 1 388 20 view .LVU707
	.loc 1 388 30 is_stmt 0 view .LVU708
	leal	7(%rsi), %ecx
.LVL229:
	.loc 1 389 4 is_stmt 1 view .LVU709
	.loc 1 388 14 is_stmt 0 view .LVU710
	leal	7(%rdi), %edx
	.loc 1 389 7 view .LVU711
	movzbl	(%rax,%rcx), %ecx
.LVL230:
	.loc 1 389 7 view .LVU712
	cmpb	%cl, (%rax,%rdx)
	jne	.L217
.LVL231:
.LBB102:
.LBI97:
	.loc 1 347 6 is_stmt 1 view .LVU713
.LBB99:
	.loc 1 390 4 view .LVU714
	.loc 1 390 10 view .LVU715
	.loc 1 392 4 view .LVU716
	.loc 1 392 20 view .LVU717
	.loc 1 392 30 is_stmt 0 view .LVU718
	leal	8(%rsi), %ecx
.LVL232:
	.loc 1 393 4 is_stmt 1 view .LVU719
	.loc 1 392 14 is_stmt 0 view .LVU720
	leal	8(%rdi), %edx
	.loc 1 393 7 view .LVU721
	movzbl	(%rax,%rcx), %ecx
.LVL233:
	.loc 1 393 7 view .LVU722
	cmpb	%cl, (%rax,%rdx)
	jne	.L217
	.loc 1 394 4 is_stmt 1 view .LVU723
.LVL234:
	.loc 1 394 10 view .LVU724
	.loc 1 396 4 view .LVU725
	.loc 1 396 20 view .LVU726
	.loc 1 396 30 is_stmt 0 view .LVU727
	leal	9(%rsi), %ecx
.LVL235:
	.loc 1 397 4 is_stmt 1 view .LVU728
	.loc 1 396 14 is_stmt 0 view .LVU729
	leal	9(%rdi), %edx
	.loc 1 397 7 view .LVU730
	movzbl	(%rax,%rcx), %ecx
.LVL236:
	.loc 1 397 7 view .LVU731
	cmpb	%cl, (%rax,%rdx)
	jne	.L217
	.loc 1 398 4 is_stmt 1 view .LVU732
.LVL237:
	.loc 1 398 10 view .LVU733
	.loc 1 400 4 view .LVU734
	.loc 1 400 20 view .LVU735
	.loc 1 400 30 is_stmt 0 view .LVU736
	leal	10(%rsi), %ecx
.LVL238:
	.loc 1 401 4 is_stmt 1 view .LVU737
	.loc 1 400 14 is_stmt 0 view .LVU738
	leal	10(%rdi), %edx
	.loc 1 401 7 view .LVU739
	movzbl	(%rax,%rcx), %ecx
.LVL239:
	.loc 1 401 7 view .LVU740
	cmpb	%cl, (%rax,%rdx)
	jne	.L217
	.loc 1 402 4 is_stmt 1 view .LVU741
.LVL240:
	.loc 1 402 10 view .LVU742
	.loc 1 404 4 view .LVU743
	.loc 1 404 20 view .LVU744
	.loc 1 404 30 is_stmt 0 view .LVU745
	leal	11(%rsi), %ecx
.LVL241:
	.loc 1 405 4 is_stmt 1 view .LVU746
	.loc 1 404 14 is_stmt 0 view .LVU747
	leal	11(%rdi), %edx
	.loc 1 405 7 view .LVU748
	movzbl	(%rax,%rcx), %ecx
.LVL242:
	.loc 1 405 7 view .LVU749
	cmpb	%cl, (%rax,%rdx)
	jne	.L217
	.loc 1 406 4 is_stmt 1 view .LVU750
.LBE99:
.LBE102:
	.loc 1 353 1 is_stmt 0 view .LVU751
	pushq	%rbx
	.cfi_def_cfa_offset 16
	.cfi_offset 3, -16
.LVL243:
.LBB103:
.LBB100:
	.loc 1 406 6 view .LVU752
	addl	$12, %edi
.LVL244:
	.loc 1 406 10 is_stmt 1 view .LVU753
	.loc 1 406 12 is_stmt 0 view .LVU754
	addl	$12, %esi
.LVL245:
	.loc 1 408 4 is_stmt 1 view .LVU755
	.loc 1 408 15 is_stmt 0 view .LVU756
	leal	8(%r8), %edx
.LVL246:
.L211:
	.loc 1 410 4 is_stmt 1 view .LVU757
	.loc 1 412 7 view .LVU758
	.loc 1 412 33 is_stmt 0 view .LVU759
	movl	%esi, %ecx
	.loc 1 412 17 view .LVU760
	movl	%edi, %r11d
.LVL247:
	.loc 1 412 23 is_stmt 1 view .LVU761
	.loc 1 413 7 view .LVU762
	.loc 1 413 10 is_stmt 0 view .LVU763
	movzbl	(%rax,%rcx), %ebx
	cmpb	%bl, (%rax,%r11)
	jne	.L216
	.loc 1 414 7 is_stmt 1 view .LVU764
.LVL248:
	.loc 1 414 26 view .LVU765
	.loc 1 415 7 view .LVU766
	.loc 1 415 10 is_stmt 0 view .LVU767
	movzwl	(%r10,%rcx,2), %ebx
	cmpw	%bx, (%r10,%r11,2)
	jne	.L216
	.loc 1 416 7 is_stmt 1 view .LVU768
.LVL249:
	.loc 1 416 13 view .LVU769
	.loc 1 418 7 view .LVU770
	.loc 1 418 33 is_stmt 0 view .LVU771
	leal	1(%rsi), %ecx
.LVL250:
	.loc 1 418 17 view .LVU772
	leal	1(%rdi), %r11d
.LVL251:
	.loc 1 418 23 is_stmt 1 view .LVU773
	.loc 1 419 7 view .LVU774
	.loc 1 419 10 is_stmt 0 view .LVU775
	movzbl	(%rax,%rcx), %ebx
.LVL252:
	.loc 1 419 10 view .LVU776
	cmpb	%bl, (%rax,%r11)
	jne	.L216
	.loc 1 420 7 is_stmt 1 view .LVU777
.LVL253:
	.loc 1 420 26 view .LVU778
	.loc 1 421 7 view .LVU779
	.loc 1 421 10 is_stmt 0 view .LVU780
	movzwl	(%r10,%rcx,2), %ebx
	cmpw	%bx, (%r10,%r11,2)
	jne	.L216
	.loc 1 422 7 is_stmt 1 view .LVU781
.LVL254:
	.loc 1 422 13 view .LVU782
	.loc 1 424 7 view .LVU783
	.loc 1 424 33 is_stmt 0 view .LVU784
	leal	2(%rsi), %ecx
.LVL255:
	.loc 1 424 17 view .LVU785
	leal	2(%rdi), %r11d
.LVL256:
	.loc 1 424 23 is_stmt 1 view .LVU786
	.loc 1 425 7 view .LVU787
	.loc 1 425 10 is_stmt 0 view .LVU788
	movzbl	(%rax,%rcx), %ebx
.LVL257:
	.loc 1 425 10 view .LVU789
	cmpb	%bl, (%rax,%r11)
	jne	.L216
	.loc 1 426 7 is_stmt 1 view .LVU790
.LVL258:
	.loc 1 426 26 view .LVU791
	.loc 1 427 7 view .LVU792
	.loc 1 427 10 is_stmt 0 view .LVU793
	movzwl	(%r10,%rcx,2), %ebx
	cmpw	%bx, (%r10,%r11,2)
	jne	.L216
	.loc 1 428 7 is_stmt 1 view .LVU794
.LVL259:
	.loc 1 428 13 view .LVU795
	.loc 1 430 7 view .LVU796
	.loc 1 430 33 is_stmt 0 view .LVU797
	leal	3(%rsi), %ecx
.LVL260:
	.loc 1 430 17 view .LVU798
	leal	3(%rdi), %r11d
.LVL261:
	.loc 1 430 23 is_stmt 1 view .LVU799
	.loc 1 431 7 view .LVU800
	.loc 1 431 10 is_stmt 0 view .LVU801
	movzbl	(%rax,%rcx), %ebx
.LVL262:
	.loc 1 431 10 view .LVU802
	cmpb	%bl, (%rax,%r11)
	jne	.L216
	.loc 1 432 7 is_stmt 1 view .LVU803
.LVL263:
	.loc 1 432 26 view .LVU804
	.loc 1 433 7 view .LVU805
	.loc 1 433 10 is_stmt 0 view .LVU806
	movzwl	(%r10,%rcx,2), %ebx
	cmpw	%bx, (%r10,%r11,2)
	jne	.L216
	.loc 1 434 7 is_stmt 1 view .LVU807
.LVL264:
	.loc 1 434 13 view .LVU808
	.loc 1 436 7 view .LVU809
	.loc 1 436 33 is_stmt 0 view .LVU810
	leal	4(%rsi), %ecx
.LVL265:
	.loc 1 436 17 view .LVU811
	leal	4(%rdi), %r11d
.LVL266:
	.loc 1 436 23 is_stmt 1 view .LVU812
	.loc 1 437 7 view .LVU813
	.loc 1 437 10 is_stmt 0 view .LVU814
	movzbl	(%rax,%rcx), %ebx
.LVL267:
	.loc 1 437 10 view .LVU815
	cmpb	%bl, (%rax,%r11)
	jne	.L216
	.loc 1 438 7 is_stmt 1 view .LVU816
.LVL268:
	.loc 1 438 26 view .LVU817
	.loc 1 439 7 view .LVU818
	.loc 1 439 10 is_stmt 0 view .LVU819
	movzwl	(%r10,%rcx,2), %ebx
	cmpw	%bx, (%r10,%r11,2)
	jne	.L216
	.loc 1 440 7 is_stmt 1 view .LVU820
.LVL269:
	.loc 1 440 13 view .LVU821
	.loc 1 442 7 view .LVU822
	.loc 1 442 33 is_stmt 0 view .LVU823
	leal	5(%rsi), %ecx
.LVL270:
	.loc 1 442 17 view .LVU824
	leal	5(%rdi), %r11d
.LVL271:
	.loc 1 442 23 is_stmt 1 view .LVU825
	.loc 1 443 7 view .LVU826
	.loc 1 443 10 is_stmt 0 view .LVU827
	movzbl	(%rax,%rcx), %ebx
.LVL272:
	.loc 1 443 10 view .LVU828
	cmpb	%bl, (%rax,%r11)
	jne	.L216
	.loc 1 444 7 is_stmt 1 view .LVU829
.LVL273:
	.loc 1 444 26 view .LVU830
	.loc 1 445 7 view .LVU831
	.loc 1 445 10 is_stmt 0 view .LVU832
	movzwl	(%r10,%rcx,2), %ebx
	cmpw	%bx, (%r10,%r11,2)
	jne	.L216
	.loc 1 446 7 is_stmt 1 view .LVU833
.LVL274:
	.loc 1 446 13 view .LVU834
	.loc 1 448 7 view .LVU835
	.loc 1 448 33 is_stmt 0 view .LVU836
	leal	6(%rsi), %ecx
.LVL275:
	.loc 1 448 17 view .LVU837
	leal	6(%rdi), %r11d
.LVL276:
	.loc 1 448 23 is_stmt 1 view .LVU838
	.loc 1 449 7 view .LVU839
	.loc 1 449 10 is_stmt 0 view .LVU840
	movzbl	(%rax,%rcx), %ebx
.LVL277:
	.loc 1 449 10 view .LVU841
	cmpb	%bl, (%rax,%r11)
	jne	.L216
	.loc 1 450 7 is_stmt 1 view .LVU842
.LVL278:
	.loc 1 450 26 view .LVU843
	.loc 1 451 7 view .LVU844
	.loc 1 451 10 is_stmt 0 view .LVU845
	movzwl	(%r10,%rcx,2), %ebx
	cmpw	%bx, (%r10,%r11,2)
	jne	.L216
	.loc 1 452 7 is_stmt 1 view .LVU846
.LVL279:
	.loc 1 452 13 view .LVU847
	.loc 1 454 7 view .LVU848
	.loc 1 454 33 is_stmt 0 view .LVU849
	leal	7(%rsi), %ecx
.LVL280:
	.loc 1 454 17 view .LVU850
	leal	7(%rdi), %r11d
.LVL281:
	.loc 1 454 23 is_stmt 1 view .LVU851
	.loc 1 455 7 view .LVU852
	.loc 1 455 10 is_stmt 0 view .LVU853
	movzbl	(%rax,%rcx), %ebx
.LVL282:
	.loc 1 455 10 view .LVU854
	cmpb	%bl, (%rax,%r11)
	jne	.L216
	.loc 1 456 7 is_stmt 1 view .LVU855
.LVL283:
	.loc 1 456 26 view .LVU856
	.loc 1 457 7 view .LVU857
	.loc 1 457 10 is_stmt 0 view .LVU858
	movzwl	(%r10,%rcx,2), %ebx
	cmpw	%bx, (%r10,%r11,2)
	jne	.L216
	.loc 1 458 7 is_stmt 1 view .LVU859
	.loc 1 458 9 is_stmt 0 view .LVU860
	addl	$8, %edi
.LVL284:
	.loc 1 458 13 is_stmt 1 view .LVU861
	.loc 1 458 15 is_stmt 0 view .LVU862
	addl	$8, %esi
.LVL285:
	.loc 1 460 7 is_stmt 1 view .LVU863
	.loc 1 460 10 is_stmt 0 view .LVU864
	cmpl	%edi, %r8d
	ja	.L209
	.loc 1 460 25 is_stmt 1 view .LVU865
	.loc 1 460 28 is_stmt 0 view .LVU866
	subl	%r8d, %edi
.LVL286:
.L209:
	.loc 1 461 7 is_stmt 1 view .LVU867
	.loc 1 461 10 is_stmt 0 view .LVU868
	cmpl	%esi, %r8d
	ja	.L210
	.loc 1 461 25 is_stmt 1 view .LVU869
	.loc 1 461 28 is_stmt 0 view .LVU870
	subl	%r8d, %esi
.LVL287:
.L210:
	.loc 1 463 7 is_stmt 1 view .LVU871
	.loc 1 464 7 view .LVU872
	.loc 1 464 16 is_stmt 0 view .LVU873
	subl	$1, (%r9)
.LVL288:
	.loc 1 466 16 is_stmt 1 view .LVU874
	subl	$8, %edx
.LVL289:
	.loc 1 466 16 is_stmt 0 view .LVU875
	jns	.L211
	.loc 1 468 11 view .LVU876
	xorl	%eax, %eax
.LVL290:
	.loc 1 468 11 view .LVU877
.LBE100:
.LBE103:
	.loc 1 469 1 view .LVU878
	popq	%rbx
	.cfi_remember_state
	.cfi_def_cfa_offset 8
	ret
.LVL291:
.L216:
	.cfi_restore_state
.LBB104:
.LBB101:
	.loc 1 457 21 is_stmt 1 view .LVU879
	.loc 1 457 32 is_stmt 0 view .LVU880
	seta	%al
.LVL292:
	.loc 1 457 32 view .LVU881
.LBE101:
.LBE104:
	.loc 1 469 1 view .LVU882
	popq	%rbx
	.cfi_def_cfa_offset 8
	ret
	.cfi_endproc
.LFE56:
	.size	mainGtU, .-mainGtU
	.section	.rodata.str1.8
	.align 8
.LC4:
	.string	"        main sort initialise ...\n"
	.align 8
.LC5:
	.string	"        qsort [0x%x, 0x%x]   done %d   this %d\n"
	.align 8
.LC6:
	.string	"        %d pointers, %d sorted, %d scanned\n"
	.text
	.p2align 4
	.type	mainSort, @function
mainSort:
.LVL293:
.LFB60:
	.loc 1 758 1 is_stmt 1 view -0
	.cfi_startproc
	.loc 1 758 1 is_stmt 0 view .LVU884
	pushq	%r15
	.cfi_def_cfa_offset 16
	.cfi_offset 15, -16
	pushq	%r14
	.cfi_def_cfa_offset 24
	.cfi_offset 14, -24
	pushq	%r13
	.cfi_def_cfa_offset 32
	.cfi_offset 13, -32
	pushq	%r12
	.cfi_def_cfa_offset 40
	.cfi_offset 12, -40
	pushq	%rbp
	.cfi_def_cfa_offset 48
	.cfi_offset 6, -48
	pushq	%rbx
	.cfi_def_cfa_offset 56
	.cfi_offset 3, -56
	subq	$4096, %rsp
	.cfi_def_cfa_offset 4152
	orq	$0, (%rsp)
	subq	$648, %rsp
	.cfi_def_cfa_offset 4800
	.loc 1 758 1 view .LVU885
	movq	4800(%rsp), %r12
	movq	%rdi, 96(%rsp)
	movq	%rsi, %r13
	movl	%r8d, %r14d
	movq	%rdx, 24(%rsp)
	movq	%rcx, 104(%rsp)
	movl	%r9d, 168(%rsp)
	movq	%fs:40, %rax
	movq	%rax, 4728(%rsp)
	xorl	%eax, %eax
	.loc 1 759 4 is_stmt 1 view .LVU886
	.loc 1 760 4 view .LVU887
	.loc 1 761 4 view .LVU888
	.loc 1 762 4 view .LVU889
	.loc 1 763 4 view .LVU890
	.loc 1 764 4 view .LVU891
	.loc 1 765 4 view .LVU892
	.loc 1 766 4 view .LVU893
	.loc 1 767 4 view .LVU894
	.loc 1 767 7 is_stmt 0 view .LVU895
	cmpl	$3, %r9d
	jg	.L370
.LVL294:
.L219:
	.loc 1 770 41 discriminator 3 view .LVU896
	movq	104(%rsp), %rbx
	movl	$262148, %edx
	xorl	%esi, %esi
	movq	%rbx, %rdi
	call	memset@PLT
.LVL295:
	.loc 1 772 4 is_stmt 1 discriminator 3 view .LVU897
	.loc 1 772 13 is_stmt 0 discriminator 3 view .LVU898
	movzbl	0(%r13), %eax
	.loc 1 773 6 discriminator 3 view .LVU899
	leal	-1(%r14), %ecx
	movl	%ecx, 172(%rsp)
	.loc 1 772 6 discriminator 3 view .LVU900
	sall	$8, %eax
.LVL296:
	.loc 1 773 4 is_stmt 1 discriminator 3 view .LVU901
	.loc 1 774 4 discriminator 3 view .LVU902
	.loc 1 774 13 discriminator 3 view .LVU903
	cmpl	$2, %ecx
	jle	.L320
	movq	24(%rsp), %rdi
	movslq	%ecx, %rdx
	movq	%rbx, %rsi
.LVL297:
.L221:
	.loc 1 775 7 discriminator 2 view .LVU904
	.loc 1 775 19 is_stmt 0 discriminator 2 view .LVU905
	xorl	%r11d, %r11d
	.loc 1 776 14 discriminator 2 view .LVU906
	sarl	$8, %eax
.LVL298:
	.loc 1 778 21 discriminator 2 view .LVU907
	xorl	%ebx, %ebx
	.loc 1 781 21 discriminator 2 view .LVU908
	xorl	%ebp, %ebp
	.loc 1 775 19 discriminator 2 view .LVU909
	movw	%r11w, (%rdi,%rdx,2)
	.loc 1 776 7 is_stmt 1 discriminator 2 view .LVU910
	.loc 1 776 25 is_stmt 0 discriminator 2 view .LVU911
	movzbl	0(%r13,%rdx), %ecx
	.loc 1 784 21 discriminator 2 view .LVU912
	xorl	%r15d, %r15d
	.loc 1 776 43 discriminator 2 view .LVU913
	sall	$8, %ecx
	.loc 1 776 9 discriminator 2 view .LVU914
	orl	%ecx, %eax
.LVL299:
	.loc 1 777 7 is_stmt 1 discriminator 2 view .LVU915
	.loc 1 777 11 is_stmt 0 discriminator 2 view .LVU916
	movslq	%eax, %rcx
	.loc 1 779 14 discriminator 2 view .LVU917
	sarl	$8, %eax
.LVL300:
	.loc 1 777 14 discriminator 2 view .LVU918
	addl	$1, (%rsi,%rcx,4)
	.loc 1 778 7 is_stmt 1 discriminator 2 view .LVU919
	.loc 1 779 14 is_stmt 0 discriminator 2 view .LVU920
	movl	%eax, %ecx
.LVL301:
	.loc 1 778 21 discriminator 2 view .LVU921
	movw	%bx, -2(%rdi,%rdx,2)
	.loc 1 779 7 is_stmt 1 discriminator 2 view .LVU922
	.loc 1 779 25 is_stmt 0 discriminator 2 view .LVU923
	movzbl	-1(%r13,%rdx), %eax
	.loc 1 779 45 discriminator 2 view .LVU924
	sall	$8, %eax
	.loc 1 779 9 discriminator 2 view .LVU925
	orl	%ecx, %eax
.LVL302:
	.loc 1 780 7 is_stmt 1 discriminator 2 view .LVU926
	.loc 1 780 11 is_stmt 0 discriminator 2 view .LVU927
	movslq	%eax, %rcx
	.loc 1 782 14 discriminator 2 view .LVU928
	sarl	$8, %eax
.LVL303:
	.loc 1 780 14 discriminator 2 view .LVU929
	addl	$1, (%rsi,%rcx,4)
	.loc 1 781 7 is_stmt 1 discriminator 2 view .LVU930
	.loc 1 782 14 is_stmt 0 discriminator 2 view .LVU931
	movl	%eax, %ecx
.LVL304:
	.loc 1 781 21 discriminator 2 view .LVU932
	movw	%bp, -4(%rdi,%rdx,2)
	.loc 1 782 7 is_stmt 1 discriminator 2 view .LVU933
	.loc 1 782 25 is_stmt 0 discriminator 2 view .LVU934
	movzbl	-2(%r13,%rdx), %eax
	.loc 1 782 45 discriminator 2 view .LVU935
	sall	$8, %eax
	.loc 1 782 9 discriminator 2 view .LVU936
	orl	%ecx, %eax
.LVL305:
	.loc 1 783 7 is_stmt 1 discriminator 2 view .LVU937
	.loc 1 783 11 is_stmt 0 discriminator 2 view .LVU938
	movslq	%eax, %rcx
	.loc 1 785 14 discriminator 2 view .LVU939
	sarl	$8, %eax
.LVL306:
	.loc 1 783 14 discriminator 2 view .LVU940
	addl	$1, (%rsi,%rcx,4)
	.loc 1 784 7 is_stmt 1 discriminator 2 view .LVU941
	.loc 1 785 14 is_stmt 0 discriminator 2 view .LVU942
	movl	%eax, %ecx
.LVL307:
	.loc 1 784 21 discriminator 2 view .LVU943
	movw	%r15w, -6(%rdi,%rdx,2)
	.loc 1 785 7 is_stmt 1 discriminator 2 view .LVU944
	.loc 1 785 25 is_stmt 0 discriminator 2 view .LVU945
	movzbl	-3(%r13,%rdx), %eax
	.loc 1 774 13 discriminator 2 view .LVU946
	subq	$4, %rdx
.LVL308:
	.loc 1 785 45 discriminator 2 view .LVU947
	sall	$8, %eax
	.loc 1 785 9 discriminator 2 view .LVU948
	orl	%ecx, %eax
.LVL309:
	.loc 1 786 7 is_stmt 1 discriminator 2 view .LVU949
	.loc 1 786 11 is_stmt 0 discriminator 2 view .LVU950
	movslq	%eax, %rcx
	.loc 1 786 14 discriminator 2 view .LVU951
	addl	$1, (%rsi,%rcx,4)
	.loc 1 774 21 is_stmt 1 discriminator 2 view .LVU952
	.loc 1 774 13 discriminator 2 view .LVU953
	cmpl	$2, %edx
	jg	.L221
	.loc 1 774 21 is_stmt 0 view .LVU954
	leal	-4(%r14), %edx
	leal	-5(%r14), %ebx
	andl	$-4, %edx
	subl	%edx, %ebx
.L220:
.LVL310:
	.loc 1 788 13 is_stmt 1 view .LVU955
	movq	104(%rsp), %rsi
	movslq	%ebx, %rdx
	testl	%ebx, %ebx
	js	.L225
.LVL311:
.L224:
	.loc 1 789 7 discriminator 2 view .LVU956
	.loc 1 789 19 is_stmt 0 discriminator 2 view .LVU957
	movq	24(%rsp), %rcx
	xorl	%r10d, %r10d
	.loc 1 790 14 discriminator 2 view .LVU958
	sarl	$8, %eax
.LVL312:
	.loc 1 789 19 discriminator 2 view .LVU959
	movw	%r10w, (%rcx,%rdx,2)
	.loc 1 790 7 is_stmt 1 discriminator 2 view .LVU960
	.loc 1 790 25 is_stmt 0 discriminator 2 view .LVU961
	movzbl	0(%r13,%rdx), %ecx
	.loc 1 788 13 discriminator 2 view .LVU962
	subq	$1, %rdx
.LVL313:
	.loc 1 790 43 discriminator 2 view .LVU963
	sall	$8, %ecx
	.loc 1 790 9 discriminator 2 view .LVU964
	orl	%ecx, %eax
.LVL314:
	.loc 1 791 7 is_stmt 1 discriminator 2 view .LVU965
	.loc 1 791 11 is_stmt 0 discriminator 2 view .LVU966
	movslq	%eax, %rcx
	.loc 1 791 14 discriminator 2 view .LVU967
	addl	$1, (%rsi,%rcx,4)
	.loc 1 788 20 is_stmt 1 discriminator 2 view .LVU968
	.loc 1 788 13 discriminator 2 view .LVU969
	testl	%edx, %edx
	jns	.L224
.L225:
	.loc 1 788 13 is_stmt 0 discriminator 2 view .LVU970
	movq	24(%rsp), %rax
.LVL315:
	.loc 1 788 13 discriminator 2 view .LVU971
	movslq	%r14d, %rdx
	leaq	0(%r13,%rdx), %rcx
	leaq	(%rax,%rdx,2), %rsi
	.loc 1 774 13 view .LVU972
	xorl	%eax, %eax
.L223:
.LVL316:
	.loc 1 796 7 is_stmt 1 discriminator 3 view .LVU973
	.loc 1 796 31 is_stmt 0 discriminator 3 view .LVU974
	movzbl	0(%r13,%rax), %edx
	.loc 1 797 26 discriminator 3 view .LVU975
	xorl	%r9d, %r9d
	.loc 1 796 24 discriminator 3 view .LVU976
	movb	%dl, (%rcx,%rax)
	.loc 1 797 7 is_stmt 1 discriminator 3 view .LVU977
	.loc 1 797 26 is_stmt 0 discriminator 3 view .LVU978
	movw	%r9w, (%rsi,%rax,2)
	.loc 1 795 40 is_stmt 1 discriminator 3 view .LVU979
.LVL317:
	.loc 1 795 18 discriminator 3 view .LVU980
	addq	$1, %rax
.LVL318:
	.loc 1 795 18 is_stmt 0 discriminator 3 view .LVU981
	cmpq	$34, %rax
	jne	.L223
	.loc 1 800 4 is_stmt 1 view .LVU982
	.loc 1 800 7 is_stmt 0 view .LVU983
	cmpl	$3, 168(%rsp)
	jg	.L371
.L226:
	movq	104(%rsp), %rsi
	leaq	4(%rsi), %rax
	leaq	262148(%rsi), %rcx
	.p2align 4,,10
	.p2align 3
.L227:
.LVL319:
	.loc 1 803 33 is_stmt 1 discriminator 3 view .LVU984
	.loc 1 803 41 is_stmt 0 discriminator 3 view .LVU985
	movl	-4(%rax), %edx
	addl	%edx, (%rax)
	.loc 1 803 29 is_stmt 1 discriminator 3 view .LVU986
.LVL320:
	.loc 1 803 18 discriminator 3 view .LVU987
	addq	$4, %rax
.LVL321:
	.loc 1 803 18 is_stmt 0 discriminator 3 view .LVU988
	cmpq	%rax, %rcx
	jne	.L227
	.loc 1 805 4 is_stmt 1 view .LVU989
	.loc 1 805 13 is_stmt 0 view .LVU990
	movzbl	0(%r13), %eax
.LVL322:
	.loc 1 807 13 view .LVU991
	movl	172(%rsp), %ecx
	.loc 1 805 6 view .LVU992
	sall	$8, %eax
.LVL323:
	.loc 1 806 4 is_stmt 1 view .LVU993
	.loc 1 807 4 view .LVU994
	.loc 1 807 13 view .LVU995
	cmpl	$2, %ecx
	jle	.L228
	movslq	%ecx, %rdx
	movq	104(%rsp), %rsi
	movq	96(%rsp), %rcx
.LVL324:
.L229:
	.loc 1 808 7 discriminator 2 view .LVU996
	.loc 1 808 28 is_stmt 0 discriminator 2 view .LVU997
	movzbl	0(%r13,%rdx), %edi
	.loc 1 808 20 discriminator 2 view .LVU998
	shrw	$8, %ax
.LVL325:
	.loc 1 808 32 discriminator 2 view .LVU999
	sall	$8, %edi
	.loc 1 808 9 discriminator 2 view .LVU1000
	orl	%edi, %eax
.LVL326:
	.loc 1 809 7 is_stmt 1 discriminator 2 view .LVU1001
	.loc 1 809 15 is_stmt 0 discriminator 2 view .LVU1002
	movzwl	%ax, %edi
	.loc 1 812 20 discriminator 2 view .LVU1003
	shrw	$8, %ax
.LVL327:
	.loc 1 809 15 discriminator 2 view .LVU1004
	leaq	(%rsi,%rdi,4), %r8
	.loc 1 809 19 discriminator 2 view .LVU1005
	movl	(%r8), %edi
.LVL328:
	.loc 1 809 19 discriminator 2 view .LVU1006
	subl	$1, %edi
.LVL329:
	.loc 1 810 7 is_stmt 1 discriminator 2 view .LVU1007
	.loc 1 810 15 is_stmt 0 discriminator 2 view .LVU1008
	movl	%edi, (%r8)
	.loc 1 811 7 is_stmt 1 discriminator 2 view .LVU1009
	.loc 1 811 10 is_stmt 0 discriminator 2 view .LVU1010
	movslq	%edi, %rdi
.LVL330:
	.loc 1 811 14 discriminator 2 view .LVU1011
	movl	%edx, (%rcx,%rdi,4)
.LVL331:
	.loc 1 812 7 is_stmt 1 discriminator 2 view .LVU1012
	.loc 1 812 28 is_stmt 0 discriminator 2 view .LVU1013
	movzbl	-1(%r13,%rdx), %edi
.LVL332:
	.loc 1 812 34 discriminator 2 view .LVU1014
	sall	$8, %edi
	.loc 1 812 9 discriminator 2 view .LVU1015
	orl	%edi, %eax
.LVL333:
	.loc 1 813 7 is_stmt 1 discriminator 2 view .LVU1016
	.loc 1 813 15 is_stmt 0 discriminator 2 view .LVU1017
	movzwl	%ax, %edi
	.loc 1 816 20 discriminator 2 view .LVU1018
	shrw	$8, %ax
.LVL334:
	.loc 1 813 15 discriminator 2 view .LVU1019
	leaq	(%rsi,%rdi,4), %r8
	.loc 1 813 19 discriminator 2 view .LVU1020
	movl	(%r8), %edi
.LVL335:
	.loc 1 813 19 discriminator 2 view .LVU1021
	subl	$1, %edi
.LVL336:
	.loc 1 814 7 is_stmt 1 discriminator 2 view .LVU1022
	.loc 1 814 15 is_stmt 0 discriminator 2 view .LVU1023
	movl	%edi, (%r8)
	.loc 1 815 7 is_stmt 1 discriminator 2 view .LVU1024
	.loc 1 815 14 is_stmt 0 discriminator 2 view .LVU1025
	leal	-1(%rdx), %r8d
	.loc 1 815 10 discriminator 2 view .LVU1026
	movslq	%edi, %rdi
	.loc 1 815 14 discriminator 2 view .LVU1027
	movl	%r8d, (%rcx,%rdi,4)
	.loc 1 816 7 is_stmt 1 discriminator 2 view .LVU1028
	.loc 1 816 28 is_stmt 0 discriminator 2 view .LVU1029
	movzbl	-2(%r13,%rdx), %edi
.LVL337:
	.loc 1 816 34 discriminator 2 view .LVU1030
	sall	$8, %edi
	.loc 1 816 9 discriminator 2 view .LVU1031
	orl	%edi, %eax
.LVL338:
	.loc 1 817 7 is_stmt 1 discriminator 2 view .LVU1032
	.loc 1 817 15 is_stmt 0 discriminator 2 view .LVU1033
	movzwl	%ax, %edi
	.loc 1 820 20 discriminator 2 view .LVU1034
	shrw	$8, %ax
.LVL339:
	.loc 1 817 15 discriminator 2 view .LVU1035
	leaq	(%rsi,%rdi,4), %r8
	.loc 1 817 19 discriminator 2 view .LVU1036
	movl	(%r8), %edi
.LVL340:
	.loc 1 817 19 discriminator 2 view .LVU1037
	subl	$1, %edi
.LVL341:
	.loc 1 818 7 is_stmt 1 discriminator 2 view .LVU1038
	.loc 1 818 15 is_stmt 0 discriminator 2 view .LVU1039
	movl	%edi, (%r8)
	.loc 1 819 7 is_stmt 1 discriminator 2 view .LVU1040
	.loc 1 819 14 is_stmt 0 discriminator 2 view .LVU1041
	leal	-2(%rdx), %r8d
	.loc 1 819 10 discriminator 2 view .LVU1042
	movslq	%edi, %rdi
	.loc 1 819 14 discriminator 2 view .LVU1043
	movl	%r8d, (%rcx,%rdi,4)
	.loc 1 820 7 is_stmt 1 discriminator 2 view .LVU1044
	.loc 1 820 28 is_stmt 0 discriminator 2 view .LVU1045
	movzbl	-3(%r13,%rdx), %edi
.LVL342:
	.loc 1 820 34 discriminator 2 view .LVU1046
	sall	$8, %edi
	.loc 1 820 9 discriminator 2 view .LVU1047
	orl	%edi, %eax
.LVL343:
	.loc 1 821 7 is_stmt 1 discriminator 2 view .LVU1048
	.loc 1 821 15 is_stmt 0 discriminator 2 view .LVU1049
	movzwl	%ax, %edi
	leaq	(%rsi,%rdi,4), %r8
	.loc 1 821 19 discriminator 2 view .LVU1050
	movl	(%r8), %edi
	subl	$1, %edi
.LVL344:
	.loc 1 822 7 is_stmt 1 discriminator 2 view .LVU1051
	.loc 1 822 15 is_stmt 0 discriminator 2 view .LVU1052
	movl	%edi, (%r8)
	.loc 1 823 7 is_stmt 1 discriminator 2 view .LVU1053
	.loc 1 823 14 is_stmt 0 discriminator 2 view .LVU1054
	leal	-3(%rdx), %r8d
	.loc 1 823 10 discriminator 2 view .LVU1055
	movslq	%edi, %rdi
.LVL345:
	.loc 1 807 13 discriminator 2 view .LVU1056
	subq	$4, %rdx
.LVL346:
	.loc 1 823 14 discriminator 2 view .LVU1057
	movl	%r8d, (%rcx,%rdi,4)
.LVL347:
	.loc 1 807 21 is_stmt 1 discriminator 2 view .LVU1058
	.loc 1 807 13 discriminator 2 view .LVU1059
	cmpl	$2, %edx
	jg	.L229
.LVL348:
.L228:
	.loc 1 825 13 view .LVU1060
	movslq	%ebx, %rsi
	testl	%ebx, %ebx
	js	.L233
.LVL349:
.L232:
	.loc 1 826 7 discriminator 2 view .LVU1061
	.loc 1 826 28 is_stmt 0 discriminator 2 view .LVU1062
	movzbl	0(%r13,%rsi), %edx
	.loc 1 826 20 discriminator 2 view .LVU1063
	shrw	$8, %ax
.LVL350:
	.loc 1 827 15 discriminator 2 view .LVU1064
	movq	104(%rsp), %rcx
	.loc 1 826 32 discriminator 2 view .LVU1065
	sall	$8, %edx
	.loc 1 826 9 discriminator 2 view .LVU1066
	orl	%edx, %eax
.LVL351:
	.loc 1 827 7 is_stmt 1 discriminator 2 view .LVU1067
	.loc 1 827 15 is_stmt 0 discriminator 2 view .LVU1068
	movzwl	%ax, %edx
	leaq	(%rcx,%rdx,4), %rcx
	.loc 1 827 19 discriminator 2 view .LVU1069
	movl	(%rcx), %ebx
	leal	-1(%rbx), %edx
.LVL352:
	.loc 1 828 7 is_stmt 1 discriminator 2 view .LVU1070
	.loc 1 828 15 is_stmt 0 discriminator 2 view .LVU1071
	movl	%edx, (%rcx)
	.loc 1 829 7 is_stmt 1 discriminator 2 view .LVU1072
	.loc 1 829 14 is_stmt 0 discriminator 2 view .LVU1073
	movq	96(%rsp), %rcx
	.loc 1 829 10 discriminator 2 view .LVU1074
	movslq	%edx, %rdx
.LVL353:
	.loc 1 829 14 discriminator 2 view .LVU1075
	movl	%esi, (%rcx,%rdx,4)
.LVL354:
	.loc 1 825 20 is_stmt 1 discriminator 2 view .LVU1076
	.loc 1 825 13 discriminator 2 view .LVU1077
	subq	$1, %rsi
.LVL355:
	.loc 1 825 13 is_stmt 0 discriminator 2 view .LVU1078
	testl	%esi, %esi
	jns	.L232
.LVL356:
.L233:
	.loc 1 838 19 view .LVU1079
	leaq	4464(%rsp), %rdx
	movl	$32, %ecx
	xorl	%eax, %eax
.LVL357:
	.loc 1 838 19 view .LVU1080
	movq	%rdx, %rdi
	leaq	1392(%rsp), %rdx
	rep stosq
	movq	%rdx, 16(%rsp)
	.p2align 4,,10
	.p2align 3
.L231:
.LVL358:
	.loc 1 838 7 is_stmt 1 discriminator 3 view .LVU1081
	.loc 1 839 7 discriminator 3 view .LVU1082
	.loc 1 839 23 is_stmt 0 discriminator 3 view .LVU1083
	movl	%eax, (%rdx,%rax,4)
	.loc 1 837 27 is_stmt 1 discriminator 3 view .LVU1084
.LVL359:
	.loc 1 837 18 discriminator 3 view .LVU1085
	addq	$1, %rax
.LVL360:
	.loc 1 837 18 is_stmt 0 discriminator 3 view .LVU1086
	cmpq	$256, %rax
	jne	.L231
	movl	$5, %eax
.LVL361:
.LBB145:
	.loc 1 844 13 view .LVU1087
	movl	$1, %edx
.L234:
.LVL362:
	.loc 1 845 7 is_stmt 1 discriminator 1 view .LVU1088
	.loc 1 845 10 discriminator 1 view .LVU1089
	.loc 1 845 12 is_stmt 0 discriminator 1 view .LVU1090
	leal	1(%rdx,%rdx,2), %edx
.LVL363:
	.loc 1 845 34 is_stmt 1 discriminator 1 view .LVU1091
	subl	$1, %eax
	jne	.L234
	movl	%edx, 8(%rsp)
	movq	104(%rsp), %r9
	movq	%r13, 32(%rsp)
	movl	%r14d, 40(%rsp)
	movq	%r12, 48(%rsp)
.LVL364:
.L236:
	.loc 1 846 7 view .LVU1092
	.loc 1 847 10 view .LVU1093
	movslq	8(%rsp), %r10
	movq	%r10, %rax
	.loc 1 847 12 is_stmt 0 view .LVU1094
	imulq	$1431655766, %r10, %r10
	cltd
	shrq	$32, %r10
	subl	%edx, %r10d
	movl	%r10d, 8(%rsp)
.LVL365:
	.loc 1 848 10 is_stmt 1 view .LVU1095
	.loc 1 848 24 view .LVU1096
	cmpl	$767, %eax
	jg	.L242
	movslq	8(%rsp), %r12
	movq	16(%rsp), %rax
	xorl	%r15d, %r15d
	leaq	0(,%r12,4), %rbp
	leaq	(%rax,%rbp), %r13
.LVL366:
.L241:
	.loc 1 849 16 is_stmt 0 view .LVU1097
	movl	0(%r13), %ebx
	.loc 1 851 41 view .LVU1098
	movq	%r15, %r11
	movl	%r12d, %esi
.LVL367:
	.loc 1 849 13 is_stmt 1 view .LVU1099
	.loc 1 850 13 view .LVU1100
	.loc 1 851 13 view .LVU1101
	.loc 1 851 19 is_stmt 0 view .LVU1102
	movq	%r13, %rcx
	.loc 1 851 41 view .LVU1103
	subq	%r12, %r11
	.loc 1 851 104 view .LVU1104
	leal	1(%rbx), %eax
	.loc 1 851 126 view .LVU1105
	movl	%ebx, %edx
	.loc 1 851 108 view .LVU1106
	sall	$8, %eax
	.loc 1 851 126 view .LVU1107
	sall	$8, %edx
	.loc 1 851 108 view .LVU1108
	cltq
	.loc 1 851 126 view .LVU1109
	movslq	%edx, %rdx
	.loc 1 851 114 view .LVU1110
	movl	(%r9,%rax,4), %r8d
	subl	(%r9,%rdx,4), %r8d
	.loc 1 851 19 view .LVU1111
	jmp	.L238
.LVL368:
	.p2align 4,,10
	.p2align 3
.L240:
	.loc 1 852 16 is_stmt 1 view .LVU1112
	.loc 1 852 32 is_stmt 0 view .LVU1113
	movl	%edx, (%rcx)
	.loc 1 853 16 is_stmt 1 view .LVU1114
.LVL369:
	.loc 1 854 16 view .LVU1115
	subq	%rbp, %rcx
	.loc 1 854 19 is_stmt 0 view .LVU1116
	cmpl	%r10d, %esi
	jl	.L321
.L238:
	.loc 1 851 91 is_stmt 1 view .LVU1117
	.loc 1 851 41 is_stmt 0 view .LVU1118
	movl	(%rcx,%r11,4), %edx
	movslq	%esi, %rdi
	.loc 1 851 43 view .LVU1119
	movl	%edi, %esi
.LVL370:
	.loc 1 851 47 view .LVU1120
	leal	1(%rdx), %eax
	.loc 1 851 84 view .LVU1121
	movl	%edx, %r14d
	.loc 1 851 43 view .LVU1122
	subl	%r10d, %esi
	.loc 1 851 51 view .LVU1123
	sall	$8, %eax
	.loc 1 851 84 view .LVU1124
	sall	$8, %r14d
	.loc 1 851 51 view .LVU1125
	cltq
	.loc 1 851 84 view .LVU1126
	movslq	%r14d, %r14
	.loc 1 851 57 view .LVU1127
	movl	(%r9,%rax,4), %eax
	subl	(%r9,%r14,4), %eax
	.loc 1 851 91 view .LVU1128
	cmpl	%r8d, %eax
	ja	.L240
.LVL371:
.L239:
	.loc 1 857 13 is_stmt 1 discriminator 2 view .LVU1129
	.loc 1 848 24 is_stmt 0 discriminator 2 view .LVU1130
	addq	$1, %r12
.LVL372:
	.loc 1 857 29 discriminator 2 view .LVU1131
	movl	%ebx, 1392(%rsp,%rdi,4)
	.loc 1 848 33 is_stmt 1 discriminator 2 view .LVU1132
.LVL373:
	.loc 1 848 24 discriminator 2 view .LVU1133
	addq	$1, %r15
.LVL374:
	.loc 1 848 24 is_stmt 0 discriminator 2 view .LVU1134
	addq	$4, %r13
	cmpl	$255, %r12d
	jle	.L241
.LVL375:
.L242:
	.loc 1 859 18 is_stmt 1 view .LVU1135
	cmpl	$1, %r10d
	jne	.L236
	movq	16(%rsp), %rax
	movq	48(%rsp), %r12
	movq	%r9, 104(%rsp)
.LVL376:
	.loc 1 859 18 is_stmt 0 view .LVU1136
	movq	32(%rsp), %r13
	movl	40(%rsp), %r14d
.LBE145:
	.loc 1 866 15 view .LVU1137
	movl	$0, 160(%rsp)
	movq	%rax, 152(%rsp)
	leaq	2416(%rsp), %rax
	movq	%rax, 176(%rsp)
	leaq	2412(%rsp), %rax
	movq	%rax, 184(%rsp)
	movq	%r12, %rax
	movl	%r14d, %r12d
	movq	%r13, %r14
	movq	%rax, %r13
.LVL377:
.L316:
	.loc 1 876 7 is_stmt 1 view .LVU1138
	.loc 1 876 10 is_stmt 0 view .LVU1139
	movq	152(%rsp), %rax
	.loc 1 886 14 view .LVU1140
	movl	$0, 84(%rsp)
	movl	%r12d, %r15d
	movq	%r13, %r12
	movq	%r14, %r13
	.loc 1 876 10 view .LVU1141
	movl	(%rax), %eax
	movl	%eax, 124(%rsp)
.LVL378:
	.loc 1 886 7 is_stmt 1 view .LVU1142
	.loc 1 886 21 view .LVU1143
	.loc 1 888 22 is_stmt 0 view .LVU1144
	sall	$8, %eax
.LVL379:
	.loc 1 888 22 view .LVU1145
	movl	%eax, 140(%rsp)
.LVL380:
	.p2align 4,,10
	.p2align 3
.L294:
	.loc 1 887 10 is_stmt 1 view .LVU1146
	.loc 1 887 13 is_stmt 0 view .LVU1147
	movl	84(%rsp), %eax
	cmpl	%eax, 124(%rsp)
	je	.L243
	.loc 1 888 13 is_stmt 1 view .LVU1148
.LVL381:
	.loc 1 889 13 view .LVU1149
	.loc 1 889 25 is_stmt 0 view .LVU1150
	addl	140(%rsp), %eax
.LVL382:
	.loc 1 889 25 view .LVU1151
	movq	104(%rsp), %rcx
	cltq
	.loc 1 889 25 view .LVU1152
	salq	$2, %rax
.LVL383:
	.loc 1 889 25 view .LVU1153
	leaq	(%rcx,%rax), %rsi
	movl	(%rsi), %edx
	movq	%rsi, 112(%rsp)
	.loc 1 889 16 view .LVU1154
	testl	$2097152, %edx
	jne	.L244
.LBB146:
	.loc 1 890 16 is_stmt 1 view .LVU1155
	.loc 1 891 39 is_stmt 0 view .LVU1156
	movl	4(%rcx,%rax), %eax
	.loc 1 890 22 view .LVU1157
	movl	%edx, %esi
	andl	$-2097153, %esi
	.loc 1 891 39 view .LVU1158
	andl	$-2097153, %eax
	.loc 1 890 22 view .LVU1159
	movl	%esi, 120(%rsp)
.LVL384:
	.loc 1 891 16 is_stmt 1 view .LVU1160
	.loc 1 891 57 is_stmt 0 view .LVU1161
	subl	$1, %eax
	movl	%eax, 76(%rsp)
.LVL385:
	.loc 1 892 16 is_stmt 1 view .LVU1162
	.loc 1 892 19 is_stmt 0 view .LVU1163
	cmpl	%eax, %esi
	jge	.L244
	.loc 1 893 19 is_stmt 1 view .LVU1164
	.loc 1 894 95 is_stmt 0 view .LVU1165
	subl	%esi, %eax
.LVL386:
	.loc 1 893 22 view .LVU1166
	cmpl	$3, 168(%rsp)
	.loc 1 894 95 view .LVU1167
	movl	%eax, 164(%rsp)
	.loc 1 893 22 view .LVU1168
	jg	.L372
.LVL387:
.L245:
	.loc 1 897 19 is_stmt 1 view .LVU1169
.LBB147:
.LBI147:
	.loc 1 621 6 view .LVU1170
.LBB148:
	.loc 1 630 4 view .LVU1171
	.loc 1 631 4 view .LVU1172
	.loc 1 633 4 view .LVU1173
	.loc 1 634 4 view .LVU1174
	.loc 1 635 4 view .LVU1175
	.loc 1 637 4 view .LVU1176
	.loc 1 638 4 view .LVU1177
	.loc 1 639 4 view .LVU1178
	.loc 1 641 4 view .LVU1179
	.loc 1 642 6 view .LVU1180
	.loc 1 642 18 is_stmt 0 view .LVU1181
	movl	120(%rsp), %eax
	.loc 1 642 58 view .LVU1182
	movl	$2, 992(%rsp)
	.loc 1 642 67 view .LVU1183
	movl	$1, %r14d
	.loc 1 642 58 view .LVU1184
	movl	$2, 8(%rsp)
	.loc 1 642 18 view .LVU1185
	movl	%eax, 192(%rsp)
	.loc 1 642 26 is_stmt 1 view .LVU1186
	.loc 1 642 38 is_stmt 0 view .LVU1187
	movl	76(%rsp), %eax
	movl	$0, 136(%rsp)
	movl	%eax, 592(%rsp)
	.loc 1 642 46 is_stmt 1 view .LVU1188
	.loc 1 642 65 view .LVU1189
.LVL388:
	.loc 1 642 72 view .LVU1190
	.loc 1 644 4 view .LVU1191
	.loc 1 715 90 view .LVU1192
	.loc 1 644 14 view .LVU1193
	.loc 1 646 9 view .LVU1194
	movl	%r14d, 40(%rsp)
	movl	%r15d, %r14d
.LVL389:
.L246:
	.loc 1 646 63 view .LVU1195
	.loc 1 648 9 view .LVU1196
	.loc 1 648 15 view .LVU1197
	.loc 1 648 33 view .LVU1198
	.loc 1 648 51 view .LVU1199
	.loc 1 648 69 view .LVU1200
	.loc 1 649 7 view .LVU1201
	.loc 1 649 14 is_stmt 0 view .LVU1202
	movl	76(%rsp), %esi
	subl	120(%rsp), %esi
	.loc 1 649 24 view .LVU1203
	cmpl	$19, %esi
	jle	.L328
	cmpl	$14, 8(%rsp)
	jle	.L247
.L328:
	.loc 1 651 10 is_stmt 1 view .LVU1204
.LVL390:
.LBB149:
.LBI149:
	.loc 1 485 6 view .LVU1205
.LBB150:
	.loc 1 494 4 view .LVU1206
	.loc 1 495 4 view .LVU1207
	.loc 1 497 4 view .LVU1208
	.loc 1 497 9 is_stmt 0 view .LVU1209
	addl	$1, %esi
.LVL391:
	.loc 1 498 4 is_stmt 1 view .LVU1210
	xorl	%eax, %eax
	movl	$4, %ecx
	.loc 1 498 7 is_stmt 0 view .LVU1211
	cmpl	$1, %esi
	jg	.L249
	jmp	.L266
.LVL392:
	.p2align 4,,10
	.p2align 3
.L373:
	.loc 1 501 15 view .LVU1212
	leaq	4+incs(%rip), %rax
.LVL393:
	.loc 1 501 15 view .LVU1213
	movl	(%rax,%rdx,4), %ecx
	movq	%rdx, %rax
.LVL394:
.L249:
	.loc 1 501 15 view .LVU1214
	movslq	%eax, %rdi
.LVL395:
	.loc 1 501 28 is_stmt 1 view .LVU1215
	.loc 1 501 20 view .LVU1216
	leaq	1(%rax), %rdx
	cmpl	%ecx, %esi
	jg	.L373
	leaq	incs(%rip), %rcx
	movq	%r12, %r9
	movl	%r14d, %r8d
	movq	%r13, %r12
.LVL396:
	.loc 1 501 20 is_stmt 0 view .LVU1217
	leaq	(%rcx,%rdi,4), %rcx
	subq	%rax, %rdi
	leaq	-4+incs(%rip), %rax
.LVL397:
	.loc 1 501 20 view .LVU1218
	leaq	(%rax,%rdi,4), %rax
	movq	%rcx, 88(%rsp)
	movq	%rax, 144(%rsp)
	movslq	120(%rsp), %rax
	salq	$2, %rax
	movq	%rax, 128(%rsp)
.LVL398:
.L265:
	.loc 1 505 7 is_stmt 1 view .LVU1219
	.loc 1 505 9 is_stmt 0 view .LVU1220
	movq	88(%rsp), %rax
	.loc 1 507 9 view .LVU1221
	movl	120(%rsp), %esi
	movq	96(%rsp), %rbx
	.loc 1 505 9 view .LVU1222
	movl	(%rax), %ecx
	.loc 1 507 9 view .LVU1223
	addl	%ecx, %esi
	.loc 1 505 9 view .LVU1224
	movl	%ecx, 16(%rsp)
.LVL399:
	.loc 1 507 7 is_stmt 1 view .LVU1225
	negl	%ecx
.LVL400:
	.loc 1 507 7 is_stmt 0 view .LVU1226
	movslq	%esi, %rax
	.loc 1 507 9 view .LVU1227
	movl	%esi, 32(%rsp)
.LVL401:
	.loc 1 507 9 view .LVU1228
	leaq	(%rbx,%rax,4), %rax
	movl	%esi, 48(%rsp)
	addq	128(%rsp), %rbx
	movq	%rax, 64(%rsp)
	movq	%rbx, 56(%rsp)
	movslq	%ecx, %rbx
	salq	$2, %rbx
.LVL402:
	.p2align 4,,10
	.p2align 3
.L263:
	.loc 1 508 7 is_stmt 1 view .LVU1229
	.loc 1 511 10 view .LVU1230
	.loc 1 511 13 is_stmt 0 view .LVU1231
	movl	48(%rsp), %r14d
	movl	76(%rsp), %eax
	cmpl	%eax, %r14d
	jg	.L253
	.loc 1 512 10 is_stmt 1 view .LVU1232
	.loc 1 512 12 is_stmt 0 view .LVU1233
	movq	64(%rsp), %r15
	.loc 1 514 18 view .LVU1234
	movl	8(%rsp), %r13d
	.loc 1 514 16 view .LVU1235
	movq	56(%rsp), %rbp
	.loc 1 512 12 view .LVU1236
	movl	(%r15), %eax
	movl	%eax, 80(%rsp)
.LVL403:
	.loc 1 513 10 is_stmt 1 view .LVU1237
	.loc 1 514 10 view .LVU1238
	.loc 1 514 18 is_stmt 0 view .LVU1239
	addl	%eax, %r13d
	.loc 1 514 16 view .LVU1240
	jmp	.L254
.LVL404:
	.p2align 4,,10
	.p2align 3
.L256:
	.loc 1 517 13 is_stmt 1 view .LVU1241
	.loc 1 517 25 is_stmt 0 view .LVU1242
	movl	0(%rbp), %eax
	.loc 1 519 16 view .LVU1243
	addq	%rbx, %rbp
	.loc 1 517 20 view .LVU1244
	movl	%eax, (%r15)
	.loc 1 518 13 is_stmt 1 view .LVU1245
.LVL405:
	.loc 1 519 13 view .LVU1246
	.loc 1 519 16 is_stmt 0 view .LVU1247
	leaq	(%rdx,%rbx), %r15
	cmpl	%r14d, 32(%rsp)
	jg	.L323
.L254:
	.loc 1 514 18 is_stmt 1 view .LVU1248
	movq	24(%rsp), %rcx
	movl	8(%rsp), %edi
	movq	%r12, %rdx
	movl	%r13d, %esi
	addl	0(%rbp), %edi
	.loc 1 515 26 is_stmt 0 view .LVU1249
	subl	16(%rsp), %r14d
.LVL406:
	.loc 1 515 24 view .LVU1250
	movq	%rbp, 40(%rsp)
	.loc 1 514 18 view .LVU1251
	call	mainGtU
.LVL407:
	.loc 1 517 16 view .LVU1252
	movq	%r15, %rdx
	.loc 1 514 18 view .LVU1253
	testb	%al, %al
	jne	.L256
	movq	%r15, %rax
.L255:
	.loc 1 521 10 is_stmt 1 view .LVU1254
	.loc 1 521 17 is_stmt 0 view .LVU1255
	movl	80(%rsp), %ecx
	movl	%ecx, (%rax)
	.loc 1 522 10 is_stmt 1 view .LVU1256
	movl	48(%rsp), %eax
	leal	1(%rax), %r15d
.LVL408:
	.loc 1 525 10 view .LVU1257
	.loc 1 525 13 is_stmt 0 view .LVU1258
	cmpl	76(%rsp), %r15d
	jg	.L253
	.loc 1 526 10 is_stmt 1 view .LVU1259
	.loc 1 526 12 is_stmt 0 view .LVU1260
	movq	64(%rsp), %rcx
	.loc 1 528 18 view .LVU1261
	movl	8(%rsp), %ebp
	.loc 1 526 12 view .LVU1262
	movl	4(%rcx), %eax
	leaq	4(%rcx), %r14
	movl	%eax, 80(%rsp)
.LVL409:
	.loc 1 527 10 is_stmt 1 view .LVU1263
	.loc 1 528 10 view .LVU1264
	.loc 1 528 18 is_stmt 0 view .LVU1265
	addl	%eax, %ebp
	movq	56(%rsp), %rax
.LVL410:
	.loc 1 528 18 view .LVU1266
	leaq	4(%rax), %r13
	.loc 1 528 16 view .LVU1267
	jmp	.L257
.LVL411:
	.p2align 4,,10
	.p2align 3
.L259:
	.loc 1 531 13 is_stmt 1 view .LVU1268
	.loc 1 531 25 is_stmt 0 view .LVU1269
	movl	0(%r13), %eax
	.loc 1 533 16 view .LVU1270
	addq	%rbx, %r13
	.loc 1 531 20 view .LVU1271
	movl	%eax, (%r14)
	.loc 1 532 13 is_stmt 1 view .LVU1272
.LVL412:
	.loc 1 533 13 view .LVU1273
	.loc 1 533 16 is_stmt 0 view .LVU1274
	leaq	(%rdx,%rbx), %r14
	cmpl	%r15d, 32(%rsp)
	jg	.L324
.L257:
	.loc 1 528 18 is_stmt 1 view .LVU1275
	movq	24(%rsp), %rcx
	movl	8(%rsp), %edi
	movq	%r12, %rdx
	movl	%ebp, %esi
	addl	0(%r13), %edi
	.loc 1 529 26 is_stmt 0 view .LVU1276
	subl	16(%rsp), %r15d
.LVL413:
	.loc 1 529 24 view .LVU1277
	movq	%r13, 40(%rsp)
	.loc 1 528 18 view .LVU1278
	call	mainGtU
.LVL414:
	.loc 1 531 16 view .LVU1279
	movq	%r14, %rdx
	.loc 1 528 18 view .LVU1280
	testb	%al, %al
	jne	.L259
	movq	%r14, %rax
.L258:
	.loc 1 535 10 is_stmt 1 view .LVU1281
	.loc 1 535 17 is_stmt 0 view .LVU1282
	movl	80(%rsp), %ecx
	movl	%ecx, (%rax)
	.loc 1 536 10 is_stmt 1 view .LVU1283
	movl	48(%rsp), %eax
	leal	2(%rax), %r15d
.LVL415:
	.loc 1 539 10 view .LVU1284
	.loc 1 539 13 is_stmt 0 view .LVU1285
	cmpl	76(%rsp), %r15d
	jg	.L253
	.loc 1 540 10 is_stmt 1 view .LVU1286
	.loc 1 540 12 is_stmt 0 view .LVU1287
	movq	64(%rsp), %rsi
	.loc 1 542 18 view .LVU1288
	movl	8(%rsp), %ebp
	.loc 1 540 12 view .LVU1289
	movl	8(%rsi), %eax
	leaq	8(%rsi), %r14
	movl	%eax, 80(%rsp)
.LVL416:
	.loc 1 541 10 is_stmt 1 view .LVU1290
	.loc 1 542 10 view .LVU1291
	.loc 1 542 18 is_stmt 0 view .LVU1292
	addl	%eax, %ebp
	movq	56(%rsp), %rax
.LVL417:
	.loc 1 542 18 view .LVU1293
	leaq	8(%rax), %r13
	.loc 1 542 16 view .LVU1294
	jmp	.L260
.LVL418:
	.p2align 4,,10
	.p2align 3
.L262:
	.loc 1 545 13 is_stmt 1 view .LVU1295
	.loc 1 545 25 is_stmt 0 view .LVU1296
	movl	0(%r13), %eax
	.loc 1 547 16 view .LVU1297
	addq	%rbx, %r13
	.loc 1 545 20 view .LVU1298
	movl	%eax, (%r14)
	.loc 1 546 13 is_stmt 1 view .LVU1299
.LVL419:
	.loc 1 547 13 view .LVU1300
	.loc 1 547 16 is_stmt 0 view .LVU1301
	leaq	(%rdx,%rbx), %r14
	cmpl	%r15d, 32(%rsp)
	jg	.L325
.L260:
	.loc 1 542 18 is_stmt 1 view .LVU1302
	movq	24(%rsp), %rcx
	movl	8(%rsp), %edi
	movq	%r12, %rdx
	movl	%ebp, %esi
	addl	0(%r13), %edi
	.loc 1 543 26 is_stmt 0 view .LVU1303
	subl	16(%rsp), %r15d
.LVL420:
	.loc 1 543 24 view .LVU1304
	movq	%r13, 40(%rsp)
	.loc 1 542 18 view .LVU1305
	call	mainGtU
.LVL421:
	.loc 1 545 16 view .LVU1306
	movq	%r14, %rdx
	.loc 1 542 18 view .LVU1307
	testb	%al, %al
	jne	.L262
	movq	%r14, %rax
.L261:
	.loc 1 549 10 is_stmt 1 view .LVU1308
	.loc 1 549 17 is_stmt 0 view .LVU1309
	movl	80(%rsp), %ecx
	.loc 1 550 11 view .LVU1310
	addl	$3, 48(%rsp)
.LVL422:
	.loc 1 552 13 view .LVU1311
	addq	$12, 64(%rsp)
	.loc 1 549 17 view .LVU1312
	movl	%ecx, (%rax)
	.loc 1 550 10 is_stmt 1 view .LVU1313
.LVL423:
	.loc 1 552 10 view .LVU1314
	.loc 1 552 13 is_stmt 0 view .LVU1315
	movl	(%r9), %ecx
	addq	$12, 56(%rsp)
	testl	%ecx, %ecx
	jns	.L263
.LVL424:
.L218:
	.loc 1 552 13 view .LVU1316
.LBE150:
.LBE149:
.LBE148:
.LBE147:
.LBE146:
	.loc 1 1011 1 view .LVU1317
	movq	4728(%rsp), %rax
	subq	%fs:40, %rax
	jne	.L369
	addq	$4744, %rsp
	.cfi_remember_state
	.cfi_def_cfa_offset 56
	popq	%rbx
	.cfi_def_cfa_offset 48
	popq	%rbp
	.cfi_def_cfa_offset 40
	popq	%r12
	.cfi_def_cfa_offset 32
	popq	%r13
	.cfi_def_cfa_offset 24
	popq	%r14
	.cfi_def_cfa_offset 16
	popq	%r15
	.cfi_def_cfa_offset 8
	ret
.LVL425:
	.p2align 4,,10
	.p2align 3
.L323:
	.cfi_restore_state
.LBB183:
.LBB174:
.LBB169:
.LBB152:
.LBB151:
	.loc 1 1011 1 view .LVU1318
	movq	40(%rsp), %rax
	jmp	.L255
.LVL426:
	.p2align 4,,10
	.p2align 3
.L324:
	.loc 1 1011 1 view .LVU1319
	movq	40(%rsp), %rax
	jmp	.L258
.LVL427:
	.p2align 4,,10
	.p2align 3
.L325:
	.loc 1 1011 1 view .LVU1320
	movq	40(%rsp), %rax
	jmp	.L261
.LVL428:
.L253:
	.loc 1 504 22 is_stmt 1 view .LVU1321
	.loc 1 504 14 view .LVU1322
	subq	$4, 88(%rsp)
	.loc 1 504 14 is_stmt 0 view .LVU1323
	movq	88(%rsp), %rax
	cmpq	%rax, 144(%rsp)
	jne	.L265
	movq	%r12, %r13
	movl	%r8d, %r14d
	movq	%r9, %r12
.LVL429:
.L266:
	.loc 1 504 14 view .LVU1324
.LBE151:
.LBE152:
	.loc 1 652 10 is_stmt 1 view .LVU1325
	.loc 1 652 13 is_stmt 0 view .LVU1326
	movl	(%r12), %esi
	testl	%esi, %esi
	js	.L218
	.loc 1 715 90 is_stmt 1 view .LVU1327
	.loc 1 644 14 view .LVU1328
	movl	136(%rsp), %edx
	testl	%edx, %edx
	jne	.L374
.LBE169:
.LBE174:
	.loc 1 901 30 is_stmt 0 view .LVU1329
	movl	160(%rsp), %eax
	movl	164(%rsp), %esi
	movl	%r14d, %r15d
.LVL430:
	.loc 1 901 19 is_stmt 1 view .LVU1330
	.loc 1 901 30 is_stmt 0 view .LVU1331
	leal	1(%rax,%rsi), %eax
	movl	%eax, 160(%rsp)
.LVL431:
	.loc 1 902 19 is_stmt 1 view .LVU1332
	.loc 1 902 22 is_stmt 0 view .LVU1333
	movl	(%r12), %eax
.LVL432:
	.loc 1 902 22 view .LVU1334
	testl	%eax, %eax
	js	.L218
.LBE183:
	.loc 1 905 22 view .LVU1335
	movq	112(%rsp), %rax
	movl	(%rax), %edx
.L244:
	.loc 1 905 13 is_stmt 1 view .LVU1336
	.loc 1 905 22 is_stmt 0 view .LVU1337
	movq	112(%rsp), %rax
	orl	$2097152, %edx
	movl	%edx, (%rax)
.LVL433:
.L243:
	.loc 1 886 30 is_stmt 1 discriminator 2 view .LVU1338
	.loc 1 886 30 is_stmt 0 discriminator 2 view .LVU1339
	addl	$1, 84(%rsp)
.LVL434:
	.loc 1 886 30 discriminator 2 view .LVU1340
	movl	84(%rsp), %eax
.LVL435:
	.loc 1 886 21 is_stmt 1 discriminator 2 view .LVU1341
	cmpl	$256, %eax
	jne	.L294
	.loc 1 909 23 is_stmt 0 view .LVU1342
	movslq	124(%rsp), %rbp
	movq	%r13, %r14
	movq	%r12, %r13
	movl	%r15d, %r12d
	.loc 1 909 9 is_stmt 1 view .LVU1343
	.loc 1 909 12 is_stmt 0 view .LVU1344
	cmpb	$0, 4464(%rsp,%rbp)
	jne	.L375
.LVL436:
.L295:
	.loc 1 909 12 view .LVU1345
	movq	104(%rsp), %rax
	leaq	0(,%rbp,4), %r10
.LBB184:
.LBB175:
.LBB170:
	.loc 1 648 11 discriminator 3 view .LVU1346
	xorl	%edx, %edx
	movq	176(%rsp), %rdi
	leaq	3440(%rsp), %rsi
	leaq	(%rax,%r10), %rbx
	movq	%rbx, %rcx
.LVL437:
	.p2align 4,,10
	.p2align 3
.L296:
	.loc 1 648 11 discriminator 3 view .LVU1347
.LBE170:
.LBE175:
.LBE184:
	.loc 1 920 13 is_stmt 1 discriminator 3 view .LVU1348
	.loc 1 920 48 is_stmt 0 discriminator 3 view .LVU1349
	movl	(%rcx), %eax
	.loc 1 919 24 discriminator 3 view .LVU1350
	addq	$1024, %rcx
	.loc 1 920 48 discriminator 3 view .LVU1351
	andl	$-2097153, %eax
	.loc 1 920 26 discriminator 3 view .LVU1352
	movl	%eax, (%rdi,%rdx)
	.loc 1 921 13 is_stmt 1 discriminator 3 view .LVU1353
	.loc 1 921 52 is_stmt 0 discriminator 3 view .LVU1354
	movl	-1020(%rcx), %eax
	andl	$-2097153, %eax
	.loc 1 921 70 discriminator 3 view .LVU1355
	subl	$1, %eax
	movl	%eax, (%rsi,%rdx)
	.loc 1 919 33 is_stmt 1 discriminator 3 view .LVU1356
.LVL438:
	.loc 1 919 24 discriminator 3 view .LVU1357
	addq	$4, %rdx
.LVL439:
	.loc 1 919 24 is_stmt 0 discriminator 3 view .LVU1358
	cmpq	$1024, %rdx
	jne	.L296
	.loc 1 923 10 is_stmt 1 view .LVU1359
	.loc 1 923 27 is_stmt 0 view .LVU1360
	movslq	140(%rsp), %rax
	.loc 1 923 23 view .LVU1361
	movq	104(%rsp), %rsi
	.loc 1 923 64 view .LVU1362
	movl	2416(%rsp,%rbp,4), %ecx
	.loc 1 923 23 view .LVU1363
	leaq	(%rsi,%rax,4), %r9
	.loc 1 923 17 view .LVU1364
	movl	(%r9), %eax
	andl	$-2097153, %eax
.LVL440:
	.loc 1 923 53 is_stmt 1 view .LVU1365
	cmpl	%ecx, %eax
	jge	.L297
	movq	96(%rsp), %rdi
	cltq
.LVL441:
.L300:
	.loc 1 924 13 view .LVU1366
	.loc 1 924 23 is_stmt 0 view .LVU1367
	movl	(%rdi,%rax,4), %esi
	leal	-1(%rsi), %edx
.LVL442:
	.loc 1 924 27 is_stmt 1 view .LVU1368
	.loc 1 924 40 is_stmt 0 view .LVU1369
	leal	(%rdx,%r12), %ecx
	testl	%edx, %edx
	cmovs	%ecx, %edx
.LVL443:
	.loc 1 925 13 is_stmt 1 view .LVU1370
	.loc 1 926 13 view .LVU1371
	.loc 1 925 23 is_stmt 0 view .LVU1372
	movslq	%edx, %rcx
	.loc 1 926 25 view .LVU1373
	movzbl	(%r14,%rcx), %esi
	.loc 1 926 16 view .LVU1374
	cmpb	$0, 4464(%rsp,%rsi)
	jne	.L299
	.loc 1 927 16 is_stmt 1 view .LVU1375
	.loc 1 927 30 is_stmt 0 view .LVU1376
	movslq	2416(%rsp,%rsi,4), %rcx
	.loc 1 927 34 view .LVU1377
	leal	1(%rcx), %r8d
	.loc 1 927 39 view .LVU1378
	movl	%edx, (%rdi,%rcx,4)
.LVL444:
	.loc 1 927 34 view .LVU1379
	movl	%r8d, 2416(%rsp,%rsi,4)
.L299:
	.loc 1 923 71 is_stmt 1 discriminator 2 view .LVU1380
.LVL445:
	.loc 1 923 53 discriminator 2 view .LVU1381
	.loc 1 923 64 is_stmt 0 discriminator 2 view .LVU1382
	movl	2416(%rsp,%rbp,4), %ecx
	.loc 1 923 53 discriminator 2 view .LVU1383
	addq	$1, %rax
.LVL446:
	.loc 1 923 53 discriminator 2 view .LVU1384
	cmpl	%eax, %ecx
	jg	.L300
.LVL447:
.L297:
	.loc 1 929 10 is_stmt 1 view .LVU1385
	.loc 1 929 28 is_stmt 0 view .LVU1386
	movl	124(%rsp), %eax
	.loc 1 929 24 view .LVU1387
	movq	104(%rsp), %rsi
	.loc 1 929 72 view .LVU1388
	movl	3440(%rsp,%rbp,4), %edx
	.loc 1 929 28 view .LVU1389
	addl	$1, %eax
	.loc 1 929 32 view .LVU1390
	sall	$8, %eax
	cltq
	.loc 1 929 24 view .LVU1391
	leaq	(%rsi,%rax,4), %r15
	.loc 1 929 38 view .LVU1392
	movl	(%r15), %eax
	andl	$-2097153, %eax
	.loc 1 929 56 view .LVU1393
	subl	$1, %eax
.LVL448:
	.loc 1 929 63 is_stmt 1 view .LVU1394
	cmpl	%edx, %eax
	jle	.L301
	movq	96(%rsp), %r8
	cltq
.LVL449:
.L304:
	.loc 1 930 13 view .LVU1395
	.loc 1 930 23 is_stmt 0 view .LVU1396
	movl	(%r8,%rax,4), %esi
	leal	-1(%rsi), %edx
.LVL450:
	.loc 1 930 27 is_stmt 1 view .LVU1397
	.loc 1 930 40 is_stmt 0 view .LVU1398
	leal	(%rdx,%r12), %esi
	testl	%edx, %edx
	cmovs	%esi, %edx
.LVL451:
	.loc 1 931 13 is_stmt 1 view .LVU1399
	.loc 1 932 13 view .LVU1400
	.loc 1 931 23 is_stmt 0 view .LVU1401
	movslq	%edx, %rsi
	.loc 1 932 25 view .LVU1402
	movzbl	(%r14,%rsi), %edi
	.loc 1 932 16 view .LVU1403
	cmpb	$0, 4464(%rsp,%rdi)
	jne	.L303
	.loc 1 933 16 is_stmt 1 view .LVU1404
	.loc 1 933 28 is_stmt 0 view .LVU1405
	movslq	3440(%rsp,%rdi,4), %rsi
	.loc 1 933 32 view .LVU1406
	leal	-1(%rsi), %r11d
	.loc 1 933 37 view .LVU1407
	movl	%edx, (%r8,%rsi,4)
.LVL452:
	.loc 1 933 32 view .LVU1408
	movl	%r11d, 3440(%rsp,%rdi,4)
.L303:
	.loc 1 929 79 is_stmt 1 discriminator 2 view .LVU1409
.LVL453:
	.loc 1 929 63 discriminator 2 view .LVU1410
	.loc 1 929 72 is_stmt 0 discriminator 2 view .LVU1411
	movl	3440(%rsp,%rbp,4), %edx
.LVL454:
	.loc 1 929 63 discriminator 2 view .LVU1412
	subq	$1, %rax
.LVL455:
	.loc 1 929 63 discriminator 2 view .LVU1413
	cmpl	%eax, %edx
	jl	.L304
.LVL456:
.L301:
	.loc 1 937 9 is_stmt 1 view .LVU1414
	.loc 1 937 29 is_stmt 0 view .LVU1415
	leal	-1(%rcx), %eax
	.loc 1 937 12 view .LVU1416
	cmpl	%edx, %eax
	je	.L305
	.loc 1 937 71 discriminator 3 view .LVU1417
	testl	%ecx, %ecx
	jne	.L329
	cmpl	%edx, 172(%rsp)
	je	.L305
.L329:
	.loc 1 937 101 discriminator 4 view .LVU1418
	movl	$1007, %edi
	movq	%r10, 16(%rsp)
	movq	%r9, 8(%rsp)
	.loc 1 937 101 is_stmt 1 discriminator 4 view .LVU1419
	call	BZ2_bz__AssertH__fail@PLT
.LVL457:
	movq	16(%rsp), %r10
	movq	8(%rsp), %r9
.L305:
	movq	104(%rsp), %rax
	leaq	262144(%rax,%r10), %rax
	.p2align 4,,10
	.p2align 3
.L307:
.LVL458:
	.loc 1 946 34 discriminator 3 view .LVU1420
	.loc 1 946 54 is_stmt 0 discriminator 3 view .LVU1421
	orl	$2097152, (%rbx)
	.loc 1 946 30 is_stmt 1 discriminator 3 view .LVU1422
.LVL459:
	.loc 1 946 21 discriminator 3 view .LVU1423
	addq	$1024, %rbx
.LVL460:
	.loc 1 946 21 is_stmt 0 discriminator 3 view .LVU1424
	cmpq	%rbx, %rax
	jne	.L307
	.loc 1 987 7 is_stmt 1 view .LVU1425
	.loc 1 987 19 is_stmt 0 view .LVU1426
	movb	$1, 4464(%rsp,%rbp)
	.loc 1 989 7 is_stmt 1 view .LVU1427
	.loc 1 989 10 is_stmt 0 view .LVU1428
	movq	152(%rsp), %rcx
	cmpq	%rcx, 184(%rsp)
	je	.L368
.LBB185:
	.loc 1 990 10 is_stmt 1 view .LVU1429
	.loc 1 990 16 is_stmt 0 view .LVU1430
	movl	(%r9), %edx
	.loc 1 991 44 view .LVU1431
	movl	(%r15), %eax
	.loc 1 990 16 view .LVU1432
	andl	$-2097153, %edx
.LVL461:
	.loc 1 991 10 is_stmt 1 view .LVU1433
	.loc 1 991 44 is_stmt 0 view .LVU1434
	andl	$-2097153, %eax
	.loc 1 991 62 view .LVU1435
	subl	%edx, %eax
.LVL462:
	.loc 1 992 10 is_stmt 1 view .LVU1436
	.loc 1 994 10 view .LVU1437
	.loc 1 994 36 view .LVU1438
	.loc 1 996 17 is_stmt 0 view .LVU1439
	leal	-1(%rax), %esi
	.loc 1 994 36 view .LVU1440
	cmpl	$65534, %eax
	jle	.L310
	.loc 1 992 16 view .LVU1441
	xorl	%ecx, %ecx
.LVL463:
.L311:
	.loc 1 994 45 is_stmt 1 discriminator 2 view .LVU1442
	.loc 1 994 51 is_stmt 0 discriminator 2 view .LVU1443
	addl	$1, %ecx
.LVL464:
	.loc 1 994 36 is_stmt 1 discriminator 2 view .LVU1444
	.loc 1 994 25 is_stmt 0 discriminator 2 view .LVU1445
	movl	%eax, %edi
	sarl	%cl, %edi
	.loc 1 994 36 discriminator 2 view .LVU1446
	cmpl	$65534, %edi
	jg	.L311
.LVL465:
.L312:
	.loc 1 994 36 discriminator 2 view .LVU1447
	movq	96(%rsp), %rax
.LVL466:
	.loc 1 994 36 discriminator 2 view .LVU1448
	movslq	%edx, %rdx
	.loc 1 994 36 discriminator 2 view .LVU1449
	movq	24(%rsp), %r9
	movslq	%esi, %rdi
	leaq	(%rax,%rdx,4), %r8
.LVL467:
.L315:
.LBB186:
	.loc 1 997 13 is_stmt 1 view .LVU1450
	.loc 1 997 19 is_stmt 0 view .LVU1451
	movslq	(%r8,%rdi,4), %r10
	.loc 1 998 38 view .LVU1452
	movl	%edi, %edx
	sarl	%cl, %edx
	.loc 1 999 32 view .LVU1453
	movw	%dx, (%r9,%r10,2)
	.loc 1 997 19 view .LVU1454
	movq	%r10, %rax
.LVL468:
	.loc 1 998 13 is_stmt 1 view .LVU1455
	.loc 1 999 13 view .LVU1456
	.loc 1 1000 13 view .LVU1457
	.loc 1 1000 16 is_stmt 0 view .LVU1458
	cmpl	$33, %r10d
	jg	.L314
	.loc 1 1001 16 is_stmt 1 view .LVU1459
	.loc 1 1001 34 is_stmt 0 view .LVU1460
	addl	%r12d, %eax
	cltq
	.loc 1 1001 44 view .LVU1461
	movw	%dx, (%r9,%rax,2)
.L314:
	.loc 1 1001 44 view .LVU1462
.LBE186:
	.loc 1 996 38 is_stmt 1 discriminator 2 view .LVU1463
.LVL469:
	.loc 1 996 31 discriminator 2 view .LVU1464
	subq	$1, %rdi
.LVL470:
	.loc 1 996 31 is_stmt 0 discriminator 2 view .LVU1465
	testl	%edi, %edi
	jns	.L315
	.loc 1 1003 12 is_stmt 1 view .LVU1466
	.loc 1 1003 30 is_stmt 0 view .LVU1467
	movl	%esi, %eax
	sarl	%cl, %eax
	.loc 1 1003 15 view .LVU1468
	cmpl	$65535, %eax
	jle	.L313
	.loc 1 1003 52 is_stmt 1 discriminator 1 view .LVU1469
	movl	$1002, %edi
	call	BZ2_bz__AssertH__fail@PLT
.LVL471:
.L313:
	.loc 1 1003 85 discriminator 3 view .LVU1470
.LBE185:
	.loc 1 868 27 discriminator 3 view .LVU1471
	.loc 1 868 18 discriminator 3 view .LVU1472
	addq	$4, 152(%rsp)
.LVL472:
	.loc 1 868 18 is_stmt 0 discriminator 3 view .LVU1473
	movq	152(%rsp), %rax
	cmpq	%rax, 176(%rsp)
	jne	.L316
.L368:
	.loc 1 1008 4 is_stmt 1 view .LVU1474
	.loc 1 1008 7 is_stmt 0 view .LVU1475
	cmpl	$3, 168(%rsp)
	jle	.L218
	.loc 1 1009 7 is_stmt 1 view .LVU1476
.LVL473:
.LBB187:
.LBI187:
	.loc 2 103 1 view .LVU1477
.LBB188:
	.loc 2 105 3 view .LVU1478
	.loc 2 105 10 is_stmt 0 view .LVU1479
	movq	4728(%rsp), %rax
	subq	%fs:40, %rax
	jne	.L369
	movl	160(%rsp), %r8d
	movl	%r12d, %r9d
	movl	%r12d, %ecx
	xorl	%eax, %eax
	movq	stderr(%rip), %rdi
.LBE188:
.LBE187:
	.loc 1 1011 1 view .LVU1480
	addq	$4744, %rsp
	.cfi_remember_state
	.cfi_def_cfa_offset 56
.LBB192:
.LBB189:
	.loc 2 105 10 view .LVU1481
	movl	$1, %esi
	leaq	.LC6(%rip), %rdx
.LBE189:
.LBE192:
	.loc 1 1011 1 view .LVU1482
	popq	%rbx
	.cfi_def_cfa_offset 48
.LBB193:
.LBB190:
	.loc 2 105 10 view .LVU1483
	subl	%r8d, %r9d
.LBE190:
.LBE193:
	.loc 1 1011 1 view .LVU1484
	popq	%rbp
	.cfi_def_cfa_offset 40
	popq	%r12
	.cfi_def_cfa_offset 32
	popq	%r13
	.cfi_def_cfa_offset 24
	popq	%r14
	.cfi_def_cfa_offset 16
	popq	%r15
	.cfi_def_cfa_offset 8
.LBB194:
.LBB191:
	.loc 2 105 10 view .LVU1485
	jmp	__fprintf_chk@PLT
.LVL474:
	.p2align 4,,10
	.p2align 3
.L321:
	.cfi_restore_state
	.loc 2 105 10 view .LVU1486
.LBE191:
.LBE194:
.LBB195:
	movslq	%esi, %rdi
	jmp	.L239
.LVL475:
.L247:
	.loc 2 105 10 view .LVU1487
.LBE195:
.LBB196:
.LBB176:
.LBB171:
	.loc 1 656 7 is_stmt 1 view .LVU1488
	.loc 1 659 35 is_stmt 0 view .LVU1489
	movl	76(%rsp), %ecx
	movslq	120(%rsp), %r15
	.loc 1 659 44 view .LVU1490
	movl	8(%rsp), %edx
	movq	96(%rsp), %rbx
	.loc 1 659 35 view .LVU1491
	movl	%ecx, %eax
	addl	%r15d, %eax
	.loc 1 659 44 view .LVU1492
	movl	%edx, %esi
	.loc 1 659 39 view .LVU1493
	sarl	%eax
	cltq
	.loc 1 659 44 view .LVU1494
	addl	(%rbx,%rax,4), %esi
	.loc 1 658 30 view .LVU1495
	movslq	%ecx, %rax
	.loc 1 658 36 view .LVU1496
	movq	%rbx, %rcx
	movl	%edx, %ebx
	.loc 1 657 30 view .LVU1497
	leaq	(%rcx,%r15,4), %r11
	.loc 1 658 36 view .LVU1498
	addl	(%rcx,%rax,4), %ebx
	.loc 1 659 26 view .LVU1499
	movzbl	0(%r13,%rsi), %esi
	.loc 1 657 30 view .LVU1500
	movl	(%r11), %ecx
	.loc 1 658 26 view .LVU1501
	movzbl	0(%r13,%rbx), %r10d
	.loc 1 657 36 view .LVU1502
	leal	(%rdx,%rcx), %eax
	.loc 1 657 26 view .LVU1503
	movzbl	0(%r13,%rax), %eax
.LVL476:
.LBB153:
.LBI153:
	.loc 1 583 7 is_stmt 1 view .LVU1504
.LBB154:
	.loc 1 585 4 view .LVU1505
	.loc 1 586 4 view .LVU1506
	movzbl	%al, %edx
	.loc 1 586 7 is_stmt 0 view .LVU1507
	cmpb	%al, %r10b
	jnb	.L267
	movzbl	%r10b, %edx
	movzbl	%al, %r10d
.LVL477:
.L267:
	.loc 1 586 39 is_stmt 1 view .LVU1508
	.loc 1 587 4 view .LVU1509
	cmpb	%dl, %sil
.LBE154:
.LBE153:
	.loc 1 666 16 is_stmt 0 view .LVU1510
	movl	120(%rsp), %r9d
	cmovnb	%esi, %edx
.LVL478:
	.loc 1 666 16 view .LVU1511
	cmpb	%r10b, %sil
	cmovb	%edx, %r10d
.LVL479:
.LBB156:
.LBB155:
	.loc 1 591 4 is_stmt 1 view .LVU1512
	.loc 1 591 4 is_stmt 0 view .LVU1513
.LBE155:
.LBE156:
	.loc 1 661 7 is_stmt 1 view .LVU1514
	.loc 1 662 7 view .LVU1515
	.loc 1 664 7 view .LVU1516
	.loc 1 665 10 view .LVU1517
	.loc 1 666 13 view .LVU1518
	.loc 1 666 16 is_stmt 0 view .LVU1519
	movl	76(%rsp), %edx
	cmpl	%r9d, %edx
	jl	.L269
	movq	%r11, %rbp
	movl	%r9d, %edi
	.loc 1 667 15 view .LVU1520
	subl	%r10d, %eax
	movq	%r15, 16(%rsp)
	movq	%rbp, 32(%rsp)
	.loc 1 656 11 view .LVU1521
	movq	%r11, %rbx
	movl	8(%rsp), %ebp
	movl	%edx, %r11d
	movq	96(%rsp), %r15
	movl	%edi, %r8d
.LVL480:
	.loc 1 667 13 is_stmt 1 view .LVU1522
	.loc 1 668 13 view .LVU1523
	.loc 1 668 16 is_stmt 0 view .LVU1524
	testl	%eax, %eax
	je	.L376
.LVL481:
.L273:
	.loc 1 671 14 is_stmt 1 view .LVU1525
	.loc 1 672 13 view .LVU1526
	.loc 1 672 16 is_stmt 0 view .LVU1527
	jle	.L275
	.loc 1 675 10 is_stmt 1 view .LVU1528
	.loc 1 676 13 view .LVU1529
	.loc 1 676 16 is_stmt 0 view .LVU1530
	cmpl	%edx, %edi
	jg	.L364
	.loc 1 676 16 view .LVU1531
	movslq	%edx, %rax
.LVL482:
	.loc 1 676 16 view .LVU1532
	movl	%edi, 48(%rsp)
	leaq	(%r15,%rax,4), %rax
	jmp	.L276
.LVL483:
	.p2align 4,,10
	.p2align 3
.L277:
	.loc 1 681 14 is_stmt 1 view .LVU1533
	.loc 1 682 13 view .LVU1534
	.loc 1 682 16 is_stmt 0 view .LVU1535
	js	.L377
.LVL484:
.L278:
	.loc 1 675 10 is_stmt 1 view .LVU1536
	.loc 1 676 13 view .LVU1537
	.loc 1 676 16 is_stmt 0 view .LVU1538
	subq	$4, %rax
	cmpl	%edx, %edi
	jg	.L365
.L276:
	.loc 1 677 13 is_stmt 1 view .LVU1539
	.loc 1 677 34 is_stmt 0 view .LVU1540
	movl	(%rax), %ecx
	.loc 1 680 28 view .LVU1541
	subl	$1, %edx
.LVL485:
	.loc 1 677 40 view .LVU1542
	leal	0(%rbp,%rcx), %esi
	.loc 1 677 18 view .LVU1543
	movzbl	0(%r13,%rsi), %esi
.LVL486:
	.loc 1 678 13 is_stmt 1 view .LVU1544
	.loc 1 678 16 is_stmt 0 view .LVU1545
	cmpl	%r10d, %esi
	jne	.L277
.LBB157:
	.loc 1 679 18 is_stmt 1 view .LVU1546
.LVL487:
	.loc 1 679 43 view .LVU1547
	.loc 1 679 58 is_stmt 0 view .LVU1548
	movslq	%r11d, %rsi
.LVL488:
	.loc 1 679 58 view .LVU1549
.LBE157:
	.loc 1 680 20 view .LVU1550
	subl	$1, %r11d
.LVL489:
.LBB158:
	.loc 1 679 58 view .LVU1551
	leaq	(%r15,%rsi,4), %rsi
	.loc 1 679 53 view .LVU1552
	movl	(%rsi), %r8d
	movl	%r8d, (%rax)
.LVL490:
	.loc 1 679 66 is_stmt 1 view .LVU1553
	.loc 1 679 76 is_stmt 0 view .LVU1554
	movl	%ecx, (%rsi)
.LBE158:
	.loc 1 679 86 is_stmt 1 view .LVU1555
	.loc 1 680 16 view .LVU1556
.LVL491:
	.loc 1 680 24 view .LVU1557
	.loc 1 680 32 view .LVU1558
	jmp	.L278
.LVL492:
.L377:
	.loc 1 685 10 view .LVU1559
.LBB159:
	.loc 1 686 12 view .LVU1560
	.loc 1 686 29 is_stmt 0 view .LVU1561
	movl	(%rbx), %esi
.LVL493:
	.loc 1 686 37 is_stmt 1 view .LVU1562
	.loc 1 686 47 is_stmt 0 view .LVU1563
	movl	%ecx, (%rbx)
.LVL494:
	.loc 1 686 60 is_stmt 1 view .LVU1564
	addl	$1, %edi
.LVL495:
	.loc 1 686 60 is_stmt 0 view .LVU1565
	movl	%edi, %r8d
	.loc 1 686 70 view .LVU1566
	movl	%esi, (%rax)
.LBE159:
	.loc 1 686 80 is_stmt 1 view .LVU1567
	.loc 1 686 82 view .LVU1568
.LVL496:
	.loc 1 686 90 view .LVU1569
	.loc 1 664 13 view .LVU1570
.L274:
	.loc 1 664 7 view .LVU1571
	.loc 1 665 10 view .LVU1572
	.loc 1 666 13 view .LVU1573
	.loc 1 666 16 is_stmt 0 view .LVU1574
	addq	$4, %rbx
	cmpl	%edi, %edx
	jl	.L364
.L378:
	.loc 1 667 34 view .LVU1575
	movslq	%edi, %rax
	movl	%edi, %r8d
.LVL497:
	.loc 1 667 13 is_stmt 1 view .LVU1576
	.loc 1 667 34 is_stmt 0 view .LVU1577
	movl	(%r15,%rax,4), %ecx
	.loc 1 667 40 view .LVU1578
	leal	0(%rbp,%rcx), %eax
	.loc 1 667 30 view .LVU1579
	movzbl	0(%r13,%rax), %eax
	.loc 1 667 15 view .LVU1580
	subl	%r10d, %eax
.LVL498:
	.loc 1 668 13 is_stmt 1 view .LVU1581
	.loc 1 668 16 is_stmt 0 view .LVU1582
	testl	%eax, %eax
	jne	.L273
.LVL499:
.L376:
.LBB160:
	.loc 1 669 18 is_stmt 1 view .LVU1583
	.loc 1 669 43 view .LVU1584
	.loc 1 669 58 is_stmt 0 view .LVU1585
	movslq	%r9d, %rax
.LVL500:
	.loc 1 669 58 view .LVU1586
	leal	1(%rdi), %edi
.LVL501:
	.loc 1 669 58 view .LVU1587
.LBE160:
	.loc 1 670 20 view .LVU1588
	addl	$1, %r9d
.LVL502:
	.loc 1 666 16 view .LVU1589
	addq	$4, %rbx
.LVL503:
.LBB161:
	.loc 1 669 58 view .LVU1590
	leaq	(%r15,%rax,4), %rax
	movl	%edi, %r8d
.LVL504:
	.loc 1 669 58 view .LVU1591
	movl	(%rax), %esi
	.loc 1 669 53 view .LVU1592
	movl	%esi, -4(%rbx)
.LVL505:
	.loc 1 669 66 is_stmt 1 view .LVU1593
	.loc 1 669 76 is_stmt 0 view .LVU1594
	movl	%ecx, (%rax)
.LBE161:
	.loc 1 669 86 is_stmt 1 view .LVU1595
	.loc 1 670 16 view .LVU1596
.LVL506:
	.loc 1 670 24 view .LVU1597
	.loc 1 670 32 view .LVU1598
	.loc 1 664 7 view .LVU1599
	.loc 1 665 10 view .LVU1600
	.loc 1 666 13 view .LVU1601
	.loc 1 666 16 is_stmt 0 view .LVU1602
	cmpl	%edi, %edx
	jge	.L378
.L364:
	.loc 1 666 16 view .LVU1603
	movq	16(%rsp), %r15
	movq	32(%rsp), %rbp
.L272:
	.loc 1 685 10 is_stmt 1 view .LVU1604
	.loc 1 689 7 view .LVU1605
	.loc 1 691 7 view .LVU1606
	.loc 1 691 10 is_stmt 0 view .LVU1607
	cmpl	%r11d, %r9d
	jle	.L379
.LVL507:
.L269:
	.loc 1 692 12 is_stmt 1 view .LVU1608
	.loc 1 692 30 view .LVU1609
	.loc 1 692 48 view .LVU1610
	.loc 1 692 63 is_stmt 0 view .LVU1611
	movl	8(%rsp), %edx
	.loc 1 692 60 view .LVU1612
	movslq	136(%rsp), %rax
	.loc 1 692 63 view .LVU1613
	addl	$1, %edx
	movl	%edx, 992(%rsp,%rax,4)
.LVL508:
	.loc 1 692 67 is_stmt 1 view .LVU1614
	.loc 1 692 74 view .LVU1615
	.loc 1 693 10 view .LVU1616
	.loc 1 715 90 view .LVU1617
	.loc 1 644 14 view .LVU1618
.L271:
	.loc 1 644 14 is_stmt 0 view .LVU1619
	movslq	136(%rsp), %rbx
.LVL509:
.L289:
	.loc 1 646 9 is_stmt 1 view .LVU1620
	.loc 1 646 12 is_stmt 0 view .LVU1621
	cmpl	$97, 40(%rsp)
	jle	.L292
	.loc 1 646 30 is_stmt 1 view .LVU1622
	movl	$1001, %edi
	call	BZ2_bz__AssertH__fail@PLT
.LVL510:
.L292:
	.loc 1 648 36 is_stmt 0 view .LVU1623
	movl	592(%rsp,%rbx,4), %eax
	movl	%eax, 76(%rsp)
	.loc 1 648 18 view .LVU1624
	movl	192(%rsp,%rbx,4), %eax
	movl	%eax, 120(%rsp)
	.loc 1 648 53 view .LVU1625
	movl	992(%rsp,%rbx,4), %eax
	movl	%eax, 8(%rsp)
	jmp	.L246
.LVL511:
.L275:
	.loc 1 673 13 is_stmt 1 view .LVU1626
	leal	1(%rdi), %edi
.LVL512:
	.loc 1 673 13 is_stmt 0 view .LVU1627
	movl	%edi, %r8d
.LVL513:
	.loc 1 673 13 view .LVU1628
	jmp	.L274
.LVL514:
.L372:
	.loc 1 673 13 view .LVU1629
.LBE171:
.LBE176:
	.loc 1 894 22 is_stmt 1 view .LVU1630
.LBB177:
.LBI177:
	.loc 2 103 1 view .LVU1631
.LBB178:
	.loc 2 105 3 view .LVU1632
	.loc 2 105 10 is_stmt 0 view .LVU1633
	subq	$8, %rsp
	.cfi_def_cfa_offset 4808
.LBE178:
.LBE177:
	.loc 1 894 22 view .LVU1634
	addl	$1, %eax
.LBB180:
.LBB179:
	.loc 2 105 10 view .LVU1635
	movq	stderr(%rip), %rdi
	leaq	.LC5(%rip), %rdx
	pushq	%rax
	.cfi_def_cfa_offset 4816
	movl	176(%rsp), %r9d
	movl	$1, %esi
.LVL515:
	.loc 2 105 10 view .LVU1636
	xorl	%eax, %eax
	movl	100(%rsp), %r8d
	movl	140(%rsp), %ecx
	call	__fprintf_chk@PLT
.LVL516:
	.loc 2 105 10 view .LVU1637
	popq	%rdi
	.cfi_def_cfa_offset 4808
	popq	%r8
	.cfi_def_cfa_offset 4800
	jmp	.L245
.LVL517:
.L379:
	.loc 2 105 10 view .LVU1638
.LBE179:
.LBE180:
.LBB181:
.LBB172:
	.loc 1 696 7 is_stmt 1 view .LVU1639
	.loc 1 696 29 is_stmt 0 view .LVU1640
	movl	%r8d, %ecx
	.loc 1 696 17 view .LVU1641
	movl	%r9d, %eax
	subl	120(%rsp), %eax
	.loc 1 696 29 view .LVU1642
	subl	%r9d, %ecx
	.loc 1 696 9 view .LVU1643
	cmpl	%eax, %ecx
	cmovle	%ecx, %eax
.LVL518:
.LBB162:
	.loc 1 696 66 is_stmt 1 view .LVU1644
	.loc 1 696 85 view .LVU1645
	.loc 1 696 91 is_stmt 0 view .LVU1646
	movl	%r8d, %ecx
	subl	%eax, %ecx
.LVL519:
	.loc 1 696 108 is_stmt 1 view .LVU1647
	.loc 1 696 125 view .LVU1648
	.loc 1 696 136 view .LVU1649
	testl	%eax, %eax
	jle	.L284
	movq	96(%rsp), %rsi
	subl	$1, %eax
.LVL520:
	.loc 1 696 136 is_stmt 0 view .LVU1650
	addq	%r15, %rax
	leaq	4(%rsi,%rax,4), %rsi
	movslq	%ecx, %rax
	subq	%r15, %rax
.LVL521:
.L283:
.LBB163:
	.loc 1 696 145 is_stmt 1 view .LVU1651
	.loc 1 696 162 is_stmt 0 view .LVU1652
	movl	0(%rbp), %ecx
.LVL522:
	.loc 1 696 170 is_stmt 1 view .LVU1653
	.loc 1 696 185 is_stmt 0 view .LVU1654
	movl	0(%rbp,%rax,4), %edi
	.loc 1 696 180 view .LVU1655
	movl	%edi, 0(%rbp)
	.loc 1 696 193 is_stmt 1 view .LVU1656
	.loc 1 696 203 is_stmt 0 view .LVU1657
	movl	%ecx, 0(%rbp,%rax,4)
.LBE163:
	.loc 1 696 213 is_stmt 1 view .LVU1658
	.loc 1 696 215 view .LVU1659
.LVL523:
	.loc 1 696 223 view .LVU1660
	.loc 1 696 231 view .LVU1661
	.loc 1 696 136 view .LVU1662
	addq	$4, %rbp
.LVL524:
	.loc 1 696 136 is_stmt 0 view .LVU1663
	cmpq	%rbp, %rsi
	jne	.L283
.LVL525:
.L284:
	.loc 1 696 136 view .LVU1664
.LBE162:
	.loc 1 696 241 is_stmt 1 view .LVU1665
	.loc 1 697 7 view .LVU1666
	.loc 1 697 15 is_stmt 0 view .LVU1667
	movl	76(%rsp), %eax
	.loc 1 697 29 view .LVU1668
	movl	%r11d, %edi
	subl	%edx, %edi
	.loc 1 697 15 view .LVU1669
	movl	%eax, %edx
.LVL526:
	.loc 1 697 15 view .LVU1670
	subl	%r11d, %edx
	.loc 1 697 9 view .LVU1671
	cmpl	%edi, %edx
	cmovg	%edi, %edx
.LVL527:
.LBB164:
	.loc 1 697 66 is_stmt 1 view .LVU1672
	.loc 1 697 87 view .LVU1673
	.loc 1 697 103 is_stmt 0 view .LVU1674
	subl	%edx, %eax
	movl	%eax, %r10d
.LVL528:
	.loc 1 697 110 is_stmt 1 view .LVU1675
	.loc 1 697 127 view .LVU1676
	.loc 1 697 138 view .LVU1677
	testl	%edx, %edx
	jle	.L282
	movslq	%r8d, %rcx
	movq	96(%rsp), %rsi
	subl	$1, %edx
.LVL529:
	.loc 1 697 138 is_stmt 0 view .LVU1678
	addq	%rcx, %rdx
	leaq	(%rsi,%rcx,4), %rax
.LVL530:
	.loc 1 697 138 view .LVU1679
	leaq	4(%rsi,%rdx,4), %rsi
	movslq	%r10d, %rdx
	subq	%rcx, %rdx
.LVL531:
.L286:
.LBB165:
	.loc 1 697 147 is_stmt 1 view .LVU1680
	.loc 1 697 164 is_stmt 0 view .LVU1681
	movl	(%rax), %ecx
.LVL532:
	.loc 1 697 172 is_stmt 1 view .LVU1682
	.loc 1 697 187 is_stmt 0 view .LVU1683
	movl	4(%rax,%rdx,4), %r10d
	.loc 1 697 182 view .LVU1684
	movl	%r10d, (%rax)
	.loc 1 697 195 is_stmt 1 view .LVU1685
	.loc 1 697 205 is_stmt 0 view .LVU1686
	movl	%ecx, 4(%rax,%rdx,4)
.LBE165:
	.loc 1 697 215 is_stmt 1 view .LVU1687
	.loc 1 697 217 view .LVU1688
.LVL533:
	.loc 1 697 225 view .LVU1689
	.loc 1 697 233 view .LVU1690
	.loc 1 697 138 view .LVU1691
	addq	$4, %rax
.LVL534:
	.loc 1 697 138 is_stmt 0 view .LVU1692
	cmpq	%rax, %rsi
	jne	.L286
.LVL535:
.L282:
	.loc 1 697 138 view .LVU1693
.LBE164:
	.loc 1 697 243 is_stmt 1 view .LVU1694
	.loc 1 699 7 view .LVU1695
	.loc 1 699 14 is_stmt 0 view .LVU1696
	movl	120(%rsp), %r10d
	leal	(%r8,%r10), %eax
	.loc 1 700 14 view .LVU1697
	movl	76(%rsp), %r8d
.LVL536:
	.loc 1 699 21 view .LVU1698
	subl	%r9d, %eax
	.loc 1 706 21 view .LVU1699
	movl	%r10d, %r9d
.LVL537:
	.loc 1 700 14 view .LVU1700
	movl	%r8d, %edx
	.loc 1 699 9 view .LVU1701
	leal	-1(%rax), %ecx
.LVL538:
	.loc 1 700 7 is_stmt 1 view .LVU1702
	.loc 1 706 45 is_stmt 0 view .LVU1703
	movl	%r8d, %ebx
	.loc 1 700 14 view .LVU1704
	subl	%edi, %edx
	.loc 1 706 21 view .LVU1705
	movl	%ecx, %r11d
.LVL539:
	.loc 1 704 53 view .LVU1706
	movl	8(%rsp), %edi
	.loc 1 700 9 view .LVU1707
	leal	1(%rdx), %esi
.LVL540:
	.loc 1 702 7 is_stmt 1 view .LVU1708
	.loc 1 702 23 view .LVU1709
	.loc 1 702 38 view .LVU1710
	.loc 1 703 7 view .LVU1711
	.loc 1 703 22 view .LVU1712
	.loc 1 703 38 view .LVU1713
	.loc 1 704 7 view .LVU1714
	.loc 1 704 24 view .LVU1715
	.loc 1 704 41 view .LVU1716
	.loc 1 706 21 is_stmt 0 view .LVU1717
	subl	%r10d, %r11d
	.loc 1 706 45 view .LVU1718
	subl	%esi, %ebx
	.loc 1 704 53 view .LVU1719
	addl	$1, %edi
.LVL541:
	.loc 1 706 7 is_stmt 1 view .LVU1720
	.loc 1 706 10 is_stmt 0 view .LVU1721
	cmpl	%ebx, %r11d
	jl	.L285
	movl	%r11d, %r10d
	movl	%ebx, %r11d
	.loc 1 702 33 view .LVU1722
	movl	%ecx, 76(%rsp)
	.loc 1 706 10 view .LVU1723
	movl	%r8d, %ecx
.LVL542:
	.loc 1 706 10 view .LVU1724
	movl	%r10d, %ebx
	movl	%esi, %r10d
	movl	%r9d, %esi
.LVL543:
	.loc 1 703 17 view .LVU1725
	movl	%r10d, 120(%rsp)
.LVL544:
.L285:
	.loc 1 706 236 is_stmt 1 view .LVU1726
	.loc 1 707 7 view .LVU1727
	movl	8(%rsp), %r10d
	.loc 1 707 45 is_stmt 0 view .LVU1728
	movl	%edx, %ebp
	subl	%eax, %ebp
	movl	%r10d, %r8d
	.loc 1 707 10 view .LVU1729
	cmpl	%r11d, %ebp
	jg	.L287
	.loc 1 704 50 view .LVU1730
	movl	%edi, %r8d
	.loc 1 707 10 view .LVU1731
	movl	%r10d, %edi
.LVL545:
	.loc 1 707 10 view .LVU1732
	movl	%edx, %r10d
	movl	%ecx, %edx
.LVL546:
	.loc 1 704 34 view .LVU1733
	movl	%r10d, %ecx
.LVL547:
	.loc 1 707 10 view .LVU1734
	movl	%eax, %r10d
.LVL548:
	.loc 1 707 10 view .LVU1735
	movl	120(%rsp), %eax
.LVL549:
	.loc 1 707 10 view .LVU1736
	movl	%r11d, %ebp
	.loc 1 704 17 view .LVU1737
	movl	%r10d, 120(%rsp)
.LVL550:
.L287:
	.loc 1 707 236 is_stmt 1 view .LVU1738
	.loc 1 708 7 view .LVU1739
	.loc 1 708 10 is_stmt 0 view .LVU1740
	cmpl	%ebp, %ebx
	jge	.L288
	movl	8(%rsp), %r10d
.LBB166:
	.loc 1 708 206 view .LVU1741
	movl	%edi, 8(%rsp)
.LBE166:
	.loc 1 708 10 view .LVU1742
	movl	%r10d, %edi
.LVL551:
	.loc 1 708 10 view .LVU1743
	movl	76(%rsp), %r10d
.LBB167:
	.loc 1 708 151 view .LVU1744
	movl	%edx, 76(%rsp)
.LVL552:
	.loc 1 708 174 view .LVU1745
	movl	%r10d, %edx
.LVL553:
	.loc 1 708 174 view .LVU1746
.LBE167:
	.loc 1 708 10 view .LVU1747
	movl	%esi, %r10d
.LBB168:
	.loc 1 708 96 view .LVU1748
	movl	%eax, %esi
.LVL554:
	.loc 1 708 119 view .LVU1749
	movl	%r10d, %eax
.LVL555:
.L288:
	.loc 1 708 119 view .LVU1750
.LBE168:
	.loc 1 708 236 is_stmt 1 view .LVU1751
	.loc 1 710 7 view .LVU1752
	.loc 1 711 7 view .LVU1753
	.loc 1 713 9 view .LVU1754
	.loc 1 713 21 is_stmt 0 view .LVU1755
	movslq	136(%rsp), %r10
	movl	%esi, 192(%rsp,%r10,4)
.LVL556:
	.loc 1 713 34 is_stmt 1 view .LVU1756
	.loc 1 713 46 is_stmt 0 view .LVU1757
	movl	76(%rsp), %esi
.LVL557:
	.loc 1 713 46 view .LVU1758
	movl	%esi, 592(%rsp,%r10,4)
.LVL558:
	.loc 1 713 59 is_stmt 1 view .LVU1759
	.loc 1 713 71 is_stmt 0 view .LVU1760
	movl	8(%rsp), %esi
	movl	%esi, 992(%rsp,%r10,4)
.LVL559:
	.loc 1 713 83 is_stmt 1 view .LVU1761
	.loc 1 713 90 view .LVU1762
	.loc 1 714 9 view .LVU1763
	.loc 1 714 21 is_stmt 0 view .LVU1764
	movslq	40(%rsp), %rsi
	movl	%eax, 192(%rsp,%rsi,4)
.LVL560:
	.loc 1 714 34 is_stmt 1 view .LVU1765
	.loc 1 714 85 is_stmt 0 view .LVU1766
	movl	%esi, %eax
.LVL561:
	.loc 1 714 85 view .LVU1767
	leal	1(%rsi), %ebx
	.loc 1 714 46 view .LVU1768
	movl	%edx, 592(%rsp,%rsi,4)
	.loc 1 714 59 is_stmt 1 view .LVU1769
	.loc 1 715 85 is_stmt 0 view .LVU1770
	addl	$2, %eax
	.loc 1 715 21 view .LVU1771
	movslq	%ebx, %rbx
	.loc 1 714 71 view .LVU1772
	movl	%edi, 992(%rsp,%rsi,4)
	.loc 1 714 83 is_stmt 1 view .LVU1773
.LVL562:
	.loc 1 714 90 view .LVU1774
	.loc 1 715 9 view .LVU1775
	.loc 1 715 21 is_stmt 0 view .LVU1776
	movl	120(%rsp), %esi
.LVL563:
	.loc 1 715 85 view .LVU1777
	movl	%eax, 40(%rsp)
.LVL564:
	.loc 1 715 85 view .LVU1778
	subl	$1, %eax
	.loc 1 715 21 view .LVU1779
	movl	%esi, 192(%rsp,%rbx,4)
	.loc 1 715 34 is_stmt 1 view .LVU1780
	.loc 1 715 46 is_stmt 0 view .LVU1781
	movl	%ecx, 592(%rsp,%rbx,4)
	.loc 1 715 59 is_stmt 1 view .LVU1782
	.loc 1 715 71 is_stmt 0 view .LVU1783
	movl	%r8d, 992(%rsp,%rbx,4)
	.loc 1 715 83 is_stmt 1 view .LVU1784
	.loc 1 715 90 view .LVU1785
	.loc 1 644 14 view .LVU1786
	movl	%eax, 136(%rsp)
	jmp	.L289
.LVL565:
.L375:
	.loc 1 644 14 is_stmt 0 view .LVU1787
.LBE172:
.LBE181:
.LBE196:
	.loc 1 909 30 is_stmt 1 discriminator 1 view .LVU1788
	movl	$1006, %edi
	call	BZ2_bz__AssertH__fail@PLT
.LVL566:
	.loc 1 909 30 is_stmt 0 discriminator 1 view .LVU1789
	jmp	.L295
.LVL567:
.L371:
	.loc 1 800 19 is_stmt 1 discriminator 1 view .LVU1790
.LBB197:
.LBI197:
	.loc 2 103 1 discriminator 1 view .LVU1791
.LBB198:
	.loc 2 105 3 discriminator 1 view .LVU1792
	.loc 2 105 10 is_stmt 0 discriminator 1 view .LVU1793
	movq	stderr(%rip), %rcx
	movl	$27, %edx
	movl	$1, %esi
	leaq	.LC0(%rip), %rdi
	call	fwrite@PLT
.LVL568:
	.loc 2 105 10 discriminator 1 view .LVU1794
	jmp	.L226
.LVL569:
.L370:
	.loc 2 105 10 discriminator 1 view .LVU1795
.LBE198:
.LBE197:
	.loc 1 767 19 is_stmt 1 discriminator 1 view .LVU1796
.LBB199:
.LBI199:
	.loc 2 103 1 discriminator 1 view .LVU1797
.LBB200:
	.loc 2 105 3 discriminator 1 view .LVU1798
	.loc 2 105 10 is_stmt 0 discriminator 1 view .LVU1799
	movq	stderr(%rip), %rcx
.LVL570:
	.loc 2 105 10 discriminator 1 view .LVU1800
	movl	$33, %edx
.LVL571:
	.loc 2 105 10 discriminator 1 view .LVU1801
	movl	$1, %esi
.LVL572:
	.loc 2 105 10 discriminator 1 view .LVU1802
	leaq	.LC4(%rip), %rdi
.LVL573:
	.loc 2 105 10 discriminator 1 view .LVU1803
	call	fwrite@PLT
.LVL574:
	.loc 2 105 10 discriminator 1 view .LVU1804
	jmp	.L219
.LVL575:
.L310:
	.loc 2 105 10 discriminator 1 view .LVU1805
.LBE200:
.LBE199:
.LBB201:
	.loc 1 996 10 is_stmt 1 view .LVU1806
	.loc 1 996 31 view .LVU1807
	testl	%esi, %esi
	js	.L313
	.loc 1 992 16 is_stmt 0 view .LVU1808
	xorl	%ecx, %ecx
	jmp	.L312
.LVL576:
	.p2align 4,,10
	.p2align 3
.L320:
	.loc 1 992 16 view .LVU1809
.LBE201:
	.loc 1 774 13 view .LVU1810
	movl	172(%rsp), %ebx
	jmp	.L220
.LVL577:
.L365:
	.loc 1 774 13 view .LVU1811
	movq	16(%rsp), %r15
	movl	48(%rsp), %r8d
	movq	32(%rsp), %rbp
	jmp	.L272
.LVL578:
.L374:
.LBB202:
.LBB182:
.LBB173:
	.loc 1 648 11 view .LVU1812
	movl	136(%rsp), %eax
	movl	%eax, 40(%rsp)
	subl	$1, %eax
	movl	%eax, 136(%rsp)
.LVL579:
	.loc 1 648 11 view .LVU1813
	jmp	.L271
.LVL580:
.L369:
	.loc 1 648 11 view .LVU1814
.LBE173:
.LBE182:
.LBE202:
	.loc 1 1011 1 view .LVU1815
	call	__stack_chk_fail@PLT
.LVL581:
	.cfi_endproc
.LFE60:
	.size	mainSort, .-mainSort
	.section	.rodata.str1.8
	.align 8
.LC7:
	.string	"      %d work, %d block, ratio %5.2f\n"
	.align 8
.LC8:
	.string	"    too repetitive; using fallback sorting algorithm\n"
	.text
	.p2align 4
	.globl	BZ2_blockSort
	.type	BZ2_blockSort, @function
BZ2_blockSort:
.LVL582:
.LFB61:
	.loc 1 1032 1 is_stmt 1 view -0
	.cfi_startproc
	.loc 1 1032 1 is_stmt 0 view .LVU1817
	endbr64
	pushq	%r15
	.cfi_def_cfa_offset 16
	.cfi_offset 15, -16
	pushq	%r14
	.cfi_def_cfa_offset 24
	.cfi_offset 14, -24
	pushq	%r13
	.cfi_def_cfa_offset 32
	.cfi_offset 13, -32
	pushq	%r12
	.cfi_def_cfa_offset 40
	.cfi_offset 12, -40
	pushq	%rbp
	.cfi_def_cfa_offset 48
	.cfi_offset 6, -48
	pushq	%rbx
	.cfi_def_cfa_offset 56
	.cfi_offset 3, -56
	movq	%rdi, %rbx
	subq	$40, %rsp
	.cfi_def_cfa_offset 96
	.loc 1 1036 10 view .LVU1818
	movl	108(%rdi), %r13d
	.loc 1 1033 12 view .LVU1819
	movq	56(%rdi), %rbp
	.loc 1 1032 1 view .LVU1820
	movq	%fs:40, %rax
	movq	%rax, 24(%rsp)
	xorl	%eax, %eax
	.loc 1 1033 4 is_stmt 1 view .LVU1821
.LVL583:
	.loc 1 1034 4 view .LVU1822
	.loc 1 1034 11 is_stmt 0 view .LVU1823
	movq	64(%rdi), %rsi
.LVL584:
	.loc 1 1035 4 is_stmt 1 view .LVU1824
	.loc 1 1035 12 is_stmt 0 view .LVU1825
	movq	40(%rdi), %r14
.LVL585:
	.loc 1 1036 4 is_stmt 1 view .LVU1826
	.loc 1 1037 4 view .LVU1827
	.loc 1 1037 10 is_stmt 0 view .LVU1828
	movl	656(%rdi), %r15d
.LVL586:
	.loc 1 1038 4 is_stmt 1 view .LVU1829
	.loc 1 1038 10 is_stmt 0 view .LVU1830
	movl	88(%rdi), %eax
.LVL587:
	.loc 1 1039 4 is_stmt 1 view .LVU1831
	.loc 1 1040 4 view .LVU1832
	.loc 1 1041 4 view .LVU1833
	.loc 1 1042 4 view .LVU1834
	.loc 1 1044 4 view .LVU1835
	.loc 1 1044 7 is_stmt 0 view .LVU1836
	cmpl	$9999, %r13d
	jle	.L386
	.loc 1 1052 7 is_stmt 1 view .LVU1837
.LVL588:
	.loc 1 1053 7 view .LVU1838
	.loc 1 1065 36 is_stmt 0 view .LVU1839
	movl	$100, %ecx
	.loc 1 1053 19 view .LVU1840
	movl	%r13d, %edx
	.loc 1 1068 7 view .LVU1841
	movl	%r13d, %r8d
	movq	%rbp, %rdi
.LVL589:
	.loc 1 1053 19 view .LVU1842
	andl	$1, %edx
	.loc 1 1065 36 view .LVU1843
	cmpl	%ecx, %eax
	.loc 1 1068 7 view .LVU1844
	movl	%r15d, %r9d
	.loc 1 1065 36 view .LVU1845
	cmovg	%ecx, %eax
.LVL590:
	.loc 1 1065 36 view .LVU1846
	movl	$1, %ecx
	.loc 1 1053 19 view .LVU1847
	leal	34(%rdx,%r13), %edx
.LVL591:
	.loc 1 1054 7 is_stmt 1 view .LVU1848
	.loc 1 1063 7 view .LVU1849
	.loc 1 1065 7 view .LVU1850
	.loc 1 1054 28 is_stmt 0 view .LVU1851
	movslq	%edx, %rdx
	.loc 1 1065 36 view .LVU1852
	testl	%eax, %eax
	cmovle	%ecx, %eax
	.loc 1 1068 7 view .LVU1853
	subq	$8, %rsp
	.cfi_def_cfa_offset 104
	.loc 1 1054 16 view .LVU1854
	addq	%rsi, %rdx
.LVL592:
	.loc 1 1068 7 view .LVU1855
	movq	%r14, %rcx
	.loc 1 1065 40 view .LVU1856
	leal	-1(%rax), %r12d
	movl	$2863311531, %eax
	imulq	%rax, %r12
	shrq	$33, %r12
	.loc 1 1065 18 view .LVU1857
	imull	%r13d, %r12d
.LVL593:
	.loc 1 1066 7 is_stmt 1 view .LVU1858
	.loc 1 1066 14 is_stmt 0 view .LVU1859
	movl	%r12d, 28(%rsp)
	.loc 1 1068 7 is_stmt 1 view .LVU1860
	leaq	28(%rsp), %rax
	pushq	%rax
	.cfi_def_cfa_offset 112
	call	mainSort
.LVL594:
	.loc 1 1069 7 view .LVU1861
	.loc 1 1069 10 is_stmt 0 view .LVU1862
	popq	%rdi
	.cfi_def_cfa_offset 104
	popq	%r8
	.cfi_def_cfa_offset 96
	cmpl	$2, %r15d
	jg	.L402
	.loc 1 1075 7 is_stmt 1 view .LVU1863
	.loc 1 1075 10 is_stmt 0 view .LVU1864
	movl	20(%rsp), %esi
	testl	%esi, %esi
	jns	.L382
	.loc 1 1076 10 is_stmt 1 view .LVU1865
	.loc 1 1076 13 is_stmt 0 view .LVU1866
	cmpl	$2, %r15d
	je	.L385
.LVL595:
.L386:
	.loc 1 1079 10 is_stmt 1 view .LVU1867
	movq	32(%rbx), %rsi
	movq	24(%rbx), %rdi
	movl	%r15d, %r8d
	movl	%r13d, %ecx
	movq	%r14, %rdx
	call	fallbackSort
.LVL596:
.L382:
	.loc 1 1083 4 view .LVU1868
	.loc 1 1084 21 is_stmt 0 view .LVU1869
	movslq	108(%rbx), %rdx
	.loc 1 1083 15 view .LVU1870
	movl	$-1, 48(%rbx)
	.loc 1 1084 4 is_stmt 1 view .LVU1871
.LVL597:
	.loc 1 1084 18 view .LVU1872
	testl	%edx, %edx
	jle	.L388
	xorl	%eax, %eax
	jmp	.L391
.LVL598:
	.p2align 4,,10
	.p2align 3
.L389:
	.loc 1 1084 32 discriminator 2 view .LVU1873
	.loc 1 1084 18 discriminator 2 view .LVU1874
	addq	$1, %rax
.LVL599:
	.loc 1 1084 18 is_stmt 0 discriminator 2 view .LVU1875
	cmpq	%rdx, %rax
	je	.L388
.L391:
.LVL600:
	.loc 1 1085 7 is_stmt 1 view .LVU1876
	.loc 1 1085 10 is_stmt 0 view .LVU1877
	movl	0(%rbp,%rax,4), %ecx
	testl	%ecx, %ecx
	jne	.L389
	.loc 1 1086 12 is_stmt 1 view .LVU1878
	.loc 1 1086 23 is_stmt 0 view .LVU1879
	movl	%eax, 48(%rbx)
	.loc 1 1086 28 is_stmt 1 view .LVU1880
	.loc 1 1086 36 view .LVU1881
	.loc 1 1088 6 view .LVU1882
	.loc 1 1089 1 is_stmt 0 view .LVU1883
	movq	24(%rsp), %rax
	subq	%fs:40, %rax
.LVL601:
	.loc 1 1089 1 view .LVU1884
	jne	.L400
	addq	$40, %rsp
	.cfi_remember_state
	.cfi_def_cfa_offset 56
	popq	%rbx
	.cfi_def_cfa_offset 48
.LVL602:
	.loc 1 1089 1 view .LVU1885
	popq	%rbp
	.cfi_def_cfa_offset 40
.LVL603:
	.loc 1 1089 1 view .LVU1886
	popq	%r12
	.cfi_def_cfa_offset 32
	popq	%r13
	.cfi_def_cfa_offset 24
.LVL604:
	.loc 1 1089 1 view .LVU1887
	popq	%r14
	.cfi_def_cfa_offset 16
.LVL605:
	.loc 1 1089 1 view .LVU1888
	popq	%r15
	.cfi_def_cfa_offset 8
.LVL606:
	.loc 1 1089 1 view .LVU1889
	ret
.LVL607:
	.p2align 4,,10
	.p2align 3
.L402:
	.cfi_restore_state
	.loc 1 1070 10 is_stmt 1 view .LVU1890
	.loc 1 1070 97 is_stmt 0 view .LVU1891
	movl	20(%rsp), %r9d
	movl	%r12d, %ecx
	.loc 1 1070 78 view .LVU1892
	pxor	%xmm0, %xmm0
	.loc 1 1070 109 view .LVU1893
	pxor	%xmm1, %xmm1
	cvtsi2ssl	%r13d, %xmm1
.LBB203:
.LBB204:
	.loc 2 105 10 view .LVU1894
	movl	%r13d, %r8d
	movq	stderr(%rip), %rdi
	leaq	.LC7(%rip), %rdx
.LBE204:
.LBE203:
	.loc 1 1070 97 view .LVU1895
	subl	%r9d, %ecx
.LBB208:
.LBB205:
	.loc 2 105 10 view .LVU1896
	movl	$1, %esi
	movl	$1, %eax
.LBE205:
.LBE208:
	.loc 1 1070 97 view .LVU1897
	movl	%r9d, 12(%rsp)
.LVL608:
.LBB209:
.LBI203:
	.loc 2 103 1 is_stmt 1 view .LVU1898
.LBB206:
	.loc 2 105 3 view .LVU1899
.LBE206:
.LBE209:
	.loc 1 1070 78 is_stmt 0 view .LVU1900
	cvtsi2ssl	%ecx, %xmm0
	.loc 1 1070 107 view .LVU1901
	divss	%xmm1, %xmm0
	.loc 1 1070 10 view .LVU1902
	cvtss2sd	%xmm0, %xmm0
.LBB210:
.LBB207:
	.loc 2 105 10 view .LVU1903
	call	__fprintf_chk@PLT
.LVL609:
	.loc 2 105 10 view .LVU1904
.LBE207:
.LBE210:
	.loc 1 1075 7 is_stmt 1 view .LVU1905
	.loc 1 1075 10 is_stmt 0 view .LVU1906
	movl	12(%rsp), %r9d
	testl	%r9d, %r9d
	jns	.L382
.L385:
	.loc 1 1077 13 is_stmt 1 view .LVU1907
.LVL610:
.LBB211:
.LBI211:
	.loc 2 103 1 view .LVU1908
.LBB212:
	.loc 2 105 3 view .LVU1909
	.loc 2 105 10 is_stmt 0 view .LVU1910
	movq	stderr(%rip), %rcx
	movl	$53, %edx
	movl	$1, %esi
	leaq	.LC8(%rip), %rdi
	call	fwrite@PLT
.LVL611:
	.loc 2 105 10 view .LVU1911
	jmp	.L386
.LVL612:
	.p2align 4,,10
	.p2align 3
.L388:
	.loc 2 105 10 view .LVU1912
.LBE212:
.LBE211:
	.loc 1 1086 36 is_stmt 1 view .LVU1913
	.loc 1 1088 6 view .LVU1914
	.loc 1 1088 31 view .LVU1915
	movq	24(%rsp), %rax
	subq	%fs:40, %rax
	jne	.L400
	.loc 1 1089 1 is_stmt 0 view .LVU1916
	addq	$40, %rsp
	.cfi_remember_state
	.cfi_def_cfa_offset 56
	.loc 1 1088 31 view .LVU1917
	movl	$1003, %edi
	.loc 1 1089 1 view .LVU1918
	popq	%rbx
	.cfi_def_cfa_offset 48
.LVL613:
	.loc 1 1089 1 view .LVU1919
	popq	%rbp
	.cfi_def_cfa_offset 40
.LVL614:
	.loc 1 1089 1 view .LVU1920
	popq	%r12
	.cfi_def_cfa_offset 32
	popq	%r13
	.cfi_def_cfa_offset 24
.LVL615:
	.loc 1 1089 1 view .LVU1921
	popq	%r14
	.cfi_def_cfa_offset 16
.LVL616:
	.loc 1 1089 1 view .LVU1922
	popq	%r15
	.cfi_def_cfa_offset 8
.LVL617:
	.loc 1 1088 31 view .LVU1923
	jmp	BZ2_bz__AssertH__fail@PLT
.LVL618:
.L400:
	.cfi_restore_state
	.loc 1 1089 1 view .LVU1924
	call	__stack_chk_fail@PLT
.LVL619:
	.cfi_endproc
.LFE61:
	.size	BZ2_blockSort, .-BZ2_blockSort
	.section	.rodata
	.align 32
	.type	incs, @object
	.size	incs, 56
incs:
	.long	1
	.long	4
	.long	13
	.long	40
	.long	121
	.long	364
	.long	1093
	.long	3280
	.long	9841
	.long	29524
	.long	88573
	.long	265720
	.long	797161
	.long	2391484
	.text
.Letext0:
	.file 3 "/usr/lib/gcc/x86_64-linux-gnu/11/include/stddef.h"
	.file 4 "/usr/include/x86_64-linux-gnu/bits/types.h"
	.file 5 "/usr/include/x86_64-linux-gnu/bits/types/struct_FILE.h"
	.file 6 "/usr/include/x86_64-linux-gnu/bits/types/FILE.h"
	.file 7 "bzlib.h"
	.file 8 "bzlib_private.h"
	.file 9 "/usr/include/stdio.h"
	.file 10 "<built-in>"
	.section	.note.GNU-stack,"",@progbits
	.section	.note.gnu.property,"a"
	.align 8
	.long	1f - 0f
	.long	4f - 1f
	.long	5
0:
	.string	"GNU"
1:
	.align 8
	.long	0xc0000002
	.long	3f - 2f
2:
	.long	0x3
3:
	.align 8
4:
