	.file	"decompress.c"
	.text
.Ltext0:
	.file 0 "/root/crown-rust/bzip2-real-test" "decompress.c"
	.section	.rodata.str1.1,"aMS",@progbits,1
.LC0:
	.string	"\n    [%d: huff+mtf "
.LC1:
	.string	"rt+rld"
	.text
	.p2align 4
	.globl	BZ2_decompress
	.type	BZ2_decompress, @function
BZ2_decompress:
.LVL0:
.LFB54:
	.file 1 "decompress.c"
	.loc 1 107 1 view -0
	.cfi_startproc
	.loc 1 107 1 is_stmt 0 view .LVU1
	endbr64
	pushq	%r15
	.cfi_def_cfa_offset 16
	.cfi_offset 15, -16
	pushq	%r14
	.cfi_def_cfa_offset 24
	.cfi_offset 14, -24
	pushq	%r13
	.cfi_def_cfa_offset 32
	.cfi_offset 13, -32
	pushq	%r12
	.cfi_def_cfa_offset 40
	.cfi_offset 12, -40
	pushq	%rbp
	.cfi_def_cfa_offset 48
	.cfi_offset 6, -48
	pushq	%rbx
	.cfi_def_cfa_offset 56
	.cfi_offset 3, -56
	movq	%rdi, %rbx
	subq	$152, %rsp
	.cfi_def_cfa_offset 208
	.loc 1 111 15 view .LVU2
	movq	(%rdi), %r15
	.loc 1 107 1 view .LVU3
	movq	%fs:40, %rax
	movq	%rax, 136(%rsp)
	xorl	%eax, %eax
	.loc 1 108 4 is_stmt 1 view .LVU4
	.loc 1 109 4 view .LVU5
	.loc 1 110 4 view .LVU6
	.loc 1 111 4 view .LVU7
.LVL1:
	.loc 1 114 4 view .LVU8
	.loc 1 115 4 view .LVU9
	.loc 1 116 4 view .LVU10
	.loc 1 117 4 view .LVU11
	.loc 1 118 4 view .LVU12
	.loc 1 119 4 view .LVU13
	.loc 1 120 4 view .LVU14
	.loc 1 121 4 view .LVU15
	.loc 1 122 4 view .LVU16
	.loc 1 123 4 view .LVU17
	.loc 1 124 4 view .LVU18
	.loc 1 125 4 view .LVU19
	.loc 1 126 4 view .LVU20
	.loc 1 127 4 view .LVU21
	.loc 1 128 4 view .LVU22
	.loc 1 129 4 view .LVU23
	.loc 1 130 4 view .LVU24
	.loc 1 131 4 view .LVU25
	.loc 1 132 4 view .LVU26
	.loc 1 133 4 view .LVU27
	.loc 1 134 4 view .LVU28
	.loc 1 135 4 view .LVU29
	.loc 1 136 4 view .LVU30
	.loc 1 137 4 view .LVU31
	.loc 1 139 4 view .LVU32
	.loc 1 139 9 is_stmt 0 view .LVU33
	movl	8(%rdi), %eax
	.loc 1 139 7 view .LVU34
	cmpl	$10, %eax
	je	.L2
	.loc 1 171 14 view .LVU35
	movl	64048(%rdi), %ecx
	.loc 1 168 6 view .LVU36
	movl	64036(%rdi), %r8d
	.loc 1 195 4 view .LVU37
	subl	$11, %eax
	.loc 1 169 6 view .LVU38
	movl	64040(%rdi), %r14d
	.loc 1 170 6 view .LVU39
	movl	64044(%rdi), %r11d
	.loc 1 187 9 view .LVU40
	movl	64112(%rbx), %esi
	.loc 1 184 7 view .LVU41
	movl	64100(%rbx), %ebp
	.loc 1 171 14 view .LVU42
	movl	%ecx, 40(%rsp)
	.loc 1 173 15 view .LVU43
	movl	64056(%rdi), %ecx
	.loc 1 172 12 view .LVU44
	movl	64052(%rdi), %r10d
	.loc 1 185 9 view .LVU45
	movl	64104(%rbx), %r12d
	.loc 1 186 7 view .LVU46
	movl	64108(%rbx), %r13d
	.loc 1 173 15 view .LVU47
	movl	%ecx, 24(%rsp)
	.loc 1 174 8 view .LVU48
	movl	64060(%rdi), %ecx
	movl	%ecx, 84(%rsp)
	.loc 1 175 12 view .LVU49
	movl	64064(%rdi), %ecx
	movl	%ecx, 56(%rsp)
	.loc 1 176 13 view .LVU50
	movl	64068(%rdi), %ecx
	movl	%ecx, 64(%rsp)
	.loc 1 177 12 view .LVU51
	movl	64072(%rdi), %ecx
	.loc 1 178 14 view .LVU52
	movl	64076(%rdi), %edi
.LVL2:
	.loc 1 177 12 view .LVU53
	movl	%ecx, 44(%rsp)
	.loc 1 179 11 view .LVU54
	movl	64080(%rbx), %ecx
	.loc 1 178 14 view .LVU55
	movl	%edi, 72(%rsp)
	.loc 1 180 7 view .LVU56
	movl	64084(%rbx), %edi
	.loc 1 179 11 view .LVU57
	movl	%ecx, 28(%rsp)
	.loc 1 181 6 view .LVU58
	movl	64088(%rbx), %ecx
	.loc 1 180 7 view .LVU59
	movl	%edi, 68(%rsp)
	.loc 1 182 9 view .LVU60
	movl	64092(%rbx), %edi
	.loc 1 181 6 view .LVU61
	movl	%ecx, 80(%rsp)
	.loc 1 183 7 view .LVU62
	movl	64096(%rbx), %ecx
	.loc 1 182 9 view .LVU63
	movl	%edi, 12(%rsp)
	.loc 1 183 7 view .LVU64
	movl	%ecx, 92(%rsp)
	.loc 1 187 9 view .LVU65
	movl	%esi, 88(%rsp)
	.loc 1 188 12 view .LVU66
	movl	64116(%rbx), %edi
	.loc 1 189 11 view .LVU67
	movq	64120(%rbx), %rcx
	.loc 1 190 10 view .LVU68
	movq	64128(%rbx), %rsi
	.loc 1 188 12 view .LVU69
	movl	%edi, 76(%rsp)
	.loc 1 191 10 view .LVU70
	movq	64136(%rbx), %rdi
	.loc 1 189 11 view .LVU71
	movq	%rcx, 16(%rsp)
	.loc 1 190 10 view .LVU72
	movq	%rsi, 32(%rsp)
	.loc 1 191 10 view .LVU73
	movq	%rdi, 48(%rsp)
	.loc 1 168 4 is_stmt 1 view .LVU74
.LVL3:
	.loc 1 169 4 view .LVU75
	.loc 1 170 4 view .LVU76
	.loc 1 171 4 view .LVU77
	.loc 1 172 4 view .LVU78
	.loc 1 173 4 view .LVU79
	.loc 1 174 4 view .LVU80
	.loc 1 175 4 view .LVU81
	.loc 1 176 4 view .LVU82
	.loc 1 177 4 view .LVU83
	.loc 1 178 4 view .LVU84
	.loc 1 179 4 view .LVU85
	.loc 1 180 4 view .LVU86
	.loc 1 181 4 view .LVU87
	.loc 1 182 4 view .LVU88
	.loc 1 183 4 view .LVU89
	.loc 1 184 4 view .LVU90
	.loc 1 185 4 view .LVU91
	.loc 1 186 4 view .LVU92
	.loc 1 187 4 view .LVU93
	.loc 1 188 4 view .LVU94
	.loc 1 189 4 view .LVU95
	.loc 1 190 4 view .LVU96
	.loc 1 191 4 view .LVU97
	.loc 1 193 4 view .LVU98
	.loc 1 195 4 view .LVU99
	cmpl	$39, %eax
	ja	.L3
	leaq	.L5(%rip), %rdx
	movslq	(%rdx,%rax,4), %rax
	addq	%rdx, %rax
	notrack jmp	*%rax
	.section	.rodata
	.align 4
	.align 4
.L5:
	.long	.L44-.L5
	.long	.L43-.L5
	.long	.L42-.L5
	.long	.L41-.L5
	.long	.L40-.L5
	.long	.L39-.L5
	.long	.L38-.L5
	.long	.L37-.L5
	.long	.L36-.L5
	.long	.L35-.L5
	.long	.L34-.L5
	.long	.L33-.L5
	.long	.L32-.L5
	.long	.L31-.L5
	.long	.L30-.L5
	.long	.L29-.L5
	.long	.L28-.L5
	.long	.L27-.L5
	.long	.L26-.L5
	.long	.L25-.L5
	.long	.L24-.L5
	.long	.L23-.L5
	.long	.L22-.L5
	.long	.L21-.L5
	.long	.L20-.L5
	.long	.L19-.L5
	.long	.L18-.L5
	.long	.L17-.L5
	.long	.L16-.L5
	.long	.L15-.L5
	.long	.L14-.L5
	.long	.L13-.L5
	.long	.L12-.L5
	.long	.L11-.L5
	.long	.L10-.L5
	.long	.L9-.L5
	.long	.L8-.L5
	.long	.L7-.L5
	.long	.L6-.L5
	.long	.L4-.L5
	.text
.LVL4:
	.p2align 4,,10
	.p2align 3
.L2:
	.loc 1 141 7 view .LVU100
	.loc 1 142 7 view .LVU101
	.loc 1 143 7 view .LVU102
	.loc 1 144 7 view .LVU103
	.loc 1 145 7 view .LVU104
	.loc 1 146 7 view .LVU105
	.loc 1 147 7 view .LVU106
	.loc 1 148 7 view .LVU107
	.loc 1 149 7 view .LVU108
	.loc 1 150 7 view .LVU109
	.loc 1 151 7 view .LVU110
	.loc 1 152 7 view .LVU111
	.loc 1 153 7 view .LVU112
	.loc 1 154 7 view .LVU113
	.loc 1 155 7 view .LVU114
	.loc 1 156 7 view .LVU115
	.loc 1 157 7 view .LVU116
	.loc 1 158 7 view .LVU117
	.loc 1 159 7 view .LVU118
	.loc 1 160 7 view .LVU119
	.loc 1 161 7 view .LVU120
	.loc 1 162 7 view .LVU121
	.loc 1 163 7 view .LVU122
	.loc 1 164 7 view .LVU123
	.loc 1 141 17 is_stmt 0 view .LVU124
	movl	$0, 64036(%rdi)
	.loc 1 608 56 view .LVU125
	movl	36(%rdi), %ecx
	.loc 1 142 17 view .LVU126
	movq	$0, 64040(%rdi)
	.loc 1 144 25 view .LVU127
	movq	$0, 64048(%rdi)
	.loc 1 146 26 view .LVU128
	movq	$0, 64056(%rdi)
	.loc 1 148 23 view .LVU129
	movq	$0, 64064(%rdi)
	.loc 1 150 23 view .LVU130
	movq	$0, 64072(%rdi)
	.loc 1 152 22 view .LVU131
	movq	$0, 64080(%rdi)
	.loc 1 154 17 view .LVU132
	movq	$0, 64088(%rdi)
	.loc 1 156 18 view .LVU133
	movq	$0, 64096(%rdi)
	.loc 1 158 20 view .LVU134
	movq	$0, 64104(%rdi)
	.loc 1 160 20 view .LVU135
	movq	$0, 64112(%rdi)
	.loc 1 162 22 view .LVU136
	movq	$0, 64120(%rdi)
	.loc 1 163 21 view .LVU137
	movq	$0, 64128(%rdi)
	.loc 1 164 21 view .LVU138
	movq	$0, 64136(%rdi)
	.loc 1 168 4 is_stmt 1 view .LVU139
.LVL5:
	.loc 1 169 4 view .LVU140
	.loc 1 170 4 view .LVU141
	.loc 1 171 4 view .LVU142
	.loc 1 172 4 view .LVU143
	.loc 1 173 4 view .LVU144
	.loc 1 174 4 view .LVU145
	.loc 1 175 4 view .LVU146
	.loc 1 176 4 view .LVU147
	.loc 1 177 4 view .LVU148
	.loc 1 178 4 view .LVU149
	.loc 1 179 4 view .LVU150
	.loc 1 180 4 view .LVU151
	.loc 1 181 4 view .LVU152
	.loc 1 182 4 view .LVU153
	.loc 1 183 4 view .LVU154
	.loc 1 184 4 view .LVU155
	.loc 1 185 4 view .LVU156
	.loc 1 186 4 view .LVU157
	.loc 1 187 4 view .LVU158
	.loc 1 188 4 view .LVU159
	.loc 1 189 4 view .LVU160
	.loc 1 190 4 view .LVU161
	.loc 1 191 4 view .LVU162
	.loc 1 193 4 view .LVU163
	.loc 1 195 4 view .LVU164
	.loc 1 197 16 view .LVU165
	jmp	.L53
.LVL6:
	.p2align 4,,10
	.p2align 3
.L50:
	.loc 1 197 165 discriminator 3 view .LVU166
	.loc 1 197 176 is_stmt 0 discriminator 3 view .LVU167
	movl	8(%r15), %edx
	.loc 1 197 168 discriminator 3 view .LVU168
	testl	%edx, %edx
	je	.L299
	.loc 1 197 236 is_stmt 1 discriminator 6 view .LVU169
	.loc 1 197 237 discriminator 6 view .LVU170
	.loc 1 197 239 discriminator 6 view .LVU171
	.loc 1 197 299 is_stmt 0 discriminator 6 view .LVU172
	movq	(%r15), %rsi
	.loc 1 197 262 discriminator 6 view .LVU173
	movl	32(%rbx), %eax
	.loc 1 197 324 discriminator 6 view .LVU174
	addl	$8, %ecx
	.loc 1 197 367 discriminator 6 view .LVU175
	subl	$1, %edx
	.loc 1 197 271 discriminator 6 view .LVU176
	movzbl	(%rsi), %edi
	.loc 1 197 262 discriminator 6 view .LVU177
	sall	$8, %eax
	.loc 1 197 324 discriminator 6 view .LVU178
	movl	%ecx, 36(%rbx)
	.loc 1 197 346 discriminator 6 view .LVU179
	addq	$1, %rsi
	.loc 1 197 268 discriminator 6 view .LVU180
	orl	%edi, %eax
	movl	%eax, 32(%rbx)
	.loc 1 197 314 is_stmt 1 discriminator 6 view .LVU181
	.loc 1 197 330 discriminator 6 view .LVU182
	.loc 1 197 393 is_stmt 0 discriminator 6 view .LVU183
	addl	$1, 12(%r15)
	.loc 1 197 346 discriminator 6 view .LVU184
	movq	%rsi, (%r15)
	.loc 1 197 350 is_stmt 1 discriminator 6 view .LVU185
	.loc 1 197 367 is_stmt 0 discriminator 6 view .LVU186
	movl	%edx, 8(%r15)
	.loc 1 197 371 is_stmt 1 discriminator 6 view .LVU187
	.loc 1 197 397 discriminator 6 view .LVU188
	.loc 1 197 400 is_stmt 0 discriminator 6 view .LVU189
	je	.L471
.L53:
	.loc 1 197 31 is_stmt 1 discriminator 1 view .LVU190
	.loc 1 197 51 discriminator 1 view .LVU191
	.loc 1 197 54 is_stmt 0 discriminator 1 view .LVU192
	cmpl	$7, %ecx
	jle	.L50
.LBB104:
	.loc 1 197 73 is_stmt 1 discriminator 2 view .LVU193
	.loc 1 197 83 discriminator 2 view .LVU194
	.loc 1 197 98 is_stmt 0 discriminator 2 view .LVU195
	movl	32(%rbx), %eax
	.loc 1 197 111 discriminator 2 view .LVU196
	subl	$8, %ecx
	.loc 1 197 142 discriminator 2 view .LVU197
	movl	%ecx, 36(%rbx)
	.loc 1 197 98 discriminator 2 view .LVU198
	shrl	%cl, %eax
.LVL7:
	.loc 1 197 132 is_stmt 1 discriminator 2 view .LVU199
	.loc 1 197 148 discriminator 2 view .LVU200
	.loc 1 197 156 discriminator 2 view .LVU201
.LBE104:
	.loc 1 197 457 discriminator 2 view .LVU202
	.loc 1 198 7 discriminator 2 view .LVU203
	.loc 1 198 10 is_stmt 0 discriminator 2 view .LVU204
	cmpb	$66, %al
	jne	.L298
	movl	$0, 76(%rsp)
	xorl	%r13d, %r13d
	xorl	%r12d, %r12d
	xorl	%ebp, %ebp
	movq	$0, 48(%rsp)
	xorl	%r10d, %r10d
	xorl	%r11d, %r11d
	xorl	%r14d, %r14d
	movq	$0, 32(%rsp)
	xorl	%r8d, %r8d
	movq	$0, 16(%rsp)
	movl	$0, 88(%rsp)
	movl	$0, 92(%rsp)
	movl	$0, 12(%rsp)
	movl	$0, 80(%rsp)
	movl	$0, 68(%rsp)
	movl	$0, 28(%rsp)
	movl	$0, 72(%rsp)
	movl	$0, 44(%rsp)
	movl	$0, 64(%rsp)
	movl	$0, 56(%rsp)
	movl	$0, 84(%rsp)
	movl	$0, 24(%rsp)
	movl	$0, 40(%rsp)
	jmp	.L52
.LVL8:
.L66:
	.loc 1 218 10 is_stmt 1 view .LVU205
	.loc 1 218 23 is_stmt 0 view .LVU206
	leal	0(,%rax,4), %esi
	movl	$1, %edx
	call	*%rcx
.LVL9:
	.loc 1 219 13 view .LVU207
	movl	96(%rsp), %r8d
	movl	112(%rsp), %r11d
	testq	%rax, %rax
	.loc 1 218 16 view .LVU208
	movq	%rax, 3152(%rbx)
	.loc 1 219 10 is_stmt 1 view .LVU209
	.loc 1 219 13 is_stmt 0 view .LVU210
	movl	104(%rsp), %r10d
	je	.L306
	.p2align 4,,10
	.p2align 3
.L41:
	.loc 1 219 74 is_stmt 1 discriminator 2 view .LVU211
	.loc 1 219 75 discriminator 2 view .LVU212
	.loc 1 222 16 discriminator 2 view .LVU213
	.loc 1 222 25 is_stmt 0 discriminator 2 view .LVU214
	movl	$14, 8(%rbx)
	.loc 1 222 56 discriminator 2 view .LVU215
	movl	36(%rbx), %ecx
	jmp	.L71
	.p2align 4,,10
	.p2align 3
.L68:
	.loc 1 222 165 is_stmt 1 discriminator 3 view .LVU216
	.loc 1 222 170 is_stmt 0 discriminator 3 view .LVU217
	movq	(%rbx), %rax
	.loc 1 222 176 discriminator 3 view .LVU218
	movl	8(%rax), %esi
	.loc 1 222 168 discriminator 3 view .LVU219
	testl	%esi, %esi
	je	.L387
	.loc 1 222 236 is_stmt 1 discriminator 6 view .LVU220
	.loc 1 222 237 discriminator 6 view .LVU221
	.loc 1 222 239 discriminator 6 view .LVU222
	.loc 1 222 299 is_stmt 0 discriminator 6 view .LVU223
	movq	(%rax), %rdi
	.loc 1 222 262 discriminator 6 view .LVU224
	movl	32(%rbx), %edx
	.loc 1 222 324 discriminator 6 view .LVU225
	addl	$8, %ecx
	.loc 1 222 367 discriminator 6 view .LVU226
	subl	$1, %esi
	.loc 1 222 271 discriminator 6 view .LVU227
	movzbl	(%rdi), %r9d
	.loc 1 222 262 discriminator 6 view .LVU228
	sall	$8, %edx
	.loc 1 222 324 discriminator 6 view .LVU229
	movl	%ecx, 36(%rbx)
	.loc 1 222 346 discriminator 6 view .LVU230
	addq	$1, %rdi
	.loc 1 222 268 discriminator 6 view .LVU231
	orl	%r9d, %edx
	movl	%edx, 32(%rbx)
	.loc 1 222 314 is_stmt 1 discriminator 6 view .LVU232
	.loc 1 222 330 discriminator 6 view .LVU233
	.loc 1 222 400 is_stmt 0 discriminator 6 view .LVU234
	addl	$1, 12(%rax)
	.loc 1 222 346 discriminator 6 view .LVU235
	movq	%rdi, (%rax)
	.loc 1 222 350 is_stmt 1 discriminator 6 view .LVU236
	.loc 1 222 367 is_stmt 0 discriminator 6 view .LVU237
	movl	%esi, 8(%rax)
	.loc 1 222 371 is_stmt 1 discriminator 6 view .LVU238
	.loc 1 222 400 is_stmt 0 discriminator 6 view .LVU239
	je	.L472
.L71:
	.loc 1 222 31 is_stmt 1 discriminator 1 view .LVU240
	.loc 1 222 51 discriminator 1 view .LVU241
	.loc 1 222 54 is_stmt 0 discriminator 1 view .LVU242
	cmpl	$7, %ecx
	jle	.L68
.LBB105:
	.loc 1 222 73 is_stmt 1 discriminator 2 view .LVU243
	.loc 1 222 83 discriminator 2 view .LVU244
	.loc 1 222 98 is_stmt 0 discriminator 2 view .LVU245
	movl	32(%rbx), %eax
	.loc 1 222 111 discriminator 2 view .LVU246
	subl	$8, %ecx
	.loc 1 222 142 discriminator 2 view .LVU247
	movl	%ecx, 36(%rbx)
	.loc 1 222 98 discriminator 2 view .LVU248
	shrl	%cl, %eax
.LVL10:
	.loc 1 222 132 is_stmt 1 discriminator 2 view .LVU249
	.loc 1 222 148 discriminator 2 view .LVU250
	.loc 1 222 156 discriminator 2 view .LVU251
.LBE105:
	.loc 1 222 457 discriminator 2 view .LVU252
	.loc 1 224 7 discriminator 2 view .LVU253
	.loc 1 224 10 is_stmt 0 discriminator 2 view .LVU254
	cmpb	$23, %al
	je	.L69
	.loc 1 225 7 is_stmt 1 view .LVU255
	.loc 1 225 10 is_stmt 0 view .LVU256
	cmpb	$49, %al
	jne	.L373
	jmp	.L49
.LVL11:
	.p2align 4,,10
	.p2align 3
.L20:
	.loc 1 608 56 view .LVU257
	movl	36(%rbx), %eax
.LVL12:
.L171:
	.loc 1 330 25 is_stmt 1 view .LVU258
	.loc 1 330 34 is_stmt 0 view .LVU259
	movl	$35, 8(%rbx)
	jmp	.L177
	.p2align 4,,10
	.p2align 3
.L174:
	.loc 1 330 174 is_stmt 1 discriminator 3 view .LVU260
	.loc 1 330 179 is_stmt 0 discriminator 3 view .LVU261
	movq	(%rbx), %rdx
	.loc 1 330 185 discriminator 3 view .LVU262
	movl	8(%rdx), %esi
	.loc 1 330 177 discriminator 3 view .LVU263
	testl	%esi, %esi
	je	.L387
	.loc 1 330 245 is_stmt 1 discriminator 6 view .LVU264
	.loc 1 330 246 discriminator 6 view .LVU265
	.loc 1 330 248 discriminator 6 view .LVU266
	.loc 1 330 308 is_stmt 0 discriminator 6 view .LVU267
	movq	(%rdx), %rdi
	.loc 1 330 271 discriminator 6 view .LVU268
	movl	32(%rbx), %ecx
	.loc 1 330 333 discriminator 6 view .LVU269
	addl	$8, %eax
	.loc 1 330 376 discriminator 6 view .LVU270
	subl	$1, %esi
	.loc 1 330 280 discriminator 6 view .LVU271
	movzbl	(%rdi), %r9d
	.loc 1 330 271 discriminator 6 view .LVU272
	sall	$8, %ecx
	.loc 1 330 333 discriminator 6 view .LVU273
	movl	%eax, 36(%rbx)
	.loc 1 330 355 discriminator 6 view .LVU274
	addq	$1, %rdi
	.loc 1 330 277 discriminator 6 view .LVU275
	orl	%r9d, %ecx
	movl	%ecx, 32(%rbx)
	.loc 1 330 323 is_stmt 1 discriminator 6 view .LVU276
	.loc 1 330 339 discriminator 6 view .LVU277
	.loc 1 330 402 is_stmt 0 discriminator 6 view .LVU278
	addl	$1, 12(%rdx)
	.loc 1 330 355 discriminator 6 view .LVU279
	movq	%rdi, (%rdx)
	.loc 1 330 359 is_stmt 1 discriminator 6 view .LVU280
	.loc 1 330 376 is_stmt 0 discriminator 6 view .LVU281
	movl	%esi, 8(%rdx)
	.loc 1 330 380 is_stmt 1 discriminator 6 view .LVU282
	.loc 1 330 406 discriminator 6 view .LVU283
	.loc 1 330 409 is_stmt 0 discriminator 6 view .LVU284
	je	.L473
.L177:
	.loc 1 330 40 is_stmt 1 discriminator 1 view .LVU285
	.loc 1 330 60 discriminator 1 view .LVU286
	.loc 1 330 63 is_stmt 0 discriminator 1 view .LVU287
	testl	%eax, %eax
	jle	.L174
.LBB106:
	.loc 1 330 82 is_stmt 1 discriminator 2 view .LVU288
	.loc 1 330 92 discriminator 2 view .LVU289
	.loc 1 330 120 is_stmt 0 discriminator 2 view .LVU290
	leal	-1(%rax), %ecx
	.loc 1 330 107 discriminator 2 view .LVU291
	movl	32(%rbx), %eax
	.loc 1 330 151 discriminator 2 view .LVU292
	movl	%ecx, 36(%rbx)
	.loc 1 330 107 discriminator 2 view .LVU293
	shrl	%cl, %eax
.LVL13:
	.loc 1 330 141 is_stmt 1 discriminator 2 view .LVU294
	.loc 1 330 157 discriminator 2 view .LVU295
	.loc 1 330 165 discriminator 2 view .LVU296
.LBE106:
	.loc 1 330 466 discriminator 2 view .LVU297
	.loc 1 331 16 discriminator 2 view .LVU298
	.loc 1 331 46 is_stmt 0 discriminator 2 view .LVU299
	movl	12(%rsp), %ecx
	leal	-1(%rcx), %edx
	addl	$1, %ecx
	testb	$1, %al
	cmove	%ecx, %edx
	movl	%edx, 12(%rsp)
.LVL14:
.L179:
	.loc 1 326 13 is_stmt 1 view .LVU300
	.loc 1 327 16 view .LVU301
	.loc 1 327 29 is_stmt 0 view .LVU302
	movl	12(%rsp), %eax
	subl	$1, %eax
	.loc 1 327 19 view .LVU303
	cmpl	$19, %eax
	ja	.L373
.LVL15:
	.p2align 4,,10
	.p2align 3
.L21:
	.loc 1 327 89 is_stmt 1 discriminator 2 view .LVU304
	.loc 1 327 90 discriminator 2 view .LVU305
	.loc 1 328 25 discriminator 2 view .LVU306
	.loc 1 328 34 is_stmt 0 discriminator 2 view .LVU307
	movl	$34, 8(%rbx)
	.loc 1 328 65 discriminator 2 view .LVU308
	movl	36(%rbx), %eax
	jmp	.L172
	.p2align 4,,10
	.p2align 3
.L169:
	.loc 1 328 174 is_stmt 1 discriminator 3 view .LVU309
	.loc 1 328 179 is_stmt 0 discriminator 3 view .LVU310
	movq	(%rbx), %rdx
	.loc 1 328 185 discriminator 3 view .LVU311
	movl	8(%rdx), %esi
	.loc 1 328 177 discriminator 3 view .LVU312
	testl	%esi, %esi
	je	.L387
	.loc 1 328 245 is_stmt 1 discriminator 6 view .LVU313
	.loc 1 328 246 discriminator 6 view .LVU314
	.loc 1 328 248 discriminator 6 view .LVU315
	.loc 1 328 308 is_stmt 0 discriminator 6 view .LVU316
	movq	(%rdx), %rdi
	.loc 1 328 271 discriminator 6 view .LVU317
	movl	32(%rbx), %ecx
	.loc 1 328 333 discriminator 6 view .LVU318
	addl	$8, %eax
	.loc 1 328 376 discriminator 6 view .LVU319
	subl	$1, %esi
	.loc 1 328 280 discriminator 6 view .LVU320
	movzbl	(%rdi), %r9d
	.loc 1 328 271 discriminator 6 view .LVU321
	sall	$8, %ecx
	.loc 1 328 333 discriminator 6 view .LVU322
	movl	%eax, 36(%rbx)
	.loc 1 328 355 discriminator 6 view .LVU323
	addq	$1, %rdi
	.loc 1 328 277 discriminator 6 view .LVU324
	orl	%r9d, %ecx
	movl	%ecx, 32(%rbx)
	.loc 1 328 323 is_stmt 1 discriminator 6 view .LVU325
	.loc 1 328 339 discriminator 6 view .LVU326
	.loc 1 328 402 is_stmt 0 discriminator 6 view .LVU327
	addl	$1, 12(%rdx)
	.loc 1 328 355 discriminator 6 view .LVU328
	movq	%rdi, (%rdx)
	.loc 1 328 359 is_stmt 1 discriminator 6 view .LVU329
	.loc 1 328 376 is_stmt 0 discriminator 6 view .LVU330
	movl	%esi, 8(%rdx)
	.loc 1 328 380 is_stmt 1 discriminator 6 view .LVU331
	.loc 1 328 406 discriminator 6 view .LVU332
	.loc 1 328 409 is_stmt 0 discriminator 6 view .LVU333
	je	.L474
.L172:
	.loc 1 328 40 is_stmt 1 discriminator 1 view .LVU334
	.loc 1 328 60 discriminator 1 view .LVU335
	.loc 1 328 63 is_stmt 0 discriminator 1 view .LVU336
	testl	%eax, %eax
	jle	.L169
.LBB107:
	.loc 1 328 82 is_stmt 1 discriminator 2 view .LVU337
	.loc 1 328 92 discriminator 2 view .LVU338
	.loc 1 328 107 is_stmt 0 discriminator 2 view .LVU339
	movl	32(%rbx), %edx
	.loc 1 328 120 discriminator 2 view .LVU340
	subl	$1, %eax
.LVL16:
	.loc 1 328 141 is_stmt 1 discriminator 2 view .LVU341
	.loc 1 328 151 is_stmt 0 discriminator 2 view .LVU342
	movl	%eax, 36(%rbx)
	.loc 1 328 157 is_stmt 1 discriminator 2 view .LVU343
.LVL17:
	.loc 1 328 165 discriminator 2 view .LVU344
.LBE107:
	.loc 1 328 466 discriminator 2 view .LVU345
	.loc 1 329 16 discriminator 2 view .LVU346
	.loc 1 329 19 is_stmt 0 discriminator 2 view .LVU347
	btl	%eax, %edx
	jc	.L171
	.loc 1 333 13 is_stmt 1 discriminator 2 view .LVU348
	.loc 1 333 26 is_stmt 0 discriminator 2 view .LVU349
	movslq	%r11d, %rdx
.LVL18:
	.loc 1 333 26 discriminator 2 view .LVU350
	movzbl	12(%rsp), %esi
	movslq	%r8d, %rcx
	.loc 1 325 38 discriminator 2 view .LVU351
	addl	$1, %r8d
.LVL19:
	.loc 1 333 26 discriminator 2 view .LVU352
	movq	%rdx, %rax
.LVL20:
	.loc 1 333 26 discriminator 2 view .LVU353
	salq	$7, %rax
	addq	%rdx, %rax
	leaq	(%rbx,%rax,2), %rax
	movb	%sil, 43888(%rcx,%rax)
.LVL21:
	.loc 1 325 38 is_stmt 1 discriminator 2 view .LVU354
.L166:
	.loc 1 325 24 discriminator 1 view .LVU355
	cmpl	40(%rsp), %r8d
	jl	.L179
	.loc 1 323 33 discriminator 2 view .LVU356
	addl	$1, %r11d
.LVL22:
.L164:
	.loc 1 323 21 discriminator 1 view .LVU357
	cmpl	%r10d, %r11d
	jl	.L22
.LVL23:
	.loc 1 338 21 view .LVU358
	testl	%r10d, %r10d
	jle	.L345
	movl	40(%rsp), %esi
	movl	%r10d, 28(%rsp)
	leaq	45436(%rbx), %rdi
	leaq	43888(%rbx), %rcx
	movl	%ebp, 72(%rsp)
	xorl	%r11d, %r11d
	movq	%rdi, %r15
	leal	-1(%rsi), %eax
	movl	%r14d, 64(%rsp)
	movl	%esi, %r14d
.LVL24:
	.loc 1 338 21 is_stmt 0 view .LVU359
	leaq	1(%rbx,%rax), %rax
	movl	%r12d, 84(%rsp)
	movl	%r13d, 96(%rsp)
	movq	%rax, %r12
	movq	%rcx, %r13
	movq	%rbx, 56(%rsp)
	movq	%r11, %rbx
.LVL25:
	.p2align 4,,10
	.p2align 3
.L181:
	.loc 1 341 24 is_stmt 1 view .LVU360
	leaq	-43888(%r13), %rsi
	.loc 1 340 17 is_stmt 0 view .LVU361
	xorl	%r9d, %r9d
	.loc 1 339 17 view .LVU362
	movl	$32, %ebp
	.loc 1 341 24 view .LVU363
	testl	%r14d, %r14d
	jle	.L184
.LVL26:
	.p2align 4,,10
	.p2align 3
.L182:
	.loc 1 342 13 is_stmt 1 view .LVU364
	.loc 1 342 26 is_stmt 0 view .LVU365
	movzbl	43888(%rsi), %eax
	cmpl	%eax, %r9d
	cmovl	%eax, %r9d
.LVL27:
	.loc 1 343 13 is_stmt 1 view .LVU366
	cmpl	%eax, %ebp
	cmovg	%eax, %ebp
.LVL28:
	.loc 1 341 38 view .LVU367
	.loc 1 341 24 view .LVU368
	addq	$1, %rsi
.LVL29:
	.loc 1 341 24 is_stmt 0 view .LVU369
	cmpq	%rsi, %r12
	jne	.L182
.LVL30:
.L184:
	.loc 1 345 10 is_stmt 1 discriminator 2 view .LVU370
	subq	$8, %rsp
	.cfi_def_cfa_offset 216
	movq	%r13, %rcx
	movq	%r15, %rdi
	movl	%ebp, %r8d
	pushq	%r14
	.cfi_def_cfa_offset 224
	leaq	12384(%r15), %rdx
	leaq	6192(%r15), %rsi
	.loc 1 338 21 is_stmt 0 discriminator 2 view .LVU371
	addq	$258, %r13
	addq	$1032, %r15
	addq	$258, %r12
	.loc 1 345 10 discriminator 2 view .LVU372
	call	BZ2_hbCreateDecodeTables@PLT
.LVL31:
	.loc 1 352 10 is_stmt 1 discriminator 2 view .LVU373
	.loc 1 352 24 is_stmt 0 discriminator 2 view .LVU374
	movq	72(%rsp), %rax
	movl	%ebp, 64012(%rax,%rbx,4)
	.loc 1 338 33 is_stmt 1 discriminator 2 view .LVU375
.LVL32:
	.loc 1 338 21 discriminator 2 view .LVU376
	addq	$1, %rbx
.LVL33:
	.loc 1 338 21 is_stmt 0 discriminator 2 view .LVU377
	popq	%rdx
	.cfi_def_cfa_offset 216
	popq	%rcx
	.cfi_def_cfa_offset 208
	cmpl	%ebx, 28(%rsp)
	jg	.L181
	movl	28(%rsp), %r10d
	movl	64(%rsp), %r14d
.LVL34:
	.loc 1 338 21 discriminator 2 view .LVU378
	movl	72(%rsp), %ebp
	movl	84(%rsp), %r12d
	movl	96(%rsp), %r13d
	movq	56(%rsp), %rbx
	movl	%r10d, %r11d
.LVL35:
.L180:
	.loc 1 357 7 is_stmt 1 view .LVU379
	.loc 1 357 11 is_stmt 0 view .LVU380
	movl	3192(%rbx), %eax
	.loc 1 362 48 view .LVU381
	leaq	76(%rbx), %rdi
	leaq	7880(%rbx), %r9
	andq	$-8, %rdi
	leaq	4095(%rbx), %r8
	leaq	4079(%rbx), %rsi
	.loc 1 357 11 view .LVU382
	addl	$1, %eax
	movl	%eax, 84(%rsp)
.LVL36:
	.loc 1 358 7 is_stmt 1 view .LVU383
	.loc 1 358 17 is_stmt 0 view .LVU384
	imull	$100000, 40(%rbx), %eax
.LVL37:
	.loc 1 358 17 view .LVU385
	movl	%eax, 72(%rsp)
.LVL38:
	.loc 1 359 7 is_stmt 1 view .LVU386
	.loc 1 360 7 view .LVU387
	.loc 1 362 7 view .LVU388
	.loc 1 362 21 view .LVU389
	.loc 1 362 48 is_stmt 0 view .LVU390
	movl	%ebx, %eax
.LVL39:
	.loc 1 362 48 view .LVU391
	subl	%edi, %eax
	movq	$0, 68(%rbx)
.LVL40:
	.loc 1 362 48 view .LVU392
	leal	1092(%rax), %ecx
	xorl	%eax, %eax
	movq	$0, 1084(%rbx)
	shrl	$3, %ecx
	rep stosq
.LVL41:
	.loc 1 362 48 view .LVU393
	movl	$4080, %edi
.LVL42:
	.p2align 4,,10
	.p2align 3
.L185:
.LBB108:
	.loc 1 369 33 is_stmt 1 view .LVU394
	.loc 1 370 28 is_stmt 0 view .LVU395
	leal	15(%rdi), %ecx
.LVL43:
	.loc 1 370 28 view .LVU396
.LBE108:
	.loc 1 338 14 view .LVU397
	movq	%r8, %rax
.LBB109:
	.loc 1 370 28 view .LVU398
	subl	%r8d, %ecx
.LVL44:
	.p2align 4,,10
	.p2align 3
.L186:
	.loc 1 370 16 is_stmt 1 discriminator 3 view .LVU399
	.loc 1 370 28 is_stmt 0 discriminator 3 view .LVU400
	leal	(%rcx,%rax), %edx
	.loc 1 369 33 discriminator 3 view .LVU401
	subq	$1, %rax
.LVL45:
	.loc 1 370 28 discriminator 3 view .LVU402
	movb	%dl, 3725(%rax)
	.loc 1 371 16 is_stmt 1 discriminator 3 view .LVU403
	.loc 1 369 41 discriminator 3 view .LVU404
	.loc 1 369 33 discriminator 3 view .LVU405
	cmpq	%rax, %rsi
	jne	.L186
	.loc 1 373 13 discriminator 2 view .LVU406
	.loc 1 373 28 is_stmt 0 discriminator 2 view .LVU407
	movl	%edi, (%r9)
	.loc 1 368 45 is_stmt 1 discriminator 2 view .LVU408
.LVL46:
	.loc 1 368 37 discriminator 2 view .LVU409
	subl	$16, %edi
	subq	$4, %r9
.LVL47:
	.loc 1 368 37 is_stmt 0 discriminator 2 view .LVU410
	subq	$16, %r8
	subq	$16, %rsi
	cmpl	$3824, %edi
	jne	.L185
	.loc 1 368 37 discriminator 2 view .LVU411
.LBE109:
	.loc 1 378 7 is_stmt 1 discriminator 1 view .LVU412
.LVL48:
	.loc 1 379 9 discriminator 1 view .LVU413
	.loc 1 379 30 discriminator 1 view .LVU414
	.loc 1 379 41 discriminator 1 view .LVU415
	.loc 1 379 44 is_stmt 0 discriminator 1 view .LVU416
	movl	24(%rsp), %eax
	testl	%eax, %eax
	jle	.L347
	.loc 1 379 114 is_stmt 1 discriminator 4 view .LVU417
	.loc 1 379 115 discriminator 4 view .LVU418
	.loc 1 379 117 discriminator 4 view .LVU419
.LVL49:
	.loc 1 379 132 discriminator 4 view .LVU420
	.loc 1 379 150 is_stmt 0 discriminator 4 view .LVU421
	movzbl	7884(%rbx), %ecx
	.loc 1 378 14 discriminator 4 view .LVU422
	movl	$0, 28(%rsp)
	.loc 1 379 255 discriminator 4 view .LVU423
	movl	$256, %r8d
	.loc 1 379 288 discriminator 4 view .LVU424
	movl	$49, 64(%rsp)
	.loc 1 379 169 discriminator 4 view .LVU425
	movzbl	%cl, %edx
	.loc 1 379 137 discriminator 4 view .LVU426
	movl	%ecx, 88(%rsp)
.LVL50:
	.loc 1 379 161 is_stmt 1 discriminator 4 view .LVU427
	movq	%rdx, %rax
	.loc 1 379 169 is_stmt 0 discriminator 4 view .LVU428
	movl	64012(%rbx,%rdx,4), %ebp
.LVL51:
	.loc 1 379 189 is_stmt 1 discriminator 4 view .LVU429
	.loc 1 379 255 is_stmt 0 discriminator 4 view .LVU430
	movl	$0, 56(%rsp)
	salq	$7, %rax
	addq	%rdx, %rax
	movl	%ebp, 76(%rsp)
	salq	$3, %rax
	.loc 1 379 196 discriminator 4 view .LVU431
	leaq	45436(%rbx,%rax), %rcx
.LVL52:
	.loc 1 379 196 discriminator 4 view .LVU432
	movq	%rcx, 16(%rsp)
.LVL53:
	.loc 1 379 220 is_stmt 1 discriminator 4 view .LVU433
	.loc 1 379 226 is_stmt 0 discriminator 4 view .LVU434
	leaq	57820(%rbx,%rax), %rcx
.LVL54:
	.loc 1 379 255 discriminator 4 view .LVU435
	leaq	51628(%rbx,%rax), %rax
	.loc 1 379 226 discriminator 4 view .LVU436
	movq	%rcx, 48(%rsp)
.LVL55:
	.loc 1 379 249 is_stmt 1 discriminator 4 view .LVU437
	.loc 1 379 255 is_stmt 0 discriminator 4 view .LVU438
	movq	%rax, 32(%rsp)
.LVL56:
	.loc 1 379 280 is_stmt 1 discriminator 4 view .LVU439
	.loc 1 379 292 discriminator 4 view .LVU440
	.p2align 4,,10
	.p2align 3
.L19:
	.loc 1 379 315 discriminator 6 view .LVU441
	.loc 1 379 324 is_stmt 0 discriminator 6 view .LVU442
	movl	$36, 8(%rbx)
	.loc 1 379 355 discriminator 6 view .LVU443
	movl	36(%rbx), %eax
	jmp	.L190
	.p2align 4,,10
	.p2align 3
.L188:
	.loc 1 379 470 is_stmt 1 discriminator 9 view .LVU444
	.loc 1 379 475 is_stmt 0 discriminator 9 view .LVU445
	movq	(%rbx), %rdx
	.loc 1 379 481 discriminator 9 view .LVU446
	movl	8(%rdx), %esi
	.loc 1 379 473 discriminator 9 view .LVU447
	testl	%esi, %esi
	je	.L387
	.loc 1 379 541 is_stmt 1 discriminator 12 view .LVU448
	.loc 1 379 542 discriminator 12 view .LVU449
	.loc 1 379 544 discriminator 12 view .LVU450
	.loc 1 379 604 is_stmt 0 discriminator 12 view .LVU451
	movq	(%rdx), %rdi
	.loc 1 379 567 discriminator 12 view .LVU452
	movl	32(%rbx), %ecx
	.loc 1 379 629 discriminator 12 view .LVU453
	addl	$8, %eax
	.loc 1 379 672 discriminator 12 view .LVU454
	subl	$1, %esi
	.loc 1 379 576 discriminator 12 view .LVU455
	movzbl	(%rdi), %r9d
	.loc 1 379 567 discriminator 12 view .LVU456
	sall	$8, %ecx
	.loc 1 379 629 discriminator 12 view .LVU457
	movl	%eax, 36(%rbx)
	.loc 1 379 651 discriminator 12 view .LVU458
	addq	$1, %rdi
	.loc 1 379 573 discriminator 12 view .LVU459
	orl	%r9d, %ecx
	movl	%ecx, 32(%rbx)
	.loc 1 379 619 is_stmt 1 discriminator 12 view .LVU460
	.loc 1 379 635 discriminator 12 view .LVU461
	.loc 1 379 705 is_stmt 0 discriminator 12 view .LVU462
	addl	$1, 12(%rdx)
	.loc 1 379 651 discriminator 12 view .LVU463
	movq	%rdi, (%rdx)
	.loc 1 379 655 is_stmt 1 discriminator 12 view .LVU464
	.loc 1 379 672 is_stmt 0 discriminator 12 view .LVU465
	movl	%esi, 8(%rdx)
	.loc 1 379 676 is_stmt 1 discriminator 12 view .LVU466
	.loc 1 379 705 is_stmt 0 discriminator 12 view .LVU467
	je	.L475
.L190:
	.loc 1 379 330 is_stmt 1 discriminator 7 view .LVU468
	.loc 1 379 350 discriminator 7 view .LVU469
	.loc 1 379 353 is_stmt 0 discriminator 7 view .LVU470
	cmpl	%eax, %ebp
	jg	.L188
.LBB110:
	.loc 1 379 373 is_stmt 1 discriminator 8 view .LVU471
	.loc 1 379 383 discriminator 8 view .LVU472
	.loc 1 379 423 is_stmt 0 discriminator 8 view .LVU473
	movl	%ebp, %ecx
	.loc 1 379 398 discriminator 8 view .LVU474
	movl	32(%rbx), %edx
	.loc 1 379 411 discriminator 8 view .LVU475
	subl	%ebp, %eax
.LVL57:
	.loc 1 379 434 is_stmt 1 discriminator 8 view .LVU476
	.loc 1 379 451 discriminator 8 view .LVU477
	.loc 1 379 423 is_stmt 0 discriminator 8 view .LVU478
	movl	$1, %r12d
	sall	%cl, %r12d
	.loc 1 379 398 discriminator 8 view .LVU479
	movl	%eax, %ecx
	.loc 1 379 429 discriminator 8 view .LVU480
	subl	$1, %r12d
	.loc 1 379 398 discriminator 8 view .LVU481
	shrl	%cl, %edx
.LVL58:
	.loc 1 379 456 discriminator 8 view .LVU482
	andl	%edx, %r12d
.LVL59:
	.loc 1 379 461 is_stmt 1 discriminator 8 view .LVU483
	jmp	.L189
.LVL60:
	.p2align 4,,10
	.p2align 3
.L477:
	.loc 1 379 461 is_stmt 0 discriminator 8 view .LVU484
.LBE110:
.LBB111:
	.loc 1 379 942 is_stmt 1 discriminator 22 view .LVU485
	.loc 1 379 952 discriminator 22 view .LVU486
	.loc 1 379 967 is_stmt 0 discriminator 22 view .LVU487
	movl	32(%rbx), %r13d
.LVL61:
	.loc 1 379 980 discriminator 22 view .LVU488
	subl	$1, %eax
.LVL62:
	.loc 1 379 1001 is_stmt 1 discriminator 22 view .LVU489
	.loc 1 379 1017 discriminator 22 view .LVU490
.LBE111:
	.loc 1 379 1341 is_stmt 0 discriminator 22 view .LVU491
	addl	%r12d, %r12d
.LVL63:
.LBB112:
	.loc 1 379 967 discriminator 22 view .LVU492
	movl	%eax, %ecx
	shrl	%cl, %r13d
.LVL64:
	.loc 1 379 954 discriminator 22 view .LVU493
	andl	$1, %r13d
.LVL65:
	.loc 1 379 1025 is_stmt 1 discriminator 22 view .LVU494
.LBE112:
	.loc 1 379 1326 discriminator 22 view .LVU495
	.loc 1 379 1328 discriminator 22 view .LVU496
	.loc 1 379 1333 is_stmt 0 discriminator 22 view .LVU497
	orl	%r13d, %r12d
.LVL66:
	.loc 1 379 770 is_stmt 1 discriminator 22 view .LVU498
.L189:
.LBB113:
	.loc 1 379 444 is_stmt 0 discriminator 30 view .LVU499
	movl	%eax, 36(%rbx)
.LVL67:
	.loc 1 379 444 discriminator 30 view .LVU500
.LBE113:
	.loc 1 379 762 is_stmt 1 discriminator 30 view .LVU501
	.loc 1 379 764 discriminator 30 view .LVU502
	.loc 1 379 776 discriminator 30 view .LVU503
	.loc 1 379 779 is_stmt 0 discriminator 30 view .LVU504
	cmpl	$20, %ebp
	jg	.L373
	.loc 1 379 836 is_stmt 1 discriminator 17 view .LVU505
	.loc 1 379 837 discriminator 17 view .LVU506
	.loc 1 379 839 discriminator 17 view .LVU507
	.loc 1 379 842 is_stmt 0 discriminator 17 view .LVU508
	movq	16(%rsp), %rsi
	.loc 1 379 857 discriminator 17 view .LVU509
	movslq	%ebp, %rax
	.loc 1 379 842 discriminator 17 view .LVU510
	cmpl	%r12d, (%rsi,%rax,4)
	jge	.L192
	.loc 1 379 870 is_stmt 1 discriminator 19 view .LVU511
	.loc 1 379 872 is_stmt 0 discriminator 19 view .LVU512
	addl	$1, %ebp
.LVL68:
	.p2align 4,,10
	.p2align 3
.L18:
	.loc 1 379 885 is_stmt 1 discriminator 20 view .LVU513
	.loc 1 379 894 is_stmt 0 discriminator 20 view .LVU514
	movl	$37, 8(%rbx)
	.loc 1 379 925 discriminator 20 view .LVU515
	movl	36(%rbx), %eax
	jmp	.L194
	.p2align 4,,10
	.p2align 3
.L193:
	.loc 1 379 1034 is_stmt 1 discriminator 23 view .LVU516
	.loc 1 379 1039 is_stmt 0 discriminator 23 view .LVU517
	movq	(%rbx), %rdx
	.loc 1 379 1045 discriminator 23 view .LVU518
	movl	8(%rdx), %esi
	.loc 1 379 1037 discriminator 23 view .LVU519
	testl	%esi, %esi
	je	.L387
	.loc 1 379 1105 is_stmt 1 discriminator 26 view .LVU520
	.loc 1 379 1106 discriminator 26 view .LVU521
	.loc 1 379 1108 discriminator 26 view .LVU522
	.loc 1 379 1168 is_stmt 0 discriminator 26 view .LVU523
	movq	(%rdx), %rdi
	.loc 1 379 1131 discriminator 26 view .LVU524
	movl	32(%rbx), %ecx
	.loc 1 379 1193 discriminator 26 view .LVU525
	addl	$8, %eax
	.loc 1 379 1236 discriminator 26 view .LVU526
	subl	$1, %esi
	.loc 1 379 1140 discriminator 26 view .LVU527
	movzbl	(%rdi), %r9d
	.loc 1 379 1131 discriminator 26 view .LVU528
	sall	$8, %ecx
	.loc 1 379 1193 discriminator 26 view .LVU529
	movl	%eax, 36(%rbx)
	.loc 1 379 1215 discriminator 26 view .LVU530
	addq	$1, %rdi
	.loc 1 379 1137 discriminator 26 view .LVU531
	orl	%r9d, %ecx
	movl	%ecx, 32(%rbx)
	.loc 1 379 1183 is_stmt 1 discriminator 26 view .LVU532
	.loc 1 379 1199 discriminator 26 view .LVU533
	.loc 1 379 1262 is_stmt 0 discriminator 26 view .LVU534
	addl	$1, 12(%rdx)
	.loc 1 379 1215 discriminator 26 view .LVU535
	movq	%rdi, (%rdx)
	.loc 1 379 1219 is_stmt 1 discriminator 26 view .LVU536
	.loc 1 379 1236 is_stmt 0 discriminator 26 view .LVU537
	movl	%esi, 8(%rdx)
	.loc 1 379 1240 is_stmt 1 discriminator 26 view .LVU538
	.loc 1 379 1266 discriminator 26 view .LVU539
	.loc 1 379 1269 is_stmt 0 discriminator 26 view .LVU540
	je	.L476
.L194:
	.loc 1 379 900 is_stmt 1 discriminator 21 view .LVU541
	.loc 1 379 920 discriminator 21 view .LVU542
	.loc 1 379 923 is_stmt 0 discriminator 21 view .LVU543
	testl	%eax, %eax
	jle	.L193
	jmp	.L477
.LVL69:
	.p2align 4,,10
	.p2align 3
.L479:
.LBB114:
	.loc 1 489 948 is_stmt 1 discriminator 22 view .LVU544
	.loc 1 489 958 discriminator 22 view .LVU545
	.loc 1 489 973 is_stmt 0 discriminator 22 view .LVU546
	movl	32(%rbx), %r13d
.LVL70:
	.loc 1 489 986 discriminator 22 view .LVU547
	subl	$1, %eax
.LVL71:
	.loc 1 489 1007 is_stmt 1 discriminator 22 view .LVU548
	.loc 1 489 1023 discriminator 22 view .LVU549
.LBE114:
	.loc 1 489 1347 is_stmt 0 discriminator 22 view .LVU550
	addl	%r12d, %r12d
.LVL72:
.LBB115:
	.loc 1 489 973 discriminator 22 view .LVU551
	movl	%eax, %ecx
	shrl	%cl, %r13d
.LVL73:
	.loc 1 489 960 discriminator 22 view .LVU552
	andl	$1, %r13d
.LVL74:
	.loc 1 489 1031 is_stmt 1 discriminator 22 view .LVU553
.LBE115:
	.loc 1 489 1332 discriminator 22 view .LVU554
	.loc 1 489 1334 discriminator 22 view .LVU555
	.loc 1 489 1339 is_stmt 0 discriminator 22 view .LVU556
	orl	%r13d, %r12d
.LVL75:
	.loc 1 489 776 is_stmt 1 discriminator 22 view .LVU557
.L233:
.LBB116:
	.loc 1 489 450 is_stmt 0 discriminator 30 view .LVU558
	movl	%eax, 36(%rbx)
	.loc 1 489 450 discriminator 30 view .LVU559
.LBE116:
	.loc 1 489 768 is_stmt 1 discriminator 30 view .LVU560
	.loc 1 489 770 discriminator 30 view .LVU561
	.loc 1 489 782 discriminator 30 view .LVU562
	.loc 1 489 785 is_stmt 0 discriminator 30 view .LVU563
	cmpl	$20, %ebp
	jg	.L373
	.loc 1 489 842 is_stmt 1 discriminator 17 view .LVU564
	.loc 1 489 843 discriminator 17 view .LVU565
	.loc 1 489 845 discriminator 17 view .LVU566
	.loc 1 489 848 is_stmt 0 discriminator 17 view .LVU567
	movq	16(%rsp), %rcx
	.loc 1 489 863 discriminator 17 view .LVU568
	movslq	%ebp, %rax
	.loc 1 489 848 discriminator 17 view .LVU569
	cmpl	%r12d, (%rcx,%rax,4)
	jge	.L236
	.loc 1 489 876 is_stmt 1 discriminator 19 view .LVU570
	.loc 1 489 878 is_stmt 0 discriminator 19 view .LVU571
	addl	$1, %ebp
.LVL76:
	.p2align 4,,10
	.p2align 3
.L14:
	.loc 1 489 891 is_stmt 1 discriminator 20 view .LVU572
	.loc 1 489 900 is_stmt 0 discriminator 20 view .LVU573
	movl	$41, 8(%rbx)
	.loc 1 489 931 discriminator 20 view .LVU574
	movl	36(%rbx), %eax
	jmp	.L238
	.p2align 4,,10
	.p2align 3
.L237:
	.loc 1 489 1040 is_stmt 1 discriminator 23 view .LVU575
	.loc 1 489 1045 is_stmt 0 discriminator 23 view .LVU576
	movq	(%rbx), %rdx
	.loc 1 489 1051 discriminator 23 view .LVU577
	movl	8(%rdx), %esi
	.loc 1 489 1043 discriminator 23 view .LVU578
	testl	%esi, %esi
	je	.L387
	.loc 1 489 1111 is_stmt 1 discriminator 26 view .LVU579
	.loc 1 489 1112 discriminator 26 view .LVU580
	.loc 1 489 1114 discriminator 26 view .LVU581
	.loc 1 489 1174 is_stmt 0 discriminator 26 view .LVU582
	movq	(%rdx), %rdi
	.loc 1 489 1137 discriminator 26 view .LVU583
	movl	32(%rbx), %ecx
	.loc 1 489 1199 discriminator 26 view .LVU584
	addl	$8, %eax
	.loc 1 489 1242 discriminator 26 view .LVU585
	subl	$1, %esi
	.loc 1 489 1146 discriminator 26 view .LVU586
	movzbl	(%rdi), %r9d
	.loc 1 489 1137 discriminator 26 view .LVU587
	sall	$8, %ecx
	.loc 1 489 1199 discriminator 26 view .LVU588
	movl	%eax, 36(%rbx)
	.loc 1 489 1221 discriminator 26 view .LVU589
	addq	$1, %rdi
	.loc 1 489 1143 discriminator 26 view .LVU590
	orl	%r9d, %ecx
	movl	%ecx, 32(%rbx)
	.loc 1 489 1189 is_stmt 1 discriminator 26 view .LVU591
	.loc 1 489 1205 discriminator 26 view .LVU592
	.loc 1 489 1268 is_stmt 0 discriminator 26 view .LVU593
	addl	$1, 12(%rdx)
	.loc 1 489 1221 discriminator 26 view .LVU594
	movq	%rdi, (%rdx)
	.loc 1 489 1225 is_stmt 1 discriminator 26 view .LVU595
	.loc 1 489 1242 is_stmt 0 discriminator 26 view .LVU596
	movl	%esi, 8(%rdx)
	.loc 1 489 1246 is_stmt 1 discriminator 26 view .LVU597
	.loc 1 489 1272 discriminator 26 view .LVU598
	.loc 1 489 1275 is_stmt 0 discriminator 26 view .LVU599
	je	.L478
.L238:
	.loc 1 489 906 is_stmt 1 discriminator 21 view .LVU600
	.loc 1 489 926 discriminator 21 view .LVU601
	.loc 1 489 929 is_stmt 0 discriminator 21 view .LVU602
	testl	%eax, %eax
	jle	.L237
	jmp	.L479
.LVL77:
	.p2align 4,,10
	.p2align 3
.L481:
.LBB117:
	.loc 1 400 951 is_stmt 1 discriminator 22 view .LVU603
	.loc 1 400 961 discriminator 22 view .LVU604
	.loc 1 400 976 is_stmt 0 discriminator 22 view .LVU605
	movl	32(%rbx), %r13d
.LVL78:
	.loc 1 400 989 discriminator 22 view .LVU606
	subl	$1, %eax
.LVL79:
	.loc 1 400 1010 is_stmt 1 discriminator 22 view .LVU607
	.loc 1 400 1026 discriminator 22 view .LVU608
.LBE117:
	.loc 1 400 1350 is_stmt 0 discriminator 22 view .LVU609
	addl	%r12d, %r12d
.LVL80:
.LBB118:
	.loc 1 400 976 discriminator 22 view .LVU610
	movl	%eax, %ecx
	shrl	%cl, %r13d
.LVL81:
	.loc 1 400 963 discriminator 22 view .LVU611
	andl	$1, %r13d
.LVL82:
	.loc 1 400 1034 is_stmt 1 discriminator 22 view .LVU612
.LBE118:
	.loc 1 400 1335 discriminator 22 view .LVU613
	.loc 1 400 1337 discriminator 22 view .LVU614
	.loc 1 400 1342 is_stmt 0 discriminator 22 view .LVU615
	orl	%r13d, %r12d
.LVL83:
	.loc 1 400 779 is_stmt 1 discriminator 22 view .LVU616
.L203:
.LBB119:
	.loc 1 400 453 is_stmt 0 discriminator 30 view .LVU617
	movl	%eax, 36(%rbx)
	.loc 1 400 453 discriminator 30 view .LVU618
.LBE119:
	.loc 1 400 771 is_stmt 1 discriminator 30 view .LVU619
	.loc 1 400 773 discriminator 30 view .LVU620
	.loc 1 400 785 discriminator 30 view .LVU621
	.loc 1 400 788 is_stmt 0 discriminator 30 view .LVU622
	cmpl	$20, %ebp
	jg	.L373
	.loc 1 400 845 is_stmt 1 discriminator 17 view .LVU623
	.loc 1 400 846 discriminator 17 view .LVU624
	.loc 1 400 848 discriminator 17 view .LVU625
	.loc 1 400 851 is_stmt 0 discriminator 17 view .LVU626
	movq	16(%rsp), %rsi
	.loc 1 400 866 discriminator 17 view .LVU627
	movslq	%ebp, %rax
	.loc 1 400 851 discriminator 17 view .LVU628
	cmpl	%r12d, (%rsi,%rax,4)
	jge	.L206
	.loc 1 400 879 is_stmt 1 discriminator 19 view .LVU629
	.loc 1 400 881 is_stmt 0 discriminator 19 view .LVU630
	addl	$1, %ebp
.LVL84:
	.p2align 4,,10
	.p2align 3
.L16:
	.loc 1 400 894 is_stmt 1 discriminator 20 view .LVU631
	.loc 1 400 903 is_stmt 0 discriminator 20 view .LVU632
	movl	$39, 8(%rbx)
	.loc 1 400 934 discriminator 20 view .LVU633
	movl	36(%rbx), %eax
	jmp	.L208
	.p2align 4,,10
	.p2align 3
.L207:
	.loc 1 400 1043 is_stmt 1 discriminator 23 view .LVU634
	.loc 1 400 1048 is_stmt 0 discriminator 23 view .LVU635
	movq	(%rbx), %rdx
	.loc 1 400 1054 discriminator 23 view .LVU636
	movl	8(%rdx), %esi
	.loc 1 400 1046 discriminator 23 view .LVU637
	testl	%esi, %esi
	je	.L387
	.loc 1 400 1114 is_stmt 1 discriminator 26 view .LVU638
	.loc 1 400 1115 discriminator 26 view .LVU639
	.loc 1 400 1117 discriminator 26 view .LVU640
	.loc 1 400 1177 is_stmt 0 discriminator 26 view .LVU641
	movq	(%rdx), %rdi
	.loc 1 400 1140 discriminator 26 view .LVU642
	movl	32(%rbx), %ecx
	.loc 1 400 1202 discriminator 26 view .LVU643
	addl	$8, %eax
	.loc 1 400 1245 discriminator 26 view .LVU644
	subl	$1, %esi
	.loc 1 400 1149 discriminator 26 view .LVU645
	movzbl	(%rdi), %r9d
	.loc 1 400 1140 discriminator 26 view .LVU646
	sall	$8, %ecx
	.loc 1 400 1202 discriminator 26 view .LVU647
	movl	%eax, 36(%rbx)
	.loc 1 400 1224 discriminator 26 view .LVU648
	addq	$1, %rdi
	.loc 1 400 1146 discriminator 26 view .LVU649
	orl	%r9d, %ecx
	movl	%ecx, 32(%rbx)
	.loc 1 400 1192 is_stmt 1 discriminator 26 view .LVU650
	.loc 1 400 1208 discriminator 26 view .LVU651
	.loc 1 400 1271 is_stmt 0 discriminator 26 view .LVU652
	addl	$1, 12(%rdx)
	.loc 1 400 1224 discriminator 26 view .LVU653
	movq	%rdi, (%rdx)
	.loc 1 400 1228 is_stmt 1 discriminator 26 view .LVU654
	.loc 1 400 1245 is_stmt 0 discriminator 26 view .LVU655
	movl	%esi, 8(%rdx)
	.loc 1 400 1249 is_stmt 1 discriminator 26 view .LVU656
	.loc 1 400 1275 discriminator 26 view .LVU657
	.loc 1 400 1278 is_stmt 0 discriminator 26 view .LVU658
	je	.L480
.L208:
	.loc 1 400 909 is_stmt 1 discriminator 21 view .LVU659
	.loc 1 400 929 discriminator 21 view .LVU660
	.loc 1 400 932 is_stmt 0 discriminator 21 view .LVU661
	testl	%eax, %eax
	jle	.L207
	jmp	.L481
.LVL85:
	.p2align 4,,10
	.p2align 3
.L22:
	.loc 1 324 19 is_stmt 1 view .LVU662
	.loc 1 324 28 is_stmt 0 view .LVU663
	movl	$33, 8(%rbx)
	.loc 1 324 59 view .LVU664
	movl	36(%rbx), %edi
	jmp	.L167
	.p2align 4,,10
	.p2align 3
.L165:
	.loc 1 324 170 is_stmt 1 discriminator 3 view .LVU665
	.loc 1 324 175 is_stmt 0 discriminator 3 view .LVU666
	movq	(%rbx), %rax
	.loc 1 324 181 discriminator 3 view .LVU667
	movl	8(%rax), %ecx
	.loc 1 324 173 discriminator 3 view .LVU668
	testl	%ecx, %ecx
	je	.L387
	.loc 1 324 241 is_stmt 1 discriminator 6 view .LVU669
	.loc 1 324 242 discriminator 6 view .LVU670
	.loc 1 324 244 discriminator 6 view .LVU671
	.loc 1 324 304 is_stmt 0 discriminator 6 view .LVU672
	movq	(%rax), %rsi
	.loc 1 324 267 discriminator 6 view .LVU673
	movl	32(%rbx), %edx
	.loc 1 324 329 discriminator 6 view .LVU674
	addl	$8, %edi
	.loc 1 324 372 discriminator 6 view .LVU675
	subl	$1, %ecx
	.loc 1 324 276 discriminator 6 view .LVU676
	movzbl	(%rsi), %r9d
	.loc 1 324 267 discriminator 6 view .LVU677
	sall	$8, %edx
	.loc 1 324 329 discriminator 6 view .LVU678
	movl	%edi, 36(%rbx)
	.loc 1 324 351 discriminator 6 view .LVU679
	addq	$1, %rsi
	.loc 1 324 273 discriminator 6 view .LVU680
	orl	%r9d, %edx
	movl	%edx, 32(%rbx)
	.loc 1 324 319 is_stmt 1 discriminator 6 view .LVU681
	.loc 1 324 335 discriminator 6 view .LVU682
	.loc 1 324 405 is_stmt 0 discriminator 6 view .LVU683
	addl	$1, 12(%rax)
	.loc 1 324 351 discriminator 6 view .LVU684
	movq	%rsi, (%rax)
	.loc 1 324 355 is_stmt 1 discriminator 6 view .LVU685
	.loc 1 324 372 is_stmt 0 discriminator 6 view .LVU686
	movl	%ecx, 8(%rax)
	.loc 1 324 376 is_stmt 1 discriminator 6 view .LVU687
	.loc 1 324 405 is_stmt 0 discriminator 6 view .LVU688
	je	.L482
.L167:
	.loc 1 324 34 is_stmt 1 discriminator 1 view .LVU689
	.loc 1 324 54 discriminator 1 view .LVU690
	.loc 1 324 57 is_stmt 0 discriminator 1 view .LVU691
	cmpl	$4, %edi
	jle	.L165
.LBB120:
	.loc 1 324 76 is_stmt 1 discriminator 2 view .LVU692
	.loc 1 324 86 discriminator 2 view .LVU693
	.loc 1 324 101 is_stmt 0 discriminator 2 view .LVU694
	movl	32(%rbx), %eax
	.loc 1 324 114 discriminator 2 view .LVU695
	leal	-5(%rdi), %ecx
.LBE120:
	.loc 1 325 17 discriminator 2 view .LVU696
	xorl	%r8d, %r8d
.LVL86:
.LBB121:
	.loc 1 324 145 discriminator 2 view .LVU697
	movl	%ecx, 36(%rbx)
	.loc 1 324 101 discriminator 2 view .LVU698
	shrl	%cl, %eax
.LVL87:
	.loc 1 324 135 is_stmt 1 discriminator 2 view .LVU699
	.loc 1 324 151 discriminator 2 view .LVU700
	.loc 1 324 156 is_stmt 0 discriminator 2 view .LVU701
	andl	$31, %eax
.LVL88:
	.loc 1 324 156 discriminator 2 view .LVU702
	movl	%eax, 12(%rsp)
.LVL89:
	.loc 1 324 161 is_stmt 1 discriminator 2 view .LVU703
.LBE121:
	.loc 1 324 462 discriminator 2 view .LVU704
	.loc 1 325 10 discriminator 2 view .LVU705
	.loc 1 325 10 is_stmt 0 discriminator 2 view .LVU706
	jmp	.L166
.LVL90:
	.p2align 4,,10
	.p2align 3
.L28:
	.loc 1 608 56 view .LVU707
	movl	36(%rbx), %ecx
.LVL91:
.L119:
	.loc 1 258 16 is_stmt 1 view .LVU708
	.loc 1 258 25 is_stmt 0 view .LVU709
	movl	$27, 8(%rbx)
	jmp	.L124
	.p2align 4,,10
	.p2align 3
.L122:
	.loc 1 258 165 is_stmt 1 discriminator 3 view .LVU710
	.loc 1 258 170 is_stmt 0 discriminator 3 view .LVU711
	movq	(%rbx), %rax
	.loc 1 258 176 discriminator 3 view .LVU712
	movl	8(%rax), %esi
	.loc 1 258 168 discriminator 3 view .LVU713
	testl	%esi, %esi
	je	.L387
	.loc 1 258 236 is_stmt 1 discriminator 6 view .LVU714
	.loc 1 258 237 discriminator 6 view .LVU715
	.loc 1 258 239 discriminator 6 view .LVU716
	.loc 1 258 299 is_stmt 0 discriminator 6 view .LVU717
	movq	(%rax), %rdi
	.loc 1 258 262 discriminator 6 view .LVU718
	movl	32(%rbx), %edx
	.loc 1 258 324 discriminator 6 view .LVU719
	addl	$8, %ecx
	.loc 1 258 367 discriminator 6 view .LVU720
	subl	$1, %esi
	.loc 1 258 271 discriminator 6 view .LVU721
	movzbl	(%rdi), %r9d
	.loc 1 258 262 discriminator 6 view .LVU722
	sall	$8, %edx
	.loc 1 258 324 discriminator 6 view .LVU723
	movl	%ecx, 36(%rbx)
	.loc 1 258 346 discriminator 6 view .LVU724
	addq	$1, %rdi
	.loc 1 258 268 discriminator 6 view .LVU725
	orl	%r9d, %edx
	movl	%edx, 32(%rbx)
	.loc 1 258 314 is_stmt 1 discriminator 6 view .LVU726
	.loc 1 258 330 discriminator 6 view .LVU727
	.loc 1 258 400 is_stmt 0 discriminator 6 view .LVU728
	addl	$1, 12(%rax)
	.loc 1 258 346 discriminator 6 view .LVU729
	movq	%rdi, (%rax)
	.loc 1 258 350 is_stmt 1 discriminator 6 view .LVU730
	.loc 1 258 367 is_stmt 0 discriminator 6 view .LVU731
	movl	%esi, 8(%rax)
	.loc 1 258 371 is_stmt 1 discriminator 6 view .LVU732
	.loc 1 258 400 is_stmt 0 discriminator 6 view .LVU733
	je	.L483
.L124:
	.loc 1 258 31 is_stmt 1 discriminator 1 view .LVU734
	.loc 1 258 51 discriminator 1 view .LVU735
	.loc 1 258 54 is_stmt 0 discriminator 1 view .LVU736
	cmpl	$7, %ecx
	jle	.L122
.LBB122:
	.loc 1 258 73 is_stmt 1 discriminator 2 view .LVU737
	.loc 1 258 83 discriminator 2 view .LVU738
	.loc 1 258 98 is_stmt 0 discriminator 2 view .LVU739
	movl	32(%rbx), %edx
	.loc 1 258 111 discriminator 2 view .LVU740
	subl	$8, %ecx
.LBE122:
	.loc 1 259 32 discriminator 2 view .LVU741
	movl	56(%rbx), %eax
.LBB123:
	.loc 1 258 142 discriminator 2 view .LVU742
	movl	%ecx, 36(%rbx)
	.loc 1 258 98 discriminator 2 view .LVU743
	shrl	%cl, %edx
.LBE123:
	.loc 1 259 32 discriminator 2 view .LVU744
	sall	$8, %eax
.LBB124:
	.loc 1 258 85 discriminator 2 view .LVU745
	movzbl	%dl, %edx
.LVL92:
	.loc 1 258 132 is_stmt 1 discriminator 2 view .LVU746
	.loc 1 258 148 discriminator 2 view .LVU747
	.loc 1 258 156 discriminator 2 view .LVU748
.LBE124:
	.loc 1 258 457 discriminator 2 view .LVU749
	.loc 1 259 7 discriminator 2 view .LVU750
	.loc 1 259 38 is_stmt 0 discriminator 2 view .LVU751
	orl	%edx, %eax
	.loc 1 259 18 discriminator 2 view .LVU752
	movl	%eax, 56(%rbx)
	.loc 1 261 7 is_stmt 1 discriminator 2 view .LVU753
	.loc 1 261 10 is_stmt 0 discriminator 2 view .LVU754
	js	.L373
	.loc 1 262 56 is_stmt 1 view .LVU755
	.loc 1 262 57 view .LVU756
	.loc 1 263 7 view .LVU757
	.loc 1 263 35 is_stmt 0 view .LVU758
	imull	$100000, 40(%rbx), %edx
.LVL93:
	.loc 1 263 27 view .LVU759
	addl	$10, %edx
	.loc 1 263 10 view .LVU760
	cmpl	%edx, %eax
	jg	.L373
	.loc 1 267 14 view .LVU761
	xorl	%r8d, %r8d
.LVL94:
.L47:
	.loc 1 267 14 view .LVU762
	movslq	%r8d, %r9
.LVL95:
.L127:
	.loc 1 268 28 view .LVU763
	movl	$28, 8(%rbx)
	movl	%r9d, %r8d
.LVL96:
	.loc 1 268 19 is_stmt 1 view .LVU764
	jmp	.L129
	.p2align 4,,10
	.p2align 3
.L126:
	.loc 1 268 168 discriminator 3 view .LVU765
	.loc 1 268 173 is_stmt 0 discriminator 3 view .LVU766
	movq	(%rbx), %rax
	.loc 1 268 179 discriminator 3 view .LVU767
	movl	8(%rax), %esi
	.loc 1 268 171 discriminator 3 view .LVU768
	testl	%esi, %esi
	je	.L387
	.loc 1 268 239 is_stmt 1 discriminator 6 view .LVU769
	.loc 1 268 240 discriminator 6 view .LVU770
	.loc 1 268 242 discriminator 6 view .LVU771
	.loc 1 268 302 is_stmt 0 discriminator 6 view .LVU772
	movq	(%rax), %rdi
	.loc 1 268 265 discriminator 6 view .LVU773
	movl	32(%rbx), %edx
	.loc 1 268 327 discriminator 6 view .LVU774
	addl	$8, %ecx
	.loc 1 268 370 discriminator 6 view .LVU775
	subl	$1, %esi
	.loc 1 268 274 discriminator 6 view .LVU776
	movzbl	(%rdi), %r15d
	.loc 1 268 265 discriminator 6 view .LVU777
	sall	$8, %edx
	.loc 1 268 327 discriminator 6 view .LVU778
	movl	%ecx, 36(%rbx)
	.loc 1 268 349 discriminator 6 view .LVU779
	addq	$1, %rdi
	.loc 1 268 271 discriminator 6 view .LVU780
	orl	%r15d, %edx
	movl	%edx, 32(%rbx)
	.loc 1 268 317 is_stmt 1 discriminator 6 view .LVU781
	.loc 1 268 333 discriminator 6 view .LVU782
	.loc 1 268 403 is_stmt 0 discriminator 6 view .LVU783
	addl	$1, 12(%rax)
	.loc 1 268 349 discriminator 6 view .LVU784
	movq	%rdi, (%rax)
	.loc 1 268 353 is_stmt 1 discriminator 6 view .LVU785
	.loc 1 268 370 is_stmt 0 discriminator 6 view .LVU786
	movl	%esi, 8(%rax)
	.loc 1 268 374 is_stmt 1 discriminator 6 view .LVU787
	.loc 1 268 403 is_stmt 0 discriminator 6 view .LVU788
	je	.L484
.L129:
	.loc 1 268 34 is_stmt 1 discriminator 1 view .LVU789
	.loc 1 268 54 discriminator 1 view .LVU790
	.loc 1 268 57 is_stmt 0 discriminator 1 view .LVU791
	testl	%ecx, %ecx
	jle	.L126
.LBB125:
	.loc 1 268 76 is_stmt 1 discriminator 2 view .LVU792
	.loc 1 268 86 discriminator 2 view .LVU793
	.loc 1 268 101 is_stmt 0 discriminator 2 view .LVU794
	movl	32(%rbx), %eax
	.loc 1 268 114 discriminator 2 view .LVU795
	subl	$1, %ecx
	.loc 1 268 145 discriminator 2 view .LVU796
	movl	%ecx, 36(%rbx)
	.loc 1 268 101 discriminator 2 view .LVU797
	shrl	%cl, %eax
	.loc 1 268 88 discriminator 2 view .LVU798
	andl	$1, %eax
.LVL97:
	.loc 1 268 135 is_stmt 1 discriminator 2 view .LVU799
	.loc 1 268 151 discriminator 2 view .LVU800
	.loc 1 268 159 discriminator 2 view .LVU801
.LBE125:
	.loc 1 268 460 discriminator 2 view .LVU802
	.loc 1 269 10 discriminator 2 view .LVU803
	.loc 1 269 13 is_stmt 0 discriminator 2 view .LVU804
	movb	%al, 3452(%rbx,%r9)
	.loc 1 267 28 is_stmt 1 discriminator 2 view .LVU805
.LVL98:
	.loc 1 267 21 discriminator 2 view .LVU806
	addq	$1, %r9
	cmpl	$15, %r9d
	jle	.L127
	.loc 1 274 45 is_stmt 0 view .LVU807
	leaq	3204(%rbx), %rdi
	movl	%ebx, %eax
.LVL99:
	.loc 1 276 14 view .LVU808
	xorl	%r8d, %r8d
.LVL100:
	.loc 1 274 45 view .LVU809
	movq	$0, 3196(%rbx)
.LVL101:
	.loc 1 274 45 view .LVU810
	movq	$0, 3444(%rbx)
	andq	$-8, %rdi
	subl	%edi, %eax
	leal	3452(%rax), %ecx
	xorl	%eax, %eax
	shrl	$3, %ecx
	rep stosq
.L138:
.LVL102:
	.loc 1 277 10 is_stmt 1 view .LVU811
	.loc 1 277 24 is_stmt 0 view .LVU812
	movslq	%r8d, %rax
	.loc 1 277 13 view .LVU813
	cmpb	$0, 3452(%rbx,%rax)
	je	.L131
	.loc 1 278 20 view .LVU814
	xorl	%r14d, %r14d
.LVL103:
	.p2align 4,,10
	.p2align 3
.L26:
	.loc 1 280 40 view .LVU815
	movl	%r8d, %r15d
	.loc 1 279 65 view .LVU816
	movl	36(%rbx), %edi
	.loc 1 280 40 view .LVU817
	sall	$4, %r15d
.L137:
.LVL104:
	.loc 1 279 25 is_stmt 1 view .LVU818
	.loc 1 279 34 is_stmt 0 view .LVU819
	movl	$29, 8(%rbx)
	jmp	.L135
	.p2align 4,,10
	.p2align 3
.L132:
	.loc 1 279 174 is_stmt 1 discriminator 3 view .LVU820
	.loc 1 279 179 is_stmt 0 discriminator 3 view .LVU821
	movq	(%rbx), %rax
	.loc 1 279 185 discriminator 3 view .LVU822
	movl	8(%rax), %ecx
	.loc 1 279 177 discriminator 3 view .LVU823
	testl	%ecx, %ecx
	je	.L387
	.loc 1 279 245 is_stmt 1 discriminator 6 view .LVU824
	.loc 1 279 246 discriminator 6 view .LVU825
	.loc 1 279 248 discriminator 6 view .LVU826
	.loc 1 279 308 is_stmt 0 discriminator 6 view .LVU827
	movq	(%rax), %rsi
	.loc 1 279 271 discriminator 6 view .LVU828
	movl	32(%rbx), %edx
	.loc 1 279 333 discriminator 6 view .LVU829
	addl	$8, %edi
	.loc 1 279 376 discriminator 6 view .LVU830
	subl	$1, %ecx
	.loc 1 279 280 discriminator 6 view .LVU831
	movzbl	(%rsi), %r9d
	.loc 1 279 271 discriminator 6 view .LVU832
	sall	$8, %edx
	.loc 1 279 333 discriminator 6 view .LVU833
	movl	%edi, 36(%rbx)
	.loc 1 279 355 discriminator 6 view .LVU834
	addq	$1, %rsi
	.loc 1 279 277 discriminator 6 view .LVU835
	orl	%r9d, %edx
	movl	%edx, 32(%rbx)
	.loc 1 279 323 is_stmt 1 discriminator 6 view .LVU836
	.loc 1 279 339 discriminator 6 view .LVU837
	.loc 1 279 409 is_stmt 0 discriminator 6 view .LVU838
	addl	$1, 12(%rax)
	.loc 1 279 355 discriminator 6 view .LVU839
	movq	%rsi, (%rax)
	.loc 1 279 359 is_stmt 1 discriminator 6 view .LVU840
	.loc 1 279 376 is_stmt 0 discriminator 6 view .LVU841
	movl	%ecx, 8(%rax)
	.loc 1 279 380 is_stmt 1 discriminator 6 view .LVU842
	.loc 1 279 409 is_stmt 0 discriminator 6 view .LVU843
	je	.L485
.L135:
	.loc 1 279 40 is_stmt 1 discriminator 1 view .LVU844
	.loc 1 279 60 discriminator 1 view .LVU845
	.loc 1 279 63 is_stmt 0 discriminator 1 view .LVU846
	testl	%edi, %edi
	jle	.L132
.LBB126:
	.loc 1 279 82 is_stmt 1 discriminator 2 view .LVU847
	.loc 1 279 92 discriminator 2 view .LVU848
	.loc 1 279 107 is_stmt 0 discriminator 2 view .LVU849
	movl	32(%rbx), %eax
	.loc 1 279 120 discriminator 2 view .LVU850
	subl	$1, %edi
.LVL105:
	.loc 1 279 141 is_stmt 1 discriminator 2 view .LVU851
	.loc 1 279 151 is_stmt 0 discriminator 2 view .LVU852
	movl	%edi, 36(%rbx)
	.loc 1 279 157 is_stmt 1 discriminator 2 view .LVU853
.LVL106:
	.loc 1 279 165 discriminator 2 view .LVU854
.LBE126:
	.loc 1 279 466 discriminator 2 view .LVU855
	.loc 1 280 16 discriminator 2 view .LVU856
	.loc 1 280 19 is_stmt 0 discriminator 2 view .LVU857
	btl	%edi, %eax
	jnc	.L134
	.loc 1 280 29 is_stmt 1 discriminator 1 view .LVU858
	.loc 1 280 50 is_stmt 0 discriminator 1 view .LVU859
	leal	(%r14,%r15), %eax
.LVL107:
	.loc 1 280 50 discriminator 1 view .LVU860
	cltq
	movb	$1, 3196(%rbx,%rax)
.LVL108:
.L134:
	.loc 1 278 34 is_stmt 1 discriminator 2 view .LVU861
	addl	$1, %r14d
.LVL109:
	.loc 1 278 27 discriminator 2 view .LVU862
	cmpl	$15, %r14d
	jle	.L137
.L131:
	.loc 1 276 28 discriminator 2 view .LVU863
	addl	$1, %r8d
.LVL110:
	.loc 1 276 21 discriminator 2 view .LVU864
	cmpl	$15, %r8d
	jle	.L138
	.loc 1 282 7 view .LVU865
.LVL111:
.LBB127:
.LBI127:
	.loc 1 27 6 view .LVU866
.LBB128:
	.loc 1 29 4 view .LVU867
	.loc 1 30 4 view .LVU868
	.loc 1 30 14 is_stmt 0 view .LVU869
	movl	$0, 3192(%rbx)
	.loc 1 31 4 is_stmt 1 view .LVU870
.LVL112:
	.loc 1 31 18 view .LVU871
	.loc 1 30 14 is_stmt 0 view .LVU872
	xorl	%eax, %eax
	xorl	%edx, %edx
.LVL113:
	.p2align 4,,10
	.p2align 3
.L140:
	.loc 1 32 7 is_stmt 1 view .LVU873
	.loc 1 32 10 is_stmt 0 view .LVU874
	cmpb	$0, 3196(%rbx,%rax)
	je	.L139
	.loc 1 33 10 is_stmt 1 view .LVU875
	.loc 1 33 35 is_stmt 0 view .LVU876
	movslq	%edx, %rcx
	.loc 1 34 19 view .LVU877
	addl	$1, %edx
	.loc 1 33 35 view .LVU878
	movb	%al, 3468(%rbx,%rcx)
	.loc 1 34 10 is_stmt 1 view .LVU879
	.loc 1 34 19 is_stmt 0 view .LVU880
	movl	%edx, 3192(%rbx)
.L139:
	.loc 1 31 26 is_stmt 1 view .LVU881
.LVL114:
	.loc 1 31 18 view .LVU882
	addq	$1, %rax
.LVL115:
	.loc 1 31 18 is_stmt 0 view .LVU883
	cmpq	$256, %rax
	jne	.L140
.LVL116:
	.loc 1 31 18 view .LVU884
.LBE128:
.LBE127:
	.loc 1 283 7 is_stmt 1 view .LVU885
	.loc 1 283 10 is_stmt 0 view .LVU886
	testl	%edx, %edx
	je	.L373
	.loc 1 283 73 is_stmt 1 discriminator 2 view .LVU887
	.loc 1 283 74 discriminator 2 view .LVU888
	.loc 1 284 7 discriminator 2 view .LVU889
	.loc 1 284 17 is_stmt 0 discriminator 2 view .LVU890
	leal	2(%rdx), %eax
	movl	%eax, 40(%rsp)
.LVL117:
	.p2align 4,,10
	.p2align 3
.L25:
	.loc 1 287 16 is_stmt 1 view .LVU891
	.loc 1 287 25 is_stmt 0 view .LVU892
	movl	$30, 8(%rbx)
	.loc 1 287 56 view .LVU893
	movl	36(%rbx), %ecx
	jmp	.L143
	.p2align 4,,10
	.p2align 3
.L141:
	.loc 1 287 170 is_stmt 1 discriminator 3 view .LVU894
	.loc 1 287 175 is_stmt 0 discriminator 3 view .LVU895
	movq	(%rbx), %rax
	.loc 1 287 181 discriminator 3 view .LVU896
	movl	8(%rax), %esi
	.loc 1 287 173 discriminator 3 view .LVU897
	testl	%esi, %esi
	je	.L387
	.loc 1 287 241 is_stmt 1 discriminator 6 view .LVU898
	.loc 1 287 242 discriminator 6 view .LVU899
	.loc 1 287 244 discriminator 6 view .LVU900
	.loc 1 287 304 is_stmt 0 discriminator 6 view .LVU901
	movq	(%rax), %rdi
	.loc 1 287 267 discriminator 6 view .LVU902
	movl	32(%rbx), %edx
	.loc 1 287 329 discriminator 6 view .LVU903
	addl	$8, %ecx
	.loc 1 287 372 discriminator 6 view .LVU904
	subl	$1, %esi
	.loc 1 287 276 discriminator 6 view .LVU905
	movzbl	(%rdi), %r9d
	.loc 1 287 267 discriminator 6 view .LVU906
	sall	$8, %edx
	.loc 1 287 329 discriminator 6 view .LVU907
	movl	%ecx, 36(%rbx)
	.loc 1 287 351 discriminator 6 view .LVU908
	addq	$1, %rdi
	.loc 1 287 273 discriminator 6 view .LVU909
	orl	%r9d, %edx
	movl	%edx, 32(%rbx)
	.loc 1 287 319 is_stmt 1 discriminator 6 view .LVU910
	.loc 1 287 335 discriminator 6 view .LVU911
	.loc 1 287 405 is_stmt 0 discriminator 6 view .LVU912
	addl	$1, 12(%rax)
	.loc 1 287 351 discriminator 6 view .LVU913
	movq	%rdi, (%rax)
	.loc 1 287 355 is_stmt 1 discriminator 6 view .LVU914
	.loc 1 287 372 is_stmt 0 discriminator 6 view .LVU915
	movl	%esi, 8(%rax)
	.loc 1 287 376 is_stmt 1 discriminator 6 view .LVU916
	.loc 1 287 405 is_stmt 0 discriminator 6 view .LVU917
	je	.L486
.L143:
	.loc 1 287 31 is_stmt 1 discriminator 1 view .LVU918
	.loc 1 287 51 discriminator 1 view .LVU919
	.loc 1 287 54 is_stmt 0 discriminator 1 view .LVU920
	cmpl	$2, %ecx
	jle	.L141
.LBB129:
	.loc 1 287 73 is_stmt 1 discriminator 2 view .LVU921
	.loc 1 287 83 discriminator 2 view .LVU922
	.loc 1 287 98 is_stmt 0 discriminator 2 view .LVU923
	movl	32(%rbx), %r10d
	.loc 1 287 111 discriminator 2 view .LVU924
	subl	$3, %ecx
	.loc 1 287 142 discriminator 2 view .LVU925
	movl	%ecx, 36(%rbx)
	.loc 1 287 98 discriminator 2 view .LVU926
	shrl	%cl, %r10d
.LVL118:
	.loc 1 287 132 is_stmt 1 discriminator 2 view .LVU927
	.loc 1 287 148 discriminator 2 view .LVU928
	.loc 1 287 156 is_stmt 0 discriminator 2 view .LVU929
	andl	$7, %r10d
.LVL119:
	.loc 1 287 161 is_stmt 1 discriminator 2 view .LVU930
.LBE129:
	.loc 1 287 462 discriminator 2 view .LVU931
	.loc 1 288 7 discriminator 2 view .LVU932
	.loc 1 288 23 is_stmt 0 discriminator 2 view .LVU933
	leal	-2(%r10), %eax
	.loc 1 288 10 discriminator 2 view .LVU934
	cmpl	$4, %eax
	jbe	.L142
	jmp	.L373
.LVL120:
.L223:
.LBB130:
	.loc 1 449 20 is_stmt 1 view .LVU935
	.loc 1 450 19 view .LVU936
	.loc 1 450 31 is_stmt 0 view .LVU937
	movzbl	96(%rsp), %ecx
	movb	%cl, 3724(%rbx,%rax)
.LVL121:
.L221:
	.loc 1 450 31 view .LVU938
.LBE130:
	.loc 1 483 13 is_stmt 1 view .LVU939
	.loc 1 483 37 is_stmt 0 view .LVU940
	movzbl	96(%rsp), %r15d
	movzbl	3468(%rbx,%r15), %ecx
	.loc 1 483 42 view .LVU941
	movzbl	%cl, %edx
	.loc 1 483 37 view .LVU942
	movl	%ecx, %eax
	.loc 1 483 42 view .LVU943
	addl	$1, 68(%rbx,%rdx,4)
	.loc 1 484 13 is_stmt 1 view .LVU944
	.loc 1 484 16 is_stmt 0 view .LVU945
	cmpb	$0, 44(%rbx)
	.loc 1 485 23 view .LVU946
	movslq	28(%rsp), %rdx
	.loc 1 484 16 view .LVU947
	je	.L229
	.loc 1 485 16 is_stmt 1 view .LVU948
	.loc 1 485 32 is_stmt 0 view .LVU949
	movq	3160(%rbx), %rcx
	.loc 1 485 34 view .LVU950
	movw	%ax, (%rcx,%rdx,2)
.L230:
	.loc 1 487 13 is_stmt 1 view .LVU951
	.loc 1 489 15 view .LVU952
	.loc 1 487 19 is_stmt 0 view .LVU953
	addl	$1, 28(%rsp)
.LVL122:
	.loc 1 489 18 view .LVU954
	cmpl	$0, 64(%rsp)
	jne	.L231
	.loc 1 489 36 is_stmt 1 discriminator 1 view .LVU955
	.loc 1 489 43 is_stmt 0 discriminator 1 view .LVU956
	addl	$1, 56(%rsp)
.LVL123:
	.loc 1 489 43 discriminator 1 view .LVU957
	movslq	56(%rsp), %rax
.LVL124:
	.loc 1 489 47 is_stmt 1 discriminator 1 view .LVU958
	.loc 1 489 50 is_stmt 0 discriminator 1 view .LVU959
	cmpl	%eax, 24(%rsp)
	jle	.L373
	.loc 1 489 120 is_stmt 1 discriminator 4 view .LVU960
	.loc 1 489 121 discriminator 4 view .LVU961
	.loc 1 489 123 discriminator 4 view .LVU962
.LVL125:
	.loc 1 489 138 discriminator 4 view .LVU963
	.loc 1 489 156 is_stmt 0 discriminator 4 view .LVU964
	movzbl	7884(%rbx,%rax), %ecx
	.loc 1 489 132 discriminator 4 view .LVU965
	movl	$50, 64(%rsp)
	.loc 1 489 175 discriminator 4 view .LVU966
	movzbl	%cl, %edx
	.loc 1 489 143 discriminator 4 view .LVU967
	movl	%ecx, 88(%rsp)
.LVL126:
	.loc 1 489 167 is_stmt 1 discriminator 4 view .LVU968
	imulq	$1032, %rdx, %rax
.LVL127:
	.loc 1 489 175 is_stmt 0 discriminator 4 view .LVU969
	movl	64012(%rbx,%rdx,4), %esi
	movl	%esi, 76(%rsp)
.LVL128:
	.loc 1 489 195 is_stmt 1 discriminator 4 view .LVU970
	.loc 1 489 202 is_stmt 0 discriminator 4 view .LVU971
	leaq	45436(%rbx,%rax), %rcx
.LVL129:
	.loc 1 489 232 discriminator 4 view .LVU972
	leaq	57820(%rbx,%rax), %rsi
.LVL130:
	.loc 1 489 261 discriminator 4 view .LVU973
	leaq	51628(%rbx,%rax), %rax
	.loc 1 489 202 discriminator 4 view .LVU974
	movq	%rcx, 16(%rsp)
.LVL131:
	.loc 1 489 226 is_stmt 1 discriminator 4 view .LVU975
	.loc 1 489 232 is_stmt 0 discriminator 4 view .LVU976
	movq	%rsi, 48(%rsp)
.LVL132:
	.loc 1 489 255 is_stmt 1 discriminator 4 view .LVU977
	.loc 1 489 261 is_stmt 0 discriminator 4 view .LVU978
	movq	%rax, 32(%rsp)
.LVL133:
.L231:
	.loc 1 489 286 is_stmt 1 discriminator 5 view .LVU979
	.loc 1 489 298 discriminator 5 view .LVU980
	.loc 1 489 294 is_stmt 0 discriminator 5 view .LVU981
	subl	$1, 64(%rsp)
.LVL134:
	.loc 1 489 301 discriminator 5 view .LVU982
	movl	76(%rsp), %ebp
.LVL135:
	.p2align 4,,10
	.p2align 3
.L15:
	.loc 1 489 321 is_stmt 1 discriminator 6 view .LVU983
	.loc 1 489 330 is_stmt 0 discriminator 6 view .LVU984
	movl	$40, 8(%rbx)
	.loc 1 489 361 discriminator 6 view .LVU985
	movl	36(%rbx), %eax
	jmp	.L234
	.p2align 4,,10
	.p2align 3
.L232:
	.loc 1 489 476 is_stmt 1 discriminator 9 view .LVU986
	.loc 1 489 481 is_stmt 0 discriminator 9 view .LVU987
	movq	(%rbx), %rdx
	.loc 1 489 487 discriminator 9 view .LVU988
	movl	8(%rdx), %esi
	.loc 1 489 479 discriminator 9 view .LVU989
	testl	%esi, %esi
	je	.L387
	.loc 1 489 547 is_stmt 1 discriminator 12 view .LVU990
	.loc 1 489 548 discriminator 12 view .LVU991
	.loc 1 489 550 discriminator 12 view .LVU992
	.loc 1 489 610 is_stmt 0 discriminator 12 view .LVU993
	movq	(%rdx), %rdi
	.loc 1 489 573 discriminator 12 view .LVU994
	movl	32(%rbx), %ecx
	.loc 1 489 635 discriminator 12 view .LVU995
	addl	$8, %eax
	.loc 1 489 678 discriminator 12 view .LVU996
	subl	$1, %esi
	.loc 1 489 582 discriminator 12 view .LVU997
	movzbl	(%rdi), %r9d
	.loc 1 489 573 discriminator 12 view .LVU998
	sall	$8, %ecx
	.loc 1 489 635 discriminator 12 view .LVU999
	movl	%eax, 36(%rbx)
	.loc 1 489 657 discriminator 12 view .LVU1000
	addq	$1, %rdi
	.loc 1 489 579 discriminator 12 view .LVU1001
	orl	%r9d, %ecx
	movl	%ecx, 32(%rbx)
	.loc 1 489 625 is_stmt 1 discriminator 12 view .LVU1002
	.loc 1 489 641 discriminator 12 view .LVU1003
	.loc 1 489 704 is_stmt 0 discriminator 12 view .LVU1004
	addl	$1, 12(%rdx)
	.loc 1 489 657 discriminator 12 view .LVU1005
	movq	%rdi, (%rdx)
	.loc 1 489 661 is_stmt 1 discriminator 12 view .LVU1006
	.loc 1 489 678 is_stmt 0 discriminator 12 view .LVU1007
	movl	%esi, 8(%rdx)
	.loc 1 489 682 is_stmt 1 discriminator 12 view .LVU1008
	.loc 1 489 708 discriminator 12 view .LVU1009
	.loc 1 489 711 is_stmt 0 discriminator 12 view .LVU1010
	je	.L487
.L234:
	.loc 1 489 336 is_stmt 1 discriminator 7 view .LVU1011
	.loc 1 489 356 discriminator 7 view .LVU1012
	.loc 1 489 359 is_stmt 0 discriminator 7 view .LVU1013
	cmpl	%eax, %ebp
	jg	.L232
.LBB134:
	.loc 1 489 379 is_stmt 1 discriminator 8 view .LVU1014
	.loc 1 489 389 discriminator 8 view .LVU1015
	.loc 1 489 429 is_stmt 0 discriminator 8 view .LVU1016
	movl	%ebp, %ecx
	.loc 1 489 404 discriminator 8 view .LVU1017
	movl	32(%rbx), %edx
	.loc 1 489 417 discriminator 8 view .LVU1018
	subl	%ebp, %eax
.LVL136:
	.loc 1 489 440 is_stmt 1 discriminator 8 view .LVU1019
	.loc 1 489 457 discriminator 8 view .LVU1020
	.loc 1 489 429 is_stmt 0 discriminator 8 view .LVU1021
	movl	$1, %r12d
.LVL137:
	.loc 1 489 429 discriminator 8 view .LVU1022
	sall	%cl, %r12d
	.loc 1 489 404 discriminator 8 view .LVU1023
	movl	%eax, %ecx
	.loc 1 489 435 discriminator 8 view .LVU1024
	subl	$1, %r12d
	.loc 1 489 404 discriminator 8 view .LVU1025
	shrl	%cl, %edx
.LVL138:
	.loc 1 489 462 discriminator 8 view .LVU1026
	andl	%edx, %r12d
.LVL139:
	.loc 1 489 467 is_stmt 1 discriminator 8 view .LVU1027
	jmp	.L233
.LVL140:
.L518:
	.loc 1 489 467 is_stmt 0 discriminator 8 view .LVU1028
.LBE134:
	.loc 1 388 15 view .LVU1029
	movl	$1, 80(%rsp)
	.loc 1 387 16 view .LVU1030
	movl	$-1, 68(%rsp)
.LVL141:
.L197:
	.loc 1 396 84 is_stmt 1 discriminator 2 view .LVU1031
	.loc 1 396 85 discriminator 2 view .LVU1032
	.loc 1 397 16 discriminator 2 view .LVU1033
	.loc 1 398 50 is_stmt 0 discriminator 2 view .LVU1034
	movl	80(%rsp), %eax
	.loc 1 397 19 discriminator 2 view .LVU1035
	cmpl	$0, 44(%rsp)
	.loc 1 398 50 discriminator 2 view .LVU1036
	leal	(%rax,%rax), %edx
	.loc 1 397 19 discriminator 2 view .LVU1037
	jne	.L199
	.loc 1 397 34 is_stmt 1 discriminator 1 view .LVU1038
	.loc 1 397 37 is_stmt 0 discriminator 1 view .LVU1039
	addl	%eax, 68(%rsp)
.LVL142:
.L200:
	.loc 1 399 16 is_stmt 1 view .LVU1040
	.loc 1 400 18 view .LVU1041
	.loc 1 400 21 is_stmt 0 view .LVU1042
	cmpl	$0, 64(%rsp)
	jne	.L201
	.loc 1 400 39 is_stmt 1 discriminator 1 view .LVU1043
	.loc 1 400 46 is_stmt 0 discriminator 1 view .LVU1044
	addl	$1, 56(%rsp)
.LVL143:
	.loc 1 400 46 discriminator 1 view .LVU1045
	movslq	56(%rsp), %rax
.LVL144:
	.loc 1 400 50 is_stmt 1 discriminator 1 view .LVU1046
	.loc 1 400 53 is_stmt 0 discriminator 1 view .LVU1047
	cmpl	24(%rsp), %eax
	jge	.L354
	.loc 1 400 123 is_stmt 1 discriminator 4 view .LVU1048
	.loc 1 400 124 discriminator 4 view .LVU1049
	.loc 1 400 126 discriminator 4 view .LVU1050
.LVL145:
	.loc 1 400 141 discriminator 4 view .LVU1051
	.loc 1 400 159 is_stmt 0 discriminator 4 view .LVU1052
	movzbl	7884(%rbx,%rax), %esi
	.loc 1 400 135 discriminator 4 view .LVU1053
	movl	$50, 64(%rsp)
	.loc 1 400 178 discriminator 4 view .LVU1054
	movzbl	%sil, %ecx
	.loc 1 400 146 discriminator 4 view .LVU1055
	movl	%esi, 88(%rsp)
.LVL146:
	.loc 1 400 170 is_stmt 1 discriminator 4 view .LVU1056
	imulq	$1032, %rcx, %rax
.LVL147:
	.loc 1 400 178 is_stmt 0 discriminator 4 view .LVU1057
	movl	64012(%rbx,%rcx,4), %esi
.LVL148:
	.loc 1 400 178 discriminator 4 view .LVU1058
	movl	%esi, 76(%rsp)
.LVL149:
	.loc 1 400 198 is_stmt 1 discriminator 4 view .LVU1059
	.loc 1 400 205 is_stmt 0 discriminator 4 view .LVU1060
	leaq	45436(%rbx,%rax), %rsi
.LVL150:
	.loc 1 400 205 discriminator 4 view .LVU1061
	movq	%rsi, 16(%rsp)
.LVL151:
	.loc 1 400 229 is_stmt 1 discriminator 4 view .LVU1062
	.loc 1 400 235 is_stmt 0 discriminator 4 view .LVU1063
	leaq	57820(%rbx,%rax), %rsi
.LVL152:
	.loc 1 400 264 discriminator 4 view .LVU1064
	leaq	51628(%rbx,%rax), %rax
	.loc 1 400 235 discriminator 4 view .LVU1065
	movq	%rsi, 48(%rsp)
.LVL153:
	.loc 1 400 258 is_stmt 1 discriminator 4 view .LVU1066
	.loc 1 400 264 is_stmt 0 discriminator 4 view .LVU1067
	movq	%rax, 32(%rsp)
.LVL154:
.L201:
	.loc 1 400 289 is_stmt 1 discriminator 5 view .LVU1068
	.loc 1 400 301 discriminator 5 view .LVU1069
	.loc 1 400 297 is_stmt 0 discriminator 5 view .LVU1070
	subl	$1, 64(%rsp)
.LVL155:
	.loc 1 400 304 discriminator 5 view .LVU1071
	movl	76(%rsp), %ebp
.LVL156:
	.loc 1 399 18 discriminator 5 view .LVU1072
	movl	%edx, 80(%rsp)
.LVL157:
	.p2align 4,,10
	.p2align 3
.L17:
	.loc 1 400 324 is_stmt 1 discriminator 6 view .LVU1073
	.loc 1 400 333 is_stmt 0 discriminator 6 view .LVU1074
	movl	$38, 8(%rbx)
	.loc 1 400 364 discriminator 6 view .LVU1075
	movl	36(%rbx), %eax
	jmp	.L204
	.p2align 4,,10
	.p2align 3
.L202:
	.loc 1 400 479 is_stmt 1 discriminator 9 view .LVU1076
	.loc 1 400 484 is_stmt 0 discriminator 9 view .LVU1077
	movq	(%rbx), %rdx
	.loc 1 400 490 discriminator 9 view .LVU1078
	movl	8(%rdx), %esi
	.loc 1 400 482 discriminator 9 view .LVU1079
	testl	%esi, %esi
	je	.L387
	.loc 1 400 550 is_stmt 1 discriminator 12 view .LVU1080
	.loc 1 400 551 discriminator 12 view .LVU1081
	.loc 1 400 553 discriminator 12 view .LVU1082
	.loc 1 400 613 is_stmt 0 discriminator 12 view .LVU1083
	movq	(%rdx), %rdi
	.loc 1 400 576 discriminator 12 view .LVU1084
	movl	32(%rbx), %ecx
	.loc 1 400 638 discriminator 12 view .LVU1085
	addl	$8, %eax
	.loc 1 400 681 discriminator 12 view .LVU1086
	subl	$1, %esi
	.loc 1 400 585 discriminator 12 view .LVU1087
	movzbl	(%rdi), %r9d
	.loc 1 400 576 discriminator 12 view .LVU1088
	sall	$8, %ecx
	.loc 1 400 638 discriminator 12 view .LVU1089
	movl	%eax, 36(%rbx)
	.loc 1 400 660 discriminator 12 view .LVU1090
	addq	$1, %rdi
	.loc 1 400 582 discriminator 12 view .LVU1091
	orl	%r9d, %ecx
	movl	%ecx, 32(%rbx)
	.loc 1 400 628 is_stmt 1 discriminator 12 view .LVU1092
	.loc 1 400 644 discriminator 12 view .LVU1093
	.loc 1 400 714 is_stmt 0 discriminator 12 view .LVU1094
	addl	$1, 12(%rdx)
	.loc 1 400 660 discriminator 12 view .LVU1095
	movq	%rdi, (%rdx)
	.loc 1 400 664 is_stmt 1 discriminator 12 view .LVU1096
	.loc 1 400 681 is_stmt 0 discriminator 12 view .LVU1097
	movl	%esi, 8(%rdx)
	.loc 1 400 685 is_stmt 1 discriminator 12 view .LVU1098
	.loc 1 400 714 is_stmt 0 discriminator 12 view .LVU1099
	je	.L488
.L204:
	.loc 1 400 339 is_stmt 1 discriminator 7 view .LVU1100
	.loc 1 400 359 discriminator 7 view .LVU1101
	.loc 1 400 362 is_stmt 0 discriminator 7 view .LVU1102
	cmpl	%eax, %ebp
	jg	.L202
.LBB135:
	.loc 1 400 382 is_stmt 1 discriminator 8 view .LVU1103
	.loc 1 400 392 discriminator 8 view .LVU1104
	.loc 1 400 432 is_stmt 0 discriminator 8 view .LVU1105
	movl	%ebp, %ecx
	.loc 1 400 407 discriminator 8 view .LVU1106
	movl	32(%rbx), %edx
	.loc 1 400 420 discriminator 8 view .LVU1107
	subl	%ebp, %eax
.LVL158:
	.loc 1 400 443 is_stmt 1 discriminator 8 view .LVU1108
	.loc 1 400 460 discriminator 8 view .LVU1109
	.loc 1 400 432 is_stmt 0 discriminator 8 view .LVU1110
	movl	$1, %r12d
.LVL159:
	.loc 1 400 432 discriminator 8 view .LVU1111
	sall	%cl, %r12d
	.loc 1 400 407 discriminator 8 view .LVU1112
	movl	%eax, %ecx
	.loc 1 400 438 discriminator 8 view .LVU1113
	subl	$1, %r12d
	.loc 1 400 407 discriminator 8 view .LVU1114
	shrl	%cl, %edx
.LVL160:
	.loc 1 400 465 discriminator 8 view .LVU1115
	andl	%edx, %r12d
.LVL161:
	.loc 1 400 470 is_stmt 1 discriminator 8 view .LVU1116
	jmp	.L203
.LVL162:
	.p2align 4,,10
	.p2align 3
.L32:
	.loc 1 400 470 is_stmt 0 discriminator 8 view .LVU1117
.LBE135:
	.loc 1 608 56 view .LVU1118
	movl	36(%rbx), %ecx
.LVL163:
.L103:
	.loc 1 248 16 is_stmt 1 view .LVU1119
	.loc 1 248 25 is_stmt 0 view .LVU1120
	movl	$23, 8(%rbx)
	jmp	.L108
	.p2align 4,,10
	.p2align 3
.L106:
	.loc 1 248 165 is_stmt 1 discriminator 3 view .LVU1121
	.loc 1 248 170 is_stmt 0 discriminator 3 view .LVU1122
	movq	(%rbx), %rax
	.loc 1 248 176 discriminator 3 view .LVU1123
	movl	8(%rax), %esi
	.loc 1 248 168 discriminator 3 view .LVU1124
	testl	%esi, %esi
	je	.L387
	.loc 1 248 236 is_stmt 1 discriminator 6 view .LVU1125
	.loc 1 248 237 discriminator 6 view .LVU1126
	.loc 1 248 239 discriminator 6 view .LVU1127
	.loc 1 248 299 is_stmt 0 discriminator 6 view .LVU1128
	movq	(%rax), %rdi
	.loc 1 248 262 discriminator 6 view .LVU1129
	movl	32(%rbx), %edx
	.loc 1 248 324 discriminator 6 view .LVU1130
	addl	$8, %ecx
	.loc 1 248 367 discriminator 6 view .LVU1131
	subl	$1, %esi
	.loc 1 248 271 discriminator 6 view .LVU1132
	movzbl	(%rdi), %r9d
	.loc 1 248 262 discriminator 6 view .LVU1133
	sall	$8, %edx
	.loc 1 248 324 discriminator 6 view .LVU1134
	movl	%ecx, 36(%rbx)
	.loc 1 248 346 discriminator 6 view .LVU1135
	addq	$1, %rdi
	.loc 1 248 268 discriminator 6 view .LVU1136
	orl	%r9d, %edx
	movl	%edx, 32(%rbx)
	.loc 1 248 314 is_stmt 1 discriminator 6 view .LVU1137
	.loc 1 248 330 discriminator 6 view .LVU1138
	.loc 1 248 400 is_stmt 0 discriminator 6 view .LVU1139
	addl	$1, 12(%rax)
	.loc 1 248 346 discriminator 6 view .LVU1140
	movq	%rdi, (%rax)
	.loc 1 248 350 is_stmt 1 discriminator 6 view .LVU1141
	.loc 1 248 367 is_stmt 0 discriminator 6 view .LVU1142
	movl	%esi, 8(%rax)
	.loc 1 248 371 is_stmt 1 discriminator 6 view .LVU1143
	.loc 1 248 400 is_stmt 0 discriminator 6 view .LVU1144
	je	.L489
.L108:
	.loc 1 248 31 is_stmt 1 discriminator 1 view .LVU1145
	.loc 1 248 51 discriminator 1 view .LVU1146
	.loc 1 248 54 is_stmt 0 discriminator 1 view .LVU1147
	cmpl	$7, %ecx
	jle	.L106
.LBB136:
	.loc 1 248 73 is_stmt 1 discriminator 2 view .LVU1148
	.loc 1 248 83 discriminator 2 view .LVU1149
	.loc 1 248 98 is_stmt 0 discriminator 2 view .LVU1150
	movl	32(%rbx), %edx
.LBE136:
	.loc 1 249 46 discriminator 2 view .LVU1151
	movl	3176(%rbx), %eax
.LBB137:
	.loc 1 248 111 discriminator 2 view .LVU1152
	subl	$8, %ecx
	.loc 1 248 142 discriminator 2 view .LVU1153
	movl	%ecx, 36(%rbx)
	.loc 1 248 98 discriminator 2 view .LVU1154
	shrl	%cl, %edx
.LBE137:
	.loc 1 249 46 discriminator 2 view .LVU1155
	sall	$8, %eax
.LBB138:
	.loc 1 248 85 discriminator 2 view .LVU1156
	movzbl	%dl, %edx
.LVL164:
	.loc 1 248 132 is_stmt 1 discriminator 2 view .LVU1157
	.loc 1 248 148 discriminator 2 view .LVU1158
	.loc 1 248 156 discriminator 2 view .LVU1159
.LBE138:
	.loc 1 248 457 discriminator 2 view .LVU1160
	.loc 1 249 7 discriminator 2 view .LVU1161
	.loc 1 249 52 is_stmt 0 discriminator 2 view .LVU1162
	orl	%edx, %eax
	movl	%eax, 3176(%rbx)
	jmp	.L107
.LVL165:
	.p2align 4,,10
	.p2align 3
.L35:
	.loc 1 608 56 view .LVU1163
	movl	36(%rbx), %ecx
.LVL166:
.L48:
	.loc 1 242 16 is_stmt 1 view .LVU1164
	.loc 1 242 25 is_stmt 0 view .LVU1165
	movl	$20, 8(%rbx)
	jmp	.L96
	.p2align 4,,10
	.p2align 3
.L94:
	.loc 1 242 165 is_stmt 1 discriminator 3 view .LVU1166
	.loc 1 242 170 is_stmt 0 discriminator 3 view .LVU1167
	movq	(%rbx), %rax
	.loc 1 242 176 discriminator 3 view .LVU1168
	movl	8(%rax), %esi
	.loc 1 242 168 discriminator 3 view .LVU1169
	testl	%esi, %esi
	je	.L387
	.loc 1 242 236 is_stmt 1 discriminator 6 view .LVU1170
	.loc 1 242 237 discriminator 6 view .LVU1171
	.loc 1 242 239 discriminator 6 view .LVU1172
	.loc 1 242 299 is_stmt 0 discriminator 6 view .LVU1173
	movq	(%rax), %rdi
	.loc 1 242 262 discriminator 6 view .LVU1174
	movl	32(%rbx), %edx
	.loc 1 242 324 discriminator 6 view .LVU1175
	addl	$8, %ecx
	.loc 1 242 367 discriminator 6 view .LVU1176
	subl	$1, %esi
	.loc 1 242 271 discriminator 6 view .LVU1177
	movzbl	(%rdi), %r9d
	.loc 1 242 262 discriminator 6 view .LVU1178
	sall	$8, %edx
	.loc 1 242 324 discriminator 6 view .LVU1179
	movl	%ecx, 36(%rbx)
	.loc 1 242 346 discriminator 6 view .LVU1180
	addq	$1, %rdi
	.loc 1 242 268 discriminator 6 view .LVU1181
	orl	%r9d, %edx
	movl	%edx, 32(%rbx)
	.loc 1 242 314 is_stmt 1 discriminator 6 view .LVU1182
	.loc 1 242 330 discriminator 6 view .LVU1183
	.loc 1 242 400 is_stmt 0 discriminator 6 view .LVU1184
	addl	$1, 12(%rax)
	.loc 1 242 346 discriminator 6 view .LVU1185
	movq	%rdi, (%rax)
	.loc 1 242 350 is_stmt 1 discriminator 6 view .LVU1186
	.loc 1 242 367 is_stmt 0 discriminator 6 view .LVU1187
	movl	%esi, 8(%rax)
	.loc 1 242 371 is_stmt 1 discriminator 6 view .LVU1188
	.loc 1 242 400 is_stmt 0 discriminator 6 view .LVU1189
	je	.L490
.L96:
	.loc 1 242 31 is_stmt 1 discriminator 1 view .LVU1190
	.loc 1 242 51 discriminator 1 view .LVU1191
	.loc 1 242 54 is_stmt 0 discriminator 1 view .LVU1192
	cmpl	$7, %ecx
	jle	.L94
.LBB139:
	.loc 1 242 73 is_stmt 1 discriminator 2 view .LVU1193
	.loc 1 242 83 discriminator 2 view .LVU1194
	.loc 1 242 98 is_stmt 0 discriminator 2 view .LVU1195
	movl	32(%rbx), %edx
.LBE139:
	.loc 1 243 46 discriminator 2 view .LVU1196
	movl	3176(%rbx), %eax
.LBB140:
	.loc 1 242 111 discriminator 2 view .LVU1197
	subl	$8, %ecx
	.loc 1 242 142 discriminator 2 view .LVU1198
	movl	%ecx, 36(%rbx)
	.loc 1 242 98 discriminator 2 view .LVU1199
	shrl	%cl, %edx
.LBE140:
	.loc 1 243 46 discriminator 2 view .LVU1200
	sall	$8, %eax
.LBB141:
	.loc 1 242 85 discriminator 2 view .LVU1201
	movzbl	%dl, %edx
.LVL167:
	.loc 1 242 132 is_stmt 1 discriminator 2 view .LVU1202
	.loc 1 242 148 discriminator 2 view .LVU1203
	.loc 1 242 156 discriminator 2 view .LVU1204
.LBE141:
	.loc 1 242 457 discriminator 2 view .LVU1205
	.loc 1 243 7 discriminator 2 view .LVU1206
	.loc 1 243 52 is_stmt 0 discriminator 2 view .LVU1207
	orl	%edx, %eax
	movl	%eax, 3176(%rbx)
	jmp	.L95
.LVL168:
	.p2align 4,,10
	.p2align 3
.L36:
	.loc 1 608 56 view .LVU1208
	movl	36(%rbx), %ecx
.LVL169:
.L86:
	.loc 1 233 69 is_stmt 1 discriminator 2 view .LVU1209
	.loc 1 233 70 discriminator 2 view .LVU1210
	.loc 1 234 16 discriminator 2 view .LVU1211
	.loc 1 234 25 is_stmt 0 discriminator 2 view .LVU1212
	movl	$19, 8(%rbx)
	jmp	.L91
	.p2align 4,,10
	.p2align 3
.L89:
	.loc 1 234 165 is_stmt 1 discriminator 3 view .LVU1213
	.loc 1 234 170 is_stmt 0 discriminator 3 view .LVU1214
	movq	(%rbx), %rax
	.loc 1 234 176 discriminator 3 view .LVU1215
	movl	8(%rax), %esi
	.loc 1 234 168 discriminator 3 view .LVU1216
	testl	%esi, %esi
	je	.L387
	.loc 1 234 236 is_stmt 1 discriminator 6 view .LVU1217
	.loc 1 234 237 discriminator 6 view .LVU1218
	.loc 1 234 239 discriminator 6 view .LVU1219
	.loc 1 234 299 is_stmt 0 discriminator 6 view .LVU1220
	movq	(%rax), %rdi
	.loc 1 234 262 discriminator 6 view .LVU1221
	movl	32(%rbx), %edx
	.loc 1 234 324 discriminator 6 view .LVU1222
	addl	$8, %ecx
	.loc 1 234 367 discriminator 6 view .LVU1223
	subl	$1, %esi
	.loc 1 234 271 discriminator 6 view .LVU1224
	movzbl	(%rdi), %r9d
	.loc 1 234 262 discriminator 6 view .LVU1225
	sall	$8, %edx
	.loc 1 234 324 discriminator 6 view .LVU1226
	movl	%ecx, 36(%rbx)
	.loc 1 234 346 discriminator 6 view .LVU1227
	addq	$1, %rdi
	.loc 1 234 268 discriminator 6 view .LVU1228
	orl	%r9d, %edx
	movl	%edx, 32(%rbx)
	.loc 1 234 314 is_stmt 1 discriminator 6 view .LVU1229
	.loc 1 234 330 discriminator 6 view .LVU1230
	.loc 1 234 400 is_stmt 0 discriminator 6 view .LVU1231
	addl	$1, 12(%rax)
	.loc 1 234 346 discriminator 6 view .LVU1232
	movq	%rdi, (%rax)
	.loc 1 234 350 is_stmt 1 discriminator 6 view .LVU1233
	.loc 1 234 367 is_stmt 0 discriminator 6 view .LVU1234
	movl	%esi, 8(%rax)
	.loc 1 234 371 is_stmt 1 discriminator 6 view .LVU1235
	.loc 1 234 400 is_stmt 0 discriminator 6 view .LVU1236
	je	.L491
.L91:
	.loc 1 234 31 is_stmt 1 discriminator 1 view .LVU1237
	.loc 1 234 51 discriminator 1 view .LVU1238
	.loc 1 234 54 is_stmt 0 discriminator 1 view .LVU1239
	cmpl	$7, %ecx
	jle	.L89
.LBB142:
	.loc 1 234 73 is_stmt 1 discriminator 2 view .LVU1240
	.loc 1 234 83 discriminator 2 view .LVU1241
	.loc 1 234 98 is_stmt 0 discriminator 2 view .LVU1242
	movl	32(%rbx), %eax
	.loc 1 234 111 discriminator 2 view .LVU1243
	subl	$8, %ecx
	.loc 1 234 142 discriminator 2 view .LVU1244
	movl	%ecx, 36(%rbx)
	.loc 1 234 98 discriminator 2 view .LVU1245
	shrl	%cl, %eax
.LVL170:
	.loc 1 234 132 is_stmt 1 discriminator 2 view .LVU1246
	.loc 1 234 148 discriminator 2 view .LVU1247
	.loc 1 234 156 discriminator 2 view .LVU1248
.LBE142:
	.loc 1 234 457 discriminator 2 view .LVU1249
	.loc 1 235 7 discriminator 2 view .LVU1250
	.loc 1 235 10 is_stmt 0 discriminator 2 view .LVU1251
	cmpb	$89, %al
	jne	.L373
	.loc 1 235 69 is_stmt 1 discriminator 2 view .LVU1252
	.loc 1 235 70 discriminator 2 view .LVU1253
	.loc 1 237 7 discriminator 2 view .LVU1254
	.loc 1 237 21 is_stmt 0 discriminator 2 view .LVU1255
	movl	48(%rbx), %eax
.LVL171:
	.loc 1 238 10 discriminator 2 view .LVU1256
	cmpl	$1, 52(%rbx)
	.loc 1 237 21 discriminator 2 view .LVU1257
	leal	1(%rax), %r9d
	movl	%r9d, 48(%rbx)
	.loc 1 238 7 is_stmt 1 discriminator 2 view .LVU1258
	.loc 1 238 10 is_stmt 0 discriminator 2 view .LVU1259
	jle	.L93
.LBB143:
.LBB144:
	.file 2 "/usr/include/x86_64-linux-gnu/bits/stdio2.h"
	.loc 2 105 10 view .LVU1260
	movl	%r9d, %ecx
.LVL172:
	.loc 2 105 10 view .LVU1261
	movl	$1, %esi
	xorl	%eax, %eax
	movl	%r10d, 104(%rsp)
	movq	stderr(%rip), %rdi
	leaq	.LC0(%rip), %rdx
	movl	%r11d, 112(%rsp)
	movl	%r8d, 96(%rsp)
.LBE144:
.LBE143:
	.loc 1 239 10 is_stmt 1 view .LVU1262
.LVL173:
.LBB146:
.LBI143:
	.loc 2 103 1 view .LVU1263
.LBB145:
	.loc 2 105 3 view .LVU1264
	.loc 2 105 10 is_stmt 0 view .LVU1265
	call	__fprintf_chk@PLT
.LVL174:
	.loc 2 105 10 view .LVU1266
.LBE145:
.LBE146:
	.loc 1 242 56 view .LVU1267
	movl	36(%rbx), %ecx
	movl	104(%rsp), %r10d
	movl	112(%rsp), %r11d
	movl	96(%rsp), %r8d
.LVL175:
.L93:
	.loc 1 241 7 is_stmt 1 view .LVU1268
	.loc 1 241 25 is_stmt 0 view .LVU1269
	movl	$0, 3176(%rbx)
	jmp	.L48
.LVL176:
	.p2align 4,,10
	.p2align 3
.L33:
	.loc 1 608 56 view .LVU1270
	movl	36(%rbx), %ecx
.LVL177:
.L99:
	.loc 1 246 16 is_stmt 1 view .LVU1271
	.loc 1 246 25 is_stmt 0 view .LVU1272
	movl	$22, 8(%rbx)
	jmp	.L104
	.p2align 4,,10
	.p2align 3
.L102:
	.loc 1 246 165 is_stmt 1 discriminator 3 view .LVU1273
	.loc 1 246 170 is_stmt 0 discriminator 3 view .LVU1274
	movq	(%rbx), %rax
	.loc 1 246 176 discriminator 3 view .LVU1275
	movl	8(%rax), %esi
	.loc 1 246 168 discriminator 3 view .LVU1276
	testl	%esi, %esi
	je	.L387
	.loc 1 246 236 is_stmt 1 discriminator 6 view .LVU1277
	.loc 1 246 237 discriminator 6 view .LVU1278
	.loc 1 246 239 discriminator 6 view .LVU1279
	.loc 1 246 299 is_stmt 0 discriminator 6 view .LVU1280
	movq	(%rax), %rdi
	.loc 1 246 262 discriminator 6 view .LVU1281
	movl	32(%rbx), %edx
	.loc 1 246 324 discriminator 6 view .LVU1282
	addl	$8, %ecx
	.loc 1 246 367 discriminator 6 view .LVU1283
	subl	$1, %esi
	.loc 1 246 271 discriminator 6 view .LVU1284
	movzbl	(%rdi), %r9d
	.loc 1 246 262 discriminator 6 view .LVU1285
	sall	$8, %edx
	.loc 1 246 324 discriminator 6 view .LVU1286
	movl	%ecx, 36(%rbx)
	.loc 1 246 346 discriminator 6 view .LVU1287
	addq	$1, %rdi
	.loc 1 246 268 discriminator 6 view .LVU1288
	orl	%r9d, %edx
	movl	%edx, 32(%rbx)
	.loc 1 246 314 is_stmt 1 discriminator 6 view .LVU1289
	.loc 1 246 330 discriminator 6 view .LVU1290
	.loc 1 246 400 is_stmt 0 discriminator 6 view .LVU1291
	addl	$1, 12(%rax)
	.loc 1 246 346 discriminator 6 view .LVU1292
	movq	%rdi, (%rax)
	.loc 1 246 350 is_stmt 1 discriminator 6 view .LVU1293
	.loc 1 246 367 is_stmt 0 discriminator 6 view .LVU1294
	movl	%esi, 8(%rax)
	.loc 1 246 371 is_stmt 1 discriminator 6 view .LVU1295
	.loc 1 246 400 is_stmt 0 discriminator 6 view .LVU1296
	je	.L492
.L104:
	.loc 1 246 31 is_stmt 1 discriminator 1 view .LVU1297
	.loc 1 246 51 discriminator 1 view .LVU1298
	.loc 1 246 54 is_stmt 0 discriminator 1 view .LVU1299
	cmpl	$7, %ecx
	jle	.L102
.LBB147:
	.loc 1 246 73 is_stmt 1 discriminator 2 view .LVU1300
	.loc 1 246 83 discriminator 2 view .LVU1301
	.loc 1 246 98 is_stmt 0 discriminator 2 view .LVU1302
	movl	32(%rbx), %edx
.LBE147:
	.loc 1 247 46 discriminator 2 view .LVU1303
	movl	3176(%rbx), %eax
.LBB148:
	.loc 1 246 111 discriminator 2 view .LVU1304
	subl	$8, %ecx
	.loc 1 246 142 discriminator 2 view .LVU1305
	movl	%ecx, 36(%rbx)
	.loc 1 246 98 discriminator 2 view .LVU1306
	shrl	%cl, %edx
.LBE148:
	.loc 1 247 46 discriminator 2 view .LVU1307
	sall	$8, %eax
.LBB149:
	.loc 1 246 85 discriminator 2 view .LVU1308
	movzbl	%dl, %edx
.LVL178:
	.loc 1 246 132 is_stmt 1 discriminator 2 view .LVU1309
	.loc 1 246 148 discriminator 2 view .LVU1310
	.loc 1 246 156 discriminator 2 view .LVU1311
.LBE149:
	.loc 1 246 457 discriminator 2 view .LVU1312
	.loc 1 247 7 discriminator 2 view .LVU1313
	.loc 1 247 52 is_stmt 0 discriminator 2 view .LVU1314
	orl	%edx, %eax
	movl	%eax, 3176(%rbx)
	jmp	.L103
.LVL179:
	.p2align 4,,10
	.p2align 3
.L34:
	.loc 1 608 56 view .LVU1315
	movl	36(%rbx), %ecx
.LVL180:
.L95:
	.loc 1 244 16 is_stmt 1 view .LVU1316
	.loc 1 244 25 is_stmt 0 view .LVU1317
	movl	$21, 8(%rbx)
	jmp	.L100
	.p2align 4,,10
	.p2align 3
.L98:
	.loc 1 244 165 is_stmt 1 discriminator 3 view .LVU1318
	.loc 1 244 170 is_stmt 0 discriminator 3 view .LVU1319
	movq	(%rbx), %rax
	.loc 1 244 176 discriminator 3 view .LVU1320
	movl	8(%rax), %esi
	.loc 1 244 168 discriminator 3 view .LVU1321
	testl	%esi, %esi
	je	.L387
	.loc 1 244 236 is_stmt 1 discriminator 6 view .LVU1322
	.loc 1 244 237 discriminator 6 view .LVU1323
	.loc 1 244 239 discriminator 6 view .LVU1324
	.loc 1 244 299 is_stmt 0 discriminator 6 view .LVU1325
	movq	(%rax), %rdi
	.loc 1 244 262 discriminator 6 view .LVU1326
	movl	32(%rbx), %edx
	.loc 1 244 324 discriminator 6 view .LVU1327
	addl	$8, %ecx
	.loc 1 244 367 discriminator 6 view .LVU1328
	subl	$1, %esi
	.loc 1 244 271 discriminator 6 view .LVU1329
	movzbl	(%rdi), %r9d
	.loc 1 244 262 discriminator 6 view .LVU1330
	sall	$8, %edx
	.loc 1 244 324 discriminator 6 view .LVU1331
	movl	%ecx, 36(%rbx)
	.loc 1 244 346 discriminator 6 view .LVU1332
	addq	$1, %rdi
	.loc 1 244 268 discriminator 6 view .LVU1333
	orl	%r9d, %edx
	movl	%edx, 32(%rbx)
	.loc 1 244 314 is_stmt 1 discriminator 6 view .LVU1334
	.loc 1 244 330 discriminator 6 view .LVU1335
	.loc 1 244 400 is_stmt 0 discriminator 6 view .LVU1336
	addl	$1, 12(%rax)
	.loc 1 244 346 discriminator 6 view .LVU1337
	movq	%rdi, (%rax)
	.loc 1 244 350 is_stmt 1 discriminator 6 view .LVU1338
	.loc 1 244 367 is_stmt 0 discriminator 6 view .LVU1339
	movl	%esi, 8(%rax)
	.loc 1 244 371 is_stmt 1 discriminator 6 view .LVU1340
	.loc 1 244 400 is_stmt 0 discriminator 6 view .LVU1341
	je	.L493
.L100:
	.loc 1 244 31 is_stmt 1 discriminator 1 view .LVU1342
	.loc 1 244 51 discriminator 1 view .LVU1343
	.loc 1 244 54 is_stmt 0 discriminator 1 view .LVU1344
	cmpl	$7, %ecx
	jle	.L98
.LBB150:
	.loc 1 244 73 is_stmt 1 discriminator 2 view .LVU1345
	.loc 1 244 83 discriminator 2 view .LVU1346
	.loc 1 244 98 is_stmt 0 discriminator 2 view .LVU1347
	movl	32(%rbx), %edx
.LBE150:
	.loc 1 245 46 discriminator 2 view .LVU1348
	movl	3176(%rbx), %eax
.LBB151:
	.loc 1 244 111 discriminator 2 view .LVU1349
	subl	$8, %ecx
	.loc 1 244 142 discriminator 2 view .LVU1350
	movl	%ecx, 36(%rbx)
	.loc 1 244 98 discriminator 2 view .LVU1351
	shrl	%cl, %edx
.LBE151:
	.loc 1 245 46 discriminator 2 view .LVU1352
	sall	$8, %eax
.LBB152:
	.loc 1 244 85 discriminator 2 view .LVU1353
	movzbl	%dl, %edx
.LVL181:
	.loc 1 244 132 is_stmt 1 discriminator 2 view .LVU1354
	.loc 1 244 148 discriminator 2 view .LVU1355
	.loc 1 244 156 discriminator 2 view .LVU1356
.LBE152:
	.loc 1 244 457 discriminator 2 view .LVU1357
	.loc 1 245 7 discriminator 2 view .LVU1358
	.loc 1 245 52 is_stmt 0 discriminator 2 view .LVU1359
	orl	%edx, %eax
	movl	%eax, 3176(%rbx)
	jmp	.L99
.LVL182:
	.p2align 4,,10
	.p2align 3
.L37:
	.loc 1 608 56 view .LVU1360
	movl	36(%rbx), %ecx
.LVL183:
.L82:
	.loc 1 231 69 is_stmt 1 discriminator 2 view .LVU1361
	.loc 1 231 70 discriminator 2 view .LVU1362
	.loc 1 232 16 discriminator 2 view .LVU1363
	.loc 1 232 25 is_stmt 0 discriminator 2 view .LVU1364
	movl	$18, 8(%rbx)
	jmp	.L87
	.p2align 4,,10
	.p2align 3
.L85:
	.loc 1 232 165 is_stmt 1 discriminator 3 view .LVU1365
	.loc 1 232 170 is_stmt 0 discriminator 3 view .LVU1366
	movq	(%rbx), %rax
	.loc 1 232 176 discriminator 3 view .LVU1367
	movl	8(%rax), %esi
	.loc 1 232 168 discriminator 3 view .LVU1368
	testl	%esi, %esi
	je	.L387
	.loc 1 232 236 is_stmt 1 discriminator 6 view .LVU1369
	.loc 1 232 237 discriminator 6 view .LVU1370
	.loc 1 232 239 discriminator 6 view .LVU1371
	.loc 1 232 299 is_stmt 0 discriminator 6 view .LVU1372
	movq	(%rax), %rdi
	.loc 1 232 262 discriminator 6 view .LVU1373
	movl	32(%rbx), %edx
	.loc 1 232 324 discriminator 6 view .LVU1374
	addl	$8, %ecx
	.loc 1 232 367 discriminator 6 view .LVU1375
	subl	$1, %esi
	.loc 1 232 271 discriminator 6 view .LVU1376
	movzbl	(%rdi), %r9d
	.loc 1 232 262 discriminator 6 view .LVU1377
	sall	$8, %edx
	.loc 1 232 324 discriminator 6 view .LVU1378
	movl	%ecx, 36(%rbx)
	.loc 1 232 346 discriminator 6 view .LVU1379
	addq	$1, %rdi
	.loc 1 232 268 discriminator 6 view .LVU1380
	orl	%r9d, %edx
	movl	%edx, 32(%rbx)
	.loc 1 232 314 is_stmt 1 discriminator 6 view .LVU1381
	.loc 1 232 330 discriminator 6 view .LVU1382
	.loc 1 232 400 is_stmt 0 discriminator 6 view .LVU1383
	addl	$1, 12(%rax)
	.loc 1 232 346 discriminator 6 view .LVU1384
	movq	%rdi, (%rax)
	.loc 1 232 350 is_stmt 1 discriminator 6 view .LVU1385
	.loc 1 232 367 is_stmt 0 discriminator 6 view .LVU1386
	movl	%esi, 8(%rax)
	.loc 1 232 371 is_stmt 1 discriminator 6 view .LVU1387
	.loc 1 232 400 is_stmt 0 discriminator 6 view .LVU1388
	je	.L494
.L87:
	.loc 1 232 31 is_stmt 1 discriminator 1 view .LVU1389
	.loc 1 232 51 discriminator 1 view .LVU1390
	.loc 1 232 54 is_stmt 0 discriminator 1 view .LVU1391
	cmpl	$7, %ecx
	jle	.L85
.LBB153:
	.loc 1 232 73 is_stmt 1 discriminator 2 view .LVU1392
	.loc 1 232 83 discriminator 2 view .LVU1393
	.loc 1 232 98 is_stmt 0 discriminator 2 view .LVU1394
	movl	32(%rbx), %eax
	.loc 1 232 111 discriminator 2 view .LVU1395
	subl	$8, %ecx
	.loc 1 232 142 discriminator 2 view .LVU1396
	movl	%ecx, 36(%rbx)
	.loc 1 232 98 discriminator 2 view .LVU1397
	shrl	%cl, %eax
.LVL184:
	.loc 1 232 132 is_stmt 1 discriminator 2 view .LVU1398
	.loc 1 232 148 discriminator 2 view .LVU1399
	.loc 1 232 156 discriminator 2 view .LVU1400
.LBE153:
	.loc 1 232 457 discriminator 2 view .LVU1401
	.loc 1 233 7 discriminator 2 view .LVU1402
	.loc 1 233 10 is_stmt 0 discriminator 2 view .LVU1403
	cmpb	$83, %al
	jne	.L373
	jmp	.L86
.LVL185:
	.p2align 4,,10
	.p2align 3
.L38:
	.loc 1 608 56 view .LVU1404
	movl	36(%rbx), %ecx
.LVL186:
.L78:
	.loc 1 229 69 is_stmt 1 discriminator 2 view .LVU1405
	.loc 1 229 70 discriminator 2 view .LVU1406
	.loc 1 230 16 discriminator 2 view .LVU1407
	.loc 1 230 25 is_stmt 0 discriminator 2 view .LVU1408
	movl	$17, 8(%rbx)
	jmp	.L83
	.p2align 4,,10
	.p2align 3
.L81:
	.loc 1 230 165 is_stmt 1 discriminator 3 view .LVU1409
	.loc 1 230 170 is_stmt 0 discriminator 3 view .LVU1410
	movq	(%rbx), %rax
	.loc 1 230 176 discriminator 3 view .LVU1411
	movl	8(%rax), %esi
	.loc 1 230 168 discriminator 3 view .LVU1412
	testl	%esi, %esi
	je	.L387
	.loc 1 230 236 is_stmt 1 discriminator 6 view .LVU1413
	.loc 1 230 237 discriminator 6 view .LVU1414
	.loc 1 230 239 discriminator 6 view .LVU1415
	.loc 1 230 299 is_stmt 0 discriminator 6 view .LVU1416
	movq	(%rax), %rdi
	.loc 1 230 262 discriminator 6 view .LVU1417
	movl	32(%rbx), %edx
	.loc 1 230 324 discriminator 6 view .LVU1418
	addl	$8, %ecx
	.loc 1 230 367 discriminator 6 view .LVU1419
	subl	$1, %esi
	.loc 1 230 271 discriminator 6 view .LVU1420
	movzbl	(%rdi), %r9d
	.loc 1 230 262 discriminator 6 view .LVU1421
	sall	$8, %edx
	.loc 1 230 324 discriminator 6 view .LVU1422
	movl	%ecx, 36(%rbx)
	.loc 1 230 346 discriminator 6 view .LVU1423
	addq	$1, %rdi
	.loc 1 230 268 discriminator 6 view .LVU1424
	orl	%r9d, %edx
	movl	%edx, 32(%rbx)
	.loc 1 230 314 is_stmt 1 discriminator 6 view .LVU1425
	.loc 1 230 330 discriminator 6 view .LVU1426
	.loc 1 230 400 is_stmt 0 discriminator 6 view .LVU1427
	addl	$1, 12(%rax)
	.loc 1 230 346 discriminator 6 view .LVU1428
	movq	%rdi, (%rax)
	.loc 1 230 350 is_stmt 1 discriminator 6 view .LVU1429
	.loc 1 230 367 is_stmt 0 discriminator 6 view .LVU1430
	movl	%esi, 8(%rax)
	.loc 1 230 371 is_stmt 1 discriminator 6 view .LVU1431
	.loc 1 230 400 is_stmt 0 discriminator 6 view .LVU1432
	je	.L495
.L83:
	.loc 1 230 31 is_stmt 1 discriminator 1 view .LVU1433
	.loc 1 230 51 discriminator 1 view .LVU1434
	.loc 1 230 54 is_stmt 0 discriminator 1 view .LVU1435
	cmpl	$7, %ecx
	jle	.L81
.LBB154:
	.loc 1 230 73 is_stmt 1 discriminator 2 view .LVU1436
	.loc 1 230 83 discriminator 2 view .LVU1437
	.loc 1 230 98 is_stmt 0 discriminator 2 view .LVU1438
	movl	32(%rbx), %eax
	.loc 1 230 111 discriminator 2 view .LVU1439
	subl	$8, %ecx
	.loc 1 230 142 discriminator 2 view .LVU1440
	movl	%ecx, 36(%rbx)
	.loc 1 230 98 discriminator 2 view .LVU1441
	shrl	%cl, %eax
.LVL187:
	.loc 1 230 132 is_stmt 1 discriminator 2 view .LVU1442
	.loc 1 230 148 discriminator 2 view .LVU1443
	.loc 1 230 156 discriminator 2 view .LVU1444
.LBE154:
	.loc 1 230 457 discriminator 2 view .LVU1445
	.loc 1 231 7 discriminator 2 view .LVU1446
	.loc 1 231 10 is_stmt 0 discriminator 2 view .LVU1447
	cmpb	$38, %al
	jne	.L373
	jmp	.L82
.LVL188:
	.p2align 4,,10
	.p2align 3
.L39:
	.loc 1 608 56 view .LVU1448
	movl	36(%rbx), %ecx
.LVL189:
.L74:
	.loc 1 227 69 is_stmt 1 discriminator 2 view .LVU1449
	.loc 1 227 70 discriminator 2 view .LVU1450
	.loc 1 228 16 discriminator 2 view .LVU1451
	.loc 1 228 25 is_stmt 0 discriminator 2 view .LVU1452
	movl	$16, 8(%rbx)
	jmp	.L79
	.p2align 4,,10
	.p2align 3
.L77:
	.loc 1 228 165 is_stmt 1 discriminator 3 view .LVU1453
	.loc 1 228 170 is_stmt 0 discriminator 3 view .LVU1454
	movq	(%rbx), %rax
	.loc 1 228 176 discriminator 3 view .LVU1455
	movl	8(%rax), %esi
	.loc 1 228 168 discriminator 3 view .LVU1456
	testl	%esi, %esi
	je	.L387
	.loc 1 228 236 is_stmt 1 discriminator 6 view .LVU1457
	.loc 1 228 237 discriminator 6 view .LVU1458
	.loc 1 228 239 discriminator 6 view .LVU1459
	.loc 1 228 299 is_stmt 0 discriminator 6 view .LVU1460
	movq	(%rax), %rdi
	.loc 1 228 262 discriminator 6 view .LVU1461
	movl	32(%rbx), %edx
	.loc 1 228 324 discriminator 6 view .LVU1462
	addl	$8, %ecx
	.loc 1 228 367 discriminator 6 view .LVU1463
	subl	$1, %esi
	.loc 1 228 271 discriminator 6 view .LVU1464
	movzbl	(%rdi), %r9d
	.loc 1 228 262 discriminator 6 view .LVU1465
	sall	$8, %edx
	.loc 1 228 324 discriminator 6 view .LVU1466
	movl	%ecx, 36(%rbx)
	.loc 1 228 346 discriminator 6 view .LVU1467
	addq	$1, %rdi
	.loc 1 228 268 discriminator 6 view .LVU1468
	orl	%r9d, %edx
	movl	%edx, 32(%rbx)
	.loc 1 228 314 is_stmt 1 discriminator 6 view .LVU1469
	.loc 1 228 330 discriminator 6 view .LVU1470
	.loc 1 228 400 is_stmt 0 discriminator 6 view .LVU1471
	addl	$1, 12(%rax)
	.loc 1 228 346 discriminator 6 view .LVU1472
	movq	%rdi, (%rax)
	.loc 1 228 350 is_stmt 1 discriminator 6 view .LVU1473
	.loc 1 228 367 is_stmt 0 discriminator 6 view .LVU1474
	movl	%esi, 8(%rax)
	.loc 1 228 371 is_stmt 1 discriminator 6 view .LVU1475
	.loc 1 228 400 is_stmt 0 discriminator 6 view .LVU1476
	je	.L496
.L79:
	.loc 1 228 31 is_stmt 1 discriminator 1 view .LVU1477
	.loc 1 228 51 discriminator 1 view .LVU1478
	.loc 1 228 54 is_stmt 0 discriminator 1 view .LVU1479
	cmpl	$7, %ecx
	jle	.L77
.LBB155:
	.loc 1 228 73 is_stmt 1 discriminator 2 view .LVU1480
	.loc 1 228 83 discriminator 2 view .LVU1481
	.loc 1 228 98 is_stmt 0 discriminator 2 view .LVU1482
	movl	32(%rbx), %eax
	.loc 1 228 111 discriminator 2 view .LVU1483
	subl	$8, %ecx
	.loc 1 228 142 discriminator 2 view .LVU1484
	movl	%ecx, 36(%rbx)
	.loc 1 228 98 discriminator 2 view .LVU1485
	shrl	%cl, %eax
.LVL190:
	.loc 1 228 132 is_stmt 1 discriminator 2 view .LVU1486
	.loc 1 228 148 discriminator 2 view .LVU1487
	.loc 1 228 156 discriminator 2 view .LVU1488
.LBE155:
	.loc 1 228 457 discriminator 2 view .LVU1489
	.loc 1 229 7 discriminator 2 view .LVU1490
	.loc 1 229 10 is_stmt 0 discriminator 2 view .LVU1491
	cmpb	$89, %al
	jne	.L373
	jmp	.L78
.LVL191:
	.p2align 4,,10
	.p2align 3
.L40:
	.loc 1 608 56 view .LVU1492
	movl	36(%rbx), %ecx
.LVL192:
.L49:
	.loc 1 225 69 is_stmt 1 discriminator 2 view .LVU1493
	.loc 1 225 70 discriminator 2 view .LVU1494
	.loc 1 226 16 discriminator 2 view .LVU1495
	.loc 1 226 25 is_stmt 0 discriminator 2 view .LVU1496
	movl	$15, 8(%rbx)
	jmp	.L75
	.p2align 4,,10
	.p2align 3
.L73:
	.loc 1 226 165 is_stmt 1 discriminator 3 view .LVU1497
	.loc 1 226 170 is_stmt 0 discriminator 3 view .LVU1498
	movq	(%rbx), %rax
	.loc 1 226 176 discriminator 3 view .LVU1499
	movl	8(%rax), %esi
	.loc 1 226 168 discriminator 3 view .LVU1500
	testl	%esi, %esi
	je	.L387
	.loc 1 226 236 is_stmt 1 discriminator 6 view .LVU1501
	.loc 1 226 237 discriminator 6 view .LVU1502
	.loc 1 226 239 discriminator 6 view .LVU1503
	.loc 1 226 299 is_stmt 0 discriminator 6 view .LVU1504
	movq	(%rax), %rdi
	.loc 1 226 262 discriminator 6 view .LVU1505
	movl	32(%rbx), %edx
	.loc 1 226 324 discriminator 6 view .LVU1506
	addl	$8, %ecx
	.loc 1 226 367 discriminator 6 view .LVU1507
	subl	$1, %esi
	.loc 1 226 271 discriminator 6 view .LVU1508
	movzbl	(%rdi), %r9d
	.loc 1 226 262 discriminator 6 view .LVU1509
	sall	$8, %edx
	.loc 1 226 324 discriminator 6 view .LVU1510
	movl	%ecx, 36(%rbx)
	.loc 1 226 346 discriminator 6 view .LVU1511
	addq	$1, %rdi
	.loc 1 226 268 discriminator 6 view .LVU1512
	orl	%r9d, %edx
	movl	%edx, 32(%rbx)
	.loc 1 226 314 is_stmt 1 discriminator 6 view .LVU1513
	.loc 1 226 330 discriminator 6 view .LVU1514
	.loc 1 226 400 is_stmt 0 discriminator 6 view .LVU1515
	addl	$1, 12(%rax)
	.loc 1 226 346 discriminator 6 view .LVU1516
	movq	%rdi, (%rax)
	.loc 1 226 350 is_stmt 1 discriminator 6 view .LVU1517
	.loc 1 226 367 is_stmt 0 discriminator 6 view .LVU1518
	movl	%esi, 8(%rax)
	.loc 1 226 371 is_stmt 1 discriminator 6 view .LVU1519
	.loc 1 226 400 is_stmt 0 discriminator 6 view .LVU1520
	je	.L497
.L75:
	.loc 1 226 31 is_stmt 1 discriminator 1 view .LVU1521
	.loc 1 226 51 discriminator 1 view .LVU1522
	.loc 1 226 54 is_stmt 0 discriminator 1 view .LVU1523
	cmpl	$7, %ecx
	jle	.L73
.LBB156:
	.loc 1 226 73 is_stmt 1 discriminator 2 view .LVU1524
	.loc 1 226 83 discriminator 2 view .LVU1525
	.loc 1 226 98 is_stmt 0 discriminator 2 view .LVU1526
	movl	32(%rbx), %eax
	.loc 1 226 111 discriminator 2 view .LVU1527
	subl	$8, %ecx
	.loc 1 226 142 discriminator 2 view .LVU1528
	movl	%ecx, 36(%rbx)
	.loc 1 226 98 discriminator 2 view .LVU1529
	shrl	%cl, %eax
.LVL193:
	.loc 1 226 132 is_stmt 1 discriminator 2 view .LVU1530
	.loc 1 226 148 discriminator 2 view .LVU1531
	.loc 1 226 156 discriminator 2 view .LVU1532
.LBE156:
	.loc 1 226 457 discriminator 2 view .LVU1533
	.loc 1 227 7 discriminator 2 view .LVU1534
	.loc 1 227 10 is_stmt 0 discriminator 2 view .LVU1535
	cmpb	$65, %al
	jne	.L373
	jmp	.L74
.LVL194:
	.p2align 4,,10
	.p2align 3
.L29:
	.loc 1 608 56 view .LVU1536
	movl	36(%rbx), %ecx
.LVL195:
.L115:
	.loc 1 256 16 is_stmt 1 view .LVU1537
	.loc 1 256 25 is_stmt 0 view .LVU1538
	movl	$26, 8(%rbx)
	jmp	.L120
	.p2align 4,,10
	.p2align 3
.L118:
	.loc 1 256 165 is_stmt 1 discriminator 3 view .LVU1539
	.loc 1 256 170 is_stmt 0 discriminator 3 view .LVU1540
	movq	(%rbx), %rax
	.loc 1 256 176 discriminator 3 view .LVU1541
	movl	8(%rax), %esi
	.loc 1 256 168 discriminator 3 view .LVU1542
	testl	%esi, %esi
	je	.L387
	.loc 1 256 236 is_stmt 1 discriminator 6 view .LVU1543
	.loc 1 256 237 discriminator 6 view .LVU1544
	.loc 1 256 239 discriminator 6 view .LVU1545
	.loc 1 256 299 is_stmt 0 discriminator 6 view .LVU1546
	movq	(%rax), %rdi
	.loc 1 256 262 discriminator 6 view .LVU1547
	movl	32(%rbx), %edx
	.loc 1 256 324 discriminator 6 view .LVU1548
	addl	$8, %ecx
	.loc 1 256 367 discriminator 6 view .LVU1549
	subl	$1, %esi
	.loc 1 256 271 discriminator 6 view .LVU1550
	movzbl	(%rdi), %r9d
	.loc 1 256 262 discriminator 6 view .LVU1551
	sall	$8, %edx
	.loc 1 256 324 discriminator 6 view .LVU1552
	movl	%ecx, 36(%rbx)
	.loc 1 256 346 discriminator 6 view .LVU1553
	addq	$1, %rdi
	.loc 1 256 268 discriminator 6 view .LVU1554
	orl	%r9d, %edx
	movl	%edx, 32(%rbx)
	.loc 1 256 314 is_stmt 1 discriminator 6 view .LVU1555
	.loc 1 256 330 discriminator 6 view .LVU1556
	.loc 1 256 400 is_stmt 0 discriminator 6 view .LVU1557
	addl	$1, 12(%rax)
	.loc 1 256 346 discriminator 6 view .LVU1558
	movq	%rdi, (%rax)
	.loc 1 256 350 is_stmt 1 discriminator 6 view .LVU1559
	.loc 1 256 367 is_stmt 0 discriminator 6 view .LVU1560
	movl	%esi, 8(%rax)
	.loc 1 256 371 is_stmt 1 discriminator 6 view .LVU1561
	.loc 1 256 400 is_stmt 0 discriminator 6 view .LVU1562
	je	.L498
.L120:
	.loc 1 256 31 is_stmt 1 discriminator 1 view .LVU1563
	.loc 1 256 51 discriminator 1 view .LVU1564
	.loc 1 256 54 is_stmt 0 discriminator 1 view .LVU1565
	cmpl	$7, %ecx
	jle	.L118
.LBB157:
	.loc 1 256 73 is_stmt 1 discriminator 2 view .LVU1566
	.loc 1 256 83 discriminator 2 view .LVU1567
	.loc 1 256 98 is_stmt 0 discriminator 2 view .LVU1568
	movl	32(%rbx), %edx
.LBE157:
	.loc 1 257 32 discriminator 2 view .LVU1569
	movl	56(%rbx), %eax
.LBB158:
	.loc 1 256 111 discriminator 2 view .LVU1570
	subl	$8, %ecx
	.loc 1 256 142 discriminator 2 view .LVU1571
	movl	%ecx, 36(%rbx)
	.loc 1 256 98 discriminator 2 view .LVU1572
	shrl	%cl, %edx
.LBE158:
	.loc 1 257 32 discriminator 2 view .LVU1573
	sall	$8, %eax
.LBB159:
	.loc 1 256 85 discriminator 2 view .LVU1574
	movzbl	%dl, %edx
.LVL196:
	.loc 1 256 132 is_stmt 1 discriminator 2 view .LVU1575
	.loc 1 256 148 discriminator 2 view .LVU1576
	.loc 1 256 156 discriminator 2 view .LVU1577
.LBE159:
	.loc 1 256 457 discriminator 2 view .LVU1578
	.loc 1 257 7 discriminator 2 view .LVU1579
	.loc 1 257 38 is_stmt 0 discriminator 2 view .LVU1580
	orl	%edx, %eax
	movl	%eax, 56(%rbx)
	jmp	.L119
.LVL197:
	.p2align 4,,10
	.p2align 3
.L11:
	.loc 1 608 56 view .LVU1581
	movl	36(%rbx), %ecx
.LVL198:
.L267:
	.loc 1 593 69 is_stmt 1 discriminator 2 view .LVU1582
	.loc 1 593 70 discriminator 2 view .LVU1583
	.loc 1 594 16 discriminator 2 view .LVU1584
	.loc 1 594 25 is_stmt 0 discriminator 2 view .LVU1585
	movl	$44, 8(%rbx)
	jmp	.L272
	.p2align 4,,10
	.p2align 3
.L270:
	.loc 1 594 165 is_stmt 1 discriminator 3 view .LVU1586
	.loc 1 594 170 is_stmt 0 discriminator 3 view .LVU1587
	movq	(%rbx), %rax
	.loc 1 594 176 discriminator 3 view .LVU1588
	movl	8(%rax), %esi
	.loc 1 594 168 discriminator 3 view .LVU1589
	testl	%esi, %esi
	je	.L387
	.loc 1 594 236 is_stmt 1 discriminator 6 view .LVU1590
	.loc 1 594 237 discriminator 6 view .LVU1591
	.loc 1 594 239 discriminator 6 view .LVU1592
	.loc 1 594 299 is_stmt 0 discriminator 6 view .LVU1593
	movq	(%rax), %rdi
	.loc 1 594 262 discriminator 6 view .LVU1594
	movl	32(%rbx), %edx
	.loc 1 594 324 discriminator 6 view .LVU1595
	addl	$8, %ecx
	.loc 1 594 367 discriminator 6 view .LVU1596
	subl	$1, %esi
	.loc 1 594 271 discriminator 6 view .LVU1597
	movzbl	(%rdi), %r9d
	.loc 1 594 262 discriminator 6 view .LVU1598
	sall	$8, %edx
	.loc 1 594 324 discriminator 6 view .LVU1599
	movl	%ecx, 36(%rbx)
	.loc 1 594 346 discriminator 6 view .LVU1600
	addq	$1, %rdi
	.loc 1 594 268 discriminator 6 view .LVU1601
	orl	%r9d, %edx
	movl	%edx, 32(%rbx)
	.loc 1 594 314 is_stmt 1 discriminator 6 view .LVU1602
	.loc 1 594 330 discriminator 6 view .LVU1603
	.loc 1 594 400 is_stmt 0 discriminator 6 view .LVU1604
	addl	$1, 12(%rax)
	.loc 1 594 346 discriminator 6 view .LVU1605
	movq	%rdi, (%rax)
	.loc 1 594 350 is_stmt 1 discriminator 6 view .LVU1606
	.loc 1 594 367 is_stmt 0 discriminator 6 view .LVU1607
	movl	%esi, 8(%rax)
	.loc 1 594 371 is_stmt 1 discriminator 6 view .LVU1608
	.loc 1 594 400 is_stmt 0 discriminator 6 view .LVU1609
	je	.L499
.L272:
	.loc 1 594 31 is_stmt 1 discriminator 1 view .LVU1610
	.loc 1 594 51 discriminator 1 view .LVU1611
	.loc 1 594 54 is_stmt 0 discriminator 1 view .LVU1612
	cmpl	$7, %ecx
	jle	.L270
.LBB160:
	.loc 1 594 73 is_stmt 1 discriminator 2 view .LVU1613
	.loc 1 594 83 discriminator 2 view .LVU1614
	.loc 1 594 98 is_stmt 0 discriminator 2 view .LVU1615
	movl	32(%rbx), %edx
	.loc 1 594 111 discriminator 2 view .LVU1616
	subl	$8, %ecx
.LBE160:
	.loc 1 595 32 discriminator 2 view .LVU1617
	movl	$-4, %eax
.LBB161:
	.loc 1 594 142 discriminator 2 view .LVU1618
	movl	%ecx, 36(%rbx)
	.loc 1 594 98 discriminator 2 view .LVU1619
	shrl	%cl, %edx
.LVL199:
	.loc 1 594 132 is_stmt 1 discriminator 2 view .LVU1620
	.loc 1 594 148 discriminator 2 view .LVU1621
	.loc 1 594 156 discriminator 2 view .LVU1622
.LBE161:
	.loc 1 594 457 discriminator 2 view .LVU1623
	.loc 1 595 7 discriminator 2 view .LVU1624
	.loc 1 595 10 is_stmt 0 discriminator 2 view .LVU1625
	cmpb	$56, %dl
	jne	.L51
	jmp	.L271
.LVL200:
	.p2align 4,,10
	.p2align 3
.L12:
	.loc 1 608 56 view .LVU1626
	movl	36(%rbx), %ecx
.LVL201:
.L263:
	.loc 1 591 69 is_stmt 1 discriminator 2 view .LVU1627
	.loc 1 591 70 discriminator 2 view .LVU1628
	.loc 1 592 16 discriminator 2 view .LVU1629
	.loc 1 592 25 is_stmt 0 discriminator 2 view .LVU1630
	movl	$43, 8(%rbx)
	jmp	.L268
	.p2align 4,,10
	.p2align 3
.L266:
	.loc 1 592 165 is_stmt 1 discriminator 3 view .LVU1631
	.loc 1 592 170 is_stmt 0 discriminator 3 view .LVU1632
	movq	(%rbx), %rax
	.loc 1 592 176 discriminator 3 view .LVU1633
	movl	8(%rax), %esi
	.loc 1 592 168 discriminator 3 view .LVU1634
	testl	%esi, %esi
	je	.L387
	.loc 1 592 236 is_stmt 1 discriminator 6 view .LVU1635
	.loc 1 592 237 discriminator 6 view .LVU1636
	.loc 1 592 239 discriminator 6 view .LVU1637
	.loc 1 592 299 is_stmt 0 discriminator 6 view .LVU1638
	movq	(%rax), %rdi
	.loc 1 592 262 discriminator 6 view .LVU1639
	movl	32(%rbx), %edx
	.loc 1 592 324 discriminator 6 view .LVU1640
	addl	$8, %ecx
	.loc 1 592 367 discriminator 6 view .LVU1641
	subl	$1, %esi
	.loc 1 592 271 discriminator 6 view .LVU1642
	movzbl	(%rdi), %r9d
	.loc 1 592 262 discriminator 6 view .LVU1643
	sall	$8, %edx
	.loc 1 592 324 discriminator 6 view .LVU1644
	movl	%ecx, 36(%rbx)
	.loc 1 592 346 discriminator 6 view .LVU1645
	addq	$1, %rdi
	.loc 1 592 268 discriminator 6 view .LVU1646
	orl	%r9d, %edx
	movl	%edx, 32(%rbx)
	.loc 1 592 314 is_stmt 1 discriminator 6 view .LVU1647
	.loc 1 592 330 discriminator 6 view .LVU1648
	.loc 1 592 400 is_stmt 0 discriminator 6 view .LVU1649
	addl	$1, 12(%rax)
	.loc 1 592 346 discriminator 6 view .LVU1650
	movq	%rdi, (%rax)
	.loc 1 592 350 is_stmt 1 discriminator 6 view .LVU1651
	.loc 1 592 367 is_stmt 0 discriminator 6 view .LVU1652
	movl	%esi, 8(%rax)
	.loc 1 592 371 is_stmt 1 discriminator 6 view .LVU1653
	.loc 1 592 400 is_stmt 0 discriminator 6 view .LVU1654
	je	.L500
.L268:
	.loc 1 592 31 is_stmt 1 discriminator 1 view .LVU1655
	.loc 1 592 51 discriminator 1 view .LVU1656
	.loc 1 592 54 is_stmt 0 discriminator 1 view .LVU1657
	cmpl	$7, %ecx
	jle	.L266
.LBB162:
	.loc 1 592 73 is_stmt 1 discriminator 2 view .LVU1658
	.loc 1 592 83 discriminator 2 view .LVU1659
	.loc 1 592 98 is_stmt 0 discriminator 2 view .LVU1660
	movl	32(%rbx), %edx
	.loc 1 592 111 discriminator 2 view .LVU1661
	subl	$8, %ecx
.LBE162:
	.loc 1 593 32 discriminator 2 view .LVU1662
	movl	$-4, %eax
.LBB163:
	.loc 1 592 142 discriminator 2 view .LVU1663
	movl	%ecx, 36(%rbx)
	.loc 1 592 98 discriminator 2 view .LVU1664
	shrl	%cl, %edx
.LVL202:
	.loc 1 592 132 is_stmt 1 discriminator 2 view .LVU1665
	.loc 1 592 148 discriminator 2 view .LVU1666
	.loc 1 592 156 discriminator 2 view .LVU1667
.LBE163:
	.loc 1 592 457 discriminator 2 view .LVU1668
	.loc 1 593 7 discriminator 2 view .LVU1669
	.loc 1 593 10 is_stmt 0 discriminator 2 view .LVU1670
	cmpb	$69, %dl
	jne	.L51
	jmp	.L267
.LVL203:
	.p2align 4,,10
	.p2align 3
.L43:
	.loc 1 608 56 view .LVU1671
	movl	36(%rbx), %ecx
.LVL204:
.L55:
	.loc 1 201 69 is_stmt 1 discriminator 2 view .LVU1672
	.loc 1 201 70 discriminator 2 view .LVU1673
	.loc 1 203 16 discriminator 2 view .LVU1674
	.loc 1 203 25 is_stmt 0 discriminator 2 view .LVU1675
	movl	$12, 8(%rbx)
	jmp	.L60
	.p2align 4,,10
	.p2align 3
.L58:
	.loc 1 203 165 is_stmt 1 discriminator 3 view .LVU1676
	.loc 1 203 176 is_stmt 0 discriminator 3 view .LVU1677
	movl	8(%r15), %edx
	.loc 1 203 168 discriminator 3 view .LVU1678
	testl	%edx, %edx
	je	.L387
	.loc 1 203 236 is_stmt 1 discriminator 5 view .LVU1679
	.loc 1 203 237 discriminator 5 view .LVU1680
	.loc 1 203 239 discriminator 5 view .LVU1681
	.loc 1 203 299 is_stmt 0 discriminator 5 view .LVU1682
	movq	(%r15), %rsi
	.loc 1 203 262 discriminator 5 view .LVU1683
	movl	32(%rbx), %eax
	.loc 1 203 324 discriminator 5 view .LVU1684
	addl	$8, %ecx
	.loc 1 203 367 discriminator 5 view .LVU1685
	subl	$1, %edx
	.loc 1 203 271 discriminator 5 view .LVU1686
	movzbl	(%rsi), %edi
	.loc 1 203 262 discriminator 5 view .LVU1687
	sall	$8, %eax
	.loc 1 203 324 discriminator 5 view .LVU1688
	movl	%ecx, 36(%rbx)
	.loc 1 203 346 discriminator 5 view .LVU1689
	addq	$1, %rsi
	.loc 1 203 268 discriminator 5 view .LVU1690
	orl	%edi, %eax
	movl	%eax, 32(%rbx)
	.loc 1 203 314 is_stmt 1 discriminator 5 view .LVU1691
	.loc 1 203 330 discriminator 5 view .LVU1692
	.loc 1 203 393 is_stmt 0 discriminator 5 view .LVU1693
	addl	$1, 12(%r15)
	.loc 1 203 346 discriminator 5 view .LVU1694
	movq	%rsi, (%r15)
	.loc 1 203 350 is_stmt 1 discriminator 5 view .LVU1695
	.loc 1 203 367 is_stmt 0 discriminator 5 view .LVU1696
	movl	%edx, 8(%r15)
	.loc 1 203 371 is_stmt 1 discriminator 5 view .LVU1697
	.loc 1 203 397 discriminator 5 view .LVU1698
	.loc 1 203 400 is_stmt 0 discriminator 5 view .LVU1699
	je	.L501
.L60:
	.loc 1 203 31 is_stmt 1 discriminator 1 view .LVU1700
	.loc 1 203 51 discriminator 1 view .LVU1701
	.loc 1 203 54 is_stmt 0 discriminator 1 view .LVU1702
	cmpl	$7, %ecx
	jle	.L58
.LBB164:
	.loc 1 203 73 is_stmt 1 discriminator 2 view .LVU1703
	.loc 1 203 83 discriminator 2 view .LVU1704
	.loc 1 203 98 is_stmt 0 discriminator 2 view .LVU1705
	movl	32(%rbx), %eax
	.loc 1 203 111 discriminator 2 view .LVU1706
	subl	$8, %ecx
	.loc 1 203 142 discriminator 2 view .LVU1707
	movl	%ecx, 36(%rbx)
	.loc 1 203 98 discriminator 2 view .LVU1708
	shrl	%cl, %eax
.LVL205:
	.loc 1 203 132 is_stmt 1 discriminator 2 view .LVU1709
	.loc 1 203 148 discriminator 2 view .LVU1710
	.loc 1 203 156 discriminator 2 view .LVU1711
.LBE164:
	.loc 1 204 7 discriminator 2 view .LVU1712
	.loc 1 204 10 is_stmt 0 discriminator 2 view .LVU1713
	cmpb	$104, %al
	je	.L59
.LVL206:
.L302:
	.loc 1 204 32 view .LVU1714
	movl	$-5, %eax
.LVL207:
	.loc 1 204 32 view .LVU1715
	jmp	.L51
.LVL208:
	.p2align 4,,10
	.p2align 3
.L44:
	.loc 1 608 56 view .LVU1716
	movl	36(%rbx), %ecx
.LVL209:
.L52:
	.loc 1 198 69 is_stmt 1 discriminator 2 view .LVU1717
	.loc 1 198 70 discriminator 2 view .LVU1718
	.loc 1 200 16 discriminator 2 view .LVU1719
	.loc 1 200 25 is_stmt 0 discriminator 2 view .LVU1720
	movl	$11, 8(%rbx)
	jmp	.L56
	.p2align 4,,10
	.p2align 3
.L54:
	.loc 1 200 165 is_stmt 1 discriminator 3 view .LVU1721
	.loc 1 200 176 is_stmt 0 discriminator 3 view .LVU1722
	movl	8(%r15), %edx
	.loc 1 200 168 discriminator 3 view .LVU1723
	testl	%edx, %edx
	je	.L387
	.loc 1 200 236 is_stmt 1 discriminator 6 view .LVU1724
	.loc 1 200 237 discriminator 6 view .LVU1725
	.loc 1 200 239 discriminator 6 view .LVU1726
	.loc 1 200 299 is_stmt 0 discriminator 6 view .LVU1727
	movq	(%r15), %rsi
	.loc 1 200 262 discriminator 6 view .LVU1728
	movl	32(%rbx), %eax
	.loc 1 200 324 discriminator 6 view .LVU1729
	addl	$8, %ecx
	.loc 1 200 367 discriminator 6 view .LVU1730
	subl	$1, %edx
	.loc 1 200 271 discriminator 6 view .LVU1731
	movzbl	(%rsi), %edi
	.loc 1 200 262 discriminator 6 view .LVU1732
	sall	$8, %eax
	.loc 1 200 324 discriminator 6 view .LVU1733
	movl	%ecx, 36(%rbx)
	.loc 1 200 346 discriminator 6 view .LVU1734
	addq	$1, %rsi
	.loc 1 200 268 discriminator 6 view .LVU1735
	orl	%edi, %eax
	movl	%eax, 32(%rbx)
	.loc 1 200 314 is_stmt 1 discriminator 6 view .LVU1736
	.loc 1 200 330 discriminator 6 view .LVU1737
	.loc 1 200 393 is_stmt 0 discriminator 6 view .LVU1738
	addl	$1, 12(%r15)
	.loc 1 200 346 discriminator 6 view .LVU1739
	movq	%rsi, (%r15)
	.loc 1 200 350 is_stmt 1 discriminator 6 view .LVU1740
	.loc 1 200 367 is_stmt 0 discriminator 6 view .LVU1741
	movl	%edx, 8(%r15)
	.loc 1 200 371 is_stmt 1 discriminator 6 view .LVU1742
	.loc 1 200 397 discriminator 6 view .LVU1743
	.loc 1 200 400 is_stmt 0 discriminator 6 view .LVU1744
	je	.L502
.L56:
	.loc 1 200 31 is_stmt 1 discriminator 1 view .LVU1745
	.loc 1 200 51 discriminator 1 view .LVU1746
	.loc 1 200 54 is_stmt 0 discriminator 1 view .LVU1747
	cmpl	$7, %ecx
	jle	.L54
.LBB165:
	.loc 1 200 73 is_stmt 1 discriminator 2 view .LVU1748
	.loc 1 200 83 discriminator 2 view .LVU1749
	.loc 1 200 98 is_stmt 0 discriminator 2 view .LVU1750
	movl	32(%rbx), %eax
	.loc 1 200 111 discriminator 2 view .LVU1751
	subl	$8, %ecx
	.loc 1 200 142 discriminator 2 view .LVU1752
	movl	%ecx, 36(%rbx)
	.loc 1 200 98 discriminator 2 view .LVU1753
	shrl	%cl, %eax
.LVL210:
	.loc 1 200 132 is_stmt 1 discriminator 2 view .LVU1754
	.loc 1 200 148 discriminator 2 view .LVU1755
	.loc 1 200 156 discriminator 2 view .LVU1756
.LBE165:
	.loc 1 200 457 discriminator 2 view .LVU1757
	.loc 1 201 7 discriminator 2 view .LVU1758
	.loc 1 201 10 is_stmt 0 discriminator 2 view .LVU1759
	cmpb	$90, %al
	jne	.L302
	jmp	.L55
.LVL211:
	.p2align 4,,10
	.p2align 3
.L4:
	.loc 1 608 56 view .LVU1760
	movl	36(%rbx), %ecx
.LVL212:
.L291:
	.loc 1 608 16 is_stmt 1 view .LVU1761
	.loc 1 608 25 is_stmt 0 view .LVU1762
	movl	$50, 8(%rbx)
	jmp	.L295
	.p2align 4,,10
	.p2align 3
.L294:
	.loc 1 608 165 is_stmt 1 discriminator 3 view .LVU1763
	.loc 1 608 170 is_stmt 0 discriminator 3 view .LVU1764
	movq	(%rbx), %rax
	.loc 1 608 176 discriminator 3 view .LVU1765
	movl	8(%rax), %esi
	.loc 1 608 168 discriminator 3 view .LVU1766
	testl	%esi, %esi
	je	.L387
	.loc 1 608 236 is_stmt 1 discriminator 6 view .LVU1767
	.loc 1 608 237 discriminator 6 view .LVU1768
	.loc 1 608 239 discriminator 6 view .LVU1769
	.loc 1 608 299 is_stmt 0 discriminator 6 view .LVU1770
	movq	(%rax), %rdi
	.loc 1 608 262 discriminator 6 view .LVU1771
	movl	32(%rbx), %edx
	.loc 1 608 324 discriminator 6 view .LVU1772
	addl	$8, %ecx
	.loc 1 608 367 discriminator 6 view .LVU1773
	subl	$1, %esi
	.loc 1 608 271 discriminator 6 view .LVU1774
	movzbl	(%rdi), %r9d
	.loc 1 608 262 discriminator 6 view .LVU1775
	sall	$8, %edx
	.loc 1 608 324 discriminator 6 view .LVU1776
	movl	%ecx, 36(%rbx)
	.loc 1 608 346 discriminator 6 view .LVU1777
	addq	$1, %rdi
	.loc 1 608 268 discriminator 6 view .LVU1778
	orl	%r9d, %edx
	movl	%edx, 32(%rbx)
	.loc 1 608 314 is_stmt 1 discriminator 6 view .LVU1779
	.loc 1 608 330 discriminator 6 view .LVU1780
	.loc 1 608 400 is_stmt 0 discriminator 6 view .LVU1781
	addl	$1, 12(%rax)
	.loc 1 608 346 discriminator 6 view .LVU1782
	movq	%rdi, (%rax)
	.loc 1 608 350 is_stmt 1 discriminator 6 view .LVU1783
	.loc 1 608 367 is_stmt 0 discriminator 6 view .LVU1784
	movl	%esi, 8(%rax)
	.loc 1 608 371 is_stmt 1 discriminator 6 view .LVU1785
	.loc 1 608 400 is_stmt 0 discriminator 6 view .LVU1786
	je	.L503
.L295:
	.loc 1 608 31 is_stmt 1 discriminator 1 view .LVU1787
	.loc 1 608 51 discriminator 1 view .LVU1788
	.loc 1 608 54 is_stmt 0 discriminator 1 view .LVU1789
	cmpl	$7, %ecx
	jle	.L294
.LBB166:
	.loc 1 608 73 is_stmt 1 discriminator 2 view .LVU1790
	.loc 1 608 83 discriminator 2 view .LVU1791
	.loc 1 608 98 is_stmt 0 discriminator 2 view .LVU1792
	movl	32(%rbx), %edx
.LBE166:
	.loc 1 609 52 discriminator 2 view .LVU1793
	movl	3180(%rbx), %eax
.LBB167:
	.loc 1 608 111 discriminator 2 view .LVU1794
	subl	$8, %ecx
.LBE167:
	.loc 1 611 16 discriminator 2 view .LVU1795
	movl	$1, 8(%rbx)
.LBB168:
	.loc 1 608 142 discriminator 2 view .LVU1796
	movl	%ecx, 36(%rbx)
	.loc 1 608 98 discriminator 2 view .LVU1797
	shrl	%cl, %edx
.LBE168:
	.loc 1 609 52 discriminator 2 view .LVU1798
	sall	$8, %eax
.LBB169:
	.loc 1 608 85 discriminator 2 view .LVU1799
	movzbl	%dl, %edx
.LVL213:
	.loc 1 608 132 is_stmt 1 discriminator 2 view .LVU1800
	.loc 1 608 148 discriminator 2 view .LVU1801
	.loc 1 608 156 discriminator 2 view .LVU1802
.LBE169:
	.loc 1 608 457 discriminator 2 view .LVU1803
	.loc 1 609 7 discriminator 2 view .LVU1804
	.loc 1 609 58 is_stmt 0 discriminator 2 view .LVU1805
	orl	%edx, %eax
	movl	%eax, 3180(%rbx)
	.loc 1 611 7 is_stmt 1 discriminator 2 view .LVU1806
	.loc 1 612 9 discriminator 2 view .LVU1807
.LVL214:
	.loc 1 612 21 discriminator 2 view .LVU1808
	.loc 1 612 16 is_stmt 0 discriminator 2 view .LVU1809
	movl	$4, %eax
	.loc 1 612 21 discriminator 2 view .LVU1810
	jmp	.L51
.LVL215:
	.p2align 4,,10
	.p2align 3
.L6:
	.loc 1 608 56 view .LVU1811
	movl	36(%rbx), %ecx
.LVL216:
.L287:
	.loc 1 606 16 is_stmt 1 view .LVU1812
	.loc 1 606 25 is_stmt 0 view .LVU1813
	movl	$49, 8(%rbx)
	jmp	.L292
	.p2align 4,,10
	.p2align 3
.L290:
	.loc 1 606 165 is_stmt 1 discriminator 3 view .LVU1814
	.loc 1 606 170 is_stmt 0 discriminator 3 view .LVU1815
	movq	(%rbx), %rax
	.loc 1 606 176 discriminator 3 view .LVU1816
	movl	8(%rax), %esi
	.loc 1 606 168 discriminator 3 view .LVU1817
	testl	%esi, %esi
	je	.L387
	.loc 1 606 236 is_stmt 1 discriminator 6 view .LVU1818
	.loc 1 606 237 discriminator 6 view .LVU1819
	.loc 1 606 239 discriminator 6 view .LVU1820
	.loc 1 606 299 is_stmt 0 discriminator 6 view .LVU1821
	movq	(%rax), %rdi
	.loc 1 606 262 discriminator 6 view .LVU1822
	movl	32(%rbx), %edx
	.loc 1 606 324 discriminator 6 view .LVU1823
	addl	$8, %ecx
	.loc 1 606 367 discriminator 6 view .LVU1824
	subl	$1, %esi
	.loc 1 606 271 discriminator 6 view .LVU1825
	movzbl	(%rdi), %r9d
	.loc 1 606 262 discriminator 6 view .LVU1826
	sall	$8, %edx
	.loc 1 606 324 discriminator 6 view .LVU1827
	movl	%ecx, 36(%rbx)
	.loc 1 606 346 discriminator 6 view .LVU1828
	addq	$1, %rdi
	.loc 1 606 268 discriminator 6 view .LVU1829
	orl	%r9d, %edx
	movl	%edx, 32(%rbx)
	.loc 1 606 314 is_stmt 1 discriminator 6 view .LVU1830
	.loc 1 606 330 discriminator 6 view .LVU1831
	.loc 1 606 400 is_stmt 0 discriminator 6 view .LVU1832
	addl	$1, 12(%rax)
	.loc 1 606 346 discriminator 6 view .LVU1833
	movq	%rdi, (%rax)
	.loc 1 606 350 is_stmt 1 discriminator 6 view .LVU1834
	.loc 1 606 367 is_stmt 0 discriminator 6 view .LVU1835
	movl	%esi, 8(%rax)
	.loc 1 606 371 is_stmt 1 discriminator 6 view .LVU1836
	.loc 1 606 400 is_stmt 0 discriminator 6 view .LVU1837
	je	.L504
.L292:
	.loc 1 606 31 is_stmt 1 discriminator 1 view .LVU1838
	.loc 1 606 51 discriminator 1 view .LVU1839
	.loc 1 606 54 is_stmt 0 discriminator 1 view .LVU1840
	cmpl	$7, %ecx
	jle	.L290
.LBB170:
	.loc 1 606 73 is_stmt 1 discriminator 2 view .LVU1841
	.loc 1 606 83 discriminator 2 view .LVU1842
	.loc 1 606 98 is_stmt 0 discriminator 2 view .LVU1843
	movl	32(%rbx), %edx
.LBE170:
	.loc 1 607 52 discriminator 2 view .LVU1844
	movl	3180(%rbx), %eax
.LBB171:
	.loc 1 606 111 discriminator 2 view .LVU1845
	subl	$8, %ecx
	.loc 1 606 142 discriminator 2 view .LVU1846
	movl	%ecx, 36(%rbx)
	.loc 1 606 98 discriminator 2 view .LVU1847
	shrl	%cl, %edx
.LBE171:
	.loc 1 607 52 discriminator 2 view .LVU1848
	sall	$8, %eax
.LBB172:
	.loc 1 606 85 discriminator 2 view .LVU1849
	movzbl	%dl, %edx
.LVL217:
	.loc 1 606 132 is_stmt 1 discriminator 2 view .LVU1850
	.loc 1 606 148 discriminator 2 view .LVU1851
	.loc 1 606 156 discriminator 2 view .LVU1852
.LBE172:
	.loc 1 606 457 discriminator 2 view .LVU1853
	.loc 1 607 7 discriminator 2 view .LVU1854
	.loc 1 607 58 is_stmt 0 discriminator 2 view .LVU1855
	orl	%edx, %eax
	movl	%eax, 3180(%rbx)
	jmp	.L291
.LVL218:
	.p2align 4,,10
	.p2align 3
.L27:
	.loc 1 608 56 view .LVU1856
	movl	36(%rbx), %ecx
.LVL219:
	.loc 1 608 56 view .LVU1857
	jmp	.L47
.LVL220:
	.p2align 4,,10
	.p2align 3
.L23:
	.loc 1 608 56 view .LVU1858
	movl	36(%rbx), %ecx
.LVL221:
.L146:
	.loc 1 608 56 view .LVU1859
	movslq	%r8d, %r15
.L156:
	movl	%r15d, %r8d
.L154:
.LVL222:
	.loc 1 293 10 is_stmt 1 view .LVU1860
	.loc 1 294 22 view .LVU1861
	.loc 1 294 31 is_stmt 0 view .LVU1862
	movl	$32, 8(%rbx)
	jmp	.L152
	.p2align 4,,10
	.p2align 3
.L149:
	.loc 1 294 171 is_stmt 1 discriminator 3 view .LVU1863
	.loc 1 294 176 is_stmt 0 discriminator 3 view .LVU1864
	movq	(%rbx), %rax
	.loc 1 294 182 discriminator 3 view .LVU1865
	movl	8(%rax), %esi
	.loc 1 294 174 discriminator 3 view .LVU1866
	testl	%esi, %esi
	je	.L387
	.loc 1 294 242 is_stmt 1 discriminator 6 view .LVU1867
	.loc 1 294 243 discriminator 6 view .LVU1868
	.loc 1 294 245 discriminator 6 view .LVU1869
	.loc 1 294 305 is_stmt 0 discriminator 6 view .LVU1870
	movq	(%rax), %rdi
	.loc 1 294 268 discriminator 6 view .LVU1871
	movl	32(%rbx), %edx
	.loc 1 294 330 discriminator 6 view .LVU1872
	addl	$8, %ecx
	.loc 1 294 373 discriminator 6 view .LVU1873
	subl	$1, %esi
	.loc 1 294 277 discriminator 6 view .LVU1874
	movzbl	(%rdi), %r9d
	.loc 1 294 268 discriminator 6 view .LVU1875
	sall	$8, %edx
	.loc 1 294 330 discriminator 6 view .LVU1876
	movl	%ecx, 36(%rbx)
	.loc 1 294 352 discriminator 6 view .LVU1877
	addq	$1, %rdi
	.loc 1 294 274 discriminator 6 view .LVU1878
	orl	%r9d, %edx
	movl	%edx, 32(%rbx)
	.loc 1 294 320 is_stmt 1 discriminator 6 view .LVU1879
	.loc 1 294 336 discriminator 6 view .LVU1880
	.loc 1 294 406 is_stmt 0 discriminator 6 view .LVU1881
	addl	$1, 12(%rax)
	.loc 1 294 352 discriminator 6 view .LVU1882
	movq	%rdi, (%rax)
	.loc 1 294 356 is_stmt 1 discriminator 6 view .LVU1883
	.loc 1 294 373 is_stmt 0 discriminator 6 view .LVU1884
	movl	%esi, 8(%rax)
	.loc 1 294 377 is_stmt 1 discriminator 6 view .LVU1885
	.loc 1 294 406 is_stmt 0 discriminator 6 view .LVU1886
	je	.L505
.L152:
	.loc 1 294 37 is_stmt 1 discriminator 1 view .LVU1887
	.loc 1 294 57 discriminator 1 view .LVU1888
	.loc 1 294 60 is_stmt 0 discriminator 1 view .LVU1889
	testl	%ecx, %ecx
	jle	.L149
.LBB173:
	.loc 1 294 79 is_stmt 1 discriminator 2 view .LVU1890
	.loc 1 294 89 discriminator 2 view .LVU1891
	.loc 1 294 104 is_stmt 0 discriminator 2 view .LVU1892
	movl	32(%rbx), %eax
	.loc 1 294 117 discriminator 2 view .LVU1893
	subl	$1, %ecx
.LVL223:
	.loc 1 294 138 is_stmt 1 discriminator 2 view .LVU1894
	.loc 1 294 148 is_stmt 0 discriminator 2 view .LVU1895
	movl	%ecx, 36(%rbx)
	.loc 1 294 154 is_stmt 1 discriminator 2 view .LVU1896
.LVL224:
	.loc 1 294 162 discriminator 2 view .LVU1897
.LBE173:
	.loc 1 294 463 discriminator 2 view .LVU1898
	.loc 1 295 13 discriminator 2 view .LVU1899
	.loc 1 295 16 is_stmt 0 discriminator 2 view .LVU1900
	btl	%ecx, %eax
	jnc	.L506
	.loc 1 296 13 is_stmt 1 view .LVU1901
	.loc 1 296 14 is_stmt 0 view .LVU1902
	addl	$1, %r14d
.LVL225:
	.loc 1 297 13 is_stmt 1 view .LVU1903
	.loc 1 297 16 is_stmt 0 view .LVU1904
	cmpl	%r10d, %r14d
	jl	.L154
.LVL226:
	.p2align 4,,10
	.p2align 3
.L373:
	.loc 1 520 22 view .LVU1905
	movl	$-4, %eax
.LVL227:
	.p2align 4,,10
	.p2align 3
.L51:
	.loc 1 617 57 is_stmt 1 discriminator 3 view .LVU1906
	.loc 1 621 4 discriminator 3 view .LVU1907
	.loc 1 624 22 is_stmt 0 discriminator 3 view .LVU1908
	movl	40(%rsp), %ecx
	.loc 1 626 23 discriminator 3 view .LVU1909
	movl	24(%rsp), %esi
	.loc 1 621 14 discriminator 3 view .LVU1910
	movl	%r8d, 64036(%rbx)
	.loc 1 622 4 is_stmt 1 discriminator 3 view .LVU1911
	.loc 1 628 20 is_stmt 0 discriminator 3 view .LVU1912
	movl	56(%rsp), %edi
	.loc 1 622 14 discriminator 3 view .LVU1913
	movl	%r14d, 64040(%rbx)
	.loc 1 623 4 is_stmt 1 discriminator 3 view .LVU1914
	.loc 1 624 22 is_stmt 0 discriminator 3 view .LVU1915
	movl	%ecx, 64048(%rbx)
	.loc 1 627 16 discriminator 3 view .LVU1916
	movl	84(%rsp), %ecx
	.loc 1 626 23 discriminator 3 view .LVU1917
	movl	%esi, 64056(%rbx)
	.loc 1 629 21 discriminator 3 view .LVU1918
	movl	64(%rsp), %esi
	.loc 1 627 16 discriminator 3 view .LVU1919
	movl	%ecx, 64060(%rbx)
	.loc 1 630 20 discriminator 3 view .LVU1920
	movl	44(%rsp), %ecx
	.loc 1 628 20 discriminator 3 view .LVU1921
	movl	%edi, 64064(%rbx)
	.loc 1 631 22 discriminator 3 view .LVU1922
	movl	72(%rsp), %edi
	.loc 1 629 21 discriminator 3 view .LVU1923
	movl	%esi, 64068(%rbx)
	.loc 1 632 19 discriminator 3 view .LVU1924
	movl	28(%rsp), %esi
	.loc 1 630 20 discriminator 3 view .LVU1925
	movl	%ecx, 64072(%rbx)
	.loc 1 633 15 discriminator 3 view .LVU1926
	movl	68(%rsp), %ecx
	.loc 1 631 22 discriminator 3 view .LVU1927
	movl	%edi, 64076(%rbx)
	.loc 1 634 14 discriminator 3 view .LVU1928
	movl	80(%rsp), %edi
	.loc 1 632 19 discriminator 3 view .LVU1929
	movl	%esi, 64080(%rbx)
	.loc 1 635 17 discriminator 3 view .LVU1930
	movl	12(%rsp), %esi
	.loc 1 633 15 discriminator 3 view .LVU1931
	movl	%ecx, 64084(%rbx)
	.loc 1 636 15 discriminator 3 view .LVU1932
	movl	92(%rsp), %ecx
	.loc 1 634 14 discriminator 3 view .LVU1933
	movl	%edi, 64088(%rbx)
	.loc 1 640 17 discriminator 3 view .LVU1934
	movl	88(%rsp), %edi
	.loc 1 635 17 discriminator 3 view .LVU1935
	movl	%esi, 64092(%rbx)
	.loc 1 636 15 discriminator 3 view .LVU1936
	movl	%ecx, 64096(%rbx)
	.loc 1 623 14 discriminator 3 view .LVU1937
	movl	%r11d, 64044(%rbx)
	.loc 1 624 4 is_stmt 1 discriminator 3 view .LVU1938
	.loc 1 625 4 discriminator 3 view .LVU1939
	.loc 1 625 20 is_stmt 0 discriminator 3 view .LVU1940
	movl	%r10d, 64052(%rbx)
	.loc 1 626 4 is_stmt 1 discriminator 3 view .LVU1941
	.loc 1 627 4 discriminator 3 view .LVU1942
	.loc 1 628 4 discriminator 3 view .LVU1943
	.loc 1 629 4 discriminator 3 view .LVU1944
	.loc 1 630 4 discriminator 3 view .LVU1945
	.loc 1 631 4 discriminator 3 view .LVU1946
	.loc 1 632 4 discriminator 3 view .LVU1947
	.loc 1 633 4 discriminator 3 view .LVU1948
	.loc 1 634 4 discriminator 3 view .LVU1949
	.loc 1 635 4 discriminator 3 view .LVU1950
	.loc 1 636 4 discriminator 3 view .LVU1951
	.loc 1 637 4 discriminator 3 view .LVU1952
	.loc 1 637 15 is_stmt 0 discriminator 3 view .LVU1953
	movl	%ebp, 64100(%rbx)
	.loc 1 638 4 is_stmt 1 discriminator 3 view .LVU1954
	.loc 1 638 17 is_stmt 0 discriminator 3 view .LVU1955
	movl	%r12d, 64104(%rbx)
	.loc 1 639 4 is_stmt 1 discriminator 3 view .LVU1956
	.loc 1 639 15 is_stmt 0 discriminator 3 view .LVU1957
	movl	%r13d, 64108(%rbx)
	.loc 1 640 4 is_stmt 1 discriminator 3 view .LVU1958
	.loc 1 640 17 is_stmt 0 discriminator 3 view .LVU1959
	movl	%edi, 64112(%rbx)
	.loc 1 641 4 is_stmt 1 discriminator 3 view .LVU1960
	.loc 1 641 20 is_stmt 0 discriminator 3 view .LVU1961
	movl	76(%rsp), %esi
	.loc 1 642 19 discriminator 3 view .LVU1962
	movq	16(%rsp), %rcx
	.loc 1 643 18 discriminator 3 view .LVU1963
	movq	32(%rsp), %rdi
	.loc 1 641 20 discriminator 3 view .LVU1964
	movl	%esi, 64116(%rbx)
	.loc 1 642 4 is_stmt 1 discriminator 3 view .LVU1965
	.loc 1 644 18 is_stmt 0 discriminator 3 view .LVU1966
	movq	48(%rsp), %rsi
	.loc 1 642 19 discriminator 3 view .LVU1967
	movq	%rcx, 64120(%rbx)
	.loc 1 643 4 is_stmt 1 discriminator 3 view .LVU1968
	.loc 1 643 18 is_stmt 0 discriminator 3 view .LVU1969
	movq	%rdi, 64128(%rbx)
	.loc 1 644 4 is_stmt 1 discriminator 3 view .LVU1970
	.loc 1 644 18 is_stmt 0 discriminator 3 view .LVU1971
	movq	%rsi, 64136(%rbx)
	.loc 1 646 4 is_stmt 1 discriminator 3 view .LVU1972
.LVL228:
.L1:
	.loc 1 647 1 is_stmt 0 view .LVU1973
	movq	136(%rsp), %rdx
	subq	%fs:40, %rdx
	jne	.L507
	addq	$152, %rsp
	.cfi_remember_state
	.cfi_def_cfa_offset 56
	popq	%rbx
	.cfi_def_cfa_offset 48
	popq	%rbp
	.cfi_def_cfa_offset 40
.LVL229:
	.loc 1 647 1 view .LVU1974
	popq	%r12
	.cfi_def_cfa_offset 32
.LVL230:
	.loc 1 647 1 view .LVU1975
	popq	%r13
	.cfi_def_cfa_offset 24
.LVL231:
	.loc 1 647 1 view .LVU1976
	popq	%r14
	.cfi_def_cfa_offset 16
.LVL232:
	.loc 1 647 1 view .LVU1977
	popq	%r15
	.cfi_def_cfa_offset 8
	ret
.LVL233:
	.p2align 4,,10
	.p2align 3
.L24:
	.cfi_restore_state
	.loc 1 608 56 view .LVU1978
	movl	36(%rbx), %ecx
.LVL234:
.L142:
	.loc 1 288 85 is_stmt 1 discriminator 2 view .LVU1979
	.loc 1 288 86 discriminator 2 view .LVU1980
	.loc 1 289 16 discriminator 2 view .LVU1981
	.loc 1 289 25 is_stmt 0 discriminator 2 view .LVU1982
	movl	$31, 8(%rbx)
	jmp	.L147
	.p2align 4,,10
	.p2align 3
.L145:
	.loc 1 289 177 is_stmt 1 discriminator 3 view .LVU1983
	.loc 1 289 182 is_stmt 0 discriminator 3 view .LVU1984
	movq	(%rbx), %rax
	.loc 1 289 188 discriminator 3 view .LVU1985
	movl	8(%rax), %esi
	.loc 1 289 180 discriminator 3 view .LVU1986
	testl	%esi, %esi
	je	.L387
	.loc 1 289 248 is_stmt 1 discriminator 6 view .LVU1987
	.loc 1 289 249 discriminator 6 view .LVU1988
	.loc 1 289 251 discriminator 6 view .LVU1989
	.loc 1 289 311 is_stmt 0 discriminator 6 view .LVU1990
	movq	(%rax), %rdi
	.loc 1 289 274 discriminator 6 view .LVU1991
	movl	32(%rbx), %edx
	.loc 1 289 336 discriminator 6 view .LVU1992
	addl	$8, %ecx
	.loc 1 289 379 discriminator 6 view .LVU1993
	subl	$1, %esi
	.loc 1 289 283 discriminator 6 view .LVU1994
	movzbl	(%rdi), %r9d
	.loc 1 289 274 discriminator 6 view .LVU1995
	sall	$8, %edx
	.loc 1 289 336 discriminator 6 view .LVU1996
	movl	%ecx, 36(%rbx)
	.loc 1 289 358 discriminator 6 view .LVU1997
	addq	$1, %rdi
	.loc 1 289 280 discriminator 6 view .LVU1998
	orl	%r9d, %edx
	movl	%edx, 32(%rbx)
	.loc 1 289 326 is_stmt 1 discriminator 6 view .LVU1999
	.loc 1 289 342 discriminator 6 view .LVU2000
	.loc 1 289 412 is_stmt 0 discriminator 6 view .LVU2001
	addl	$1, 12(%rax)
	.loc 1 289 358 discriminator 6 view .LVU2002
	movq	%rdi, (%rax)
	.loc 1 289 362 is_stmt 1 discriminator 6 view .LVU2003
	.loc 1 289 379 is_stmt 0 discriminator 6 view .LVU2004
	movl	%esi, 8(%rax)
	.loc 1 289 383 is_stmt 1 discriminator 6 view .LVU2005
	.loc 1 289 412 is_stmt 0 discriminator 6 view .LVU2006
	je	.L508
.L147:
	.loc 1 289 31 is_stmt 1 discriminator 1 view .LVU2007
	.loc 1 289 51 discriminator 1 view .LVU2008
	.loc 1 289 54 is_stmt 0 discriminator 1 view .LVU2009
	cmpl	$14, %ecx
	jle	.L145
.LBB174:
	.loc 1 289 74 is_stmt 1 discriminator 2 view .LVU2010
	.loc 1 289 84 discriminator 2 view .LVU2011
	.loc 1 289 99 is_stmt 0 discriminator 2 view .LVU2012
	movl	32(%rbx), %eax
	.loc 1 289 112 discriminator 2 view .LVU2013
	subl	$15, %ecx
	.loc 1 289 145 discriminator 2 view .LVU2014
	movl	%ecx, 36(%rbx)
	.loc 1 289 99 discriminator 2 view .LVU2015
	shrl	%cl, %eax
.LVL235:
	.loc 1 289 135 is_stmt 1 discriminator 2 view .LVU2016
	.loc 1 289 152 discriminator 2 view .LVU2017
	.loc 1 289 168 discriminator 2 view .LVU2018
.LBE174:
	.loc 1 289 469 discriminator 2 view .LVU2019
	.loc 1 290 7 discriminator 2 view .LVU2020
	.loc 1 290 10 is_stmt 0 discriminator 2 view .LVU2021
	andl	$32767, %eax
.LVL236:
	.loc 1 290 10 discriminator 2 view .LVU2022
	je	.L334
.LBB175:
	.loc 1 289 163 view .LVU2023
	movl	%eax, 24(%rsp)
.LBE175:
	.loc 1 292 12 view .LVU2024
	xorl	%r14d, %r14d
.LVL237:
	.loc 1 291 14 view .LVU2025
	xorl	%r8d, %r8d
.LVL238:
	.loc 1 291 14 view .LVU2026
	jmp	.L146
.LVL239:
	.p2align 4,,10
	.p2align 3
.L9:
	.loc 1 608 56 view .LVU2027
	movl	36(%rbx), %ecx
.LVL240:
.L275:
	.loc 1 597 69 is_stmt 1 discriminator 2 view .LVU2028
	.loc 1 597 70 discriminator 2 view .LVU2029
	.loc 1 598 16 discriminator 2 view .LVU2030
	.loc 1 598 25 is_stmt 0 discriminator 2 view .LVU2031
	movl	$46, 8(%rbx)
	jmp	.L280
	.p2align 4,,10
	.p2align 3
.L278:
	.loc 1 598 165 is_stmt 1 discriminator 3 view .LVU2032
	.loc 1 598 170 is_stmt 0 discriminator 3 view .LVU2033
	movq	(%rbx), %rax
	.loc 1 598 176 discriminator 3 view .LVU2034
	movl	8(%rax), %esi
	.loc 1 598 168 discriminator 3 view .LVU2035
	testl	%esi, %esi
	je	.L387
	.loc 1 598 236 is_stmt 1 discriminator 6 view .LVU2036
	.loc 1 598 237 discriminator 6 view .LVU2037
	.loc 1 598 239 discriminator 6 view .LVU2038
	.loc 1 598 299 is_stmt 0 discriminator 6 view .LVU2039
	movq	(%rax), %rdi
	.loc 1 598 262 discriminator 6 view .LVU2040
	movl	32(%rbx), %edx
	.loc 1 598 324 discriminator 6 view .LVU2041
	addl	$8, %ecx
	.loc 1 598 367 discriminator 6 view .LVU2042
	subl	$1, %esi
	.loc 1 598 271 discriminator 6 view .LVU2043
	movzbl	(%rdi), %r9d
	.loc 1 598 262 discriminator 6 view .LVU2044
	sall	$8, %edx
	.loc 1 598 324 discriminator 6 view .LVU2045
	movl	%ecx, 36(%rbx)
	.loc 1 598 346 discriminator 6 view .LVU2046
	addq	$1, %rdi
	.loc 1 598 268 discriminator 6 view .LVU2047
	orl	%r9d, %edx
	movl	%edx, 32(%rbx)
	.loc 1 598 314 is_stmt 1 discriminator 6 view .LVU2048
	.loc 1 598 330 discriminator 6 view .LVU2049
	.loc 1 598 400 is_stmt 0 discriminator 6 view .LVU2050
	addl	$1, 12(%rax)
	.loc 1 598 346 discriminator 6 view .LVU2051
	movq	%rdi, (%rax)
	.loc 1 598 350 is_stmt 1 discriminator 6 view .LVU2052
	.loc 1 598 367 is_stmt 0 discriminator 6 view .LVU2053
	movl	%esi, 8(%rax)
	.loc 1 598 371 is_stmt 1 discriminator 6 view .LVU2054
	.loc 1 598 400 is_stmt 0 discriminator 6 view .LVU2055
	je	.L509
.L280:
	.loc 1 598 31 is_stmt 1 discriminator 1 view .LVU2056
	.loc 1 598 51 discriminator 1 view .LVU2057
	.loc 1 598 54 is_stmt 0 discriminator 1 view .LVU2058
	cmpl	$7, %ecx
	jle	.L278
.LBB176:
	.loc 1 598 73 is_stmt 1 discriminator 2 view .LVU2059
	.loc 1 598 83 discriminator 2 view .LVU2060
	.loc 1 598 98 is_stmt 0 discriminator 2 view .LVU2061
	movl	32(%rbx), %edx
	.loc 1 598 111 discriminator 2 view .LVU2062
	subl	$8, %ecx
.LBE176:
	.loc 1 599 32 discriminator 2 view .LVU2063
	movl	$-4, %eax
.LBB177:
	.loc 1 598 142 discriminator 2 view .LVU2064
	movl	%ecx, 36(%rbx)
	.loc 1 598 98 discriminator 2 view .LVU2065
	shrl	%cl, %edx
.LVL241:
	.loc 1 598 132 is_stmt 1 discriminator 2 view .LVU2066
	.loc 1 598 148 discriminator 2 view .LVU2067
	.loc 1 598 156 discriminator 2 view .LVU2068
.LBE177:
	.loc 1 598 457 discriminator 2 view .LVU2069
	.loc 1 599 7 discriminator 2 view .LVU2070
	.loc 1 599 10 is_stmt 0 discriminator 2 view .LVU2071
	cmpb	$-112, %dl
	jne	.L51
	.loc 1 599 69 is_stmt 1 discriminator 2 view .LVU2072
	.loc 1 599 70 discriminator 2 view .LVU2073
	.loc 1 601 7 discriminator 2 view .LVU2074
	.loc 1 601 28 is_stmt 0 discriminator 2 view .LVU2075
	movl	$0, 3180(%rbx)
	jmp	.L46
.LVL242:
	.p2align 4,,10
	.p2align 3
.L10:
	.loc 1 608 56 view .LVU2076
	movl	36(%rbx), %ecx
.LVL243:
.L271:
	.loc 1 595 69 is_stmt 1 discriminator 2 view .LVU2077
	.loc 1 595 70 discriminator 2 view .LVU2078
	.loc 1 596 16 discriminator 2 view .LVU2079
	.loc 1 596 25 is_stmt 0 discriminator 2 view .LVU2080
	movl	$45, 8(%rbx)
	jmp	.L276
	.p2align 4,,10
	.p2align 3
.L274:
	.loc 1 596 165 is_stmt 1 discriminator 3 view .LVU2081
	.loc 1 596 170 is_stmt 0 discriminator 3 view .LVU2082
	movq	(%rbx), %rax
	.loc 1 596 176 discriminator 3 view .LVU2083
	movl	8(%rax), %esi
	.loc 1 596 168 discriminator 3 view .LVU2084
	testl	%esi, %esi
	je	.L387
	.loc 1 596 236 is_stmt 1 discriminator 6 view .LVU2085
	.loc 1 596 237 discriminator 6 view .LVU2086
	.loc 1 596 239 discriminator 6 view .LVU2087
	.loc 1 596 299 is_stmt 0 discriminator 6 view .LVU2088
	movq	(%rax), %rdi
	.loc 1 596 262 discriminator 6 view .LVU2089
	movl	32(%rbx), %edx
	.loc 1 596 324 discriminator 6 view .LVU2090
	addl	$8, %ecx
	.loc 1 596 367 discriminator 6 view .LVU2091
	subl	$1, %esi
	.loc 1 596 271 discriminator 6 view .LVU2092
	movzbl	(%rdi), %r9d
	.loc 1 596 262 discriminator 6 view .LVU2093
	sall	$8, %edx
	.loc 1 596 324 discriminator 6 view .LVU2094
	movl	%ecx, 36(%rbx)
	.loc 1 596 346 discriminator 6 view .LVU2095
	addq	$1, %rdi
	.loc 1 596 268 discriminator 6 view .LVU2096
	orl	%r9d, %edx
	movl	%edx, 32(%rbx)
	.loc 1 596 314 is_stmt 1 discriminator 6 view .LVU2097
	.loc 1 596 330 discriminator 6 view .LVU2098
	.loc 1 596 400 is_stmt 0 discriminator 6 view .LVU2099
	addl	$1, 12(%rax)
	.loc 1 596 346 discriminator 6 view .LVU2100
	movq	%rdi, (%rax)
	.loc 1 596 350 is_stmt 1 discriminator 6 view .LVU2101
	.loc 1 596 367 is_stmt 0 discriminator 6 view .LVU2102
	movl	%esi, 8(%rax)
	.loc 1 596 371 is_stmt 1 discriminator 6 view .LVU2103
	.loc 1 596 400 is_stmt 0 discriminator 6 view .LVU2104
	je	.L510
.L276:
	.loc 1 596 31 is_stmt 1 discriminator 1 view .LVU2105
	.loc 1 596 51 discriminator 1 view .LVU2106
	.loc 1 596 54 is_stmt 0 discriminator 1 view .LVU2107
	cmpl	$7, %ecx
	jle	.L274
.LBB178:
	.loc 1 596 73 is_stmt 1 discriminator 2 view .LVU2108
	.loc 1 596 83 discriminator 2 view .LVU2109
	.loc 1 596 98 is_stmt 0 discriminator 2 view .LVU2110
	movl	32(%rbx), %edx
	.loc 1 596 111 discriminator 2 view .LVU2111
	subl	$8, %ecx
.LBE178:
	.loc 1 597 32 discriminator 2 view .LVU2112
	movl	$-4, %eax
.LBB179:
	.loc 1 596 142 discriminator 2 view .LVU2113
	movl	%ecx, 36(%rbx)
	.loc 1 596 98 discriminator 2 view .LVU2114
	shrl	%cl, %edx
.LVL244:
	.loc 1 596 132 is_stmt 1 discriminator 2 view .LVU2115
	.loc 1 596 148 discriminator 2 view .LVU2116
	.loc 1 596 156 discriminator 2 view .LVU2117
.LBE179:
	.loc 1 596 457 discriminator 2 view .LVU2118
	.loc 1 597 7 discriminator 2 view .LVU2119
	.loc 1 597 10 is_stmt 0 discriminator 2 view .LVU2120
	cmpb	$80, %dl
	jne	.L51
	jmp	.L275
.LVL245:
	.p2align 4,,10
	.p2align 3
.L7:
	.loc 1 608 56 view .LVU2121
	movl	36(%rbx), %ecx
.LVL246:
.L283:
	.loc 1 604 16 is_stmt 1 view .LVU2122
	.loc 1 604 25 is_stmt 0 view .LVU2123
	movl	$48, 8(%rbx)
	jmp	.L288
	.p2align 4,,10
	.p2align 3
.L286:
	.loc 1 604 165 is_stmt 1 discriminator 3 view .LVU2124
	.loc 1 604 170 is_stmt 0 discriminator 3 view .LVU2125
	movq	(%rbx), %rax
	.loc 1 604 176 discriminator 3 view .LVU2126
	movl	8(%rax), %esi
	.loc 1 604 168 discriminator 3 view .LVU2127
	testl	%esi, %esi
	je	.L387
	.loc 1 604 236 is_stmt 1 discriminator 6 view .LVU2128
	.loc 1 604 237 discriminator 6 view .LVU2129
	.loc 1 604 239 discriminator 6 view .LVU2130
	.loc 1 604 299 is_stmt 0 discriminator 6 view .LVU2131
	movq	(%rax), %rdi
	.loc 1 604 262 discriminator 6 view .LVU2132
	movl	32(%rbx), %edx
	.loc 1 604 324 discriminator 6 view .LVU2133
	addl	$8, %ecx
	.loc 1 604 367 discriminator 6 view .LVU2134
	subl	$1, %esi
	.loc 1 604 271 discriminator 6 view .LVU2135
	movzbl	(%rdi), %r9d
	.loc 1 604 262 discriminator 6 view .LVU2136
	sall	$8, %edx
	.loc 1 604 324 discriminator 6 view .LVU2137
	movl	%ecx, 36(%rbx)
	.loc 1 604 346 discriminator 6 view .LVU2138
	addq	$1, %rdi
	.loc 1 604 268 discriminator 6 view .LVU2139
	orl	%r9d, %edx
	movl	%edx, 32(%rbx)
	.loc 1 604 314 is_stmt 1 discriminator 6 view .LVU2140
	.loc 1 604 330 discriminator 6 view .LVU2141
	.loc 1 604 400 is_stmt 0 discriminator 6 view .LVU2142
	addl	$1, 12(%rax)
	.loc 1 604 346 discriminator 6 view .LVU2143
	movq	%rdi, (%rax)
	.loc 1 604 350 is_stmt 1 discriminator 6 view .LVU2144
	.loc 1 604 367 is_stmt 0 discriminator 6 view .LVU2145
	movl	%esi, 8(%rax)
	.loc 1 604 371 is_stmt 1 discriminator 6 view .LVU2146
	.loc 1 604 400 is_stmt 0 discriminator 6 view .LVU2147
	je	.L511
.L288:
	.loc 1 604 31 is_stmt 1 discriminator 1 view .LVU2148
	.loc 1 604 51 discriminator 1 view .LVU2149
	.loc 1 604 54 is_stmt 0 discriminator 1 view .LVU2150
	cmpl	$7, %ecx
	jle	.L286
.LBB180:
	.loc 1 604 73 is_stmt 1 discriminator 2 view .LVU2151
	.loc 1 604 83 discriminator 2 view .LVU2152
	.loc 1 604 98 is_stmt 0 discriminator 2 view .LVU2153
	movl	32(%rbx), %edx
.LBE180:
	.loc 1 605 52 discriminator 2 view .LVU2154
	movl	3180(%rbx), %eax
.LBB181:
	.loc 1 604 111 discriminator 2 view .LVU2155
	subl	$8, %ecx
	.loc 1 604 142 discriminator 2 view .LVU2156
	movl	%ecx, 36(%rbx)
	.loc 1 604 98 discriminator 2 view .LVU2157
	shrl	%cl, %edx
.LBE181:
	.loc 1 605 52 discriminator 2 view .LVU2158
	sall	$8, %eax
.LBB182:
	.loc 1 604 85 discriminator 2 view .LVU2159
	movzbl	%dl, %edx
.LVL247:
	.loc 1 604 132 is_stmt 1 discriminator 2 view .LVU2160
	.loc 1 604 148 discriminator 2 view .LVU2161
	.loc 1 604 156 discriminator 2 view .LVU2162
.LBE182:
	.loc 1 604 457 discriminator 2 view .LVU2163
	.loc 1 605 7 discriminator 2 view .LVU2164
	.loc 1 605 58 is_stmt 0 discriminator 2 view .LVU2165
	orl	%edx, %eax
	movl	%eax, 3180(%rbx)
	jmp	.L287
.LVL248:
	.p2align 4,,10
	.p2align 3
.L8:
	.loc 1 608 56 view .LVU2166
	movl	36(%rbx), %ecx
.LVL249:
.L46:
	.loc 1 602 16 is_stmt 1 view .LVU2167
	.loc 1 602 25 is_stmt 0 view .LVU2168
	movl	$47, 8(%rbx)
	jmp	.L284
	.p2align 4,,10
	.p2align 3
.L282:
	.loc 1 602 165 is_stmt 1 discriminator 3 view .LVU2169
	.loc 1 602 170 is_stmt 0 discriminator 3 view .LVU2170
	movq	(%rbx), %rax
	.loc 1 602 176 discriminator 3 view .LVU2171
	movl	8(%rax), %esi
	.loc 1 602 168 discriminator 3 view .LVU2172
	testl	%esi, %esi
	je	.L387
	.loc 1 602 236 is_stmt 1 discriminator 6 view .LVU2173
	.loc 1 602 237 discriminator 6 view .LVU2174
	.loc 1 602 239 discriminator 6 view .LVU2175
	.loc 1 602 299 is_stmt 0 discriminator 6 view .LVU2176
	movq	(%rax), %rdi
	.loc 1 602 262 discriminator 6 view .LVU2177
	movl	32(%rbx), %edx
	.loc 1 602 324 discriminator 6 view .LVU2178
	addl	$8, %ecx
	.loc 1 602 367 discriminator 6 view .LVU2179
	subl	$1, %esi
	.loc 1 602 271 discriminator 6 view .LVU2180
	movzbl	(%rdi), %r9d
	.loc 1 602 262 discriminator 6 view .LVU2181
	sall	$8, %edx
	.loc 1 602 324 discriminator 6 view .LVU2182
	movl	%ecx, 36(%rbx)
	.loc 1 602 346 discriminator 6 view .LVU2183
	addq	$1, %rdi
	.loc 1 602 268 discriminator 6 view .LVU2184
	orl	%r9d, %edx
	movl	%edx, 32(%rbx)
	.loc 1 602 314 is_stmt 1 discriminator 6 view .LVU2185
	.loc 1 602 330 discriminator 6 view .LVU2186
	.loc 1 602 400 is_stmt 0 discriminator 6 view .LVU2187
	addl	$1, 12(%rax)
	.loc 1 602 346 discriminator 6 view .LVU2188
	movq	%rdi, (%rax)
	.loc 1 602 350 is_stmt 1 discriminator 6 view .LVU2189
	.loc 1 602 367 is_stmt 0 discriminator 6 view .LVU2190
	movl	%esi, 8(%rax)
	.loc 1 602 371 is_stmt 1 discriminator 6 view .LVU2191
	.loc 1 602 400 is_stmt 0 discriminator 6 view .LVU2192
	je	.L512
.L284:
	.loc 1 602 31 is_stmt 1 discriminator 1 view .LVU2193
	.loc 1 602 51 discriminator 1 view .LVU2194
	.loc 1 602 54 is_stmt 0 discriminator 1 view .LVU2195
	cmpl	$7, %ecx
	jle	.L282
.LBB183:
	.loc 1 602 73 is_stmt 1 discriminator 2 view .LVU2196
	.loc 1 602 83 discriminator 2 view .LVU2197
	.loc 1 602 98 is_stmt 0 discriminator 2 view .LVU2198
	movl	32(%rbx), %edx
.LBE183:
	.loc 1 603 52 discriminator 2 view .LVU2199
	movl	3180(%rbx), %eax
.LBB184:
	.loc 1 602 111 discriminator 2 view .LVU2200
	subl	$8, %ecx
	.loc 1 602 142 discriminator 2 view .LVU2201
	movl	%ecx, 36(%rbx)
	.loc 1 602 98 discriminator 2 view .LVU2202
	shrl	%cl, %edx
.LBE184:
	.loc 1 603 52 discriminator 2 view .LVU2203
	sall	$8, %eax
.LBB185:
	.loc 1 602 85 discriminator 2 view .LVU2204
	movzbl	%dl, %edx
.LVL250:
	.loc 1 602 132 is_stmt 1 discriminator 2 view .LVU2205
	.loc 1 602 148 discriminator 2 view .LVU2206
	.loc 1 602 156 discriminator 2 view .LVU2207
.LBE185:
	.loc 1 602 457 discriminator 2 view .LVU2208
	.loc 1 603 7 discriminator 2 view .LVU2209
	.loc 1 603 58 is_stmt 0 discriminator 2 view .LVU2210
	orl	%edx, %eax
	movl	%eax, 3180(%rbx)
	jmp	.L283
.LVL251:
	.p2align 4,,10
	.p2align 3
.L30:
	.loc 1 608 56 view .LVU2211
	movl	36(%rbx), %ecx
.LVL252:
.L111:
	.loc 1 254 16 is_stmt 1 view .LVU2212
	.loc 1 254 25 is_stmt 0 view .LVU2213
	movl	$25, 8(%rbx)
	jmp	.L116
	.p2align 4,,10
	.p2align 3
.L114:
	.loc 1 254 165 is_stmt 1 discriminator 3 view .LVU2214
	.loc 1 254 170 is_stmt 0 discriminator 3 view .LVU2215
	movq	(%rbx), %rax
	.loc 1 254 176 discriminator 3 view .LVU2216
	movl	8(%rax), %esi
	.loc 1 254 168 discriminator 3 view .LVU2217
	testl	%esi, %esi
	je	.L387
	.loc 1 254 236 is_stmt 1 discriminator 6 view .LVU2218
	.loc 1 254 237 discriminator 6 view .LVU2219
	.loc 1 254 239 discriminator 6 view .LVU2220
	.loc 1 254 299 is_stmt 0 discriminator 6 view .LVU2221
	movq	(%rax), %rdi
	.loc 1 254 262 discriminator 6 view .LVU2222
	movl	32(%rbx), %edx
	.loc 1 254 324 discriminator 6 view .LVU2223
	addl	$8, %ecx
	.loc 1 254 367 discriminator 6 view .LVU2224
	subl	$1, %esi
	.loc 1 254 271 discriminator 6 view .LVU2225
	movzbl	(%rdi), %r9d
	.loc 1 254 262 discriminator 6 view .LVU2226
	sall	$8, %edx
	.loc 1 254 324 discriminator 6 view .LVU2227
	movl	%ecx, 36(%rbx)
	.loc 1 254 346 discriminator 6 view .LVU2228
	addq	$1, %rdi
	.loc 1 254 268 discriminator 6 view .LVU2229
	orl	%r9d, %edx
	movl	%edx, 32(%rbx)
	.loc 1 254 314 is_stmt 1 discriminator 6 view .LVU2230
	.loc 1 254 330 discriminator 6 view .LVU2231
	.loc 1 254 400 is_stmt 0 discriminator 6 view .LVU2232
	addl	$1, 12(%rax)
	.loc 1 254 346 discriminator 6 view .LVU2233
	movq	%rdi, (%rax)
	.loc 1 254 350 is_stmt 1 discriminator 6 view .LVU2234
	.loc 1 254 367 is_stmt 0 discriminator 6 view .LVU2235
	movl	%esi, 8(%rax)
	.loc 1 254 371 is_stmt 1 discriminator 6 view .LVU2236
	.loc 1 254 400 is_stmt 0 discriminator 6 view .LVU2237
	je	.L513
.L116:
	.loc 1 254 31 is_stmt 1 discriminator 1 view .LVU2238
	.loc 1 254 51 discriminator 1 view .LVU2239
	.loc 1 254 54 is_stmt 0 discriminator 1 view .LVU2240
	cmpl	$7, %ecx
	jle	.L114
.LBB186:
	.loc 1 254 73 is_stmt 1 discriminator 2 view .LVU2241
	.loc 1 254 83 discriminator 2 view .LVU2242
	.loc 1 254 98 is_stmt 0 discriminator 2 view .LVU2243
	movl	32(%rbx), %edx
.LBE186:
	.loc 1 255 32 discriminator 2 view .LVU2244
	movl	56(%rbx), %eax
.LBB187:
	.loc 1 254 111 discriminator 2 view .LVU2245
	subl	$8, %ecx
	.loc 1 254 142 discriminator 2 view .LVU2246
	movl	%ecx, 36(%rbx)
	.loc 1 254 98 discriminator 2 view .LVU2247
	shrl	%cl, %edx
.LBE187:
	.loc 1 255 32 discriminator 2 view .LVU2248
	sall	$8, %eax
.LBB188:
	.loc 1 254 85 discriminator 2 view .LVU2249
	movzbl	%dl, %edx
.LVL253:
	.loc 1 254 132 is_stmt 1 discriminator 2 view .LVU2250
	.loc 1 254 148 discriminator 2 view .LVU2251
	.loc 1 254 156 discriminator 2 view .LVU2252
.LBE188:
	.loc 1 254 457 discriminator 2 view .LVU2253
	.loc 1 255 7 discriminator 2 view .LVU2254
	.loc 1 255 38 is_stmt 0 discriminator 2 view .LVU2255
	orl	%edx, %eax
	movl	%eax, 56(%rbx)
	jmp	.L115
.LVL254:
	.p2align 4,,10
	.p2align 3
.L31:
	.loc 1 608 56 view .LVU2256
	movl	36(%rbx), %ecx
.LVL255:
.L107:
	.loc 1 251 16 is_stmt 1 view .LVU2257
	.loc 1 251 25 is_stmt 0 view .LVU2258
	movl	$24, 8(%rbx)
	jmp	.L112
	.p2align 4,,10
	.p2align 3
.L110:
	.loc 1 251 181 is_stmt 1 discriminator 3 view .LVU2259
	.loc 1 251 186 is_stmt 0 discriminator 3 view .LVU2260
	movq	(%rbx), %rax
	.loc 1 251 192 discriminator 3 view .LVU2261
	movl	8(%rax), %esi
	.loc 1 251 184 discriminator 3 view .LVU2262
	testl	%esi, %esi
	je	.L387
	.loc 1 251 252 is_stmt 1 discriminator 6 view .LVU2263
	.loc 1 251 253 discriminator 6 view .LVU2264
	.loc 1 251 255 discriminator 6 view .LVU2265
	.loc 1 251 315 is_stmt 0 discriminator 6 view .LVU2266
	movq	(%rax), %rdi
	.loc 1 251 278 discriminator 6 view .LVU2267
	movl	32(%rbx), %edx
	.loc 1 251 340 discriminator 6 view .LVU2268
	addl	$8, %ecx
	.loc 1 251 383 discriminator 6 view .LVU2269
	subl	$1, %esi
	.loc 1 251 287 discriminator 6 view .LVU2270
	movzbl	(%rdi), %r9d
	.loc 1 251 278 discriminator 6 view .LVU2271
	sall	$8, %edx
	.loc 1 251 340 discriminator 6 view .LVU2272
	movl	%ecx, 36(%rbx)
	.loc 1 251 362 discriminator 6 view .LVU2273
	addq	$1, %rdi
	.loc 1 251 284 discriminator 6 view .LVU2274
	orl	%r9d, %edx
	movl	%edx, 32(%rbx)
	.loc 1 251 330 is_stmt 1 discriminator 6 view .LVU2275
	.loc 1 251 346 discriminator 6 view .LVU2276
	.loc 1 251 416 is_stmt 0 discriminator 6 view .LVU2277
	addl	$1, 12(%rax)
	.loc 1 251 362 discriminator 6 view .LVU2278
	movq	%rdi, (%rax)
	.loc 1 251 366 is_stmt 1 discriminator 6 view .LVU2279
	.loc 1 251 383 is_stmt 0 discriminator 6 view .LVU2280
	movl	%esi, 8(%rax)
	.loc 1 251 387 is_stmt 1 discriminator 6 view .LVU2281
	.loc 1 251 416 is_stmt 0 discriminator 6 view .LVU2282
	je	.L514
.L112:
	.loc 1 251 31 is_stmt 1 discriminator 1 view .LVU2283
	.loc 1 251 51 discriminator 1 view .LVU2284
	.loc 1 251 54 is_stmt 0 discriminator 1 view .LVU2285
	testl	%ecx, %ecx
	jle	.L110
.LBB189:
	.loc 1 251 73 is_stmt 1 discriminator 2 view .LVU2286
	.loc 1 251 83 discriminator 2 view .LVU2287
	.loc 1 251 98 is_stmt 0 discriminator 2 view .LVU2288
	movl	32(%rbx), %eax
	.loc 1 251 111 discriminator 2 view .LVU2289
	subl	$1, %ecx
.LBE189:
	.loc 1 253 18 discriminator 2 view .LVU2290
	movl	$0, 56(%rbx)
.LBB190:
	.loc 1 251 142 discriminator 2 view .LVU2291
	movl	%ecx, 36(%rbx)
	.loc 1 251 98 discriminator 2 view .LVU2292
	shrl	%cl, %eax
	.loc 1 251 85 discriminator 2 view .LVU2293
	andl	$1, %eax
.LVL256:
	.loc 1 251 132 is_stmt 1 discriminator 2 view .LVU2294
	.loc 1 251 148 discriminator 2 view .LVU2295
	.loc 1 251 167 is_stmt 0 discriminator 2 view .LVU2296
	movb	%al, 20(%rbx)
	.loc 1 251 172 is_stmt 1 discriminator 2 view .LVU2297
.LBE190:
	.loc 1 251 473 discriminator 2 view .LVU2298
	.loc 1 253 7 discriminator 2 view .LVU2299
	jmp	.L111
.LVL257:
	.p2align 4,,10
	.p2align 3
.L42:
	.loc 1 608 56 is_stmt 0 view .LVU2300
	movl	36(%rbx), %ecx
.LVL258:
.L59:
	.loc 1 204 69 is_stmt 1 discriminator 2 view .LVU2301
	.loc 1 204 70 discriminator 2 view .LVU2302
	.loc 1 206 16 discriminator 2 view .LVU2303
	.loc 1 206 25 is_stmt 0 discriminator 2 view .LVU2304
	movl	$13, 8(%rbx)
	jmp	.L64
	.p2align 4,,10
	.p2align 3
.L62:
	.loc 1 206 179 is_stmt 1 discriminator 3 view .LVU2305
	.loc 1 206 190 is_stmt 0 discriminator 3 view .LVU2306
	movl	8(%r15), %edx
	.loc 1 206 182 discriminator 3 view .LVU2307
	testl	%edx, %edx
	je	.L387
	.loc 1 206 250 is_stmt 1 discriminator 5 view .LVU2308
	.loc 1 206 251 discriminator 5 view .LVU2309
	.loc 1 206 253 discriminator 5 view .LVU2310
	.loc 1 206 313 is_stmt 0 discriminator 5 view .LVU2311
	movq	(%r15), %rsi
	.loc 1 206 276 discriminator 5 view .LVU2312
	movl	32(%rbx), %eax
	.loc 1 206 338 discriminator 5 view .LVU2313
	addl	$8, %ecx
	.loc 1 206 381 discriminator 5 view .LVU2314
	subl	$1, %edx
	.loc 1 206 285 discriminator 5 view .LVU2315
	movzbl	(%rsi), %edi
	.loc 1 206 276 discriminator 5 view .LVU2316
	sall	$8, %eax
	.loc 1 206 338 discriminator 5 view .LVU2317
	movl	%ecx, 36(%rbx)
	.loc 1 206 360 discriminator 5 view .LVU2318
	addq	$1, %rsi
	.loc 1 206 282 discriminator 5 view .LVU2319
	orl	%edi, %eax
	movl	%eax, 32(%rbx)
	.loc 1 206 328 is_stmt 1 discriminator 5 view .LVU2320
	.loc 1 206 344 discriminator 5 view .LVU2321
	.loc 1 206 407 is_stmt 0 discriminator 5 view .LVU2322
	addl	$1, 12(%r15)
	.loc 1 206 360 discriminator 5 view .LVU2323
	movq	%rsi, (%r15)
	.loc 1 206 364 is_stmt 1 discriminator 5 view .LVU2324
	.loc 1 206 381 is_stmt 0 discriminator 5 view .LVU2325
	movl	%edx, 8(%r15)
	.loc 1 206 385 is_stmt 1 discriminator 5 view .LVU2326
	.loc 1 206 411 discriminator 5 view .LVU2327
	.loc 1 206 414 is_stmt 0 discriminator 5 view .LVU2328
	je	.L515
.L64:
	.loc 1 206 31 is_stmt 1 discriminator 1 view .LVU2329
	.loc 1 206 51 discriminator 1 view .LVU2330
	.loc 1 206 54 is_stmt 0 discriminator 1 view .LVU2331
	cmpl	$7, %ecx
	jle	.L62
.LBB191:
	.loc 1 206 73 is_stmt 1 discriminator 2 view .LVU2332
	.loc 1 206 83 discriminator 2 view .LVU2333
	.loc 1 206 98 is_stmt 0 discriminator 2 view .LVU2334
	movl	32(%rbx), %eax
	.loc 1 206 111 discriminator 2 view .LVU2335
	subl	$8, %ecx
	.loc 1 206 142 discriminator 2 view .LVU2336
	movl	%ecx, 36(%rbx)
	.loc 1 206 98 discriminator 2 view .LVU2337
	shrl	%cl, %eax
	.loc 1 206 85 discriminator 2 view .LVU2338
	movzbl	%al, %eax
.LVL259:
	.loc 1 206 132 is_stmt 1 discriminator 2 view .LVU2339
	.loc 1 206 148 discriminator 2 view .LVU2340
	.loc 1 206 170 discriminator 2 view .LVU2341
.LBE191:
	.loc 1 207 7 discriminator 2 view .LVU2342
	.loc 1 207 41 is_stmt 0 discriminator 2 view .LVU2343
	leal	-49(%rax), %edx
	.loc 1 207 10 discriminator 2 view .LVU2344
	cmpl	$8, %edx
	ja	.L516
	.loc 1 208 88 is_stmt 1 view .LVU2345
	.loc 1 208 89 view .LVU2346
	.loc 1 209 7 view .LVU2347
	.loc 1 209 24 is_stmt 0 view .LVU2348
	subl	$48, %eax
.LVL260:
	.loc 1 212 25 view .LVU2349
	movq	56(%r15), %rcx
	movq	72(%r15), %rdi
	movl	%r10d, 104(%rsp)
	.loc 1 209 24 view .LVU2350
	movl	%eax, 40(%rbx)
	.loc 1 211 7 is_stmt 1 view .LVU2351
	.loc 1 212 67 is_stmt 0 view .LVU2352
	imull	$100000, %eax, %eax
.LVL261:
	.loc 1 211 10 view .LVU2353
	cmpb	$0, 44(%rbx)
	movl	%r11d, 112(%rsp)
	movl	%r8d, 96(%rsp)
	je	.L66
	.loc 1 212 10 is_stmt 1 view .LVU2354
	.loc 1 212 25 is_stmt 0 view .LVU2355
	leal	(%rax,%rax), %esi
	movl	$1, %edx
	call	*%rcx
.LVL262:
	.loc 1 213 72 view .LVU2356
	imull	$100000, 40(%rbx), %esi
	.loc 1 213 24 view .LVU2357
	movq	72(%r15), %rdi
	movl	$1, %edx
	.loc 1 212 18 view .LVU2358
	movq	%rax, 3160(%rbx)
	.loc 1 213 10 is_stmt 1 view .LVU2359
	.loc 1 213 24 is_stmt 0 view .LVU2360
	sarl	%esi
	call	*56(%r15)
.LVL263:
	.loc 1 216 29 view .LVU2361
	movl	96(%rsp), %r8d
	movl	112(%rsp), %r11d
	cmpq	$0, 3160(%rbx)
	.loc 1 213 17 view .LVU2362
	movq	%rax, 3168(%rbx)
	.loc 1 216 10 is_stmt 1 view .LVU2363
	.loc 1 216 29 is_stmt 0 view .LVU2364
	movl	104(%rsp), %r10d
	je	.L306
	testq	%rax, %rax
	jne	.L41
.L306:
	.loc 1 219 37 view .LVU2365
	movl	$-3, %eax
	jmp	.L51
.LVL264:
	.p2align 4,,10
	.p2align 3
.L13:
	.loc 1 608 56 view .LVU2366
	movl	36(%rbx), %ecx
.LVL265:
.L69:
.LDL1:
	.loc 1 584 50 is_stmt 1 view .LVU2367
	.loc 1 584 51 view .LVU2368
	.loc 1 590 16 view .LVU2369
	.loc 1 590 25 is_stmt 0 view .LVU2370
	movl	$42, 8(%rbx)
	jmp	.L264
	.p2align 4,,10
	.p2align 3
.L262:
	.loc 1 590 165 is_stmt 1 discriminator 3 view .LVU2371
	.loc 1 590 170 is_stmt 0 discriminator 3 view .LVU2372
	movq	(%rbx), %rax
	.loc 1 590 176 discriminator 3 view .LVU2373
	movl	8(%rax), %esi
	.loc 1 590 168 discriminator 3 view .LVU2374
	testl	%esi, %esi
	je	.L387
	.loc 1 590 236 is_stmt 1 discriminator 6 view .LVU2375
	.loc 1 590 237 discriminator 6 view .LVU2376
	.loc 1 590 239 discriminator 6 view .LVU2377
	.loc 1 590 299 is_stmt 0 discriminator 6 view .LVU2378
	movq	(%rax), %rdi
	.loc 1 590 262 discriminator 6 view .LVU2379
	movl	32(%rbx), %edx
	.loc 1 590 324 discriminator 6 view .LVU2380
	addl	$8, %ecx
	.loc 1 590 367 discriminator 6 view .LVU2381
	subl	$1, %esi
	.loc 1 590 271 discriminator 6 view .LVU2382
	movzbl	(%rdi), %r9d
	.loc 1 590 262 discriminator 6 view .LVU2383
	sall	$8, %edx
	.loc 1 590 324 discriminator 6 view .LVU2384
	movl	%ecx, 36(%rbx)
	.loc 1 590 346 discriminator 6 view .LVU2385
	addq	$1, %rdi
	.loc 1 590 268 discriminator 6 view .LVU2386
	orl	%r9d, %edx
	movl	%edx, 32(%rbx)
	.loc 1 590 314 is_stmt 1 discriminator 6 view .LVU2387
	.loc 1 590 330 discriminator 6 view .LVU2388
	.loc 1 590 400 is_stmt 0 discriminator 6 view .LVU2389
	addl	$1, 12(%rax)
	.loc 1 590 346 discriminator 6 view .LVU2390
	movq	%rdi, (%rax)
	.loc 1 590 350 is_stmt 1 discriminator 6 view .LVU2391
	.loc 1 590 367 is_stmt 0 discriminator 6 view .LVU2392
	movl	%esi, 8(%rax)
	.loc 1 590 371 is_stmt 1 discriminator 6 view .LVU2393
	.loc 1 590 400 is_stmt 0 discriminator 6 view .LVU2394
	je	.L517
.L264:
	.loc 1 590 31 is_stmt 1 discriminator 1 view .LVU2395
	.loc 1 590 51 discriminator 1 view .LVU2396
	.loc 1 590 54 is_stmt 0 discriminator 1 view .LVU2397
	cmpl	$7, %ecx
	jle	.L262
.LBB192:
	.loc 1 590 73 is_stmt 1 discriminator 2 view .LVU2398
	.loc 1 590 83 discriminator 2 view .LVU2399
	.loc 1 590 98 is_stmt 0 discriminator 2 view .LVU2400
	movl	32(%rbx), %edx
	.loc 1 590 111 discriminator 2 view .LVU2401
	subl	$8, %ecx
.LBE192:
	.loc 1 591 32 discriminator 2 view .LVU2402
	movl	$-4, %eax
.LBB193:
	.loc 1 590 142 discriminator 2 view .LVU2403
	movl	%ecx, 36(%rbx)
	.loc 1 590 98 discriminator 2 view .LVU2404
	shrl	%cl, %edx
.LVL266:
	.loc 1 590 132 is_stmt 1 discriminator 2 view .LVU2405
	.loc 1 590 148 discriminator 2 view .LVU2406
	.loc 1 590 156 discriminator 2 view .LVU2407
.LBE193:
	.loc 1 590 457 discriminator 2 view .LVU2408
	.loc 1 591 7 discriminator 2 view .LVU2409
	.loc 1 591 10 is_stmt 0 discriminator 2 view .LVU2410
	cmpb	$114, %dl
	jne	.L51
	jmp	.L263
.LVL267:
	.p2align 4,,10
	.p2align 3
.L387:
	.loc 1 608 202 view .LVU2411
	xorl	%eax, %eax
	jmp	.L51
.LVL268:
	.p2align 4,,10
	.p2align 3
.L484:
	.loc 1 268 433 is_stmt 1 discriminator 7 view .LVU2412
	.loc 1 268 455 is_stmt 0 discriminator 7 view .LVU2413
	addl	$1, 16(%rax)
	jmp	.L129
.LVL269:
	.p2align 4,,10
	.p2align 3
.L505:
	.loc 1 294 436 is_stmt 1 discriminator 7 view .LVU2414
	.loc 1 294 458 is_stmt 0 discriminator 7 view .LVU2415
	addl	$1, 16(%rax)
	jmp	.L152
.LVL270:
.L3:
	.loc 1 614 36 discriminator 1 view .LVU2416
	movl	$4001, %edi
.LVL271:
	.loc 1 614 36 discriminator 1 view .LVU2417
	movl	%r10d, 104(%rsp)
	movl	%r11d, 112(%rsp)
	movl	%r8d, 96(%rsp)
	.loc 1 612 50 is_stmt 1 discriminator 1 view .LVU2418
	.loc 1 612 51 discriminator 1 view .LVU2419
	.loc 1 614 18 discriminator 1 view .LVU2420
	.loc 1 614 36 discriminator 1 view .LVU2421
	call	BZ2_bz__AssertH__fail@PLT
.LVL272:
	.loc 1 614 69 discriminator 1 view .LVU2422
	.loc 1 617 6 discriminator 1 view .LVU2423
	.loc 1 617 24 discriminator 1 view .LVU2424
	movl	$4002, %edi
	call	BZ2_bz__AssertH__fail@PLT
.LVL273:
	movl	96(%rsp), %r8d
	movl	112(%rsp), %r11d
	.loc 1 193 11 is_stmt 0 discriminator 1 view .LVU2425
	xorl	%eax, %eax
	movl	104(%rsp), %r10d
	jmp	.L51
.LVL274:
	.p2align 4,,10
	.p2align 3
.L483:
	.loc 1 258 430 is_stmt 1 discriminator 7 view .LVU2426
	.loc 1 258 452 is_stmt 0 discriminator 7 view .LVU2427
	addl	$1, 16(%rax)
	jmp	.L124
	.p2align 4,,10
	.p2align 3
.L498:
	.loc 1 256 430 is_stmt 1 discriminator 7 view .LVU2428
	.loc 1 256 452 is_stmt 0 discriminator 7 view .LVU2429
	addl	$1, 16(%rax)
	jmp	.L120
	.p2align 4,,10
	.p2align 3
.L513:
	.loc 1 254 430 is_stmt 1 discriminator 7 view .LVU2430
	.loc 1 254 452 is_stmt 0 discriminator 7 view .LVU2431
	addl	$1, 16(%rax)
	jmp	.L116
	.p2align 4,,10
	.p2align 3
.L514:
	.loc 1 251 446 is_stmt 1 discriminator 7 view .LVU2432
	.loc 1 251 468 is_stmt 0 discriminator 7 view .LVU2433
	addl	$1, 16(%rax)
	jmp	.L112
.LVL275:
	.p2align 4,,10
	.p2align 3
.L485:
	.loc 1 279 439 is_stmt 1 discriminator 7 view .LVU2434
	.loc 1 279 461 is_stmt 0 discriminator 7 view .LVU2435
	addl	$1, 16(%rax)
	jmp	.L135
.LVL276:
	.p2align 4,,10
	.p2align 3
.L489:
	.loc 1 248 430 is_stmt 1 discriminator 7 view .LVU2436
	.loc 1 248 452 is_stmt 0 discriminator 7 view .LVU2437
	addl	$1, 16(%rax)
	jmp	.L108
	.p2align 4,,10
	.p2align 3
.L503:
	.loc 1 608 430 is_stmt 1 discriminator 7 view .LVU2438
	.loc 1 608 452 is_stmt 0 discriminator 7 view .LVU2439
	addl	$1, 16(%rax)
	jmp	.L295
	.p2align 4,,10
	.p2align 3
.L492:
	.loc 1 246 430 is_stmt 1 discriminator 7 view .LVU2440
	.loc 1 246 452 is_stmt 0 discriminator 7 view .LVU2441
	addl	$1, 16(%rax)
	jmp	.L104
	.p2align 4,,10
	.p2align 3
.L504:
	.loc 1 606 430 is_stmt 1 discriminator 7 view .LVU2442
	.loc 1 606 452 is_stmt 0 discriminator 7 view .LVU2443
	addl	$1, 16(%rax)
	jmp	.L292
	.p2align 4,,10
	.p2align 3
.L511:
	.loc 1 604 430 is_stmt 1 discriminator 7 view .LVU2444
	.loc 1 604 452 is_stmt 0 discriminator 7 view .LVU2445
	addl	$1, 16(%rax)
	jmp	.L288
	.p2align 4,,10
	.p2align 3
.L493:
	.loc 1 244 430 is_stmt 1 discriminator 7 view .LVU2446
	.loc 1 244 452 is_stmt 0 discriminator 7 view .LVU2447
	addl	$1, 16(%rax)
	jmp	.L100
	.p2align 4,,10
	.p2align 3
.L490:
	.loc 1 242 430 is_stmt 1 discriminator 7 view .LVU2448
	.loc 1 242 452 is_stmt 0 discriminator 7 view .LVU2449
	addl	$1, 16(%rax)
	jmp	.L96
	.p2align 4,,10
	.p2align 3
.L491:
	.loc 1 234 430 is_stmt 1 discriminator 7 view .LVU2450
	.loc 1 234 452 is_stmt 0 discriminator 7 view .LVU2451
	addl	$1, 16(%rax)
	jmp	.L91
	.p2align 4,,10
	.p2align 3
.L494:
	.loc 1 232 430 is_stmt 1 discriminator 7 view .LVU2452
	.loc 1 232 452 is_stmt 0 discriminator 7 view .LVU2453
	addl	$1, 16(%rax)
	jmp	.L87
	.p2align 4,,10
	.p2align 3
.L509:
	.loc 1 598 430 is_stmt 1 discriminator 7 view .LVU2454
	.loc 1 598 452 is_stmt 0 discriminator 7 view .LVU2455
	addl	$1, 16(%rax)
	jmp	.L280
	.p2align 4,,10
	.p2align 3
.L510:
	.loc 1 596 430 is_stmt 1 discriminator 7 view .LVU2456
	.loc 1 596 452 is_stmt 0 discriminator 7 view .LVU2457
	addl	$1, 16(%rax)
	jmp	.L276
	.p2align 4,,10
	.p2align 3
.L512:
	.loc 1 602 430 is_stmt 1 discriminator 7 view .LVU2458
	.loc 1 602 452 is_stmt 0 discriminator 7 view .LVU2459
	addl	$1, 16(%rax)
	jmp	.L284
.LVL277:
	.p2align 4,,10
	.p2align 3
.L508:
	.loc 1 289 442 is_stmt 1 discriminator 7 view .LVU2460
	.loc 1 289 464 is_stmt 0 discriminator 7 view .LVU2461
	addl	$1, 16(%rax)
	jmp	.L147
.LVL278:
	.p2align 4,,10
	.p2align 3
.L499:
	.loc 1 594 430 is_stmt 1 discriminator 7 view .LVU2462
	.loc 1 594 452 is_stmt 0 discriminator 7 view .LVU2463
	addl	$1, 16(%rax)
	jmp	.L272
	.p2align 4,,10
	.p2align 3
.L515:
	.loc 1 206 444 is_stmt 1 discriminator 6 view .LVU2464
	.loc 1 206 466 is_stmt 0 discriminator 6 view .LVU2465
	addl	$1, 16(%r15)
	jmp	.L64
	.p2align 4,,10
	.p2align 3
.L495:
	.loc 1 230 430 is_stmt 1 discriminator 7 view .LVU2466
	.loc 1 230 452 is_stmt 0 discriminator 7 view .LVU2467
	addl	$1, 16(%rax)
	jmp	.L83
	.p2align 4,,10
	.p2align 3
.L472:
	.loc 1 222 430 is_stmt 1 discriminator 7 view .LVU2468
	.loc 1 222 452 is_stmt 0 discriminator 7 view .LVU2469
	addl	$1, 16(%rax)
	jmp	.L71
	.p2align 4,,10
	.p2align 3
.L501:
	.loc 1 203 430 is_stmt 1 discriminator 6 view .LVU2470
	.loc 1 203 452 is_stmt 0 discriminator 6 view .LVU2471
	addl	$1, 16(%r15)
	jmp	.L60
	.p2align 4,,10
	.p2align 3
.L496:
	.loc 1 228 430 is_stmt 1 discriminator 7 view .LVU2472
	.loc 1 228 452 is_stmt 0 discriminator 7 view .LVU2473
	addl	$1, 16(%rax)
	jmp	.L79
.LVL279:
	.p2align 4,,10
	.p2align 3
.L473:
	.loc 1 330 439 is_stmt 1 discriminator 7 view .LVU2474
	.loc 1 330 461 is_stmt 0 discriminator 7 view .LVU2475
	addl	$1, 16(%rdx)
	jmp	.L177
.LVL280:
	.p2align 4,,10
	.p2align 3
.L500:
	.loc 1 592 430 is_stmt 1 discriminator 7 view .LVU2476
	.loc 1 592 452 is_stmt 0 discriminator 7 view .LVU2477
	addl	$1, 16(%rax)
	jmp	.L268
	.p2align 4,,10
	.p2align 3
.L497:
	.loc 1 226 430 is_stmt 1 discriminator 7 view .LVU2478
	.loc 1 226 452 is_stmt 0 discriminator 7 view .LVU2479
	addl	$1, 16(%rax)
	jmp	.L75
	.p2align 4,,10
	.p2align 3
.L502:
	.loc 1 200 430 is_stmt 1 discriminator 7 view .LVU2480
	.loc 1 200 452 is_stmt 0 discriminator 7 view .LVU2481
	addl	$1, 16(%r15)
	jmp	.L56
.LVL281:
	.p2align 4,,10
	.p2align 3
.L474:
	.loc 1 328 439 is_stmt 1 discriminator 7 view .LVU2482
	.loc 1 328 461 is_stmt 0 discriminator 7 view .LVU2483
	addl	$1, 16(%rdx)
	jmp	.L172
.LVL282:
	.p2align 4,,10
	.p2align 3
.L476:
	.loc 1 379 1299 is_stmt 1 discriminator 27 view .LVU2484
	.loc 1 379 1321 is_stmt 0 discriminator 27 view .LVU2485
	addl	$1, 16(%rdx)
	jmp	.L194
.LVL283:
	.p2align 4,,10
	.p2align 3
.L480:
	.loc 1 400 1308 is_stmt 1 discriminator 27 view .LVU2486
	.loc 1 400 1330 is_stmt 0 discriminator 27 view .LVU2487
	addl	$1, 16(%rdx)
	jmp	.L208
.LVL284:
	.p2align 4,,10
	.p2align 3
.L478:
	.loc 1 489 1305 is_stmt 1 discriminator 27 view .LVU2488
	.loc 1 489 1327 is_stmt 0 discriminator 27 view .LVU2489
	addl	$1, 16(%rdx)
	jmp	.L238
.LVL285:
	.p2align 4,,10
	.p2align 3
.L517:
	.loc 1 590 430 is_stmt 1 discriminator 7 view .LVU2490
	.loc 1 590 452 is_stmt 0 discriminator 7 view .LVU2491
	addl	$1, 16(%rax)
	jmp	.L264
.LVL286:
	.p2align 4,,10
	.p2align 3
.L482:
	.loc 1 324 435 is_stmt 1 discriminator 7 view .LVU2492
	.loc 1 324 457 is_stmt 0 discriminator 7 view .LVU2493
	addl	$1, 16(%rax)
	jmp	.L167
.LVL287:
	.p2align 4,,10
	.p2align 3
.L475:
	.loc 1 379 735 is_stmt 1 discriminator 13 view .LVU2494
	.loc 1 379 757 is_stmt 0 discriminator 13 view .LVU2495
	addl	$1, 16(%rdx)
	jmp	.L190
.LVL288:
	.p2align 4,,10
	.p2align 3
.L299:
	.loc 1 379 757 discriminator 13 view .LVU2496
	movl	$0, 92(%rsp)
	xorl	%r13d, %r13d
	xorl	%r12d, %r12d
	xorl	%ebp, %ebp
	movl	$0, 76(%rsp)
	xorl	%r10d, %r10d
	xorl	%r11d, %r11d
	.loc 1 197 202 view .LVU2497
	xorl	%eax, %eax
	movq	$0, 48(%rsp)
	xorl	%r14d, %r14d
	xorl	%r8d, %r8d
	movq	$0, 32(%rsp)
	movq	$0, 16(%rsp)
	movl	$0, 88(%rsp)
	movl	$0, 12(%rsp)
	movl	$0, 80(%rsp)
	movl	$0, 68(%rsp)
	movl	$0, 28(%rsp)
	movl	$0, 72(%rsp)
	movl	$0, 44(%rsp)
	movl	$0, 64(%rsp)
	movl	$0, 56(%rsp)
	movl	$0, 84(%rsp)
	movl	$0, 24(%rsp)
	movl	$0, 40(%rsp)
	jmp	.L51
.LVL289:
	.p2align 4,,10
	.p2align 3
.L487:
	.loc 1 489 741 is_stmt 1 discriminator 13 view .LVU2498
	.loc 1 489 763 is_stmt 0 discriminator 13 view .LVU2499
	addl	$1, 16(%rdx)
	jmp	.L234
.LVL290:
	.p2align 4,,10
	.p2align 3
.L488:
	.loc 1 400 744 is_stmt 1 discriminator 13 view .LVU2500
	.loc 1 400 766 is_stmt 0 discriminator 13 view .LVU2501
	addl	$1, 16(%rdx)
	jmp	.L204
.LVL291:
	.p2align 4,,10
	.p2align 3
.L486:
	.loc 1 287 435 is_stmt 1 discriminator 7 view .LVU2502
	.loc 1 287 457 is_stmt 0 discriminator 7 view .LVU2503
	addl	$1, 16(%rax)
	jmp	.L143
.LVL292:
	.p2align 4,,10
	.p2align 3
.L471:
	.loc 1 197 430 is_stmt 1 discriminator 7 view .LVU2504
	.loc 1 197 452 is_stmt 0 discriminator 7 view .LVU2505
	addl	$1, 16(%r15)
	jmp	.L53
.LVL293:
.L298:
	.loc 1 197 452 discriminator 7 view .LVU2506
	movl	$0, 92(%rsp)
	xorl	%r13d, %r13d
	xorl	%r12d, %r12d
	xorl	%ebp, %ebp
	movq	$0, 48(%rsp)
	xorl	%r10d, %r10d
	xorl	%r11d, %r11d
	xorl	%r14d, %r14d
	movl	$0, 76(%rsp)
	xorl	%r8d, %r8d
	.loc 1 198 32 view .LVU2507
	movl	$-5, %eax
.LVL294:
	.loc 1 198 32 view .LVU2508
	movq	$0, 32(%rsp)
	movq	$0, 16(%rsp)
	movl	$0, 88(%rsp)
	movl	$0, 12(%rsp)
	movl	$0, 80(%rsp)
	movl	$0, 68(%rsp)
	movl	$0, 28(%rsp)
	movl	$0, 72(%rsp)
	movl	$0, 44(%rsp)
	movl	$0, 64(%rsp)
	movl	$0, 56(%rsp)
	movl	$0, 84(%rsp)
	movl	$0, 24(%rsp)
	movl	$0, 40(%rsp)
	jmp	.L51
.LVL295:
.L516:
.LBB194:
	.loc 1 206 165 view .LVU2509
	movl	%eax, 40(%rbx)
.LBE194:
	.loc 1 208 51 view .LVU2510
	movl	$-5, %eax
.LVL296:
	.loc 1 208 51 view .LVU2511
	jmp	.L51
.LVL297:
.L334:
.LBB195:
	.loc 1 289 163 view .LVU2512
	movl	$0, 24(%rsp)
.LBE195:
	.loc 1 290 36 view .LVU2513
	movl	$-4, %eax
.LVL298:
	.loc 1 290 36 view .LVU2514
	jmp	.L51
.LVL299:
.L192:
	.loc 1 379 1354 is_stmt 1 discriminator 18 view .LVU2515
	.loc 1 379 1356 discriminator 18 view .LVU2516
	.loc 1 379 1365 is_stmt 0 discriminator 18 view .LVU2517
	movq	32(%rsp), %rsi
.LVL300:
	.loc 1 379 1365 discriminator 18 view .LVU2518
	movl	%r12d, %ecx
	subl	(%rsi,%rax,4), %ecx
	movslq	%ecx, %rax
	.loc 1 379 1359 discriminator 18 view .LVU2519
	cmpl	$257, %eax
	ja	.L373
	.loc 1 379 1455 is_stmt 1 discriminator 32 view .LVU2520
	.loc 1 379 1456 discriminator 32 view .LVU2521
	.loc 1 379 1458 discriminator 32 view .LVU2522
	.loc 1 379 1466 is_stmt 0 discriminator 32 view .LVU2523
	movq	48(%rsp), %rcx
	movl	(%rcx,%rax,4), %eax
	movl	%eax, 44(%rsp)
.LVL301:
.L212:
	.loc 1 379 1494 is_stmt 1 discriminator 33 view .LVU2524
	.loc 1 381 7 discriminator 33 view .LVU2525
	.loc 1 383 10 discriminator 33 view .LVU2526
	.loc 1 383 13 is_stmt 0 discriminator 33 view .LVU2527
	movl	44(%rsp), %eax
	cmpl	%eax, 84(%rsp)
	je	.L196
	.loc 1 385 10 is_stmt 1 view .LVU2528
	.loc 1 385 13 is_stmt 0 view .LVU2529
	cmpl	$1, %eax
	jbe	.L518
	.loc 1 427 13 is_stmt 1 view .LVU2530
	.loc 1 427 16 is_stmt 0 view .LVU2531
	movl	28(%rsp), %ecx
	cmpl	%ecx, 72(%rsp)
	jle	.L373
	.loc 1 427 84 is_stmt 1 discriminator 2 view .LVU2532
	.loc 1 427 85 discriminator 2 view .LVU2533
.LBB196:
	.loc 1 431 16 discriminator 2 view .LVU2534
	.loc 1 432 16 discriminator 2 view .LVU2535
	.loc 1 433 16 discriminator 2 view .LVU2536
	.loc 1 433 38 is_stmt 0 discriminator 2 view .LVU2537
	movl	44(%rsp), %edi
	leal	-1(%rdi), %edx
	.loc 1 433 19 discriminator 2 view .LVU2538
	movl	%edx, %ecx
.LVL302:
	.loc 1 435 16 is_stmt 1 discriminator 2 view .LVU2539
	.loc 1 435 19 is_stmt 0 discriminator 2 view .LVU2540
	cmpl	$15, %edx
	ja	.L217
	.loc 1 437 19 is_stmt 1 view .LVU2541
	.loc 1 437 22 is_stmt 0 view .LVU2542
	movslq	7820(%rbx), %rax
.LVL303:
	.loc 1 438 19 is_stmt 1 view .LVU2543
	.loc 1 438 22 is_stmt 0 view .LVU2544
	leal	(%rax,%rdx), %esi
	movzbl	3724(%rbx,%rsi), %esi
	movb	%sil, 96(%rsp)
.LVL304:
	.loc 1 439 19 is_stmt 1 view .LVU2545
	.loc 1 439 29 view .LVU2546
	cmpl	$3, %edx
	jbe	.L218
	movl	$1, %ecx
	leal	-2(%rdi,%rax), %edx
.LVL305:
	.loc 1 439 29 is_stmt 0 view .LVU2547
	subl	%eax, %ecx
	movl	%ecx, %edi
.LVL306:
.L219:
.LBB131:
	.loc 1 440 22 is_stmt 1 view .LVU2548
	.loc 1 441 22 view .LVU2549
	.loc 1 441 45 is_stmt 0 view .LVU2550
	movslq	%edx, %r9
	.loc 1 441 36 view .LVU2551
	leal	1(%rdx), %ecx
.LVL307:
	.loc 1 441 45 view .LVU2552
	movzbl	3724(%rbx,%r9), %esi
	.loc 1 441 36 view .LVU2553
	movslq	%ecx, %rcx
	.loc 1 441 36 view .LVU2554
	movb	%sil, 3724(%rbx,%rcx)
	.loc 1 442 22 is_stmt 1 view .LVU2555
	leal	-1(%rdx), %esi
	.loc 1 442 46 is_stmt 0 view .LVU2556
	movslq	%esi, %rsi
	movzbl	3724(%rbx,%rsi), %ecx
.LVL308:
	.loc 1 442 37 view .LVU2557
	movb	%cl, 3724(%rbx,%r9)
	.loc 1 443 22 is_stmt 1 view .LVU2558
	leal	-2(%rdx), %ecx
	.loc 1 443 46 is_stmt 0 view .LVU2559
	movslq	%ecx, %rcx
	movzbl	3724(%rbx,%rcx), %r9d
	.loc 1 443 37 view .LVU2560
	movb	%r9b, 3724(%rbx,%rsi)
	.loc 1 444 22 is_stmt 1 view .LVU2561
	.loc 1 444 46 is_stmt 0 view .LVU2562
	leal	-3(%rdx), %esi
.LBE131:
	.loc 1 439 29 view .LVU2563
	subl	$4, %edx
.LVL309:
.LBB132:
	.loc 1 444 46 view .LVU2564
	movslq	%esi, %rsi
	movzbl	3724(%rbx,%rsi), %esi
	.loc 1 444 37 view .LVU2565
	movb	%sil, 3724(%rbx,%rcx)
	.loc 1 445 22 is_stmt 1 view .LVU2566
.LVL310:
	.loc 1 445 22 is_stmt 0 view .LVU2567
.LBE132:
	.loc 1 439 29 is_stmt 1 view .LVU2568
	leal	(%rdi,%rdx), %ecx
	cmpl	$3, %ecx
	ja	.L219
	movl	44(%rsp), %ecx
	leal	-5(%rcx), %edx
.LVL311:
.LBB133:
	.loc 1 445 25 is_stmt 0 view .LVU2569
	movl	%edx, %ecx
	shrl	$2, %ecx
	imull	$-4, %ecx, %ecx
	addl	%edx, %ecx
.L218:
.LVL312:
	.loc 1 445 25 view .LVU2570
.LBE133:
	.loc 1 447 29 is_stmt 1 view .LVU2571
	leal	(%rcx,%rax), %edx
	testl	%ecx, %ecx
	je	.L223
.LVL313:
.L222:
	.loc 1 448 22 view .LVU2572
	.loc 1 448 56 is_stmt 0 view .LVU2573
	leal	-1(%rdx), %esi
	movq	%rsi, %rcx
	.loc 1 448 48 view .LVU2574
	movzbl	3724(%rbx,%rsi), %esi
	.loc 1 448 39 view .LVU2575
	movb	%sil, 3724(%rbx,%rdx)
	.loc 1 448 61 is_stmt 1 view .LVU2576
.LVL314:
	.loc 1 447 29 view .LVU2577
	cmpl	%ecx, %eax
	je	.L223
	movl	%ecx, %edx
.LVL315:
	.loc 1 447 29 is_stmt 0 view .LVU2578
	jmp	.L222
.LVL316:
.L236:
	.loc 1 447 29 view .LVU2579
.LBE196:
	.loc 1 489 1360 is_stmt 1 discriminator 18 view .LVU2580
	.loc 1 489 1362 discriminator 18 view .LVU2581
	.loc 1 489 1371 is_stmt 0 discriminator 18 view .LVU2582
	movq	32(%rsp), %rcx
.LVL317:
	.loc 1 489 1371 discriminator 18 view .LVU2583
	movl	%r12d, %edx
	subl	(%rcx,%rax,4), %edx
	.loc 1 489 1424 discriminator 18 view .LVU2584
	movl	$-4, %eax
	.loc 1 489 1365 discriminator 18 view .LVU2585
	cmpl	$257, %edx
	ja	.L51
	.loc 1 489 1461 is_stmt 1 discriminator 32 view .LVU2586
	.loc 1 489 1462 discriminator 32 view .LVU2587
	.loc 1 489 1464 discriminator 32 view .LVU2588
	.loc 1 489 1472 is_stmt 0 discriminator 32 view .LVU2589
	movq	48(%rsp), %rax
	.loc 1 489 1485 discriminator 32 view .LVU2590
	movslq	%edx, %rdx
	.loc 1 489 1472 discriminator 32 view .LVU2591
	movl	(%rax,%rdx,4), %eax
	movl	%eax, 44(%rsp)
.LVL318:
	.loc 1 489 1500 is_stmt 1 discriminator 32 view .LVU2592
	.loc 1 490 13 discriminator 32 view .LVU2593
	jmp	.L212
.LVL319:
.L206:
	.loc 1 400 1363 discriminator 18 view .LVU2594
	.loc 1 400 1365 discriminator 18 view .LVU2595
	.loc 1 400 1374 is_stmt 0 discriminator 18 view .LVU2596
	movq	32(%rsp), %rcx
	movl	%r12d, %esi
.LVL320:
	.loc 1 400 1374 discriminator 18 view .LVU2597
	subl	(%rcx,%rax,4), %esi
	movslq	%esi, %rax
	.loc 1 400 1368 discriminator 18 view .LVU2598
	cmpl	$257, %eax
	ja	.L373
	.loc 1 400 1464 is_stmt 1 discriminator 32 view .LVU2599
	.loc 1 400 1465 discriminator 32 view .LVU2600
	.loc 1 400 1467 discriminator 32 view .LVU2601
	.loc 1 400 1475 is_stmt 0 discriminator 32 view .LVU2602
	movq	48(%rsp), %rcx
	movl	(%rcx,%rax,4), %eax
	movl	%eax, 44(%rsp)
.LVL321:
	.loc 1 400 1503 is_stmt 1 discriminator 32 view .LVU2603
	.loc 1 402 36 discriminator 32 view .LVU2604
	cmpl	$1, %eax
	jbe	.L210
	.loc 1 404 13 view .LVU2605
	.loc 1 405 40 is_stmt 0 view .LVU2606
	movslq	7820(%rbx), %rax
.LVL322:
	.loc 1 404 15 view .LVU2607
	addl	$1, 68(%rsp)
.LVL323:
	.loc 1 404 15 view .LVU2608
	movl	68(%rsp), %esi
.LVL324:
	.loc 1 405 13 is_stmt 1 view .LVU2609
	.loc 1 405 16 is_stmt 0 view .LVU2610
	movzbl	3724(%rbx,%rax), %eax
	movzbl	3468(%rbx,%rax), %edx
.LVL325:
	.loc 1 406 13 is_stmt 1 view .LVU2611
	.loc 1 406 28 is_stmt 0 view .LVU2612
	movzbl	%dl, %ecx
	addl	%esi, 68(%rbx,%rcx,4)
	.loc 1 408 13 is_stmt 1 view .LVU2613
	.loc 1 408 16 is_stmt 0 view .LVU2614
	cmpb	$0, 44(%rbx)
	jne	.L211
	.loc 1 416 26 is_stmt 1 view .LVU2615
	testl	%esi, %esi
	jle	.L212
	.loc 1 417 19 view .LVU2616
	.loc 1 417 22 is_stmt 0 view .LVU2617
	movl	28(%rsp), %esi
.LVL326:
	.loc 1 417 22 view .LVU2618
	cmpl	%esi, 72(%rsp)
	jle	.L373
	movq	3152(%rbx), %rcx
	movslq	%esi, %rax
	leaq	(%rcx,%rax,4), %rax
	movl	%esi, %ecx
.LVL327:
.L213:
	.loc 1 417 90 is_stmt 1 discriminator 2 view .LVU2619
	.loc 1 417 91 discriminator 2 view .LVU2620
	.loc 1 418 19 discriminator 2 view .LVU2621
	.loc 1 419 25 is_stmt 0 discriminator 2 view .LVU2622
	addl	$1, %ecx
.LVL328:
	.loc 1 416 26 discriminator 2 view .LVU2623
	subl	$1, 68(%rsp)
.LVL329:
	.loc 1 418 33 discriminator 2 view .LVU2624
	movl	%edx, (%rax)
	.loc 1 419 19 is_stmt 1 discriminator 2 view .LVU2625
.LVL330:
	.loc 1 420 19 discriminator 2 view .LVU2626
	.loc 1 416 26 discriminator 2 view .LVU2627
	je	.L469
	.loc 1 417 19 view .LVU2628
	.loc 1 417 22 is_stmt 0 view .LVU2629
	addq	$4, %rax
	cmpl	%ecx, 72(%rsp)
	jne	.L213
.LVL331:
.L362:
	.loc 1 417 53 view .LVU2630
	movl	%ecx, 28(%rsp)
	movl	$-4, %eax
	jmp	.L51
.L469:
	.loc 1 417 53 view .LVU2631
	movl	%ecx, 28(%rsp)
	jmp	.L212
.LVL332:
.L506:
	.loc 1 302 10 is_stmt 1 view .LVU2632
	.loc 1 302 13 is_stmt 0 view .LVU2633
	cmpl	$18001, %r15d
	jg	.L155
	.loc 1 303 12 is_stmt 1 view .LVU2634
	.loc 1 303 30 is_stmt 0 view .LVU2635
	movb	%r14b, 25886(%rbx,%r15)
.L155:
	.loc 1 291 36 is_stmt 1 discriminator 2 view .LVU2636
.LVL333:
	.loc 1 291 21 discriminator 2 view .LVU2637
	movl	24(%rsp), %eax
.LVL334:
	.loc 1 291 21 is_stmt 0 discriminator 2 view .LVU2638
	addq	$1, %r15
	cmpl	%r15d, %eax
	jg	.L338
	.loc 1 305 7 is_stmt 1 view .LVU2639
	movl	$18002, %r15d
	cmpl	%r15d, %eax
	cmovle	%eax, %r15d
.LBB197:
	.loc 1 311 17 is_stmt 0 view .LVU2640
	xorl	%edx, %edx
	.loc 1 311 24 view .LVU2641
	xorl	%eax, %eax
	movl	%r15d, 96(%rsp)
.LVL335:
	.loc 1 310 10 is_stmt 1 view .LVU2642
	.loc 1 311 10 view .LVU2643
	.loc 1 311 24 view .LVU2644
	testl	%r10d, %r10d
	jle	.L160
.LVL336:
	.p2align 4,,10
	.p2align 3
.L157:
	.loc 1 311 40 discriminator 3 view .LVU2645
	.loc 1 311 47 is_stmt 0 discriminator 3 view .LVU2646
	movb	%dl, 130(%rsp,%rax)
	.loc 1 311 36 is_stmt 1 discriminator 3 view .LVU2647
	addl	$1, %edx
.LVL337:
	.loc 1 311 24 discriminator 3 view .LVU2648
	movzbl	%dl, %eax
	cmpl	%r10d, %eax
	jl	.L157
.LVL338:
.L160:
	.loc 1 313 24 view .LVU2649
	movl	24(%rsp), %esi
	xorl	%ecx, %ecx
	.loc 1 316 41 is_stmt 0 view .LVU2650
	leaq	130(%rsp), %r15
.LVL339:
	.loc 1 313 17 view .LVU2651
	xorl	%r8d, %r8d
	.loc 1 313 24 view .LVU2652
	testl	%esi, %esi
	jle	.L159
	movl	%r10d, 24(%rsp)
	movl	%r13d, 116(%rsp)
	movl	%r12d, 104(%rsp)
	movq	%r15, %r12
	movl	96(%rsp), %r15d
	movl	%ebp, 112(%rsp)
	movq	%rbx, %rbp
	movq	%rcx, %rbx
.LVL340:
	.p2align 4,,10
	.p2align 3
.L158:
	.loc 1 314 13 is_stmt 1 view .LVU2653
	.loc 1 314 15 is_stmt 0 view .LVU2654
	movzbl	25886(%rbp,%rbx), %edx
.LVL341:
	.loc 1 315 13 is_stmt 1 view .LVU2655
	.loc 1 315 17 is_stmt 0 view .LVU2656
	movzbl	130(%rsp,%rdx), %r13d
.LVL342:
	.loc 1 316 13 is_stmt 1 view .LVU2657
	.loc 1 316 22 view .LVU2658
	testb	%dl, %dl
	je	.L163
	.loc 1 316 36 is_stmt 0 view .LVU2659
	leal	-1(%rdx), %r11d
	movzbl	%dl, %edx
	.loc 1 316 36 view .LVU2660
	movzbl	%r11b, %r11d
	.loc 1 316 41 view .LVU2661
	leaq	-1(%rdx), %rsi
	.loc 1 316 36 view .LVU2662
	movq	%rdx, %rdi
	.loc 1 316 41 view .LVU2663
	subq	%r11, %rsi
	.loc 1 316 36 view .LVU2664
	subq	%r11, %rdi
	.loc 1 316 41 view .LVU2665
	addq	%r12, %rsi
	.loc 1 316 36 view .LVU2666
	addq	%r12, %rdi
	call	memmove@PLT
.LVL343:
.L163:
	.loc 1 317 13 is_stmt 1 view .LVU2667
	.loc 1 318 28 is_stmt 0 view .LVU2668
	movb	%r13b, 7884(%rbp,%rbx)
	.loc 1 313 24 view .LVU2669
	addq	$1, %rbx
.LVL344:
	.loc 1 317 20 view .LVU2670
	movb	%r13b, 130(%rsp)
	.loc 1 318 13 is_stmt 1 view .LVU2671
	.loc 1 313 39 view .LVU2672
	.loc 1 313 24 view .LVU2673
	cmpl	%ebx, %r15d
	jg	.L158
	.loc 1 313 39 is_stmt 0 view .LVU2674
	movl	96(%rsp), %eax
	movl	$1, %r8d
	movq	%rbp, %rbx
	movl	24(%rsp), %r10d
	movl	104(%rsp), %r12d
	movl	116(%rsp), %r13d
.LVL345:
	.loc 1 313 39 view .LVU2675
	testl	%eax, %eax
	movl	112(%rsp), %ebp
.LVL346:
	.loc 1 313 39 view .LVU2676
	cmovg	%eax, %r8d
.LVL347:
.L159:
	.loc 1 313 39 view .LVU2677
.LBE197:
	.loc 1 323 7 is_stmt 1 view .LVU2678
	.loc 1 323 7 is_stmt 0 view .LVU2679
	movl	96(%rsp), %eax
	.loc 1 323 14 view .LVU2680
	xorl	%r11d, %r11d
	.loc 1 323 7 view .LVU2681
	movl	%eax, 24(%rsp)
	jmp	.L164
.LVL348:
.L196:
	.loc 1 497 7 is_stmt 1 view .LVU2682
	.loc 1 497 12 is_stmt 0 view .LVU2683
	movl	56(%rbx), %eax
.LVL349:
	.loc 1 497 26 view .LVU2684
	testl	%eax, %eax
	js	.L373
	movl	28(%rsp), %ecx
	cmpl	%ecx, %eax
	jge	.L373
	xorl	%eax, %eax
.LVL350:
.L240:
	.loc 1 503 24 view .LVU2685
	movl	68(%rbx,%rax,4), %edx
	movl	%eax, %r8d
.LVL351:
	.loc 1 503 10 is_stmt 1 view .LVU2686
	.loc 1 503 32 is_stmt 0 view .LVU2687
	testl	%edx, %edx
	js	.L373
	cmpl	%ecx, %edx
	jg	.L373
	.loc 1 504 59 is_stmt 1 discriminator 2 view .LVU2688
	.loc 1 504 60 discriminator 2 view .LVU2689
	.loc 1 502 30 discriminator 2 view .LVU2690
.LVL352:
	.loc 1 502 21 discriminator 2 view .LVU2691
	addq	$1, %rax
.LVL353:
	.loc 1 502 21 is_stmt 0 discriminator 2 view .LVU2692
	cmpq	$256, %rax
	jne	.L240
	.loc 1 507 7 is_stmt 1 view .LVU2693
	.loc 1 508 46 is_stmt 0 view .LVU2694
	movq	68(%rbx), %rdx
	leaq	2132(%rbx), %rcx
	leaq	68(%rbx), %rsi
	.loc 1 507 19 view .LVU2695
	movl	$0, 1096(%rbx)
	.loc 1 508 7 is_stmt 1 view .LVU2696
.LVL354:
	.loc 1 508 21 view .LVU2697
	leaq	1100(%rbx), %rax
	.loc 1 508 46 is_stmt 0 view .LVU2698
	leaq	1108(%rbx), %rdi
	movq	%rdx, 1100(%rbx)
.LVL355:
	.loc 1 508 46 view .LVU2699
	andq	$-8, %rdi
	leaq	2124(%rbx), %r15
	movq	%rcx, 96(%rsp)
	movq	1084(%rbx), %rdx
	movq	%rdx, 2116(%rbx)
	movq	%rax, %rdx
	subq	%rdi, %rdx
	leal	1024(%rdx), %ecx
	subq	%rdx, %rsi
	shrl	$3, %ecx
	rep movsq
.LVL356:
.L241:
	.loc 1 509 34 is_stmt 1 discriminator 3 view .LVU2700
	.loc 1 509 46 is_stmt 0 discriminator 3 view .LVU2701
	movl	-4(%rax), %edx
	addl	%edx, (%rax)
	.loc 1 509 30 is_stmt 1 discriminator 3 view .LVU2702
.LVL357:
	.loc 1 509 21 discriminator 3 view .LVU2703
	addq	$4, %rax
.LVL358:
	.loc 1 509 21 is_stmt 0 discriminator 3 view .LVU2704
	cmpq	%rax, %r15
	jne	.L241
	xorl	%eax, %eax
.LVL359:
.L242:
	.loc 1 512 22 view .LVU2705
	movl	1096(%rbx,%rax,4), %edx
	movl	%eax, %r8d
.LVL360:
	.loc 1 512 10 is_stmt 1 view .LVU2706
	.loc 1 512 30 is_stmt 0 view .LVU2707
	cmpl	28(%rsp), %edx
	jg	.L373
	testl	%edx, %edx
	js	.L373
	.loc 1 514 59 is_stmt 1 discriminator 2 view .LVU2708
	.loc 1 514 60 discriminator 2 view .LVU2709
	.loc 1 511 30 discriminator 2 view .LVU2710
.LVL361:
	.loc 1 511 21 discriminator 2 view .LVU2711
	addq	$1, %rax
.LVL362:
	.loc 1 511 21 is_stmt 0 discriminator 2 view .LVU2712
	cmpq	$257, %rax
	jne	.L242
	movl	$1, %eax
.LVL363:
.L243:
	.loc 1 519 13 view .LVU2713
	movl	1096(%rbx,%rax,4), %esi
	movl	%eax, %r8d
.LVL364:
	.loc 1 519 10 is_stmt 1 view .LVU2714
	.loc 1 519 13 is_stmt 0 view .LVU2715
	cmpl	%esi, 1092(%rbx,%rax,4)
	jg	.L373
	.loc 1 520 59 is_stmt 1 discriminator 2 view .LVU2716
	.loc 1 520 60 discriminator 2 view .LVU2717
	.loc 1 518 30 discriminator 2 view .LVU2718
.LVL365:
	.loc 1 518 21 discriminator 2 view .LVU2719
	addq	$1, %rax
.LVL366:
	.loc 1 518 21 is_stmt 0 discriminator 2 view .LVU2720
	cmpq	$257, %rax
	jne	.L243
	.loc 1 524 7 is_stmt 1 view .LVU2721
	.loc 1 528 10 is_stmt 0 view .LVU2722
	cmpl	$1, 52(%rbx)
	.loc 1 525 23 view .LVU2723
	movb	$0, 12(%rbx)
	.loc 1 524 24 view .LVU2724
	movl	$0, 16(%rbx)
	.loc 1 525 7 is_stmt 1 view .LVU2725
	.loc 1 526 9 view .LVU2726
	.loc 1 526 31 is_stmt 0 view .LVU2727
	movl	$-1, 3184(%rbx)
	.loc 1 526 47 is_stmt 1 view .LVU2728
	.loc 1 527 7 view .LVU2729
	.loc 1 527 16 is_stmt 0 view .LVU2730
	movl	$2, 8(%rbx)
	.loc 1 528 7 is_stmt 1 view .LVU2731
	.loc 1 528 10 is_stmt 0 view .LVU2732
	jle	.L244
.LBB198:
.LBB199:
	.loc 2 105 10 discriminator 1 view .LVU2733
	movl	$6, %edx
	movq	stderr(%rip), %rcx
	movl	$1, %esi
	leaq	.LC1(%rip), %rdi
	movl	%r10d, 104(%rsp)
	movl	%r11d, 112(%rsp)
.LBE199:
.LBE198:
	.loc 1 528 30 is_stmt 1 discriminator 1 view .LVU2734
.LVL367:
.LBB201:
.LBI198:
	.loc 2 103 1 discriminator 1 view .LVU2735
.LBB200:
	.loc 2 105 3 discriminator 1 view .LVU2736
	.loc 2 105 10 is_stmt 0 discriminator 1 view .LVU2737
	call	fwrite@PLT
.LVL368:
	.loc 2 105 10 discriminator 1 view .LVU2738
	movl	104(%rsp), %r10d
	movl	112(%rsp), %r11d
.LVL369:
.L244:
	.loc 2 105 10 discriminator 1 view .LVU2739
.LBE200:
.LBE201:
	.loc 1 530 7 is_stmt 1 view .LVU2740
	.loc 1 530 10 is_stmt 0 view .LVU2741
	cmpb	$0, 44(%rbx)
	je	.L245
	.loc 1 533 53 view .LVU2742
	movq	1096(%rbx), %rax
	leaq	1096(%rbx), %r9
	xorl	%edx, %edx
	movq	%r9, %rsi
	movq	%rax, 2124(%rbx)
	movq	96(%rsp), %rcx
	movq	-16(%rcx), %rax
	andq	$-8, %rcx
	subq	%rcx, %r15
	movq	%rcx, %rdi
	leal	1028(%r15), %ecx
	movq	%rax, 3144(%rbx)
	subq	%r15, %rsi
	shrl	$3, %ecx
	rep movsq
	.loc 1 533 53 view .LVU2743
	jmp	.L248
.LVL370:
.L520:
	.loc 1 538 93 is_stmt 1 discriminator 1 view .LVU2744
	.loc 1 538 130 is_stmt 0 discriminator 1 view .LVU2745
	andl	$-16, %edi
	.loc 1 538 158 discriminator 1 view .LVU2746
	sarl	$16, %eax
	.loc 1 538 138 discriminator 1 view .LVU2747
	orl	%edi, %eax
	movb	%al, (%rcx)
.L247:
	.loc 1 538 252 is_stmt 1 discriminator 4 view .LVU2748
	.loc 1 538 255 discriminator 4 view .LVU2749
	.loc 1 539 13 discriminator 4 view .LVU2750
	.loc 1 539 29 is_stmt 0 discriminator 4 view .LVU2751
	addl	$1, 2124(%rsi)
	.loc 1 536 35 is_stmt 1 discriminator 4 view .LVU2752
.LVL371:
	.loc 1 536 24 discriminator 4 view .LVU2753
	addq	$1, %rdx
.LVL372:
	.loc 1 536 24 is_stmt 0 discriminator 4 view .LVU2754
	cmpl	%edx, 28(%rsp)
	jle	.L519
.L248:
.LVL373:
	.loc 1 537 13 is_stmt 1 view .LVU2755
	.loc 1 537 33 is_stmt 0 view .LVU2756
	leaq	(%rdx,%rdx), %rcx
	addq	3160(%rbx), %rcx
.LVL374:
	.loc 1 538 15 is_stmt 1 view .LVU2757
	.loc 1 538 124 is_stmt 0 view .LVU2758
	movl	%edx, %edi
	movzbl	(%rcx), %eax
	sarl	%edi
	movslq	%edi, %rdi
	leaq	(%rbx,%rax,4), %rsi
	.loc 1 538 49 view .LVU2759
	movl	2124(%rsi), %eax
	.loc 1 538 28 view .LVU2760
	movw	%ax, (%rcx)
.LVL375:
	.loc 1 538 71 is_stmt 1 view .LVU2761
	.loc 1 538 114 is_stmt 0 view .LVU2762
	movq	3168(%rbx), %rcx
	.loc 1 538 119 view .LVU2763
	addq	%rdi, %rcx
	.loc 1 538 130 view .LVU2764
	movzbl	(%rcx), %edi
	.loc 1 538 74 view .LVU2765
	testb	$1, %dl
	je	.L520
	.loc 1 538 171 is_stmt 1 discriminator 2 view .LVU2766
	.loc 1 538 158 is_stmt 0 discriminator 2 view .LVU2767
	sarl	$16, %eax
	.loc 1 538 208 discriminator 2 view .LVU2768
	andl	$15, %edi
	.loc 1 538 244 discriminator 2 view .LVU2769
	sall	$4, %eax
	.loc 1 538 216 discriminator 2 view .LVU2770
	orl	%edi, %eax
	movb	%al, (%rcx)
	jmp	.L247
.LVL376:
.L211:
	.loc 1 409 26 is_stmt 1 view .LVU2771
	cmpl	$0, 68(%rsp)
	jle	.L212
	.loc 1 410 19 view .LVU2772
	.loc 1 410 22 is_stmt 0 view .LVU2773
	movl	28(%rsp), %ecx
	cmpl	%ecx, 72(%rsp)
	jle	.L373
	movslq	%ecx, %rax
	.loc 1 411 37 view .LVU2774
	movzbl	%dl, %edx
	.loc 1 411 37 view .LVU2775
	addq	%rax, %rax
	addq	3160(%rbx), %rax
.LVL377:
.L214:
	.loc 1 410 90 is_stmt 1 discriminator 2 view .LVU2776
	.loc 1 410 91 discriminator 2 view .LVU2777
	.loc 1 411 19 discriminator 2 view .LVU2778
	.loc 1 412 25 is_stmt 0 discriminator 2 view .LVU2779
	addl	$1, %ecx
.LVL378:
	.loc 1 409 26 discriminator 2 view .LVU2780
	subl	$1, 68(%rsp)
.LVL379:
	.loc 1 411 35 discriminator 2 view .LVU2781
	movw	%dx, (%rax)
	.loc 1 412 19 is_stmt 1 discriminator 2 view .LVU2782
.LVL380:
	.loc 1 413 19 discriminator 2 view .LVU2783
	.loc 1 409 26 discriminator 2 view .LVU2784
	je	.L469
	.loc 1 410 19 view .LVU2785
	.loc 1 410 22 is_stmt 0 view .LVU2786
	addq	$2, %rax
	cmpl	%ecx, 72(%rsp)
	jne	.L214
	jmp	.L362
.LVL381:
.L347:
	.loc 1 378 14 view .LVU2787
	movl	$0, 28(%rsp)
	movl	$256, %r8d
	.loc 1 379 77 view .LVU2788
	movl	$-4, %eax
	.loc 1 360 16 view .LVU2789
	movl	$0, 64(%rsp)
	.loc 1 379 37 view .LVU2790
	movl	$0, 56(%rsp)
	jmp	.L51
.LVL382:
.L229:
	.loc 1 486 16 is_stmt 1 view .LVU2791
	.loc 1 486 30 is_stmt 0 view .LVU2792
	movq	3152(%rbx), %rax
	.loc 1 486 32 view .LVU2793
	movl	%ecx, (%rax,%rdx,4)
	jmp	.L230
.LVL383:
.L217:
.LBB202:
	.loc 1 453 19 is_stmt 1 view .LVU2794
	.loc 1 453 28 is_stmt 0 view .LVU2795
	movl	%edx, %eax
.LVL384:
	.loc 1 454 23 view .LVU2796
	andl	$15, %edx
.LVL385:
	.loc 1 453 28 view .LVU2797
	shrl	$4, %eax
	.loc 1 455 34 view .LVU2798
	movl	7820(%rbx,%rax,4), %r15d
	.loc 1 453 28 view .LVU2799
	movl	%eax, 112(%rsp)
.LVL386:
	.loc 1 454 19 is_stmt 1 view .LVU2800
	.loc 1 455 19 view .LVU2801
	.loc 1 455 34 is_stmt 0 view .LVU2802
	movq	%rax, 104(%rsp)
	.loc 1 455 22 view .LVU2803
	leal	(%r15,%rdx), %ecx
.LVL387:
	.loc 1 456 19 is_stmt 1 view .LVU2804
	.loc 1 456 22 is_stmt 0 view .LVU2805
	movslq	%ecx, %rax
.LVL388:
	.loc 1 456 22 view .LVU2806
	movzbl	3724(%rbx,%rax), %esi
	movb	%sil, 96(%rsp)
.LVL389:
	.loc 1 457 19 is_stmt 1 view .LVU2807
	.loc 1 457 29 view .LVU2808
	cmpl	%ecx, %r15d
	jge	.L226
	.loc 1 458 34 is_stmt 0 view .LVU2809
	subl	$1, %edx
.LVL390:
	.loc 1 458 43 view .LVU2810
	movq	%rbx, %rcx
.LVL391:
	.loc 1 458 43 view .LVU2811
	movl	%r10d, 124(%rsp)
	subq	%rdx, %rcx
	.loc 1 458 34 view .LVU2812
	leaq	1(%rdx), %r9
	movl	%r11d, 120(%rsp)
	.loc 1 458 43 view .LVU2813
	leaq	3723(%rcx,%rax), %rsi
.LVL392:
	.loc 1 458 34 view .LVU2814
	movq	%rbx, %rcx
	movl	%r8d, 116(%rsp)
	subq	%rdx, %rcx
	movq	%r9, %rdx
	leaq	3724(%rcx,%rax), %rdi
.LVL393:
	.loc 1 458 34 view .LVU2815
	call	memmove@PLT
.LVL394:
	.loc 1 458 34 view .LVU2816
	movl	116(%rsp), %r8d
	movl	120(%rsp), %r11d
	movl	124(%rsp), %r10d
.LVL395:
.L226:
	.loc 1 459 20 is_stmt 1 view .LVU2817
	.loc 1 460 19 view .LVU2818
	.loc 1 460 34 is_stmt 0 view .LVU2819
	movq	104(%rsp), %rax
	leal	1(%r15), %edx
	movl	%edx, 7820(%rbx,%rax,4)
	.loc 1 461 19 is_stmt 1 view .LVU2820
	.loc 1 461 30 view .LVU2821
	movl	112(%rsp), %eax
.LVL396:
.L225:
	.loc 1 462 22 view .LVU2822
	.loc 1 462 37 is_stmt 0 view .LVU2823
	leal	-1(%rdx), %ecx
	.loc 1 464 45 view .LVU2824
	movl	7816(%rbx,%rax,4), %edx
	.loc 1 462 37 view .LVU2825
	movl	%ecx, 7820(%rbx,%rax,4)
	.loc 1 463 22 is_stmt 1 view .LVU2826
	.loc 1 464 25 is_stmt 0 view .LVU2827
	movslq	%ecx, %rcx
	.loc 1 461 30 view .LVU2828
	subq	$1, %rax
.LVL397:
	.loc 1 464 58 view .LVU2829
	leal	15(%rdx), %esi
	.loc 1 464 34 view .LVU2830
	movslq	%esi, %rsi
	movzbl	3724(%rbx,%rsi), %esi
	.loc 1 464 25 view .LVU2831
	movb	%sil, 3724(%rbx,%rcx)
	.loc 1 465 22 is_stmt 1 view .LVU2832
	.loc 1 461 30 view .LVU2833
	testl	%eax, %eax
	jne	.L225
	.loc 1 467 19 view .LVU2834
	.loc 1 467 32 is_stmt 0 view .LVU2835
	movl	7820(%rbx), %eax
	.loc 1 468 42 view .LVU2836
	movzbl	96(%rsp), %ecx
	.loc 1 467 32 view .LVU2837
	subl	$1, %eax
	.loc 1 468 42 view .LVU2838
	movslq	%eax, %rdx
	.loc 1 467 32 view .LVU2839
	movl	%eax, 7820(%rbx)
	.loc 1 468 19 is_stmt 1 view .LVU2840
	.loc 1 468 42 is_stmt 0 view .LVU2841
	movb	%cl, 3724(%rbx,%rdx)
	.loc 1 469 19 is_stmt 1 view .LVU2842
	.loc 1 469 22 is_stmt 0 view .LVU2843
	jne	.L221
	leaq	3723(%rbx), %rax
	leaq	7880(%rbx), %r15
	movl	$4095, %ecx
	movq	%rax, 104(%rsp)
.L227:
	movslq	(%r15), %rsi
	movq	104(%rsp), %rdi
	movl	%r8d, 112(%rsp)
	movl	%ecx, %r9d
.LVL398:
	.loc 1 472 45 is_stmt 1 view .LVU2844
	leaq	3739(%rbx,%rsi), %rax
	addq	%rsi, %rdi
.LVL399:
	.p2align 4,,10
	.p2align 3
.L228:
	.loc 1 473 28 discriminator 3 view .LVU2845
	.loc 1 473 40 is_stmt 0 discriminator 3 view .LVU2846
	movzbl	(%rax), %r8d
	movq	%rax, %rdx
	.loc 1 472 45 discriminator 3 view .LVU2847
	subq	$1, %rax
.LVL400:
	.loc 1 473 40 discriminator 3 view .LVU2848
	subq	%rsi, %rdx
	movb	%r8b, -15(%rdx,%rcx)
	.loc 1 474 28 is_stmt 1 discriminator 3 view .LVU2849
	.loc 1 472 53 discriminator 3 view .LVU2850
	.loc 1 472 45 discriminator 3 view .LVU2851
	cmpq	%rax, %rdi
	jne	.L228
	.loc 1 476 40 is_stmt 0 discriminator 2 view .LVU2852
	subl	$15, %r9d
	.loc 1 471 48 discriminator 2 view .LVU2853
	subq	$16, %rcx
.LVL401:
	.loc 1 476 40 discriminator 2 view .LVU2854
	movl	112(%rsp), %r8d
	.loc 1 476 25 is_stmt 1 discriminator 2 view .LVU2855
	.loc 1 471 48 is_stmt 0 discriminator 2 view .LVU2856
	subq	$4, %r15
	.loc 1 476 40 discriminator 2 view .LVU2857
	movl	%r9d, 4(%r15)
	.loc 1 471 56 is_stmt 1 discriminator 2 view .LVU2858
.LVL402:
	.loc 1 471 48 discriminator 2 view .LVU2859
	cmpq	$3839, %rcx
	jne	.L227
	jmp	.L221
.LVL403:
.L507:
	.loc 1 471 48 is_stmt 0 discriminator 2 view .LVU2860
.LBE202:
	.loc 1 647 1 view .LVU2861
	call	__stack_chk_fail@PLT
.LVL404:
.L345:
	.loc 1 338 14 view .LVU2862
	xorl	%r11d, %r11d
	jmp	.L180
.LVL405:
.L199:
	.loc 1 398 16 is_stmt 1 discriminator 1 view .LVU2863
	.loc 1 398 34 discriminator 1 view .LVU2864
	.loc 1 398 37 is_stmt 0 discriminator 1 view .LVU2865
	addl	%edx, 68(%rsp)
.LVL406:
	.loc 1 398 37 discriminator 1 view .LVU2866
	jmp	.L200
.LVL407:
.L210:
	.loc 1 389 13 is_stmt 1 view .LVU2867
	.loc 1 396 16 view .LVU2868
	.loc 1 396 19 is_stmt 0 view .LVU2869
	cmpl	$2097151, 80(%rsp)
	.loc 1 396 47 view .LVU2870
	movl	$-4, %eax
	.loc 1 396 19 view .LVU2871
	jg	.L51
	jmp	.L197
.LVL408:
.L354:
	.loc 1 399 18 view .LVU2872
	movl	%edx, 80(%rsp)
	.loc 1 400 86 view .LVU2873
	movl	$-4, %eax
.LVL409:
	.loc 1 400 86 view .LVU2874
	jmp	.L51
.LVL410:
.L338:
	.loc 1 292 12 view .LVU2875
	xorl	%r14d, %r14d
.LVL411:
	.loc 1 292 12 view .LVU2876
	jmp	.L156
.LVL412:
.L245:
	.loc 1 567 27 view .LVU2877
	movq	3152(%rbx), %rdx
	xorl	%eax, %eax
.L260:
.LVL413:
	.loc 1 567 13 is_stmt 1 discriminator 3 view .LVU2878
	.loc 1 568 13 discriminator 3 view .LVU2879
	movzbl	(%rdx,%rax,4), %ecx
	.loc 1 568 33 is_stmt 0 discriminator 3 view .LVU2880
	movl	%eax, %edi
	.loc 1 566 24 discriminator 3 view .LVU2881
	addq	$1, %rax
.LVL414:
	.loc 1 568 33 discriminator 3 view .LVU2882
	sall	$8, %edi
.LVL415:
	.loc 1 568 33 discriminator 3 view .LVU2883
	leaq	(%rbx,%rcx,4), %rcx
	movslq	1096(%rcx), %rsi
	orl	%edi, (%rdx,%rsi,4)
.LVL416:
	.loc 1 569 13 is_stmt 1 discriminator 3 view .LVU2884
	.loc 1 569 25 is_stmt 0 discriminator 3 view .LVU2885
	addl	$1, 1096(%rcx)
	.loc 1 566 35 is_stmt 1 discriminator 3 view .LVU2886
	.loc 1 566 24 discriminator 3 view .LVU2887
	cmpl	%eax, 28(%rsp)
	jg	.L260
	.loc 1 566 35 is_stmt 0 view .LVU2888
	movl	28(%rsp), %eax
	movl	$1, %r8d
	testl	%eax, %eax
	cmovg	%eax, %r8d
	.loc 1 572 10 is_stmt 1 view .LVU2889
	.loc 1 572 27 is_stmt 0 view .LVU2890
	movslq	56(%rbx), %rax
	.loc 1 576 43 view .LVU2891
	imull	$100000, 40(%rbx), %ecx
	.loc 1 572 38 view .LVU2892
	movl	(%rdx,%rax,4), %eax
	.loc 1 573 25 view .LVU2893
	movl	$0, 1092(%rbx)
	.loc 1 572 38 view .LVU2894
	shrl	$8, %eax
	.loc 1 574 13 view .LVU2895
	cmpb	$0, 20(%rbx)
	.loc 1 572 18 view .LVU2896
	movl	%eax, 60(%rbx)
	.loc 1 573 10 is_stmt 1 view .LVU2897
	.loc 1 574 10 view .LVU2898
	.loc 1 574 13 is_stmt 0 view .LVU2899
	je	.L261
	.loc 1 575 13 is_stmt 1 view .LVU2900
	.loc 1 575 28 view .LVU2901
	.loc 1 575 23 is_stmt 0 view .LVU2902
	movq	$0, 24(%rbx)
	.loc 1 576 13 is_stmt 1 view .LVU2903
	.loc 1 576 16 is_stmt 0 view .LVU2904
	cmpl	%ecx, %eax
	jnb	.L259
	.loc 1 576 89 is_stmt 1 discriminator 2 view .LVU2905
	.loc 1 576 104 is_stmt 0 discriminator 2 view .LVU2906
	movl	(%rdx,%rax,4), %eax
	.loc 1 576 115 is_stmt 1 discriminator 2 view .LVU2907
	.loc 1 576 148 discriminator 2 view .LVU2908
	.loc 1 577 126 is_stmt 0 discriminator 2 view .LVU2909
	movl	BZ2_rNums(%rip), %esi
	.loc 1 577 76 discriminator 2 view .LVU2910
	movl	$1, 28(%rbx)
	.loc 1 576 178 discriminator 2 view .LVU2911
	movl	$1, 1092(%rbx)
	.loc 1 576 156 discriminator 2 view .LVU2912
	movl	%eax, %edx
	.loc 1 576 123 discriminator 2 view .LVU2913
	movzbl	%al, %eax
	.loc 1 576 156 discriminator 2 view .LVU2914
	shrl	$8, %edx
	movl	%edx, 60(%rbx)
	.loc 1 576 162 is_stmt 1 discriminator 2 view .LVU2915
	.loc 1 576 164 discriminator 2 view .LVU2916
	.loc 1 577 13 discriminator 2 view .LVU2917
	.loc 1 577 35 discriminator 2 view .LVU2918
	.loc 1 577 68 discriminator 2 view .LVU2919
	.loc 1 577 80 discriminator 2 view .LVU2920
	.loc 1 577 117 discriminator 2 view .LVU2921
	.loc 1 577 126 is_stmt 0 discriminator 2 view .LVU2922
	leal	-1(%rsi), %edx
	movl	%edx, 24(%rbx)
	.loc 1 577 129 is_stmt 1 discriminator 2 view .LVU2923
	.loc 1 577 131 discriminator 2 view .LVU2924
	.loc 1 577 162 is_stmt 0 discriminator 2 view .LVU2925
	subl	$1, %edx
	sete	%dl
	movzbl	%dl, %edx
	.loc 1 577 137 discriminator 2 view .LVU2926
	xorl	%edx, %eax
	movl	%eax, 64(%rbx)
	.loc 1 584 16 discriminator 2 view .LVU2927
	xorl	%eax, %eax
	jmp	.L51
.L519:
	.loc 1 543 10 is_stmt 1 view .LVU2928
	.loc 1 543 12 is_stmt 0 view .LVU2929
	movl	56(%rbx), %edx
.LVL417:
	.loc 1 544 10 is_stmt 1 view .LVU2930
	.loc 1 544 57 is_stmt 0 view .LVU2931
	movq	3168(%rbx), %rdi
	.loc 1 544 62 view .LVU2932
	movl	%edx, %eax
	.loc 1 544 79 view .LVU2933
	leal	0(,%rdx,4), %ecx
	.loc 1 544 62 view .LVU2934
	sarl	%eax
	.loc 1 544 85 view .LVU2935
	andl	$4, %ecx
	.loc 1 544 62 view .LVU2936
	cltq
	.loc 1 544 42 view .LVU2937
	movzbl	(%rdi,%rax), %r14d
.LVL418:
	.loc 1 544 31 view .LVU2938
	movslq	%edx, %rax
	.loc 1 544 70 view .LVU2939
	shrl	%cl, %r14d
	.loc 1 544 31 view .LVU2940
	movq	3160(%rbx), %rcx
	.loc 1 544 100 view .LVU2941
	sall	$16, %r14d
	.loc 1 544 16 view .LVU2942
	movzwl	(%rcx,%rax,2), %eax
	.loc 1 544 100 view .LVU2943
	andl	$983040, %r14d
	.loc 1 544 36 view .LVU2944
	orl	%eax, %r14d
.LVL419:
	.loc 1 544 36 view .LVU2945
	jmp	.L251
.LVL420:
.L521:
.LBB203:
	.loc 1 547 78 is_stmt 1 discriminator 1 view .LVU2946
	.loc 1 547 115 is_stmt 0 discriminator 1 view .LVU2947
	andl	$-16, %eax
	.loc 1 547 123 discriminator 1 view .LVU2948
	orl	%edx, %eax
.L250:
	movb	%al, (%rsi)
	.loc 1 547 207 is_stmt 1 discriminator 4 view .LVU2949
	.loc 1 547 210 discriminator 4 view .LVU2950
	.loc 1 548 13 discriminator 4 view .LVU2951
.LVL421:
	.loc 1 549 13 discriminator 4 view .LVU2952
	.loc 1 549 13 is_stmt 0 discriminator 4 view .LVU2953
.LBE203:
	.loc 1 551 22 is_stmt 1 discriminator 4 view .LVU2954
	movl	%r8d, %edx
	cmpl	%r8d, 56(%rbx)
	je	.L460
.LVL422:
	.loc 1 551 22 is_stmt 0 discriminator 4 view .LVU2955
	movq	3160(%rbx), %rcx
	movq	3168(%rbx), %rdi
.LVL423:
.L251:
	.loc 1 545 10 is_stmt 1 view .LVU2956
.LBB204:
	.loc 1 546 13 view .LVU2957
	.loc 1 546 42 is_stmt 0 view .LVU2958
	movslq	%r14d, %rax
	movl	%r14d, %r8d
	addq	%rax, %rax
	leaq	(%rcx,%rax), %r15
	.loc 1 546 73 view .LVU2959
	movl	%r14d, %eax
	.loc 1 546 90 view .LVU2960
	leal	0(,%r14,4), %ecx
	.loc 1 546 73 view .LVU2961
	sarl	%eax
	.loc 1 546 96 view .LVU2962
	andl	$4, %ecx
	.loc 1 546 73 view .LVU2963
	cltq
	.loc 1 546 68 view .LVU2964
	leaq	(%rdi,%rax), %rsi
	.loc 1 546 53 view .LVU2965
	movzbl	(%rsi), %eax
	.loc 1 546 81 view .LVU2966
	shrl	%cl, %eax
	movl	%eax, %r14d
.LVL424:
	.loc 1 546 27 view .LVU2967
	movzwl	(%r15), %eax
	.loc 1 547 28 view .LVU2968
	movw	%dx, (%r15)
	.loc 1 547 128 view .LVU2969
	sarl	$16, %edx
.LVL425:
	.loc 1 546 111 view .LVU2970
	sall	$16, %r14d
	andl	$983040, %r14d
	.loc 1 546 47 view .LVU2971
	orl	%eax, %r14d
.LVL426:
	.loc 1 547 15 is_stmt 1 view .LVU2972
	.loc 1 547 56 view .LVU2973
	.loc 1 547 115 is_stmt 0 view .LVU2974
	movzbl	(%rsi), %eax
	.loc 1 547 59 view .LVU2975
	testb	$1, %r8b
	je	.L521
	.loc 1 547 141 is_stmt 1 discriminator 2 view .LVU2976
	.loc 1 547 178 is_stmt 0 discriminator 2 view .LVU2977
	andl	$15, %eax
	.loc 1 547 199 discriminator 2 view .LVU2978
	sall	$4, %edx
	.loc 1 547 186 discriminator 2 view .LVU2979
	orl	%edx, %eax
	jmp	.L250
.LVL427:
.L460:
	.loc 1 547 186 discriminator 2 view .LVU2980
.LBE204:
	.loc 1 553 10 is_stmt 1 view .LVU2981
	.loc 1 557 43 is_stmt 0 view .LVU2982
	imull	$100000, 40(%rbx), %eax
	.loc 1 555 13 view .LVU2983
	cmpb	$0, 20(%rbx)
	.loc 1 553 18 view .LVU2984
	movl	%r8d, 60(%rbx)
	.loc 1 554 10 is_stmt 1 view .LVU2985
	.loc 1 554 25 is_stmt 0 view .LVU2986
	movl	$0, 1092(%rbx)
	.loc 1 555 10 is_stmt 1 view .LVU2987
	.loc 1 555 13 is_stmt 0 view .LVU2988
	je	.L252
	.loc 1 556 13 is_stmt 1 view .LVU2989
	.loc 1 556 28 view .LVU2990
	.loc 1 556 23 is_stmt 0 view .LVU2991
	movq	$0, 24(%rbx)
	.loc 1 557 13 is_stmt 1 view .LVU2992
	.loc 1 557 16 is_stmt 0 view .LVU2993
	cmpl	%eax, %r8d
	jb	.L253
.LVL428:
.L259:
	.loc 1 557 78 view .LVU2994
	movl	$1, %eax
	jmp	.L1
.L261:
	.loc 1 579 13 is_stmt 1 view .LVU2995
	.loc 1 579 16 is_stmt 0 view .LVU2996
	cmpl	%ecx, %eax
	jnb	.L259
	.loc 1 579 89 is_stmt 1 discriminator 2 view .LVU2997
	.loc 1 579 104 is_stmt 0 discriminator 2 view .LVU2998
	movl	(%rdx,%rax,4), %eax
	.loc 1 579 115 is_stmt 1 discriminator 2 view .LVU2999
	.loc 1 579 178 is_stmt 0 discriminator 2 view .LVU3000
	movl	$1, 1092(%rbx)
	.loc 1 579 123 discriminator 2 view .LVU3001
	movzbl	%al, %edx
	.loc 1 579 156 discriminator 2 view .LVU3002
	shrl	$8, %eax
	movl	%eax, 60(%rbx)
	.loc 1 584 16 discriminator 2 view .LVU3003
	xorl	%eax, %eax
	.loc 1 579 123 discriminator 2 view .LVU3004
	movl	%edx, 64(%rbx)
	.loc 1 579 148 is_stmt 1 discriminator 2 view .LVU3005
	.loc 1 579 162 discriminator 2 view .LVU3006
	.loc 1 579 164 discriminator 2 view .LVU3007
	jmp	.L51
.LVL429:
.L253:
	.loc 1 557 97 is_stmt 0 discriminator 2 view .LVU3008
	movl	%r8d, %edi
	movq	%r9, %rsi
	movl	%r10d, 104(%rsp)
	movl	%r11d, 112(%rsp)
	.loc 1 557 89 is_stmt 1 discriminator 2 view .LVU3009
	.loc 1 557 97 is_stmt 0 discriminator 2 view .LVU3010
	movl	%r8d, 96(%rsp)
	call	BZ2_indexIntoF@PLT
.LVL430:
	.loc 1 557 164 discriminator 2 view .LVU3011
	movl	60(%rbx), %edi
	.loc 1 558 16 discriminator 2 view .LVU3012
	movl	96(%rsp), %r8d
	.loc 1 557 97 discriminator 2 view .LVU3013
	movl	%eax, %esi
	.loc 1 558 16 discriminator 2 view .LVU3014
	movl	112(%rsp), %r11d
	movl	104(%rsp), %r10d
	.loc 1 557 95 discriminator 2 view .LVU3015
	movl	%eax, 64(%rbx)
	.loc 1 557 135 is_stmt 1 discriminator 2 view .LVU3016
	.loc 1 557 194 is_stmt 0 discriminator 2 view .LVU3017
	movq	3168(%rbx), %rdx
	.loc 1 557 205 discriminator 2 view .LVU3018
	movl	%edi, %eax
	.loc 1 557 228 discriminator 2 view .LVU3019
	leal	0(,%rdi,4), %ecx
	.loc 1 557 205 discriminator 2 view .LVU3020
	shrl	%eax
	.loc 1 557 234 discriminator 2 view .LVU3021
	andl	$4, %ecx
	.loc 1 557 179 discriminator 2 view .LVU3022
	movzbl	(%rdx,%rax), %eax
	.loc 1 557 213 discriminator 2 view .LVU3023
	shrl	%cl, %eax
	.loc 1 557 162 discriminator 2 view .LVU3024
	movq	3160(%rbx), %rcx
	.loc 1 557 249 discriminator 2 view .LVU3025
	sall	$16, %eax
	movl	%eax, %edx
	.loc 1 557 164 discriminator 2 view .LVU3026
	movl	%edi, %eax
	.loc 1 557 147 discriminator 2 view .LVU3027
	movzwl	(%rcx,%rax,2), %eax
	.loc 1 557 249 discriminator 2 view .LVU3028
	andl	$983040, %edx
	.loc 1 557 273 discriminator 2 view .LVU3029
	addl	$1, 1092(%rbx)
	.loc 1 557 173 discriminator 2 view .LVU3030
	orl	%edx, %eax
	.loc 1 558 16 discriminator 2 view .LVU3031
	cmpl	$0, 24(%rbx)
	.loc 1 557 173 discriminator 2 view .LVU3032
	movl	%eax, 60(%rbx)
	.loc 1 557 257 is_stmt 1 discriminator 2 view .LVU3033
	.loc 1 557 259 discriminator 2 view .LVU3034
	.loc 1 558 13 discriminator 2 view .LVU3035
	.loc 1 558 16 is_stmt 0 discriminator 2 view .LVU3036
	jne	.L256
	.loc 1 558 35 is_stmt 1 discriminator 1 view .LVU3037
	.loc 1 558 58 is_stmt 0 discriminator 1 view .LVU3038
	movslq	28(%rbx), %rcx
	.loc 1 558 45 discriminator 1 view .LVU3039
	leaq	BZ2_rNums(%rip), %rax
	.loc 1 558 76 discriminator 1 view .LVU3040
	movl	$0, %edx
	.loc 1 558 45 discriminator 1 view .LVU3041
	movl	(%rax,%rcx,4), %eax
	.loc 1 558 76 discriminator 1 view .LVU3042
	cmpl	$511, %ecx
	.loc 1 558 45 discriminator 1 view .LVU3043
	movl	%eax, 24(%rbx)
	.loc 1 558 68 is_stmt 1 discriminator 1 view .LVU3044
	.loc 1 558 76 is_stmt 0 discriminator 1 view .LVU3045
	leal	1(%rcx), %eax
	.loc 1 558 80 is_stmt 1 discriminator 1 view .LVU3046
	.loc 1 558 76 is_stmt 0 discriminator 1 view .LVU3047
	cmove	%edx, %eax
	movl	%eax, 28(%rbx)
.L256:
	.loc 1 558 117 is_stmt 1 discriminator 5 view .LVU3048
	.loc 1 558 126 is_stmt 0 discriminator 5 view .LVU3049
	movl	24(%rbx), %eax
	subl	$1, %eax
	movl	%eax, 24(%rbx)
	.loc 1 558 129 is_stmt 1 discriminator 5 view .LVU3050
	.loc 1 558 131 discriminator 5 view .LVU3051
	.loc 1 558 162 is_stmt 0 discriminator 5 view .LVU3052
	subl	$1, %eax
	sete	%al
	movzbl	%al, %eax
	.loc 1 558 137 discriminator 5 view .LVU3053
	xorl	%esi, %eax
	movl	%eax, 64(%rbx)
	.loc 1 584 16 discriminator 5 view .LVU3054
	xorl	%eax, %eax
	jmp	.L51
.LVL431:
.L252:
	.loc 1 560 13 is_stmt 1 view .LVU3055
	.loc 1 560 16 is_stmt 0 view .LVU3056
	cmpl	%eax, %r8d
	jnb	.L259
	.loc 1 560 97 discriminator 2 view .LVU3057
	movl	%r8d, %edi
	movq	%r9, %rsi
	movl	%r10d, 104(%rsp)
	movl	%r11d, 112(%rsp)
	.loc 1 560 89 is_stmt 1 discriminator 2 view .LVU3058
	.loc 1 560 97 is_stmt 0 discriminator 2 view .LVU3059
	movl	%r8d, 96(%rsp)
	call	BZ2_indexIntoF@PLT
.LVL432:
	.loc 1 560 164 discriminator 2 view .LVU3060
	movl	60(%rbx), %edx
	movl	96(%rsp), %r8d
	.loc 1 560 194 discriminator 2 view .LVU3061
	movq	3168(%rbx), %rcx
	movl	112(%rsp), %r11d
	.loc 1 560 95 discriminator 2 view .LVU3062
	movl	%eax, 64(%rbx)
	.loc 1 560 135 is_stmt 1 discriminator 2 view .LVU3063
	.loc 1 560 205 is_stmt 0 discriminator 2 view .LVU3064
	movl	%edx, %eax
	movl	104(%rsp), %r10d
	shrl	%eax
	.loc 1 560 179 discriminator 2 view .LVU3065
	movzbl	(%rcx,%rax), %eax
	.loc 1 560 228 discriminator 2 view .LVU3066
	leal	0(,%rdx,4), %ecx
	.loc 1 560 234 discriminator 2 view .LVU3067
	andl	$4, %ecx
	.loc 1 560 213 discriminator 2 view .LVU3068
	shrl	%cl, %eax
	.loc 1 560 162 discriminator 2 view .LVU3069
	movq	3160(%rbx), %rcx
	.loc 1 560 249 discriminator 2 view .LVU3070
	sall	$16, %eax
	.loc 1 560 147 discriminator 2 view .LVU3071
	movzwl	(%rcx,%rdx,2), %edx
	.loc 1 560 249 discriminator 2 view .LVU3072
	andl	$983040, %eax
	.loc 1 560 273 discriminator 2 view .LVU3073
	addl	$1, 1092(%rbx)
	.loc 1 560 173 discriminator 2 view .LVU3074
	orl	%edx, %eax
	movl	%eax, 60(%rbx)
	.loc 1 560 257 is_stmt 1 discriminator 2 view .LVU3075
	.loc 1 560 259 discriminator 2 view .LVU3076
	.loc 1 584 16 is_stmt 0 discriminator 2 view .LVU3077
	xorl	%eax, %eax
	jmp	.L51
	.cfi_endproc
.LFE54:
	.size	BZ2_decompress, .-BZ2_decompress
.Letext0:
	.file 3 "/usr/lib/gcc/x86_64-linux-gnu/11/include/stddef.h"
	.file 4 "/usr/include/x86_64-linux-gnu/bits/types.h"
	.file 5 "/usr/include/x86_64-linux-gnu/bits/types/struct_FILE.h"
	.file 6 "/usr/include/x86_64-linux-gnu/bits/types/FILE.h"
	.file 7 "bzlib.h"
	.file 8 "bzlib_private.h"
	.file 9 "/usr/include/stdio.h"
	.file 10 "<built-in>"
	.section	.note.GNU-stack,"",@progbits
	.section	.note.gnu.property,"a"
	.align 8
	.long	1f - 0f
	.long	4f - 1f
	.long	5
0:
	.string	"GNU"
1:
	.align 8
	.long	0xc0000002
	.long	3f - 2f
2:
	.long	0x3
3:
	.align 8
4:
