	.section	__TEXT,__text,regular,pure_instructions
	.build_version macos, 14, 0	sdk_version 14, 2
	.file	1 "/Users/mac/rustmap-clone/c-code/bzip2" "bzip2recover.c"
	.globl	_main                           ; -- Begin function main
	.p2align	2
_main:                                  ; @main
Lfunc_begin0:
	.loc	1 302 0                         ; bzip2recover.c:302:0
	.cfi_startproc
; %bb.0:
	;DEBUG_VALUE: main:argc <- $w0
	;DEBUG_VALUE: main:argv <- $x1
	sub	sp, sp, #160
	.cfi_def_cfa_offset 160
	stp	x28, x27, [sp, #64]             ; 16-byte Folded Spill
	stp	x26, x25, [sp, #80]             ; 16-byte Folded Spill
	stp	x24, x23, [sp, #96]             ; 16-byte Folded Spill
	stp	x22, x21, [sp, #112]            ; 16-byte Folded Spill
	stp	x20, x19, [sp, #128]            ; 16-byte Folded Spill
	stp	x29, x30, [sp, #144]            ; 16-byte Folded Spill
	add	x29, sp, #144
	.cfi_def_cfa w29, 16
	.cfi_offset w30, -8
	.cfi_offset w29, -16
	.cfi_offset w19, -24
	.cfi_offset w20, -32
	.cfi_offset w21, -40
	.cfi_offset w22, -48
	.cfi_offset w23, -56
	.cfi_offset w24, -64
	.cfi_offset w25, -72
	.cfi_offset w26, -80
	.cfi_offset w27, -88
	.cfi_offset w28, -96
	mov	x21, x1
Ltmp0:
	;DEBUG_VALUE: main:argv <- $x21
	mov	x22, x0
Ltmp1:
	;DEBUG_VALUE: main:argc <- $w22
	.loc	1 312 39 prologue_end           ; bzip2recover.c:312:39
	ldr	x1, [x1]
	.loc	1 312 4 is_stmt 0               ; bzip2recover.c:312:4
Lloh0:
	adrp	x19, _progName@GOTPAGE
Lloh1:
	ldr	x19, [x19, _progName@GOTPAGEOFF]
	mov	x0, x19
	mov	w2, #1999
	bl	_strncpy
Ltmp2:
	.loc	1 313 21 is_stmt 1              ; bzip2recover.c:313:21
	strb	wzr, [x19, #1999]
	.loc	1 314 35                        ; bzip2recover.c:314:35
Lloh2:
	adrp	x8, _outFileName@GOTPAGE
Lloh3:
	ldr	x8, [x8, _outFileName@GOTPAGEOFF]
Lloh4:
	strb	wzr, [x8]
	.loc	1 314 18 is_stmt 0              ; bzip2recover.c:314:18
Lloh5:
	adrp	x8, _inFileName@GOTPAGE
Lloh6:
	ldr	x8, [x8, _inFileName@GOTPAGEOFF]
Lloh7:
	strb	wzr, [x8]
	.loc	1 316 14 is_stmt 1              ; bzip2recover.c:316:14
Lloh8:
	adrp	x8, ___stderrp@GOTPAGE
Lloh9:
	ldr	x8, [x8, ___stderrp@GOTPAGEOFF]
Lloh10:
	ldr	x3, [x8]
	.loc	1 316 4 is_stmt 0               ; bzip2recover.c:316:4
Lloh11:
	adrp	x0, l_.str@PAGE
Lloh12:
	add	x0, x0, l_.str@PAGEOFF
	mov	w1, #61
	mov	w2, #1
	bl	_fwrite
Ltmp3:
	.loc	1 319 8 is_stmt 1               ; bzip2recover.c:319:8
	cmp	w22, #2
	b.ne	LBB0_59
Ltmp4:
; %bb.1:
	;DEBUG_VALUE: main:argc <- $w22
	;DEBUG_VALUE: main:argv <- $x21
	.loc	1 343 15                        ; bzip2recover.c:343:15
	ldr	x21, [x21, #8]
Ltmp5:
	;DEBUG_VALUE: main:argv <- [DW_OP_LLVM_entry_value 1] $x1
	.loc	1 343 8 is_stmt 0               ; bzip2recover.c:343:8
	mov	x0, x21
	bl	_strlen
Ltmp6:
	.loc	1 343 8                         ; bzip2recover.c:343:8
	cmp	x0, #1980
	b.hs	LBB0_60
Ltmp7:
; %bb.2:
	;DEBUG_VALUE: main:argv <- [DW_OP_LLVM_entry_value 1] $x1
	;DEBUG_VALUE: main:argc <- $w22
	.loc	1 350 4 is_stmt 1               ; bzip2recover.c:350:4
Lloh13:
	adrp	x20, _inFileName@GOTPAGE
Lloh14:
	ldr	x20, [x20, _inFileName@GOTPAGEOFF]
	mov	x0, x20
	mov	x1, x21
	mov	w2, #2000
	bl	___strcpy_chk
Ltmp8:
	.loc	1 352 13                        ; bzip2recover.c:352:13
Lloh15:
	adrp	x1, l_.str.4@PAGE
Lloh16:
	add	x1, x1, l_.str.4@PAGEOFF
	mov	x0, x20
	bl	_fopen
Ltmp9:
	;DEBUG_VALUE: main:inFile <- $x0
	.loc	1 353 8                         ; bzip2recover.c:353:8
	cbz	x0, LBB0_61
Ltmp10:
; %bb.3:
	;DEBUG_VALUE: main:inFile <- $x0
	;DEBUG_VALUE: main:argv <- [DW_OP_LLVM_entry_value 1] $x1
	;DEBUG_VALUE: main:argc <- $w22
	.loc	1 0 0 is_stmt 0                 ; bzip2recover.c:0:0
	mov	x23, x0
Ltmp11:
	;DEBUG_VALUE: main:inFile <- $x23
	;DEBUG_VALUE: bsOpenReadStream:stream <- $x23
	.loc	1 156 20 is_stmt 1              ; bzip2recover.c:156:20
	mov	w0, #24
	bl	_malloc
Ltmp12:
	;DEBUG_VALUE: bsOpenReadStream:bs <- $x0
	.loc	1 157 8                         ; bzip2recover.c:157:8
	cbz	x0, LBB0_62
Ltmp13:
; %bb.4:                                ; %bsOpenReadStream.exit
	;DEBUG_VALUE: bsOpenReadStream:bs <- $x0
	;DEBUG_VALUE: bsOpenReadStream:stream <- $x23
	;DEBUG_VALUE: main:inFile <- $x23
	;DEBUG_VALUE: main:argv <- [DW_OP_LLVM_entry_value 1] $x1
	;DEBUG_VALUE: main:argc <- $w22
	.loc	1 0 0 is_stmt 0                 ; bzip2recover.c:0:0
	mov	x21, x0
Ltmp14:
	;DEBUG_VALUE: bsOpenReadStream:bs <- $x21
	;DEBUG_VALUE: bsOpenReadStream:stream <- $x23
	.loc	1 158 15 is_stmt 1              ; bzip2recover.c:158:15
	stp	x23, xzr, [x0]
	mov	w8, #114
	.loc	1 161 13                        ; bzip2recover.c:161:13
	strb	w8, [x0, #16]
Ltmp15:
	;DEBUG_VALUE: main:bsIn <- $x21
	.loc	1 359 14                        ; bzip2recover.c:359:14
Lloh17:
	adrp	x8, ___stderrp@GOTPAGE
Lloh18:
	ldr	x8, [x8, ___stderrp@GOTPAGEOFF]
Lloh19:
	ldr	x0, [x8]
	.loc	1 359 4 is_stmt 0               ; bzip2recover.c:359:4
	str	x19, [sp]
Lloh20:
	adrp	x1, l_.str.6@PAGE
Lloh21:
	add	x1, x1, l_.str.6@PAGEOFF
	bl	_fprintf
Ltmp16:
	;DEBUG_VALUE: main:currBlock <- 0
	;DEBUG_VALUE: main:buffHi <- 0
	;DEBUG_VALUE: main:buffLo <- 0
	;DEBUG_VALUE: main:bitsRead <- 0
	.loc	1 364 22 is_stmt 1              ; bzip2recover.c:364:22
Lloh22:
	adrp	x27, _bStart@GOTPAGE
Lloh23:
	ldr	x27, [x27, _bStart@GOTPAGEOFF]
	str	xzr, [x27]
Ltmp17:
	;DEBUG_VALUE: main:rbCtr <- 0
	.loc	1 369 11                        ; bzip2recover.c:369:11
	mov	x0, x21
	bl	_bsGetBit
Ltmp18:
	;DEBUG_VALUE: main:b <- $w0
	;DEBUG_VALUE: main:bitsRead <- 1
	.loc	1 371 11                        ; bzip2recover.c:371:11
	cmp	w0, #2
	b.ne	LBB0_6
Ltmp19:
; %bb.5:
	;DEBUG_VALUE: main:bitsRead <- 1
	;DEBUG_VALUE: main:b <- $w0
	;DEBUG_VALUE: main:rbCtr <- 0
	;DEBUG_VALUE: main:buffLo <- 0
	;DEBUG_VALUE: main:buffHi <- 0
	;DEBUG_VALUE: main:currBlock <- 0
	;DEBUG_VALUE: main:bsIn <- $x21
	;DEBUG_VALUE: bsOpenReadStream:bs <- $x21
	;DEBUG_VALUE: bsOpenReadStream:stream <- $x23
	;DEBUG_VALUE: main:inFile <- $x23
	;DEBUG_VALUE: main:argv <- [DW_OP_LLVM_entry_value 1] $x1
	;DEBUG_VALUE: main:argc <- $w22
	.loc	1 0 11 is_stmt 0                ; bzip2recover.c:0:11
	mov	w25, #0
	str	xzr, [sp, #40]                  ; 8-byte Folded Spill
	mov	x20, #0
	str	wzr, [sp, #60]                  ; 4-byte Folded Spill
	mov	w19, #0
	mov	w8, #1
	b	LBB0_17
Ltmp20:
LBB0_6:                                 ; %.lr.ph.preheader
	;DEBUG_VALUE: main:bitsRead <- 1
	;DEBUG_VALUE: main:b <- $w0
	;DEBUG_VALUE: main:rbCtr <- 0
	;DEBUG_VALUE: main:buffLo <- 0
	;DEBUG_VALUE: main:buffHi <- 0
	;DEBUG_VALUE: main:currBlock <- 0
	;DEBUG_VALUE: main:bsIn <- $x21
	;DEBUG_VALUE: bsOpenReadStream:bs <- $x21
	;DEBUG_VALUE: bsOpenReadStream:stream <- $x23
	;DEBUG_VALUE: main:inFile <- $x23
	;DEBUG_VALUE: main:argv <- [DW_OP_LLVM_entry_value 1] $x1
	;DEBUG_VALUE: main:argc <- $w22
	mov	x20, #0
	mov	w19, #0
	str	wzr, [sp, #60]                  ; 4-byte Folded Spill
	str	xzr, [sp, #40]                  ; 8-byte Folded Spill
	mov	w25, #0
	mov	w26, #12609
	mov	w24, #21337
	movk	w24, #22822, lsl #16
	mov	w28, #6002
	b	LBB0_10
Ltmp21:
LBB0_7:                                 ;   in Loop: Header=BB0_10 Depth=1
	;DEBUG_VALUE: main:bsIn <- $x19
	;DEBUG_VALUE: main:bitsRead <- $x20
	;DEBUG_VALUE: main:buffHi <- [DW_OP_plus_uconst 60] [$sp+0]
	;DEBUG_VALUE: main:currBlock <- $w25
	;DEBUG_VALUE: main:argv <- [DW_OP_LLVM_entry_value 1] $x1
	;DEBUG_VALUE: main:rbCtr <- [DW_OP_plus_uconst 40] [$sp+0]
	.loc	1 405 14 is_stmt 1              ; bzip2recover.c:405:14
	lsr	w8, w25, #4
	cmp	w8, #3125
	b.hs	LBB0_56
Ltmp22:
LBB0_8:                                 ; %.thread
                                        ;   in Loop: Header=BB0_10 Depth=1
	;DEBUG_VALUE: main:bsIn <- $x19
	;DEBUG_VALUE: main:bitsRead <- $x20
	;DEBUG_VALUE: main:buffHi <- [DW_OP_plus_uconst 60] [$sp+0]
	;DEBUG_VALUE: main:currBlock <- $w25
	;DEBUG_VALUE: main:rbCtr <- [DW_OP_plus_uconst 40] [$sp+0]
	;DEBUG_VALUE: main:argv <- [DW_OP_LLVM_entry_value 1] $x1
                                        ; kill: def $w25 killed $w25 killed $x25 def $x25
	.loc	1 0 0 is_stmt 0                 ; bzip2recover.c:0:0
	sxtw	x8, w25
	.loc	1 407 19 is_stmt 1              ; bzip2recover.c:407:19
	add	x25, x8, #1
Ltmp23:
	;DEBUG_VALUE: main:currBlock <- $w25
	.loc	1 409 28                        ; bzip2recover.c:409:28
	str	x22, [x27, x25, lsl  #3]
                                        ; kill: def $w25 killed $w25 killed $x25 def $x25
	mov	x21, x19
Ltmp24:
	;DEBUG_VALUE: main:bsIn <- $x21
	.loc	1 0 28 is_stmt 0                ; bzip2recover.c:0:28
	mov	x19, x23
Ltmp25:
LBB0_9:                                 ;   in Loop: Header=BB0_10 Depth=1
	;DEBUG_VALUE: main:bitsRead <- $x20
	;DEBUG_VALUE: main:buffHi <- [DW_OP_plus_uconst 60] [$sp+0]
	;DEBUG_VALUE: main:currBlock <- $w25
	;DEBUG_VALUE: main:rbCtr <- [DW_OP_plus_uconst 40] [$sp+0]
	;DEBUG_VALUE: main:bsIn <- $x21
	;DEBUG_VALUE: main:argv <- [DW_OP_LLVM_entry_value 1] $x1
	;DEBUG_VALUE: main:bitsRead <- [DW_OP_plus_uconst 1, DW_OP_stack_value] $x20
	;DEBUG_VALUE: main:buffLo <- $w19
	;DEBUG_VALUE: main:buffHi <- [DW_OP_plus_uconst 60] [$sp+0]
	;DEBUG_VALUE: main:currBlock <- $w25
	;DEBUG_VALUE: main:rbCtr <- [DW_OP_plus_uconst 40] [$sp+0]
	.loc	1 369 11 is_stmt 1              ; bzip2recover.c:369:11
	mov	x0, x21
	bl	_bsGetBit
Ltmp26:
	;DEBUG_VALUE: main:b <- $w0
	;DEBUG_VALUE: main:bitsRead <- [DW_OP_plus_uconst 2, DW_OP_stack_value] $x20
	.loc	1 371 11                        ; bzip2recover.c:371:11
	add	x20, x20, #1
Ltmp27:
	cmp	w0, #2
	b.eq	LBB0_16
Ltmp28:
LBB0_10:                                ; %.lr.ph
                                        ; =>This Inner Loop Header: Depth=1
	;DEBUG_VALUE: main:b <- $w0
	;DEBUG_VALUE: main:bsIn <- $x21
	;DEBUG_VALUE: main:argv <- [DW_OP_LLVM_entry_value 1] $x1
	.loc	1 0 11 is_stmt 0                ; bzip2recover.c:0:11
	mov	x8, x19
Ltmp29:
	;DEBUG_VALUE: main:rbCtr <- [DW_OP_plus_uconst 40] [$sp+0]
	;DEBUG_VALUE: main:currBlock <- $w25
	;DEBUG_VALUE: main:buffHi <- [DW_OP_plus_uconst 60] [$sp+0]
	;DEBUG_VALUE: main:buffLo <- $w8
	;DEBUG_VALUE: main:bitsRead <- $x20
	ldr	w9, [sp, #60]                   ; 4-byte Folded Reload
Ltmp30:
	;DEBUG_VALUE: main:buffHi <- $w9
	.loc	1 383 30 is_stmt 1              ; bzip2recover.c:383:30
	extr	w9, w9, w19, #31
Ltmp31:
	;DEBUG_VALUE: main:buffHi <- $w9
	.loc	1 384 30                        ; bzip2recover.c:384:30
	mov	x19, x0
	bfi	w19, w8, #1, #31
Ltmp32:
	;DEBUG_VALUE: main:buffLo <- $w19
	.loc	1 0 30 is_stmt 0                ; bzip2recover.c:0:30
	str	w9, [sp, #60]                   ; 4-byte Folded Spill
Ltmp33:
	;DEBUG_VALUE: main:buffHi <- [DW_OP_plus_uconst 60] [$sp+0]
	.loc	1 385 22 is_stmt 1              ; bzip2recover.c:385:22
	and	w8, w9, #0xffff
	.loc	1 386 14                        ; bzip2recover.c:386:14
	cmp	w8, w26
	ccmp	w19, w24, #0, eq
	b.eq	LBB0_13
Ltmp34:
; %bb.11:                               ;   in Loop: Header=BB0_10 Depth=1
	;DEBUG_VALUE: main:buffLo <- $w19
	;DEBUG_VALUE: main:bitsRead <- $x20
	;DEBUG_VALUE: main:buffHi <- [DW_OP_plus_uconst 60] [$sp+0]
	;DEBUG_VALUE: main:currBlock <- $w25
	;DEBUG_VALUE: main:rbCtr <- [DW_OP_plus_uconst 40] [$sp+0]
	;DEBUG_VALUE: main:b <- $w0
	;DEBUG_VALUE: main:bsIn <- $x21
	;DEBUG_VALUE: main:argv <- [DW_OP_LLVM_entry_value 1] $x1
	.loc	1 389 14                        ; bzip2recover.c:389:14
	cmp	w8, w28
	b.ne	LBB0_9
Ltmp35:
; %bb.12:                               ;   in Loop: Header=BB0_10 Depth=1
	;DEBUG_VALUE: main:buffLo <- $w19
	;DEBUG_VALUE: main:bitsRead <- $x20
	;DEBUG_VALUE: main:buffHi <- [DW_OP_plus_uconst 60] [$sp+0]
	;DEBUG_VALUE: main:currBlock <- $w25
	;DEBUG_VALUE: main:rbCtr <- [DW_OP_plus_uconst 40] [$sp+0]
	;DEBUG_VALUE: main:b <- $w0
	;DEBUG_VALUE: main:bsIn <- $x21
	;DEBUG_VALUE: main:argv <- [DW_OP_LLVM_entry_value 1] $x1
	mov	w8, #20624
	movk	w8, #17720, lsl #16
	cmp	w19, w8
	b.ne	LBB0_9
Ltmp36:
LBB0_13:                                ;   in Loop: Header=BB0_10 Depth=1
	;DEBUG_VALUE: main:buffLo <- $w19
	;DEBUG_VALUE: main:bitsRead <- $x20
	;DEBUG_VALUE: main:buffHi <- [DW_OP_plus_uconst 60] [$sp+0]
	;DEBUG_VALUE: main:currBlock <- $w25
	;DEBUG_VALUE: main:rbCtr <- [DW_OP_plus_uconst 40] [$sp+0]
	;DEBUG_VALUE: main:b <- $w0
	;DEBUG_VALUE: main:bsIn <- $x21
	;DEBUG_VALUE: main:argv <- [DW_OP_LLVM_entry_value 1] $x1
	.loc	1 0 14 is_stmt 0                ; bzip2recover.c:0:14
	mov	x23, x19
	mov	x19, x21
Ltmp37:
	;DEBUG_VALUE: main:bsIn <- $x19
	;DEBUG_VALUE: main:bsIn <- $x19
	add	x22, x20, #1
Ltmp38:
	.loc	1 391 14 is_stmt 1              ; bzip2recover.c:391:14
	sub	x8, x20, #48
	cmp	x22, #49
	csel	x8, x8, xzr, hi
Lloh24:
	adrp	x21, _bEnd@GOTPAGE
Lloh25:
	ldr	x21, [x21, _bEnd@GOTPAGEOFF]
Ltmp39:
	.loc	1 0 0 is_stmt 0                 ; bzip2recover.c:0:0
	str	x8, [x21, w25, sxtw  #3]
Ltmp40:
	.loc	1 396 28 is_stmt 1              ; bzip2recover.c:396:28
	cmp	w25, #1
	b.lt	LBB0_8
Ltmp41:
; %bb.14:                               ;   in Loop: Header=BB0_10 Depth=1
	;DEBUG_VALUE: main:bsIn <- $x19
	;DEBUG_VALUE: main:bitsRead <- $x20
	;DEBUG_VALUE: main:buffHi <- [DW_OP_plus_uconst 60] [$sp+0]
	;DEBUG_VALUE: main:currBlock <- $w25
	;DEBUG_VALUE: main:rbCtr <- [DW_OP_plus_uconst 40] [$sp+0]
	;DEBUG_VALUE: main:b <- $w0
	;DEBUG_VALUE: main:argv <- [DW_OP_LLVM_entry_value 1] $x1
	.loc	1 397 8                         ; bzip2recover.c:397:8
	ubfiz	x9, x25, #3, #32
	ldr	x8, [x21, x9]
	.loc	1 397 26 is_stmt 0              ; bzip2recover.c:397:26
	ldr	x9, [x27, x9]
	.loc	1 397 24                        ; bzip2recover.c:397:24
	sub	x10, x8, x9
Ltmp42:
	.loc	1 396 14 is_stmt 1              ; bzip2recover.c:396:14
	cmp	x10, #130
	b.lo	LBB0_7
Ltmp43:
; %bb.15:                               ;   in Loop: Header=BB0_10 Depth=1
	;DEBUG_VALUE: main:bsIn <- $x19
	;DEBUG_VALUE: main:bitsRead <- $x20
	;DEBUG_VALUE: main:buffHi <- [DW_OP_plus_uconst 60] [$sp+0]
	;DEBUG_VALUE: main:currBlock <- $w25
	;DEBUG_VALUE: main:rbCtr <- [DW_OP_plus_uconst 40] [$sp+0]
	;DEBUG_VALUE: main:b <- $w0
	;DEBUG_VALUE: main:argv <- [DW_OP_LLVM_entry_value 1] $x1
	.loc	1 0 14 is_stmt 0                ; bzip2recover.c:0:14
	mov	x26, x27
	mov	w27, w25
Ltmp44:
	.loc	1 398 23 is_stmt 1              ; bzip2recover.c:398:23
Lloh26:
	adrp	x10, ___stderrp@GOTPAGE
Lloh27:
	ldr	x10, [x10, ___stderrp@GOTPAGEOFF]
Lloh28:
	ldr	x0, [x10]
Ltmp45:
	.loc	1 0 23 is_stmt 0                ; bzip2recover.c:0:23
	ldr	x24, [sp, #40]                  ; 8-byte Folded Reload
	.loc	1 400 28 is_stmt 1              ; bzip2recover.c:400:28
	add	w28, w24, #1
	.loc	1 398 13                        ; bzip2recover.c:398:13
	stp	x9, x8, [sp, #8]
	str	x28, [sp]
Lloh29:
	adrp	x1, l_.str.8@PAGE
Lloh30:
	add	x1, x1, l_.str.8@PAGEOFF
	bl	_fprintf
Ltmp46:
	.loc	1 401 30                        ; bzip2recover.c:401:30
	lsl	x8, x27, #3
	mov	x27, x26
	mov	w26, #12609
	ldr	x9, [x27, x8]
	.loc	1 401 13 is_stmt 0              ; bzip2recover.c:401:13
	sbfiz	x10, x24, #3, #32
	mov	w24, #21337
	movk	w24, #22822, lsl #16
	.loc	1 401 28                        ; bzip2recover.c:401:28
Lloh31:
	adrp	x11, _rbStart@GOTPAGE
Lloh32:
	ldr	x11, [x11, _rbStart@GOTPAGEOFF]
	str	x9, [x11, x10]
	.loc	1 402 28 is_stmt 1              ; bzip2recover.c:402:28
	ldr	x8, [x21, x8]
	.loc	1 402 26 is_stmt 0              ; bzip2recover.c:402:26
Lloh33:
	adrp	x9, _rbEnd@GOTPAGE
Lloh34:
	ldr	x9, [x9, _rbEnd@GOTPAGEOFF]
	str	x8, [x9, x10]
Ltmp47:
	;DEBUG_VALUE: main:rbCtr <- $w28
                                        ; kill: def $w28 killed $w28 killed $x28 def $x28
	.loc	1 0 26                          ; bzip2recover.c:0:26
	str	x28, [sp, #40]                  ; 8-byte Folded Spill
	mov	w28, #6002
Ltmp48:
	b	LBB0_7
Ltmp49:
LBB0_16:                                ; %._crit_edge.loopexit
	;DEBUG_VALUE: main:buffLo <- $w19
	;DEBUG_VALUE: main:buffHi <- [DW_OP_plus_uconst 60] [$sp+0]
	;DEBUG_VALUE: main:currBlock <- $w25
	;DEBUG_VALUE: main:rbCtr <- [DW_OP_plus_uconst 40] [$sp+0]
	;DEBUG_VALUE: main:b <- $w0
	;DEBUG_VALUE: main:bsIn <- $x21
	;DEBUG_VALUE: main:argv <- [DW_OP_LLVM_entry_value 1] $x1
	.loc	1 372 26 is_stmt 1              ; bzip2recover.c:372:26
	add	x8, x20, #1
Ltmp50:
LBB0_17:                                ; %._crit_edge
	;DEBUG_VALUE: main:b <- $w0
	;DEBUG_VALUE: main:bsIn <- $x21
	;DEBUG_VALUE: main:argv <- [DW_OP_LLVM_entry_value 1] $x1
	ldr	x9, [x27, w25, sxtw  #3]
	subs	x8, x8, x9
	.loc	1 372 44 is_stmt 0              ; bzip2recover.c:372:44
	b.lo	LBB0_21
Ltmp51:
; %bb.18:                               ; %._crit_edge
	;DEBUG_VALUE: main:b <- $w0
	;DEBUG_VALUE: main:bsIn <- $x21
	;DEBUG_VALUE: main:argv <- [DW_OP_LLVM_entry_value 1] $x1
	cmp	x8, #40
	b.lo	LBB0_21
Ltmp52:
; %bb.19:
	;DEBUG_VALUE: main:b <- $w0
	;DEBUG_VALUE: main:bsIn <- $x21
	;DEBUG_VALUE: main:argv <- [DW_OP_LLVM_entry_value 1] $x1
                                        ; kill: def $w25 killed $w25 killed $x25 def $x25
	.loc	1 0 44                          ; bzip2recover.c:0:44
	sxtw	x8, w25
Ltmp53:
	.loc	1 374 13 is_stmt 1              ; bzip2recover.c:374:13
Lloh35:
	adrp	x10, _bEnd@GOTPAGE
Lloh36:
	ldr	x10, [x10, _bEnd@GOTPAGEOFF]
	.loc	1 374 29 is_stmt 0              ; bzip2recover.c:374:29
	str	x20, [x10, x8, lsl  #3]
	.loc	1 375 17 is_stmt 1              ; bzip2recover.c:375:17
	cmp	w8, #1
	b.lt	LBB0_21
Ltmp54:
; %bb.20:
	;DEBUG_VALUE: main:b <- $w0
	;DEBUG_VALUE: main:bsIn <- $x21
	;DEBUG_VALUE: main:argv <- [DW_OP_LLVM_entry_value 1] $x1
	.loc	1 376 26                        ; bzip2recover.c:376:26
Lloh37:
	adrp	x10, ___stderrp@GOTPAGE
Lloh38:
	ldr	x10, [x10, ___stderrp@GOTPAGEOFF]
Lloh39:
	ldr	x0, [x10]
Ltmp55:
	.loc	1 376 16 is_stmt 0              ; bzip2recover.c:376:16
	stp	x9, x20, [sp, #8]
	str	x8, [sp]
Lloh40:
	adrp	x1, l_.str.7@PAGE
Lloh41:
	add	x1, x1, l_.str.7@PAGEOFF
	bl	_fprintf
Ltmp56:
LBB0_21:
	;DEBUG_VALUE: main:bsIn <- $x21
	;DEBUG_VALUE: main:argv <- [DW_OP_LLVM_entry_value 1] $x1
	.loc	1 413 4 is_stmt 1               ; bzip2recover.c:413:4
	mov	x0, x21
	bl	_bsClose
Ltmp57:
	.loc	1 0 0 is_stmt 0                 ; bzip2recover.c:0:0
Lloh42:
	adrp	x8, ___stderrp@GOTPAGE
Lloh43:
	ldr	x8, [x8, ___stderrp@GOTPAGEOFF]
Lloh44:
	ldr	x0, [x8]
	ldr	x8, [sp, #40]                   ; 8-byte Folded Reload
	.loc	1 417 8 is_stmt 1               ; bzip2recover.c:417:8
	cmp	w8, #0
	b.le	LBB0_65
Ltmp58:
; %bb.22:
	;DEBUG_VALUE: main:bsIn <- $x21
	;DEBUG_VALUE: main:argv <- [DW_OP_LLVM_entry_value 1] $x1
	.loc	1 0 8 is_stmt 0                 ; bzip2recover.c:0:8
Lloh45:
	adrp	x20, _progName@GOTPAGE
Lloh46:
	ldr	x20, [x20, _progName@GOTPAGEOFF]
	.loc	1 424 4 is_stmt 1               ; bzip2recover.c:424:4
	str	x20, [sp]
Lloh47:
	adrp	x1, l_.str.10@PAGE
Lloh48:
	add	x1, x1, l_.str.10@PAGEOFF
	bl	_fprintf
Ltmp59:
	.loc	1 426 13                        ; bzip2recover.c:426:13
Lloh49:
	adrp	x21, _inFileName@GOTPAGE
Ltmp60:
Lloh50:
	ldr	x21, [x21, _inFileName@GOTPAGEOFF]
Lloh51:
	adrp	x1, l_.str.4@PAGE
Lloh52:
	add	x1, x1, l_.str.4@PAGEOFF
	mov	x0, x21
	bl	_fopen
Ltmp61:
	;DEBUG_VALUE: main:inFile <- $x0
	.loc	1 427 8                         ; bzip2recover.c:427:8
	cbz	x0, LBB0_66
Ltmp62:
; %bb.23:
	;DEBUG_VALUE: main:inFile <- $x0
	;DEBUG_VALUE: main:argv <- [DW_OP_LLVM_entry_value 1] $x1
	.loc	1 0 0 is_stmt 0                 ; bzip2recover.c:0:0
	mov	x23, x0
Ltmp63:
	;DEBUG_VALUE: main:inFile <- $x23
	;DEBUG_VALUE: bsOpenReadStream:stream <- $x23
	.loc	1 156 20 is_stmt 1              ; bzip2recover.c:156:20
	mov	w0, #24
	bl	_malloc
Ltmp64:
	;DEBUG_VALUE: bsOpenReadStream:bs <- $x0
	.loc	1 157 8                         ; bzip2recover.c:157:8
	cbz	x0, LBB0_57
Ltmp65:
; %bb.24:                               ; %bsOpenReadStream.exit161
	;DEBUG_VALUE: bsOpenReadStream:bs <- $x0
	;DEBUG_VALUE: bsOpenReadStream:stream <- $x23
	;DEBUG_VALUE: main:inFile <- $x23
	;DEBUG_VALUE: main:argv <- [DW_OP_LLVM_entry_value 1] $x1
	.loc	1 0 0 is_stmt 0                 ; bzip2recover.c:0:0
	mov	x20, x0
Ltmp66:
	;DEBUG_VALUE: bsOpenReadStream:bs <- $x20
	;DEBUG_VALUE: bsOpenReadStream:stream <- $x23
	.loc	1 158 15 is_stmt 1              ; bzip2recover.c:158:15
	stp	x23, xzr, [x0]
	mov	w8, #114
	.loc	1 161 13                        ; bzip2recover.c:161:13
	strb	w8, [x0, #16]
Ltmp67:
	;DEBUG_VALUE: main:wrBlock <- 0
	;DEBUG_VALUE: main:outFile <- 0
	;DEBUG_VALUE: main:bsWr <- 0
	;DEBUG_VALUE: main:blockCRC <- 0
	;DEBUG_VALUE: main:buffHi <- [DW_OP_plus_uconst 60] [$sp+0]
	;DEBUG_VALUE: main:buffLo <- $w19
	;DEBUG_VALUE: main:bitsRead <- 0
	;DEBUG_VALUE: main:bsIn <- $x20
	.loc	1 440 11                        ; bzip2recover.c:440:11
	bl	_bsGetBit
Ltmp68:
	;DEBUG_VALUE: main:b <- $w0
	.loc	1 441 11                        ; bzip2recover.c:441:11
	cmp	w0, #2
	b.ne	LBB0_26
Ltmp69:
LBB0_25:                                ; %.thread165._crit_edge
	;DEBUG_VALUE: main:buffHi <- [DW_OP_plus_uconst 60] [$sp+0]
	;DEBUG_VALUE: main:argv <- [DW_OP_LLVM_entry_value 1] $x1
	.loc	1 508 14                        ; bzip2recover.c:508:14
Lloh53:
	adrp	x8, ___stderrp@GOTPAGE
Lloh54:
	ldr	x8, [x8, ___stderrp@GOTPAGEOFF]
Lloh55:
	ldr	x0, [x8]
	.loc	1 508 4 is_stmt 0               ; bzip2recover.c:508:4
Lloh56:
	adrp	x8, _progName@GOTPAGE
Lloh57:
	ldr	x8, [x8, _progName@GOTPAGEOFF]
	str	x8, [sp]
Lloh58:
	adrp	x1, l_.str.17@PAGE
Lloh59:
	add	x1, x1, l_.str.17@PAGEOFF
	bl	_fprintf
Ltmp70:
	.loc	1 509 4 is_stmt 1               ; bzip2recover.c:509:4
	mov	w0, #0
	ldp	x29, x30, [sp, #144]            ; 16-byte Folded Reload
	ldp	x20, x19, [sp, #128]            ; 16-byte Folded Reload
	ldp	x22, x21, [sp, #112]            ; 16-byte Folded Reload
	ldp	x24, x23, [sp, #96]             ; 16-byte Folded Reload
	ldp	x26, x25, [sp, #80]             ; 16-byte Folded Reload
	ldp	x28, x27, [sp, #64]             ; 16-byte Folded Reload
	add	sp, sp, #160
Ltmp71:
	ret
Ltmp72:
LBB0_26:                                ; %.lr.ph195.preheader
	;DEBUG_VALUE: main:bsIn <- $x20
	;DEBUG_VALUE: main:blockCRC <- 0
	;DEBUG_VALUE: main:bsWr <- 0
	;DEBUG_VALUE: main:outFile <- 0
	;DEBUG_VALUE: main:wrBlock <- 0
	;DEBUG_VALUE: bsOpenReadStream:bs <- $x20
	;DEBUG_VALUE: bsOpenReadStream:stream <- $x23
	;DEBUG_VALUE: main:buffLo <- $w19
	;DEBUG_VALUE: main:buffHi <- [DW_OP_plus_uconst 60] [$sp+0]
	;DEBUG_VALUE: main:b <- $w0
	;DEBUG_VALUE: main:bitsRead <- 0
	;DEBUG_VALUE: main:inFile <- $x23
	;DEBUG_VALUE: main:argv <- [DW_OP_LLVM_entry_value 1] $x1
	.loc	1 0 4 is_stmt 0                 ; bzip2recover.c:0:4
	mov	x23, x0
Ltmp73:
	;DEBUG_VALUE: main:b <- $w23
	mov	w21, #0
	mov	x27, #0
	mov	w10, #0
	mov	x28, #0
	mov	x25, #0
	str	x20, [sp, #32]                  ; 8-byte Folded Spill
	;DEBUG_VALUE: bsOpenReadStream:bs <- [DW_OP_plus_uconst 32] [$sp+0]
	b	LBB0_29
Ltmp74:
LBB0_27:                                ;   in Loop: Header=BB0_29 Depth=1
	;DEBUG_VALUE: main:outFile <- $x25
	;DEBUG_VALUE: main:bsWr <- $x28
	;DEBUG_VALUE: main:blockCRC <- $w21
	;DEBUG_VALUE: main:b <- $w23
	;DEBUG_VALUE: main:buffHi <- [DW_OP_plus_uconst 60] [$sp+0]
	;DEBUG_VALUE: main:argv <- [DW_OP_LLVM_entry_value 1] $x1
	ldr	x20, [sp, #32]                  ; 8-byte Folded Reload
Ltmp75:
LBB0_28:                                ;   in Loop: Header=BB0_29 Depth=1
	;DEBUG_VALUE: main:bsWr <- $x28
	;DEBUG_VALUE: main:blockCRC <- $w21
	;DEBUG_VALUE: main:b <- $w23
	;DEBUG_VALUE: main:buffHi <- [DW_OP_plus_uconst 60] [$sp+0]
	;DEBUG_VALUE: main:argv <- [DW_OP_LLVM_entry_value 1] $x1
	bfxil	w19, w23, #0, #1
Ltmp76:
	;DEBUG_VALUE: main:wrBlock <- [DW_OP_plus_uconst 48] [$sp+0]
	;DEBUG_VALUE: main:outFile <- $x25
	;DEBUG_VALUE: main:bsWr <- $x28
	;DEBUG_VALUE: main:blockCRC <- $w21
	;DEBUG_VALUE: main:buffHi <- [DW_OP_plus_uconst 60] [$sp+0]
	;DEBUG_VALUE: main:buffLo <- $w19
	;DEBUG_VALUE: main:bitsRead <- $x22
	.loc	1 440 11 is_stmt 1              ; bzip2recover.c:440:11
	mov	x0, x20
	bl	_bsGetBit
Ltmp77:
	mov	x23, x0
Ltmp78:
	;DEBUG_VALUE: main:b <- $w23
	.loc	1 0 11 is_stmt 0                ; bzip2recover.c:0:11
	mov	x27, x22
Ltmp79:
	;DEBUG_VALUE: main:bitsRead <- $x27
	;DEBUG_VALUE: main:bitsRead <- $x27
	.loc	1 441 11 is_stmt 1              ; bzip2recover.c:441:11
	cmp	w0, #2
	ldr	x10, [sp, #48]                  ; 8-byte Folded Reload
Ltmp80:
	;DEBUG_VALUE: main:wrBlock <- $w10
	b.eq	LBB0_25
Ltmp81:
LBB0_29:                                ; %.lr.ph195
                                        ; =>This Loop Header: Depth=1
                                        ;     Child Loop BB0_35 Depth 2
                                        ;     Child Loop BB0_45 Depth 2
	;DEBUG_VALUE: main:b <- $w23
	;DEBUG_VALUE: main:buffLo <- $w19
	;DEBUG_VALUE: main:buffHi <- [DW_OP_plus_uconst 60] [$sp+0]
	;DEBUG_VALUE: main:argv <- [DW_OP_LLVM_entry_value 1] $x1
	;DEBUG_VALUE: main:bitsRead <- $x27
	;DEBUG_VALUE: main:buffLo <- $w19
	;DEBUG_VALUE: main:buffHi <- [DW_OP_plus_uconst 60] [$sp+0]
	;DEBUG_VALUE: main:blockCRC <- $w21
	;DEBUG_VALUE: main:bsWr <- $x28
	;DEBUG_VALUE: main:outFile <- $x25
	;DEBUG_VALUE: main:wrBlock <- $w10
	.loc	1 0 11 is_stmt 0                ; bzip2recover.c:0:11
	ldr	w9, [sp, #60]                   ; 4-byte Folded Reload
Ltmp82:
	;DEBUG_VALUE: main:buffHi <- $w9
	.loc	1 442 30 is_stmt 1              ; bzip2recover.c:442:30
	extr	w9, w9, w19, #31
Ltmp83:
	;DEBUG_VALUE: main:buffHi <- $w9
	.loc	1 443 24                        ; bzip2recover.c:443:24
	lsl	w19, w19, #1
Ltmp84:
	;DEBUG_VALUE: main:buffLo <- [DW_OP_LLVM_arg 0, DW_OP_LLVM_arg 1, DW_OP_or, DW_OP_stack_value] undef
	.loc	1 444 26                        ; bzip2recover.c:444:26
Lloh60:
	adrp	x8, _rbStart@GOTPAGE
Lloh61:
	ldr	x8, [x8, _rbStart@GOTPAGEOFF]
	ldr	x24, [x8, w10, sxtw  #3]
	sxtw	x20, w10
	.loc	1 444 25 is_stmt 0              ; bzip2recover.c:444:25
	add	x8, x24, #47
	str	w9, [sp, #60]                   ; 4-byte Folded Spill
Ltmp85:
	;DEBUG_VALUE: main:buffHi <- [DW_OP_plus_uconst 60] [$sp+0]
	.loc	1 444 11                        ; bzip2recover.c:444:11
	extr	w9, w9, w19, #16
	cmp	x27, x8
	csel	w21, w9, w21, eq
Ltmp86:
	;DEBUG_VALUE: main:blockCRC <- $w21
	.loc	1 447 34 is_stmt 1              ; bzip2recover.c:447:34
	cbz	x25, LBB0_37
Ltmp87:
; %bb.30:                               ;   in Loop: Header=BB0_29 Depth=1
	;DEBUG_VALUE: main:wrBlock <- $w10
	;DEBUG_VALUE: main:outFile <- $x25
	;DEBUG_VALUE: main:bsWr <- $x28
	;DEBUG_VALUE: main:blockCRC <- $w21
	;DEBUG_VALUE: main:bitsRead <- $x27
	;DEBUG_VALUE: main:b <- $w23
	;DEBUG_VALUE: main:buffHi <- [DW_OP_plus_uconst 60] [$sp+0]
	;DEBUG_VALUE: main:argv <- [DW_OP_LLVM_entry_value 1] $x1
	.loc	1 448 27                        ; bzip2recover.c:448:27
	cmp	x27, x24
	b.lo	LBB0_33
Ltmp88:
; %bb.31:                               ;   in Loop: Header=BB0_29 Depth=1
	;DEBUG_VALUE: main:wrBlock <- $w10
	;DEBUG_VALUE: main:outFile <- $x25
	;DEBUG_VALUE: main:bsWr <- $x28
	;DEBUG_VALUE: main:blockCRC <- $w21
	;DEBUG_VALUE: main:bitsRead <- $x27
	;DEBUG_VALUE: main:b <- $w23
	;DEBUG_VALUE: main:buffHi <- [DW_OP_plus_uconst 60] [$sp+0]
	;DEBUG_VALUE: main:argv <- [DW_OP_LLVM_entry_value 1] $x1
	.loc	1 448 42 is_stmt 0              ; bzip2recover.c:448:42
Lloh62:
	adrp	x8, _rbEnd@GOTPAGE
Lloh63:
	ldr	x8, [x8, _rbEnd@GOTPAGEOFF]
	ldr	x8, [x8, x20, lsl  #3]
Ltmp89:
	.loc	1 447 11 is_stmt 1              ; bzip2recover.c:447:11
	cmp	x27, x8
	b.hi	LBB0_33
Ltmp90:
; %bb.32:                               ;   in Loop: Header=BB0_29 Depth=1
	;DEBUG_VALUE: main:wrBlock <- $w10
	;DEBUG_VALUE: main:outFile <- $x25
	;DEBUG_VALUE: main:bsWr <- $x28
	;DEBUG_VALUE: main:blockCRC <- $w21
	;DEBUG_VALUE: main:bitsRead <- $x27
	;DEBUG_VALUE: main:b <- $w23
	;DEBUG_VALUE: main:buffHi <- [DW_OP_plus_uconst 60] [$sp+0]
	;DEBUG_VALUE: main:argv <- [DW_OP_LLVM_entry_value 1] $x1
	.loc	1 449 10                        ; bzip2recover.c:449:10
	mov	x0, x28
	mov	x1, x23
	mov	x22, x10
	bl	_bsPutBit
Ltmp91:
	.loc	1 0 10 is_stmt 0                ; bzip2recover.c:0:10
	mov	x10, x22
Ltmp92:
LBB0_33:                                ;   in Loop: Header=BB0_29 Depth=1
	;DEBUG_VALUE: main:outFile <- $x25
	;DEBUG_VALUE: main:bsWr <- $x28
	;DEBUG_VALUE: main:blockCRC <- $w21
	;DEBUG_VALUE: main:bitsRead <- $x27
	;DEBUG_VALUE: main:b <- $w23
	;DEBUG_VALUE: main:buffHi <- [DW_OP_plus_uconst 60] [$sp+0]
	;DEBUG_VALUE: main:argv <- [DW_OP_LLVM_entry_value 1] $x1
	.loc	1 452 15 is_stmt 1              ; bzip2recover.c:452:15
	add	x22, x27, #1
Ltmp93:
	;DEBUG_VALUE: main:bitsRead <- $x22
	.loc	1 454 23                        ; bzip2recover.c:454:23
Lloh64:
	adrp	x8, _rbEnd@GOTPAGE
Lloh65:
	ldr	x8, [x8, _rbEnd@GOTPAGEOFF]
	ldr	x8, [x8, x20, lsl  #3]
Ltmp94:
	.loc	1 454 11 is_stmt 0              ; bzip2recover.c:454:11
	cmp	x27, x8
	b.ne	LBB0_40
Ltmp95:
; %bb.34:                               ;   in Loop: Header=BB0_29 Depth=1
	;DEBUG_VALUE: main:bitsRead <- $x22
	;DEBUG_VALUE: main:outFile <- $x25
	;DEBUG_VALUE: main:bsWr <- $x28
	;DEBUG_VALUE: main:blockCRC <- $w21
	;DEBUG_VALUE: main:b <- $w23
	;DEBUG_VALUE: main:buffHi <- [DW_OP_plus_uconst 60] [$sp+0]
	;DEBUG_VALUE: main:argv <- [DW_OP_LLVM_entry_value 1] $x1
	;DEBUG_VALUE: bsPutUChar:bs <- $x28
	;DEBUG_VALUE: bsPutUChar:c <- 23
	;DEBUG_VALUE: bsPutUChar:i <- 7
	.loc	1 0 11                          ; bzip2recover.c:0:11
	mov	x24, x10
Ltmp96:
	.loc	1 246 7 is_stmt 1               ; bzip2recover.c:246:7
	mov	x0, x28
	mov	w1, #0
	bl	_bsPutBit
Ltmp97:
	;DEBUG_VALUE: bsPutUChar:i <- 6
	mov	x0, x28
	mov	w1, #0
	bl	_bsPutBit
Ltmp98:
	;DEBUG_VALUE: bsPutUChar:i <- 5
	mov	x0, x28
	mov	w1, #0
	bl	_bsPutBit
Ltmp99:
	;DEBUG_VALUE: bsPutUChar:i <- 4
	mov	x0, x28
	mov	w1, #1
	bl	_bsPutBit
Ltmp100:
	;DEBUG_VALUE: bsPutUChar:i <- 3
	mov	x0, x28
	mov	w1, #0
	bl	_bsPutBit
Ltmp101:
	;DEBUG_VALUE: bsPutUChar:i <- 2
	mov	x0, x28
	mov	w1, #1
	bl	_bsPutBit
Ltmp102:
	;DEBUG_VALUE: bsPutUChar:i <- 1
	mov	x0, x28
	mov	w1, #1
	bl	_bsPutBit
Ltmp103:
	;DEBUG_VALUE: bsPutUChar:i <- 0
	mov	x0, x28
	mov	w1, #1
	bl	_bsPutBit
Ltmp104:
	;DEBUG_VALUE: bsPutUChar:i <- 7
	;DEBUG_VALUE: bsPutUChar:c <- 114
	;DEBUG_VALUE: bsPutUChar:bs <- $x28
	;DEBUG_VALUE: bsPutUChar:i <- -1
	.loc	1 246 7 is_stmt 0               ; bzip2recover.c:246:7
	mov	x0, x28
	mov	w1, #0
	bl	_bsPutBit
Ltmp105:
	;DEBUG_VALUE: bsPutUChar:i <- 6
	mov	x0, x28
	mov	w1, #1
	bl	_bsPutBit
Ltmp106:
	;DEBUG_VALUE: bsPutUChar:i <- 5
	mov	x0, x28
	mov	w1, #1
	bl	_bsPutBit
Ltmp107:
	;DEBUG_VALUE: bsPutUChar:i <- 4
	mov	x0, x28
	mov	w1, #1
	bl	_bsPutBit
Ltmp108:
	;DEBUG_VALUE: bsPutUChar:i <- 3
	mov	x0, x28
	mov	w1, #0
	bl	_bsPutBit
Ltmp109:
	;DEBUG_VALUE: bsPutUChar:i <- 2
	mov	x0, x28
	mov	w1, #0
	bl	_bsPutBit
Ltmp110:
	;DEBUG_VALUE: bsPutUChar:i <- 1
	mov	x0, x28
	mov	w1, #1
	bl	_bsPutBit
Ltmp111:
	;DEBUG_VALUE: bsPutUChar:i <- 0
	mov	x0, x28
	mov	w1, #0
	bl	_bsPutBit
Ltmp112:
	;DEBUG_VALUE: bsPutUChar:i <- 7
	;DEBUG_VALUE: bsPutUChar:c <- 69
	;DEBUG_VALUE: bsPutUChar:bs <- $x28
	;DEBUG_VALUE: bsPutUChar:i <- -1
	.loc	1 246 7                         ; bzip2recover.c:246:7
	mov	x0, x28
	mov	w1, #0
	bl	_bsPutBit
Ltmp113:
	;DEBUG_VALUE: bsPutUChar:i <- 6
	mov	x0, x28
	mov	w1, #1
	bl	_bsPutBit
Ltmp114:
	;DEBUG_VALUE: bsPutUChar:i <- 5
	mov	x0, x28
	mov	w1, #0
	bl	_bsPutBit
Ltmp115:
	;DEBUG_VALUE: bsPutUChar:i <- 4
	mov	x0, x28
	mov	w1, #0
	bl	_bsPutBit
Ltmp116:
	;DEBUG_VALUE: bsPutUChar:i <- 3
	mov	x0, x28
	mov	w1, #0
	bl	_bsPutBit
Ltmp117:
	;DEBUG_VALUE: bsPutUChar:i <- 2
	mov	x0, x28
	mov	w1, #1
	bl	_bsPutBit
Ltmp118:
	;DEBUG_VALUE: bsPutUChar:i <- 1
	mov	x0, x28
	mov	w1, #0
	bl	_bsPutBit
Ltmp119:
	;DEBUG_VALUE: bsPutUChar:i <- 0
	mov	x0, x28
	mov	w1, #1
	bl	_bsPutBit
Ltmp120:
	;DEBUG_VALUE: bsPutUChar:i <- 7
	;DEBUG_VALUE: bsPutUChar:c <- 56
	;DEBUG_VALUE: bsPutUChar:bs <- $x28
	;DEBUG_VALUE: bsPutUChar:i <- -1
	.loc	1 246 7                         ; bzip2recover.c:246:7
	mov	x0, x28
	mov	w1, #0
	bl	_bsPutBit
Ltmp121:
	;DEBUG_VALUE: bsPutUChar:i <- 6
	mov	x0, x28
	mov	w1, #0
	bl	_bsPutBit
Ltmp122:
	;DEBUG_VALUE: bsPutUChar:i <- 5
	mov	x0, x28
	mov	w1, #1
	bl	_bsPutBit
Ltmp123:
	;DEBUG_VALUE: bsPutUChar:i <- 4
	mov	x0, x28
	mov	w1, #1
	bl	_bsPutBit
Ltmp124:
	;DEBUG_VALUE: bsPutUChar:i <- 3
	mov	x0, x28
	mov	w1, #1
	bl	_bsPutBit
Ltmp125:
	;DEBUG_VALUE: bsPutUChar:i <- 2
	mov	x0, x28
	mov	w1, #0
	bl	_bsPutBit
Ltmp126:
	;DEBUG_VALUE: bsPutUChar:i <- 1
	mov	x0, x28
	mov	w1, #0
	bl	_bsPutBit
Ltmp127:
	;DEBUG_VALUE: bsPutUChar:i <- 0
	mov	x0, x28
	mov	w1, #0
	bl	_bsPutBit
Ltmp128:
	;DEBUG_VALUE: bsPutUChar:i <- 7
	;DEBUG_VALUE: bsPutUChar:c <- 80
	;DEBUG_VALUE: bsPutUChar:bs <- $x28
	;DEBUG_VALUE: bsPutUChar:i <- -1
	.loc	1 246 7                         ; bzip2recover.c:246:7
	mov	x0, x28
	mov	w1, #0
	bl	_bsPutBit
Ltmp129:
	;DEBUG_VALUE: bsPutUChar:i <- 6
	mov	x0, x28
	mov	w1, #1
	bl	_bsPutBit
Ltmp130:
	;DEBUG_VALUE: bsPutUChar:i <- 5
	mov	x0, x28
	mov	w1, #0
	bl	_bsPutBit
Ltmp131:
	;DEBUG_VALUE: bsPutUChar:i <- 4
	mov	x0, x28
	mov	w1, #1
	bl	_bsPutBit
Ltmp132:
	;DEBUG_VALUE: bsPutUChar:i <- 3
	mov	x0, x28
	mov	w1, #0
	bl	_bsPutBit
Ltmp133:
	;DEBUG_VALUE: bsPutUChar:i <- 2
	mov	x0, x28
	mov	w1, #0
	bl	_bsPutBit
Ltmp134:
	;DEBUG_VALUE: bsPutUChar:i <- 1
	mov	x0, x28
	mov	w1, #0
	bl	_bsPutBit
Ltmp135:
	;DEBUG_VALUE: bsPutUChar:i <- 0
	mov	x0, x28
	mov	w1, #0
	bl	_bsPutBit
Ltmp136:
	;DEBUG_VALUE: bsPutUChar:i <- 7
	;DEBUG_VALUE: bsPutUChar:c <- -112
	;DEBUG_VALUE: bsPutUChar:bs <- $x28
	;DEBUG_VALUE: bsPutUChar:i <- -1
	.loc	1 246 7                         ; bzip2recover.c:246:7
	mov	x0, x28
	mov	w1, #1
	bl	_bsPutBit
Ltmp137:
	;DEBUG_VALUE: bsPutUChar:i <- 6
	mov	x0, x28
	mov	w1, #0
	bl	_bsPutBit
Ltmp138:
	;DEBUG_VALUE: bsPutUChar:i <- 5
	mov	x0, x28
	mov	w1, #0
	bl	_bsPutBit
Ltmp139:
	;DEBUG_VALUE: bsPutUChar:i <- 4
	mov	x0, x28
	mov	w1, #1
	bl	_bsPutBit
Ltmp140:
	;DEBUG_VALUE: bsPutUChar:i <- 3
	mov	x0, x28
	mov	w1, #0
	bl	_bsPutBit
Ltmp141:
	;DEBUG_VALUE: bsPutUChar:i <- 2
	mov	x0, x28
	mov	w1, #0
	bl	_bsPutBit
Ltmp142:
	;DEBUG_VALUE: bsPutUChar:i <- 1
	mov	x0, x28
	mov	w1, #0
	bl	_bsPutBit
Ltmp143:
	;DEBUG_VALUE: bsPutUChar:i <- 0
	mov	x0, x28
	mov	w1, #0
	bl	_bsPutBit
Ltmp144:
	.loc	1 0 7                           ; bzip2recover.c:0:7
	mov	w20, #31
Ltmp145:
	;DEBUG_VALUE: bsPutUInt32:i <- 31
	;DEBUG_VALUE: bsPutUInt32:c <- $w21
	;DEBUG_VALUE: bsPutUInt32:bs <- $x28
	;DEBUG_VALUE: bsPutUChar:i <- -1
LBB0_35:                                ;   Parent Loop BB0_29 Depth=1
                                        ; =>  This Inner Loop Header: Depth=2
	;DEBUG_VALUE: bsPutUInt32:bs <- $x28
	;DEBUG_VALUE: bsPutUInt32:c <- $w21
	;DEBUG_VALUE: main:bitsRead <- $x22
	;DEBUG_VALUE: main:outFile <- $x25
	;DEBUG_VALUE: main:bsWr <- $x28
	;DEBUG_VALUE: main:blockCRC <- $w21
	;DEBUG_VALUE: main:b <- $w23
	;DEBUG_VALUE: main:buffHi <- [DW_OP_plus_uconst 60] [$sp+0]
	;DEBUG_VALUE: main:argv <- [DW_OP_LLVM_entry_value 1] $x1
	;DEBUG_VALUE: bsPutUInt32:i <- $w20
	.loc	1 256 25 is_stmt 1              ; bzip2recover.c:256:25
	lsr	w8, w21, w20
	.loc	1 256 31 is_stmt 0              ; bzip2recover.c:256:31
	and	w1, w8, #0x1
	.loc	1 256 7                         ; bzip2recover.c:256:7
	mov	x0, x28
	bl	_bsPutBit
Ltmp146:
	.loc	1 255 26 is_stmt 1              ; bzip2recover.c:255:26
	sub	w20, w20, #1
Ltmp147:
	;DEBUG_VALUE: bsPutUInt32:i <- $w20
	.loc	1 255 4 is_stmt 0               ; bzip2recover.c:255:4
	cmn	w20, #1
	b.ne	LBB0_35
Ltmp148:
; %bb.36:                               ; %bsPutUInt32.exit
                                        ;   in Loop: Header=BB0_29 Depth=1
	;DEBUG_VALUE: main:bitsRead <- $x22
	;DEBUG_VALUE: main:outFile <- $x25
	;DEBUG_VALUE: main:bsWr <- $x28
	;DEBUG_VALUE: main:blockCRC <- $w21
	;DEBUG_VALUE: main:b <- $w23
	;DEBUG_VALUE: main:buffHi <- [DW_OP_plus_uconst 60] [$sp+0]
	;DEBUG_VALUE: main:argv <- [DW_OP_LLVM_entry_value 1] $x1
	.loc	1 460 13 is_stmt 1              ; bzip2recover.c:460:13
	mov	x0, x28
	bl	_bsClose
Ltmp149:
	;DEBUG_VALUE: main:outFile <- 0
	.loc	1 0 13 is_stmt 0                ; bzip2recover.c:0:13
	mov	x10, x24
	b	LBB0_38
Ltmp150:
LBB0_37:                                ; %.thread164
                                        ;   in Loop: Header=BB0_29 Depth=1
	;DEBUG_VALUE: main:wrBlock <- $w10
	;DEBUG_VALUE: main:outFile <- $x25
	;DEBUG_VALUE: main:bsWr <- $x28
	;DEBUG_VALUE: main:blockCRC <- $w21
	;DEBUG_VALUE: main:bitsRead <- $x27
	;DEBUG_VALUE: main:b <- $w23
	;DEBUG_VALUE: main:buffHi <- [DW_OP_plus_uconst 60] [$sp+0]
	;DEBUG_VALUE: main:argv <- [DW_OP_LLVM_entry_value 1] $x1
	.loc	1 452 15 is_stmt 1              ; bzip2recover.c:452:15
	add	x22, x27, #1
Ltmp151:
	.loc	1 454 23                        ; bzip2recover.c:454:23
Lloh66:
	adrp	x8, _rbEnd@GOTPAGE
Lloh67:
	ldr	x8, [x8, _rbEnd@GOTPAGEOFF]
	ldr	x8, [x8, x20, lsl  #3]
Ltmp152:
	.loc	1 454 11 is_stmt 0              ; bzip2recover.c:454:11
	cmp	x27, x8
	b.ne	LBB0_41
Ltmp153:
LBB0_38:                                ; %.thread165
                                        ;   in Loop: Header=BB0_29 Depth=1
	;DEBUG_VALUE: main:bsWr <- $x28
	;DEBUG_VALUE: main:blockCRC <- $w21
	;DEBUG_VALUE: main:b <- $w23
	;DEBUG_VALUE: main:buffHi <- [DW_OP_plus_uconst 60] [$sp+0]
	;DEBUG_VALUE: main:argv <- [DW_OP_LLVM_entry_value 1] $x1
	;DEBUG_VALUE: main:outFile <- 0
	.loc	1 0 11                          ; bzip2recover.c:0:11
	ldp	x20, x8, [sp, #32]              ; 16-byte Folded Reload
Ltmp154:
	.loc	1 463 14 is_stmt 1              ; bzip2recover.c:463:14
	cmp	w10, w8
	b.ge	LBB0_25
Ltmp155:
; %bb.39:                               ;   in Loop: Header=BB0_29 Depth=1
	;DEBUG_VALUE: main:bsWr <- $x28
	;DEBUG_VALUE: main:blockCRC <- $w21
	;DEBUG_VALUE: main:b <- $w23
	;DEBUG_VALUE: main:outFile <- 0
	;DEBUG_VALUE: main:buffHi <- [DW_OP_plus_uconst 60] [$sp+0]
	;DEBUG_VALUE: main:argv <- [DW_OP_LLVM_entry_value 1] $x1
	.loc	1 0 14 is_stmt 0                ; bzip2recover.c:0:14
	mov	x25, #0
	.loc	1 464 17 is_stmt 1              ; bzip2recover.c:464:17
	add	w10, w10, #1
Ltmp156:
	;DEBUG_VALUE: main:wrBlock <- $w10
	.loc	1 0 17 is_stmt 0                ; bzip2recover.c:0:17
	str	x10, [sp, #48]                  ; 8-byte Folded Spill
Ltmp157:
	;DEBUG_VALUE: main:wrBlock <- [DW_OP_plus_uconst 48] [$sp+0]
	b	LBB0_28
Ltmp158:
LBB0_40:                                ; %._crit_edge205
                                        ;   in Loop: Header=BB0_29 Depth=1
	;DEBUG_VALUE: main:bitsRead <- $x22
	;DEBUG_VALUE: main:outFile <- $x25
	;DEBUG_VALUE: main:bsWr <- $x28
	;DEBUG_VALUE: main:blockCRC <- $w21
	;DEBUG_VALUE: main:b <- $w23
	;DEBUG_VALUE: main:buffHi <- [DW_OP_plus_uconst 60] [$sp+0]
	;DEBUG_VALUE: main:argv <- [DW_OP_LLVM_entry_value 1] $x1
	.loc	1 466 23 is_stmt 1              ; bzip2recover.c:466:23
Lloh68:
	adrp	x8, _rbStart@GOTPAGE
Lloh69:
	ldr	x8, [x8, _rbStart@GOTPAGEOFF]
	ldr	x24, [x8, x20, lsl  #3]
Ltmp159:
LBB0_41:                                ;   in Loop: Header=BB0_29 Depth=1
	;DEBUG_VALUE: main:outFile <- $x25
	;DEBUG_VALUE: main:bsWr <- $x28
	;DEBUG_VALUE: main:blockCRC <- $w21
	;DEBUG_VALUE: main:b <- $w23
	;DEBUG_VALUE: main:buffHi <- [DW_OP_plus_uconst 60] [$sp+0]
	;DEBUG_VALUE: main:argv <- [DW_OP_LLVM_entry_value 1] $x1
	.loc	1 0 23 is_stmt 0                ; bzip2recover.c:0:23
	str	x10, [sp, #48]                  ; 8-byte Folded Spill
	.loc	1 466 11                        ; bzip2recover.c:466:11
	cmp	x22, x24
	b.ne	LBB0_27
Ltmp160:
; %bb.42:                               ; %.preheader.preheader
                                        ;   in Loop: Header=BB0_29 Depth=1
	;DEBUG_VALUE: main:outFile <- $x25
	;DEBUG_VALUE: main:bsWr <- $x28
	;DEBUG_VALUE: main:blockCRC <- $w21
	;DEBUG_VALUE: main:b <- $w23
	;DEBUG_VALUE: main:buffHi <- [DW_OP_plus_uconst 60] [$sp+0]
	;DEBUG_VALUE: main:argv <- [DW_OP_LLVM_entry_value 1] $x1
	.loc	1 0 11                          ; bzip2recover.c:0:11
Lloh70:
	adrp	x20, _outFileName@GOTPAGE
Lloh71:
	ldr	x20, [x20, _outFileName@GOTPAGEOFF]
Ltmp161:
	.loc	1 472 28 is_stmt 1              ; bzip2recover.c:472:28
	mov	x0, x20
	mov	w1, #2000
	bl	_bzero
Ltmp162:
	;DEBUG_VALUE: k <- [DW_OP_plus_uconst 1, DW_OP_stack_value] undef
	.loc	1 473 10                        ; bzip2recover.c:473:10
	mov	x0, x20
Lloh72:
	adrp	x22, _inFileName@GOTPAGE
Lloh73:
	ldr	x22, [x22, _inFileName@GOTPAGEOFF]
	mov	x1, x22
	mov	w2, #2000
	bl	___strcpy_chk
Ltmp163:
	.loc	1 474 18                        ; bzip2recover.c:474:18
	mov	x0, x20
	mov	w1, #47
	bl	_strrchr
Ltmp164:
	;DEBUG_VALUE: split <- $x0
	.loc	1 475 14                        ; bzip2recover.c:475:14
	cmp	x0, #0
	csinc	x25, x20, x0, eq
Ltmp165:
	;DEBUG_VALUE: ofs <- [DW_OP_LLVM_arg 0, DW_OP_LLVM_convert 64 7, DW_OP_LLVM_convert 32 7, DW_OP_LLVM_arg 0, DW_OP_minus, DW_OP_stack_value] undef
	;DEBUG_VALUE: main:p <- $x25
	;DEBUG_VALUE: split <- $x25
	.loc	1 0 14 is_stmt 0                ; bzip2recover.c:0:14
	ldr	x8, [sp, #48]                   ; 8-byte Folded Reload
	.loc	1 482 108 is_stmt 1             ; bzip2recover.c:482:108
	add	w27, w8, #1
	.loc	1 482 10 is_stmt 0              ; bzip2recover.c:482:10
	str	x27, [sp]
	mov	x0, x25
Lloh74:
	adrp	x1, l_.str.12@PAGE
Lloh75:
	add	x1, x1, l_.str.12@PAGEOFF
	bl	_sprintf
Ltmp166:
	.loc	1 0 10                          ; bzip2recover.c:0:10
	mov	x8, x25
	mov	w10, #48
	b	LBB0_45
Ltmp167:
LBB0_43:                                ;   in Loop: Header=BB0_45 Depth=2
	;DEBUG_VALUE: main:p <- $x8
	;DEBUG_VALUE: split <- $x25
	;DEBUG_VALUE: main:bsWr <- $x28
	;DEBUG_VALUE: main:blockCRC <- $w21
	;DEBUG_VALUE: main:b <- $w23
	;DEBUG_VALUE: main:buffHi <- [DW_OP_plus_uconst 60] [$sp+0]
	;DEBUG_VALUE: main:argv <- [DW_OP_LLVM_entry_value 1] $x1
	.loc	1 483 58 is_stmt 1              ; bzip2recover.c:483:58
	strb	w10, [x8]
Ltmp168:
LBB0_44:                                ;   in Loop: Header=BB0_45 Depth=2
	;DEBUG_VALUE: main:p <- $x8
	;DEBUG_VALUE: split <- $x25
	;DEBUG_VALUE: main:bsWr <- $x28
	;DEBUG_VALUE: main:blockCRC <- $w21
	;DEBUG_VALUE: main:b <- $w23
	;DEBUG_VALUE: main:buffHi <- [DW_OP_plus_uconst 60] [$sp+0]
	;DEBUG_VALUE: main:argv <- [DW_OP_LLVM_entry_value 1] $x1
	.loc	1 483 36 is_stmt 0              ; bzip2recover.c:483:36
	add	x8, x8, #1
Ltmp169:
	;DEBUG_VALUE: main:p <- $x8
LBB0_45:                                ;   Parent Loop BB0_29 Depth=1
                                        ; =>  This Inner Loop Header: Depth=2
	;DEBUG_VALUE: split <- $x25
	;DEBUG_VALUE: main:bsWr <- $x28
	;DEBUG_VALUE: main:blockCRC <- $w21
	;DEBUG_VALUE: main:b <- $w23
	;DEBUG_VALUE: main:buffHi <- [DW_OP_plus_uconst 60] [$sp+0]
	;DEBUG_VALUE: main:argv <- [DW_OP_LLVM_entry_value 1] $x1
	;DEBUG_VALUE: main:p <- $x8
	.loc	1 483 26                        ; bzip2recover.c:483:26
	ldrb	w9, [x8]
Ltmp170:
	.loc	1 483 10                        ; bzip2recover.c:483:10
	cmp	w9, #32
	b.eq	LBB0_43
Ltmp171:
; %bb.46:                               ;   in Loop: Header=BB0_45 Depth=2
	;DEBUG_VALUE: main:p <- $x8
	;DEBUG_VALUE: split <- $x25
	;DEBUG_VALUE: main:bsWr <- $x28
	;DEBUG_VALUE: main:blockCRC <- $w21
	;DEBUG_VALUE: main:b <- $w23
	;DEBUG_VALUE: main:buffHi <- [DW_OP_plus_uconst 60] [$sp+0]
	;DEBUG_VALUE: main:argv <- [DW_OP_LLVM_entry_value 1] $x1
	cbnz	w9, LBB0_44
Ltmp172:
; %bb.47:                               ;   in Loop: Header=BB0_29 Depth=1
	;DEBUG_VALUE: main:p <- $x8
	;DEBUG_VALUE: split <- $x25
	;DEBUG_VALUE: main:bsWr <- $x28
	;DEBUG_VALUE: main:blockCRC <- $w21
	;DEBUG_VALUE: main:b <- $w23
	;DEBUG_VALUE: main:buffHi <- [DW_OP_plus_uconst 60] [$sp+0]
	;DEBUG_VALUE: main:argv <- [DW_OP_LLVM_entry_value 1] $x1
	.loc	1 481 16 is_stmt 1              ; bzip2recover.c:481:16
	sub	w8, w25, w20
Ltmp173:
	.loc	1 484 58                        ; bzip2recover.c:484:58
	add	x1, x22, w8, sxtw
	.loc	1 484 10 is_stmt 0              ; bzip2recover.c:484:10
	mov	x0, x20
	mov	w2, #2000
	bl	___strcat_chk
Ltmp174:
	;DEBUG_VALUE: endsInBz2:name <- undef
	.loc	1 263 14 is_stmt 1              ; bzip2recover.c:263:14
	mov	x0, x20
	bl	_strlen
Ltmp175:
	;DEBUG_VALUE: endsInBz2:n <- $w0
	.loc	1 264 8                         ; bzip2recover.c:264:8
	cmp	w0, #5
	b.lt	LBB0_52
Ltmp176:
; %bb.48:                               ;   in Loop: Header=BB0_29 Depth=1
	;DEBUG_VALUE: endsInBz2:n <- $w0
	;DEBUG_VALUE: split <- $x25
	;DEBUG_VALUE: main:bsWr <- $x28
	;DEBUG_VALUE: main:blockCRC <- $w21
	;DEBUG_VALUE: main:b <- $w23
	;DEBUG_VALUE: main:buffHi <- [DW_OP_plus_uconst 60] [$sp+0]
	;DEBUG_VALUE: main:argv <- [DW_OP_LLVM_entry_value 1] $x1
	.loc	1 266 14                        ; bzip2recover.c:266:14
	sub	w8, w0, #4
	.loc	1 266 8 is_stmt 0               ; bzip2recover.c:266:8
	ldrb	w8, [x20, w8, uxtw]
	.loc	1 266 25                        ; bzip2recover.c:266:25
	cmp	w8, #46
	b.ne	LBB0_52
Ltmp177:
; %bb.49:                               ;   in Loop: Header=BB0_29 Depth=1
	;DEBUG_VALUE: endsInBz2:n <- $w0
	;DEBUG_VALUE: split <- $x25
	;DEBUG_VALUE: main:bsWr <- $x28
	;DEBUG_VALUE: main:blockCRC <- $w21
	;DEBUG_VALUE: main:b <- $w23
	;DEBUG_VALUE: main:buffHi <- [DW_OP_plus_uconst 60] [$sp+0]
	;DEBUG_VALUE: main:argv <- [DW_OP_LLVM_entry_value 1] $x1
	.loc	1 267 14 is_stmt 1              ; bzip2recover.c:267:14
	sub	w8, w0, #3
	.loc	1 267 8 is_stmt 0               ; bzip2recover.c:267:8
	ldrb	w8, [x20, w8, uxtw]
	.loc	1 267 25                        ; bzip2recover.c:267:25
	cmp	w8, #98
	b.ne	LBB0_52
Ltmp178:
; %bb.50:                               ;   in Loop: Header=BB0_29 Depth=1
	;DEBUG_VALUE: endsInBz2:n <- $w0
	;DEBUG_VALUE: split <- $x25
	;DEBUG_VALUE: main:bsWr <- $x28
	;DEBUG_VALUE: main:blockCRC <- $w21
	;DEBUG_VALUE: main:b <- $w23
	;DEBUG_VALUE: main:buffHi <- [DW_OP_plus_uconst 60] [$sp+0]
	;DEBUG_VALUE: main:argv <- [DW_OP_LLVM_entry_value 1] $x1
	.loc	1 268 14 is_stmt 1              ; bzip2recover.c:268:14
	sub	w8, w0, #2
	.loc	1 268 8 is_stmt 0               ; bzip2recover.c:268:8
	ldrb	w8, [x20, w8, uxtw]
	.loc	1 268 25                        ; bzip2recover.c:268:25
	cmp	w8, #122
	b.ne	LBB0_52
Ltmp179:
; %bb.51:                               ; %endsInBz2.exit
                                        ;   in Loop: Header=BB0_29 Depth=1
	;DEBUG_VALUE: endsInBz2:n <- $w0
	;DEBUG_VALUE: split <- $x25
	;DEBUG_VALUE: main:bsWr <- $x28
	;DEBUG_VALUE: main:blockCRC <- $w21
	;DEBUG_VALUE: main:b <- $w23
	;DEBUG_VALUE: main:buffHi <- [DW_OP_plus_uconst 60] [$sp+0]
	;DEBUG_VALUE: main:argv <- [DW_OP_LLVM_entry_value 1] $x1
	.loc	1 269 14 is_stmt 1              ; bzip2recover.c:269:14
	sub	w8, w0, #1
	.loc	1 269 8 is_stmt 0               ; bzip2recover.c:269:8
	ldrb	w8, [x20, w8, uxtw]
Ltmp180:
	.loc	1 486 15 is_stmt 1              ; bzip2recover.c:486:15
	cmp	w8, #50
	b.eq	LBB0_53
Ltmp181:
LBB0_52:                                ; %endsInBz2.exit.thread
                                        ;   in Loop: Header=BB0_29 Depth=1
	;DEBUG_VALUE: split <- $x25
	;DEBUG_VALUE: main:bsWr <- $x28
	;DEBUG_VALUE: main:blockCRC <- $w21
	;DEBUG_VALUE: main:b <- $w23
	;DEBUG_VALUE: main:buffHi <- [DW_OP_plus_uconst 60] [$sp+0]
	;DEBUG_VALUE: main:argv <- [DW_OP_LLVM_entry_value 1] $x1
	.loc	1 486 40 is_stmt 0              ; bzip2recover.c:486:40
	mov	x0, x20
Lloh76:
	adrp	x1, l_.str.13@PAGE
Lloh77:
	add	x1, x1, l_.str.13@PAGEOFF
	mov	w2, #2000
	bl	___strcat_chk
Ltmp182:
LBB0_53:                                ;   in Loop: Header=BB0_29 Depth=1
	;DEBUG_VALUE: split <- $x25
	;DEBUG_VALUE: main:bsWr <- $x28
	;DEBUG_VALUE: main:blockCRC <- $w21
	;DEBUG_VALUE: main:b <- $w23
	;DEBUG_VALUE: main:buffHi <- [DW_OP_plus_uconst 60] [$sp+0]
	;DEBUG_VALUE: main:argv <- [DW_OP_LLVM_entry_value 1] $x1
	.loc	1 488 20 is_stmt 1              ; bzip2recover.c:488:20
Lloh78:
	adrp	x8, ___stderrp@GOTPAGE
Lloh79:
	ldr	x8, [x8, ___stderrp@GOTPAGEOFF]
Lloh80:
	ldr	x0, [x8]
	.loc	1 488 10 is_stmt 0              ; bzip2recover.c:488:10
	stp	x27, x20, [sp]
Lloh81:
	adrp	x1, l_.str.14@PAGE
Lloh82:
	add	x1, x1, l_.str.14@PAGEOFF
	bl	_fprintf
Ltmp183:
	.loc	1 491 20 is_stmt 1              ; bzip2recover.c:491:20
	mov	x0, x20
Lloh83:
	adrp	x1, l_.str.15@PAGE
Lloh84:
	add	x1, x1, l_.str.15@PAGEOFF
	bl	_fopen
Ltmp184:
	;DEBUG_VALUE: main:outFile <- $x0
	.loc	1 492 14                        ; bzip2recover.c:492:14
	cbz	x0, LBB0_58
Ltmp185:
; %bb.54:                               ;   in Loop: Header=BB0_29 Depth=1
	;DEBUG_VALUE: main:outFile <- $x0
	;DEBUG_VALUE: split <- $x25
	;DEBUG_VALUE: main:bsWr <- $x28
	;DEBUG_VALUE: main:blockCRC <- $w21
	;DEBUG_VALUE: main:b <- $w23
	;DEBUG_VALUE: main:buffHi <- [DW_OP_plus_uconst 60] [$sp+0]
	;DEBUG_VALUE: main:argv <- [DW_OP_LLVM_entry_value 1] $x1
	.loc	1 0 0 is_stmt 0                 ; bzip2recover.c:0:0
	mov	x25, x0
Ltmp186:
	;DEBUG_VALUE: main:outFile <- $x25
	;DEBUG_VALUE: bsOpenWriteStream:stream <- $x25
	.loc	1 169 20 is_stmt 1              ; bzip2recover.c:169:20
	mov	w0, #24
	bl	_malloc
Ltmp187:
	;DEBUG_VALUE: bsOpenWriteStream:bs <- $x0
	.loc	1 170 8                         ; bzip2recover.c:170:8
	cbz	x0, LBB0_57
Ltmp188:
; %bb.55:                               ; %bsOpenWriteStream.exit
                                        ;   in Loop: Header=BB0_29 Depth=1
	;DEBUG_VALUE: bsOpenWriteStream:bs <- $x0
	;DEBUG_VALUE: bsOpenWriteStream:stream <- $x25
	;DEBUG_VALUE: main:outFile <- $x25
	;DEBUG_VALUE: main:bsWr <- $x28
	;DEBUG_VALUE: main:blockCRC <- $w21
	;DEBUG_VALUE: main:b <- $w23
	;DEBUG_VALUE: main:buffHi <- [DW_OP_plus_uconst 60] [$sp+0]
	;DEBUG_VALUE: main:argv <- [DW_OP_LLVM_entry_value 1] $x1
	.loc	1 0 0 is_stmt 0                 ; bzip2recover.c:0:0
	mov	x28, x0
Ltmp189:
	;DEBUG_VALUE: bsOpenWriteStream:bs <- $x28
	;DEBUG_VALUE: bsOpenWriteStream:stream <- $x25
	.loc	1 171 15 is_stmt 1              ; bzip2recover.c:171:15
	stp	x25, xzr, [x0]
	.loc	1 174 13                        ; bzip2recover.c:174:13
	mov	w8, #119
	strb	w8, [x0, #16]
Ltmp190:
	;DEBUG_VALUE: bsPutUChar:i <- 7
	;DEBUG_VALUE: bsPutUChar:c <- 66
	;DEBUG_VALUE: bsPutUChar:bs <- $x28
	;DEBUG_VALUE: main:bsWr <- $x28
	.loc	1 246 7                         ; bzip2recover.c:246:7
	mov	w1, #0
	bl	_bsPutBit
Ltmp191:
	;DEBUG_VALUE: bsPutUChar:i <- 6
	mov	x0, x28
	mov	w1, #1
	bl	_bsPutBit
Ltmp192:
	;DEBUG_VALUE: bsPutUChar:i <- 5
	mov	x0, x28
	mov	w1, #0
	bl	_bsPutBit
Ltmp193:
	;DEBUG_VALUE: bsPutUChar:i <- 4
	mov	x0, x28
	mov	w1, #0
	bl	_bsPutBit
Ltmp194:
	;DEBUG_VALUE: bsPutUChar:i <- 3
	mov	x0, x28
	mov	w1, #0
	bl	_bsPutBit
Ltmp195:
	;DEBUG_VALUE: bsPutUChar:i <- 2
	mov	x0, x28
	mov	w1, #0
	bl	_bsPutBit
Ltmp196:
	;DEBUG_VALUE: bsPutUChar:i <- 1
	mov	x0, x28
	mov	w1, #1
	bl	_bsPutBit
Ltmp197:
	;DEBUG_VALUE: bsPutUChar:i <- 0
	mov	x0, x28
	mov	w1, #0
	bl	_bsPutBit
Ltmp198:
	;DEBUG_VALUE: bsPutUChar:i <- 7
	;DEBUG_VALUE: bsPutUChar:c <- 90
	;DEBUG_VALUE: bsPutUChar:bs <- $x28
	;DEBUG_VALUE: bsPutUChar:i <- -1
	.loc	1 246 7 is_stmt 0               ; bzip2recover.c:246:7
	mov	x0, x28
	mov	w1, #0
	bl	_bsPutBit
Ltmp199:
	;DEBUG_VALUE: bsPutUChar:i <- 6
	mov	x0, x28
	mov	w1, #1
	bl	_bsPutBit
Ltmp200:
	;DEBUG_VALUE: bsPutUChar:i <- 5
	mov	x0, x28
	mov	w1, #0
	bl	_bsPutBit
Ltmp201:
	;DEBUG_VALUE: bsPutUChar:i <- 4
	mov	x0, x28
	mov	w1, #1
	bl	_bsPutBit
Ltmp202:
	;DEBUG_VALUE: bsPutUChar:i <- 3
	mov	x0, x28
	mov	w1, #1
	bl	_bsPutBit
Ltmp203:
	;DEBUG_VALUE: bsPutUChar:i <- 2
	mov	x0, x28
	mov	w1, #0
	bl	_bsPutBit
Ltmp204:
	;DEBUG_VALUE: bsPutUChar:i <- 1
	mov	x0, x28
	mov	w1, #1
	bl	_bsPutBit
Ltmp205:
	;DEBUG_VALUE: bsPutUChar:i <- 0
	mov	x0, x28
	mov	w1, #0
	bl	_bsPutBit
Ltmp206:
	;DEBUG_VALUE: bsPutUChar:i <- 7
	;DEBUG_VALUE: bsPutUChar:c <- 104
	;DEBUG_VALUE: bsPutUChar:bs <- $x28
	;DEBUG_VALUE: bsPutUChar:i <- -1
	.loc	1 246 7                         ; bzip2recover.c:246:7
	mov	x0, x28
	mov	w1, #0
	bl	_bsPutBit
Ltmp207:
	;DEBUG_VALUE: bsPutUChar:i <- 6
	mov	x0, x28
	mov	w1, #1
	bl	_bsPutBit
Ltmp208:
	;DEBUG_VALUE: bsPutUChar:i <- 5
	mov	x0, x28
	mov	w1, #1
	bl	_bsPutBit
Ltmp209:
	;DEBUG_VALUE: bsPutUChar:i <- 4
	mov	x0, x28
	mov	w1, #0
	bl	_bsPutBit
Ltmp210:
	;DEBUG_VALUE: bsPutUChar:i <- 3
	mov	x0, x28
	mov	w1, #1
	bl	_bsPutBit
Ltmp211:
	;DEBUG_VALUE: bsPutUChar:i <- 2
	mov	x0, x28
	mov	w1, #0
	bl	_bsPutBit
Ltmp212:
	;DEBUG_VALUE: bsPutUChar:i <- 1
	mov	x0, x28
	mov	w1, #0
	bl	_bsPutBit
Ltmp213:
	;DEBUG_VALUE: bsPutUChar:i <- 0
	mov	x0, x28
	mov	w1, #0
	bl	_bsPutBit
Ltmp214:
	;DEBUG_VALUE: bsPutUChar:i <- 7
	;DEBUG_VALUE: bsPutUChar:c <- 57
	;DEBUG_VALUE: bsPutUChar:bs <- $x28
	;DEBUG_VALUE: bsPutUChar:i <- -1
	.loc	1 246 7                         ; bzip2recover.c:246:7
	mov	x0, x28
	mov	w1, #0
	bl	_bsPutBit
Ltmp215:
	;DEBUG_VALUE: bsPutUChar:i <- 6
	mov	x0, x28
	mov	w1, #0
	bl	_bsPutBit
Ltmp216:
	;DEBUG_VALUE: bsPutUChar:i <- 5
	mov	x0, x28
	mov	w1, #1
	bl	_bsPutBit
Ltmp217:
	;DEBUG_VALUE: bsPutUChar:i <- 4
	mov	x0, x28
	mov	w1, #1
	bl	_bsPutBit
Ltmp218:
	;DEBUG_VALUE: bsPutUChar:i <- 3
	mov	x0, x28
	mov	w1, #1
	bl	_bsPutBit
Ltmp219:
	;DEBUG_VALUE: bsPutUChar:i <- 2
	mov	x0, x28
	mov	w1, #0
	bl	_bsPutBit
Ltmp220:
	;DEBUG_VALUE: bsPutUChar:i <- 1
	mov	x0, x28
	mov	w1, #0
	bl	_bsPutBit
Ltmp221:
	;DEBUG_VALUE: bsPutUChar:i <- 0
	mov	x0, x28
	mov	w1, #1
	bl	_bsPutBit
Ltmp222:
	;DEBUG_VALUE: bsPutUChar:i <- 7
	;DEBUG_VALUE: bsPutUChar:c <- 49
	;DEBUG_VALUE: bsPutUChar:bs <- $x28
	;DEBUG_VALUE: bsPutUChar:i <- -1
	.loc	1 246 7                         ; bzip2recover.c:246:7
	mov	x0, x28
	mov	w1, #0
	bl	_bsPutBit
Ltmp223:
	;DEBUG_VALUE: bsPutUChar:i <- 6
	mov	x0, x28
	mov	w1, #0
	bl	_bsPutBit
Ltmp224:
	;DEBUG_VALUE: bsPutUChar:i <- 5
	mov	x0, x28
	mov	w1, #1
	bl	_bsPutBit
Ltmp225:
	;DEBUG_VALUE: bsPutUChar:i <- 4
	mov	x0, x28
	mov	w1, #1
	bl	_bsPutBit
Ltmp226:
	;DEBUG_VALUE: bsPutUChar:i <- 3
	mov	x0, x28
	mov	w1, #0
	bl	_bsPutBit
Ltmp227:
	;DEBUG_VALUE: bsPutUChar:i <- 2
	mov	x0, x28
	mov	w1, #0
	bl	_bsPutBit
Ltmp228:
	;DEBUG_VALUE: bsPutUChar:i <- 1
	mov	x0, x28
	mov	w1, #0
	bl	_bsPutBit
Ltmp229:
	;DEBUG_VALUE: bsPutUChar:i <- 0
	mov	x0, x28
	mov	w1, #1
	bl	_bsPutBit
Ltmp230:
	;DEBUG_VALUE: bsPutUChar:i <- 7
	;DEBUG_VALUE: bsPutUChar:c <- 65
	;DEBUG_VALUE: bsPutUChar:bs <- $x28
	;DEBUG_VALUE: bsPutUChar:i <- -1
	.loc	1 246 7                         ; bzip2recover.c:246:7
	mov	x0, x28
	mov	w1, #0
	bl	_bsPutBit
Ltmp231:
	;DEBUG_VALUE: bsPutUChar:i <- 6
	mov	x0, x28
	mov	w1, #1
	bl	_bsPutBit
Ltmp232:
	;DEBUG_VALUE: bsPutUChar:i <- 5
	mov	x0, x28
	mov	w1, #0
	bl	_bsPutBit
Ltmp233:
	;DEBUG_VALUE: bsPutUChar:i <- 4
	mov	x0, x28
	mov	w1, #0
	bl	_bsPutBit
Ltmp234:
	;DEBUG_VALUE: bsPutUChar:i <- 3
	mov	x0, x28
	mov	w1, #0
	bl	_bsPutBit
Ltmp235:
	;DEBUG_VALUE: bsPutUChar:i <- 2
	mov	x0, x28
	mov	w1, #0
	bl	_bsPutBit
Ltmp236:
	;DEBUG_VALUE: bsPutUChar:i <- 1
	mov	x0, x28
	mov	w1, #0
	bl	_bsPutBit
Ltmp237:
	;DEBUG_VALUE: bsPutUChar:i <- 0
	mov	x0, x28
	mov	w1, #1
	bl	_bsPutBit
Ltmp238:
	;DEBUG_VALUE: bsPutUChar:i <- 7
	;DEBUG_VALUE: bsPutUChar:c <- 89
	;DEBUG_VALUE: bsPutUChar:bs <- $x28
	;DEBUG_VALUE: bsPutUChar:i <- -1
	.loc	1 246 7                         ; bzip2recover.c:246:7
	mov	x0, x28
	mov	w1, #0
	bl	_bsPutBit
Ltmp239:
	;DEBUG_VALUE: bsPutUChar:i <- 6
	mov	x0, x28
	mov	w1, #1
	bl	_bsPutBit
Ltmp240:
	;DEBUG_VALUE: bsPutUChar:i <- 5
	mov	x0, x28
	mov	w1, #0
	bl	_bsPutBit
Ltmp241:
	;DEBUG_VALUE: bsPutUChar:i <- 4
	mov	x0, x28
	mov	w1, #1
	bl	_bsPutBit
Ltmp242:
	;DEBUG_VALUE: bsPutUChar:i <- 3
	mov	x0, x28
	mov	w1, #1
	bl	_bsPutBit
Ltmp243:
	;DEBUG_VALUE: bsPutUChar:i <- 2
	mov	x0, x28
	mov	w1, #0
	bl	_bsPutBit
Ltmp244:
	;DEBUG_VALUE: bsPutUChar:i <- 1
	mov	x0, x28
	mov	w1, #0
	bl	_bsPutBit
Ltmp245:
	;DEBUG_VALUE: bsPutUChar:i <- 0
	mov	x0, x28
	mov	w1, #1
	bl	_bsPutBit
Ltmp246:
	;DEBUG_VALUE: bsPutUChar:i <- 7
	;DEBUG_VALUE: bsPutUChar:c <- 38
	;DEBUG_VALUE: bsPutUChar:bs <- $x28
	;DEBUG_VALUE: bsPutUChar:i <- -1
	.loc	1 246 7                         ; bzip2recover.c:246:7
	mov	x0, x28
	mov	w1, #0
	bl	_bsPutBit
Ltmp247:
	;DEBUG_VALUE: bsPutUChar:i <- 6
	mov	x0, x28
	mov	w1, #0
	bl	_bsPutBit
Ltmp248:
	;DEBUG_VALUE: bsPutUChar:i <- 5
	mov	x0, x28
	mov	w1, #1
	bl	_bsPutBit
Ltmp249:
	;DEBUG_VALUE: bsPutUChar:i <- 4
	mov	x0, x28
	mov	w1, #0
	bl	_bsPutBit
Ltmp250:
	;DEBUG_VALUE: bsPutUChar:i <- 3
	mov	x0, x28
	mov	w1, #0
	bl	_bsPutBit
Ltmp251:
	;DEBUG_VALUE: bsPutUChar:i <- 2
	mov	x0, x28
	mov	w1, #1
	bl	_bsPutBit
Ltmp252:
	;DEBUG_VALUE: bsPutUChar:i <- 1
	mov	x0, x28
	mov	w1, #1
	bl	_bsPutBit
Ltmp253:
	;DEBUG_VALUE: bsPutUChar:i <- 0
	mov	x0, x28
	mov	w1, #0
	bl	_bsPutBit
Ltmp254:
	;DEBUG_VALUE: bsPutUChar:i <- 7
	;DEBUG_VALUE: bsPutUChar:c <- 83
	;DEBUG_VALUE: bsPutUChar:bs <- $x28
	;DEBUG_VALUE: bsPutUChar:i <- -1
	.loc	1 246 7                         ; bzip2recover.c:246:7
	mov	x0, x28
	mov	w1, #0
	bl	_bsPutBit
Ltmp255:
	;DEBUG_VALUE: bsPutUChar:i <- 6
	mov	x0, x28
	mov	w1, #1
	bl	_bsPutBit
Ltmp256:
	;DEBUG_VALUE: bsPutUChar:i <- 5
	mov	x0, x28
	mov	w1, #0
	bl	_bsPutBit
Ltmp257:
	;DEBUG_VALUE: bsPutUChar:i <- 4
	mov	x0, x28
	mov	w1, #1
	bl	_bsPutBit
Ltmp258:
	;DEBUG_VALUE: bsPutUChar:i <- 3
	mov	x0, x28
	mov	w1, #0
	bl	_bsPutBit
Ltmp259:
	;DEBUG_VALUE: bsPutUChar:i <- 2
	mov	x0, x28
	mov	w1, #0
	bl	_bsPutBit
Ltmp260:
	;DEBUG_VALUE: bsPutUChar:i <- 1
	mov	x0, x28
	mov	w1, #1
	bl	_bsPutBit
Ltmp261:
	;DEBUG_VALUE: bsPutUChar:i <- 0
	mov	x0, x28
	mov	w1, #1
	bl	_bsPutBit
Ltmp262:
	;DEBUG_VALUE: bsPutUChar:i <- 7
	;DEBUG_VALUE: bsPutUChar:c <- 89
	;DEBUG_VALUE: bsPutUChar:bs <- $x28
	;DEBUG_VALUE: bsPutUChar:i <- -1
	.loc	1 246 7                         ; bzip2recover.c:246:7
	mov	x0, x28
	mov	w1, #0
	bl	_bsPutBit
Ltmp263:
	;DEBUG_VALUE: bsPutUChar:i <- 6
	mov	x0, x28
	mov	w1, #1
	bl	_bsPutBit
Ltmp264:
	;DEBUG_VALUE: bsPutUChar:i <- 5
	mov	x0, x28
	mov	w1, #0
	bl	_bsPutBit
Ltmp265:
	;DEBUG_VALUE: bsPutUChar:i <- 4
	mov	x0, x28
	mov	w1, #1
	bl	_bsPutBit
Ltmp266:
	;DEBUG_VALUE: bsPutUChar:i <- 3
	mov	x0, x28
	mov	w1, #1
	bl	_bsPutBit
Ltmp267:
	;DEBUG_VALUE: bsPutUChar:i <- 2
	mov	x0, x28
	mov	w1, #0
	bl	_bsPutBit
Ltmp268:
	;DEBUG_VALUE: bsPutUChar:i <- 1
	mov	x0, x28
	mov	w1, #0
	bl	_bsPutBit
Ltmp269:
	;DEBUG_VALUE: bsPutUChar:i <- 0
	mov	x0, x28
	mov	w1, #1
	bl	_bsPutBit
Ltmp270:
	;DEBUG_VALUE: bsPutUChar:i <- -1
	.loc	1 0 7                           ; bzip2recover.c:0:7
	mov	x22, x24
	b	LBB0_27
Ltmp271:
LBB0_56:
	;DEBUG_VALUE: main:bsIn <- $x19
	;DEBUG_VALUE: main:bitsRead <- $x20
	;DEBUG_VALUE: main:buffHi <- [DW_OP_plus_uconst 60] [$sp+0]
	;DEBUG_VALUE: main:currBlock <- $w25
	;DEBUG_VALUE: main:rbCtr <- [DW_OP_plus_uconst 40] [$sp+0]
	;DEBUG_VALUE: main:argv <- [DW_OP_LLVM_entry_value 1] $x1
	;DEBUG_VALUE: tooManyBlocks:max_handled_blocks <- 50000
Lloh85:
	adrp	x20, ___stderrp@GOTPAGE
Ltmp272:
Lloh86:
	ldr	x20, [x20, ___stderrp@GOTPAGEOFF]
Ltmp273:
	.loc	1 125 14 is_stmt 1              ; bzip2recover.c:125:14
	ldr	x0, [x20]
	mov	w8, #50000
	.loc	1 125 4 is_stmt 0               ; bzip2recover.c:125:4
	str	x8, [sp, #16]
Lloh87:
	adrp	x8, _inFileName@GOTPAGE
Lloh88:
	ldr	x8, [x8, _inFileName@GOTPAGEOFF]
	str	x8, [sp, #8]
Lloh89:
	adrp	x19, _progName@GOTPAGE
Ltmp274:
	.loc	1 0 4                           ; bzip2recover.c:0:4
Lloh90:
	ldr	x19, [x19, _progName@GOTPAGEOFF]
	.loc	1 125 4                         ; bzip2recover.c:125:4
	str	x19, [sp]
Lloh91:
	adrp	x1, l_.str.21@PAGE
Lloh92:
	add	x1, x1, l_.str.21@PAGEOFF
	bl	_fprintf
Ltmp275:
	.loc	1 128 14 is_stmt 1              ; bzip2recover.c:128:14
	ldr	x0, [x20]
	.loc	1 128 4 is_stmt 0               ; bzip2recover.c:128:4
	str	x19, [sp]
Lloh93:
	adrp	x1, l_.str.22@PAGE
Lloh94:
	add	x1, x1, l_.str.22@PAGEOFF
	bl	_fprintf
Ltmp276:
	.loc	1 131 14 is_stmt 1              ; bzip2recover.c:131:14
	ldr	x0, [x20]
	.loc	1 131 4 is_stmt 0               ; bzip2recover.c:131:4
	str	x19, [sp]
Lloh95:
	adrp	x1, l_.str.23@PAGE
Lloh96:
	add	x1, x1, l_.str.23@PAGEOFF
	b	LBB0_64
Ltmp277:
LBB0_57:
	;DEBUG_VALUE: main:argv <- [DW_OP_LLVM_entry_value 1] $x1
	;DEBUG_VALUE: mallocFail:n <- 24
	.loc	1 0 4                           ; bzip2recover.c:0:4
Lloh97:
	adrp	x20, ___stderrp@GOTPAGE
Lloh98:
	ldr	x20, [x20, ___stderrp@GOTPAGEOFF]
	ldr	x0, [x20]
	mov	w8, #24
	str	x8, [sp, #8]
Lloh99:
	adrp	x19, _progName@GOTPAGE
Lloh100:
	ldr	x19, [x19, _progName@GOTPAGEOFF]
	b	LBB0_63
Ltmp278:
LBB0_58:
	;DEBUG_VALUE: main:outFile <- $x0
	;DEBUG_VALUE: split <- $x25
	;DEBUG_VALUE: main:bsWr <- $x28
	;DEBUG_VALUE: main:blockCRC <- $w21
	;DEBUG_VALUE: main:b <- $w23
	;DEBUG_VALUE: main:buffHi <- [DW_OP_plus_uconst 60] [$sp+0]
	;DEBUG_VALUE: main:argv <- [DW_OP_LLVM_entry_value 1] $x1
	.loc	1 493 23 is_stmt 1              ; bzip2recover.c:493:23
Lloh101:
	adrp	x8, ___stderrp@GOTPAGE
Lloh102:
	ldr	x8, [x8, ___stderrp@GOTPAGEOFF]
Lloh103:
	ldr	x0, [x8]
Ltmp279:
	.loc	1 493 13 is_stmt 0              ; bzip2recover.c:493:13
	str	x20, [sp, #8]
Lloh104:
	adrp	x8, _progName@GOTPAGE
Lloh105:
	ldr	x8, [x8, _progName@GOTPAGEOFF]
	str	x8, [sp]
Lloh106:
	adrp	x1, l_.str.16@PAGE
Lloh107:
	add	x1, x1, l_.str.16@PAGEOFF
	b	LBB0_64
Ltmp280:
LBB0_59:
	;DEBUG_VALUE: main:argc <- $w22
	;DEBUG_VALUE: main:argv <- $x21
	.loc	1 0 13                          ; bzip2recover.c:0:13
Lloh108:
	adrp	x20, ___stderrp@GOTPAGE
Lloh109:
	ldr	x20, [x20, ___stderrp@GOTPAGEOFF]
Ltmp281:
	.loc	1 320 17 is_stmt 1              ; bzip2recover.c:320:17
	ldr	x0, [x20]
	.loc	1 320 7 is_stmt 0               ; bzip2recover.c:320:7
	stp	x19, x19, [sp]
Lloh110:
	adrp	x1, l_.str.1@PAGE
Lloh111:
	add	x1, x1, l_.str.1@PAGEOFF
	bl	_fprintf
Ltmp282:
	.loc	1 324 21 is_stmt 1              ; bzip2recover.c:324:21
	ldr	x3, [x20]
	.loc	1 324 13 is_stmt 0              ; bzip2recover.c:324:13
Lloh112:
	adrp	x0, l_.str.2@PAGE
Lloh113:
	add	x0, x0, l_.str.2@PAGEOFF
	mov	w1, #46
	mov	w2, #1
	bl	_fwrite
Ltmp283:
	.loc	1 340 7 is_stmt 1               ; bzip2recover.c:340:7
	mov	w0, #1
	bl	_exit
Ltmp284:
LBB0_60:
	;DEBUG_VALUE: main:argv <- [DW_OP_LLVM_entry_value 1] $x1
	;DEBUG_VALUE: main:argc <- $w22
	.loc	1 344 17                        ; bzip2recover.c:344:17
Lloh114:
	adrp	x8, ___stderrp@GOTPAGE
Lloh115:
	ldr	x8, [x8, ___stderrp@GOTPAGEOFF]
Lloh116:
	ldr	x8, [x8]
	.loc	1 344 7 is_stmt 0               ; bzip2recover.c:344:7
	stp	x19, x0, [sp]
Lloh117:
	adrp	x1, l_.str.3@PAGE
Lloh118:
	add	x1, x1, l_.str.3@PAGEOFF
	mov	x0, x8
	b	LBB0_64
Ltmp285:
LBB0_61:
	;DEBUG_VALUE: main:inFile <- $x0
	;DEBUG_VALUE: main:argv <- [DW_OP_LLVM_entry_value 1] $x1
	;DEBUG_VALUE: main:argc <- $w22
	.loc	1 354 17 is_stmt 1              ; bzip2recover.c:354:17
Lloh119:
	adrp	x8, ___stderrp@GOTPAGE
Lloh120:
	ldr	x8, [x8, ___stderrp@GOTPAGEOFF]
Lloh121:
	ldr	x0, [x8]
Ltmp286:
	.loc	1 354 7 is_stmt 0               ; bzip2recover.c:354:7
	stp	x19, x20, [sp]
Lloh122:
	adrp	x1, l_.str.5@PAGE
Lloh123:
	add	x1, x1, l_.str.5@PAGEOFF
	b	LBB0_64
Ltmp287:
LBB0_62:
	;DEBUG_VALUE: bsOpenReadStream:bs <- $x0
	;DEBUG_VALUE: bsOpenReadStream:stream <- $x23
	;DEBUG_VALUE: main:inFile <- $x23
	;DEBUG_VALUE: main:argv <- [DW_OP_LLVM_entry_value 1] $x1
	;DEBUG_VALUE: main:argc <- $w22
	;DEBUG_VALUE: mallocFail:n <- 24
	.loc	1 0 7                           ; bzip2recover.c:0:7
Lloh124:
	adrp	x20, ___stderrp@GOTPAGE
Lloh125:
	ldr	x20, [x20, ___stderrp@GOTPAGEOFF]
Ltmp288:
	.loc	1 113 14 is_stmt 1              ; bzip2recover.c:113:14
	ldr	x0, [x20]
Ltmp289:
	.loc	1 0 14 is_stmt 0                ; bzip2recover.c:0:14
	mov	w8, #24
	.loc	1 113 4                         ; bzip2recover.c:113:4
	str	x8, [sp, #8]
Ltmp290:
LBB0_63:
	;DEBUG_VALUE: main:argv <- [DW_OP_LLVM_entry_value 1] $x1
	.loc	1 0 0                           ; bzip2recover.c:0:0
	str	x19, [sp]
Lloh126:
	adrp	x1, l_.str.18@PAGE
Lloh127:
	add	x1, x1, l_.str.18@PAGEOFF
	bl	_fprintf
Ltmp291:
	ldr	x0, [x20]
	str	x19, [sp]
Lloh128:
	adrp	x1, l_.str.19@PAGE
Lloh129:
	add	x1, x1, l_.str.19@PAGEOFF
Ltmp292:
LBB0_64:
	;DEBUG_VALUE: main:argv <- [DW_OP_LLVM_entry_value 1] $x1
	bl	_fprintf
Ltmp293:
	mov	w0, #1
	bl	_exit
Ltmp294:
LBB0_65:
	;DEBUG_VALUE: main:bsIn <- $x21
	;DEBUG_VALUE: main:argv <- [DW_OP_LLVM_entry_value 1] $x1
	.loc	1 418 7 is_stmt 1               ; bzip2recover.c:418:7
Lloh130:
	adrp	x8, _progName@GOTPAGE
Lloh131:
	ldr	x8, [x8, _progName@GOTPAGEOFF]
	str	x8, [sp]
Lloh132:
	adrp	x1, l_.str.9@PAGE
Lloh133:
	add	x1, x1, l_.str.9@PAGEOFF
	b	LBB0_64
Ltmp295:
LBB0_66:
	;DEBUG_VALUE: main:inFile <- $x0
	;DEBUG_VALUE: main:argv <- [DW_OP_LLVM_entry_value 1] $x1
	.loc	1 428 17                        ; bzip2recover.c:428:17
Lloh134:
	adrp	x8, ___stderrp@GOTPAGE
Lloh135:
	ldr	x8, [x8, ___stderrp@GOTPAGEOFF]
Lloh136:
	ldr	x0, [x8]
Ltmp296:
	.loc	1 428 7 is_stmt 0               ; bzip2recover.c:428:7
	stp	x20, x21, [sp]
Lloh137:
	adrp	x1, l_.str.11@PAGE
Lloh138:
	add	x1, x1, l_.str.11@PAGEOFF
	b	LBB0_64
Ltmp297:
	.loh AdrpAdd	Lloh11, Lloh12
	.loh AdrpLdrGotLdr	Lloh8, Lloh9, Lloh10
	.loh AdrpLdrGotStr	Lloh5, Lloh6, Lloh7
	.loh AdrpLdrGotStr	Lloh2, Lloh3, Lloh4
	.loh AdrpLdrGot	Lloh0, Lloh1
	.loh AdrpAdd	Lloh15, Lloh16
	.loh AdrpLdrGot	Lloh13, Lloh14
	.loh AdrpLdrGot	Lloh22, Lloh23
	.loh AdrpAdd	Lloh20, Lloh21
	.loh AdrpLdrGotLdr	Lloh17, Lloh18, Lloh19
	.loh AdrpLdrGot	Lloh24, Lloh25
	.loh AdrpLdrGot	Lloh33, Lloh34
	.loh AdrpLdrGot	Lloh31, Lloh32
	.loh AdrpAdd	Lloh29, Lloh30
	.loh AdrpLdrGotLdr	Lloh26, Lloh27, Lloh28
	.loh AdrpLdrGot	Lloh35, Lloh36
	.loh AdrpAdd	Lloh40, Lloh41
	.loh AdrpLdrGotLdr	Lloh37, Lloh38, Lloh39
	.loh AdrpLdrGotLdr	Lloh42, Lloh43, Lloh44
	.loh AdrpAdd	Lloh51, Lloh52
	.loh AdrpLdrGot	Lloh49, Lloh50
	.loh AdrpAdd	Lloh47, Lloh48
	.loh AdrpLdrGot	Lloh45, Lloh46
	.loh AdrpAdd	Lloh58, Lloh59
	.loh AdrpLdrGot	Lloh56, Lloh57
	.loh AdrpLdrGotLdr	Lloh53, Lloh54, Lloh55
	.loh AdrpLdrGot	Lloh60, Lloh61
	.loh AdrpLdrGot	Lloh62, Lloh63
	.loh AdrpLdrGot	Lloh64, Lloh65
	.loh AdrpLdrGot	Lloh66, Lloh67
	.loh AdrpLdrGot	Lloh68, Lloh69
	.loh AdrpAdd	Lloh74, Lloh75
	.loh AdrpLdrGot	Lloh72, Lloh73
	.loh AdrpLdrGot	Lloh70, Lloh71
	.loh AdrpAdd	Lloh76, Lloh77
	.loh AdrpAdd	Lloh83, Lloh84
	.loh AdrpAdd	Lloh81, Lloh82
	.loh AdrpLdrGotLdr	Lloh78, Lloh79, Lloh80
	.loh AdrpAdd	Lloh95, Lloh96
	.loh AdrpAdd	Lloh93, Lloh94
	.loh AdrpAdd	Lloh91, Lloh92
	.loh AdrpLdrGot	Lloh89, Lloh90
	.loh AdrpLdrGot	Lloh87, Lloh88
	.loh AdrpLdrGot	Lloh85, Lloh86
	.loh AdrpLdrGot	Lloh99, Lloh100
	.loh AdrpLdrGot	Lloh97, Lloh98
	.loh AdrpAdd	Lloh106, Lloh107
	.loh AdrpLdrGot	Lloh104, Lloh105
	.loh AdrpLdrGotLdr	Lloh101, Lloh102, Lloh103
	.loh AdrpAdd	Lloh112, Lloh113
	.loh AdrpAdd	Lloh110, Lloh111
	.loh AdrpLdrGot	Lloh108, Lloh109
	.loh AdrpAdd	Lloh117, Lloh118
	.loh AdrpLdrGotLdr	Lloh114, Lloh115, Lloh116
	.loh AdrpAdd	Lloh122, Lloh123
	.loh AdrpLdrGotLdr	Lloh119, Lloh120, Lloh121
	.loh AdrpLdrGot	Lloh124, Lloh125
	.loh AdrpAdd	Lloh128, Lloh129
	.loh AdrpAdd	Lloh126, Lloh127
	.loh AdrpAdd	Lloh132, Lloh133
	.loh AdrpLdrGot	Lloh130, Lloh131
	.loh AdrpAdd	Lloh137, Lloh138
	.loh AdrpLdrGotLdr	Lloh134, Lloh135, Lloh136
Lfunc_end0:
	.cfi_endproc
	.file	2 "/Library/Developer/CommandLineTools/SDKs/MacOSX.sdk/usr/include" "_stdio.h"
	.file	3 "/Library/Developer/CommandLineTools/SDKs/MacOSX.sdk/usr/include/arm" "_types.h"
	.file	4 "/Library/Developer/CommandLineTools/SDKs/MacOSX.sdk/usr/include/sys" "_types.h"
                                        ; -- End function
	.p2align	2                               ; -- Begin function bsGetBit
_bsGetBit:                              ; @bsGetBit
Lfunc_begin1:
	.loc	1 200 0 is_stmt 1               ; bzip2recover.c:200:0
	.cfi_startproc
; %bb.0:
	;DEBUG_VALUE: bsGetBit:bs <- $x0
	stp	x20, x19, [sp, #-32]!           ; 16-byte Folded Spill
	.cfi_def_cfa_offset 32
	stp	x29, x30, [sp, #16]             ; 16-byte Folded Spill
	add	x29, sp, #16
	.cfi_def_cfa w29, 16
	.cfi_offset w30, -8
	.cfi_offset w29, -16
	.cfi_offset w19, -24
	.cfi_offset w20, -32
	mov	x19, x0
Ltmp298:
	;DEBUG_VALUE: bsGetBit:bs <- $x19
	.loc	1 201 12 prologue_end           ; bzip2recover.c:201:12
	ldr	w8, [x0, #12]
Ltmp299:
	.loc	1 201 8 is_stmt 0               ; bzip2recover.c:201:8
	subs	w8, w8, #1
	b.lt	LBB1_2
Ltmp300:
; %bb.1:
	;DEBUG_VALUE: bsGetBit:bs <- $x19
	.loc	1 202 20 is_stmt 1              ; bzip2recover.c:202:20
	str	w8, [x19, #12]
	.loc	1 203 22                        ; bzip2recover.c:203:22
	ldr	w9, [x19, #8]
	.loc	1 203 30 is_stmt 0              ; bzip2recover.c:203:30
	lsr	w8, w9, w8
	.loc	1 203 49                        ; bzip2recover.c:203:49
	and	w0, w8, #0x1
	b	LBB1_6
Ltmp301:
LBB1_2:
	;DEBUG_VALUE: bsGetBit:bs <- $x19
	.loc	1 205 33 is_stmt 1              ; bzip2recover.c:205:33
	ldr	x0, [x19]
	.loc	1 205 22 is_stmt 0              ; bzip2recover.c:205:22
	bl	_getc
Ltmp302:
	;DEBUG_VALUE: retVal <- $w0
	.loc	1 206 12 is_stmt 1              ; bzip2recover.c:206:12
	cmn	w0, #1
	b.eq	LBB1_4
Ltmp303:
; %bb.3:
	;DEBUG_VALUE: retVal <- $w0
	;DEBUG_VALUE: bsGetBit:bs <- $x19
	.loc	1 0 12 is_stmt 0                ; bzip2recover.c:0:12
	mov	w8, #7
	.loc	1 210 20 is_stmt 1              ; bzip2recover.c:210:20
	stp	w0, w8, [x19, #8]
	.loc	1 212 36                        ; bzip2recover.c:212:36
	ubfx	w0, w0, #7, #1
Ltmp304:
	.loc	1 0 36 is_stmt 0                ; bzip2recover.c:0:36
	b	LBB1_6
Ltmp305:
LBB1_4:
	;DEBUG_VALUE: retVal <- $w0
	;DEBUG_VALUE: bsGetBit:bs <- $x19
	.loc	1 207 16 is_stmt 1              ; bzip2recover.c:207:16
	bl	___error
Ltmp306:
	.loc	1 207 15 is_stmt 0              ; bzip2recover.c:207:15
	ldr	w8, [x0]
Ltmp307:
	.loc	1 207 14                        ; bzip2recover.c:207:14
	cbnz	w8, LBB1_7
Ltmp308:
; %bb.5:
	;DEBUG_VALUE: bsGetBit:bs <- $x19
	.loc	1 0 14                          ; bzip2recover.c:0:14
	mov	w0, #2
Ltmp309:
LBB1_6:
	;DEBUG_VALUE: bsGetBit:bs <- $x19
	.loc	1 214 1 is_stmt 1               ; bzip2recover.c:214:1
	ldp	x29, x30, [sp, #16]             ; 16-byte Folded Reload
	ldp	x20, x19, [sp], #32             ; 16-byte Folded Reload
Ltmp310:
	;DEBUG_VALUE: bsGetBit:bs <- [DW_OP_LLVM_entry_value 1] $x0
	ret
Ltmp311:
LBB1_7:                                 ; %codeRepl
	;DEBUG_VALUE: bsGetBit:bs <- $x19
	.loc	1 87 14                         ; bzip2recover.c:87:14
	bl	_bsGetBit.cold.1
Ltmp312:
Lfunc_end1:
	.cfi_endproc
	.file	5 "/Library/Developer/CommandLineTools/SDKs/MacOSX.sdk/usr/include" "stdio.h"
                                        ; -- End function
	.p2align	2                               ; -- Begin function bsClose
_bsClose:                               ; @bsClose
Lfunc_begin2:
	.loc	1 219 0                         ; bzip2recover.c:219:0
	.cfi_startproc
; %bb.0:
	;DEBUG_VALUE: bsClose:bs <- $x0
	stp	x20, x19, [sp, #-32]!           ; 16-byte Folded Spill
	.cfi_def_cfa_offset 32
	stp	x29, x30, [sp, #16]             ; 16-byte Folded Spill
	add	x29, sp, #16
	.cfi_def_cfa w29, 16
	.cfi_offset w30, -8
	.cfi_offset w29, -16
	.cfi_offset w19, -24
	.cfi_offset w20, -32
	mov	x19, x0
Ltmp313:
	;DEBUG_VALUE: bsClose:bs <- $x19
	.loc	1 222 13 prologue_end           ; bzip2recover.c:222:13
	ldrb	w8, [x0, #16]
Ltmp314:
	.loc	1 222 9 is_stmt 0               ; bzip2recover.c:222:9
	cmp	w8, #119
	b.ne	LBB2_7
Ltmp315:
; %bb.1:                                ; %.preheader
	;DEBUG_VALUE: bsClose:bs <- $x19
	.loc	1 0 9                           ; bzip2recover.c:0:9
	ldp	w8, w9, [x19, #8]
Ltmp316:
	.loc	1 223 7 is_stmt 1               ; bzip2recover.c:223:7
	cmp	w9, #7
	b.gt	LBB2_5
Ltmp317:
; %bb.2:                                ; %.lr.ph.preheader
	;DEBUG_VALUE: bsClose:bs <- $x19
	sub	w9, w9, #8
Ltmp318:
LBB2_3:                                 ; %.lr.ph
                                        ; =>This Inner Loop Header: Depth=1
	;DEBUG_VALUE: bsClose:bs <- $x19
	.loc	1 225 21                        ; bzip2recover.c:225:21
	lsl	w8, w8, #1
Ltmp319:
	.loc	1 223 28                        ; bzip2recover.c:223:28
	adds	w9, w9, #1
	.loc	1 223 7 is_stmt 0               ; bzip2recover.c:223:7
	b.lo	LBB2_3
Ltmp320:
; %bb.4:                                ; %._crit_edge
	;DEBUG_VALUE: bsClose:bs <- $x19
	.loc	1 0 7                           ; bzip2recover.c:0:7
	mov	w9, #8
Ltmp321:
	.loc	1 224 22 is_stmt 1              ; bzip2recover.c:224:22
	stp	w8, w9, [x19, #8]
Ltmp322:
LBB2_5:                                 ; %.preheader._crit_edge
	;DEBUG_VALUE: bsClose:bs <- $x19
	.loc	1 227 23                        ; bzip2recover.c:227:23
	and	w0, w8, #0xff
	.loc	1 227 49 is_stmt 0              ; bzip2recover.c:227:49
	ldr	x1, [x19]
	.loc	1 227 16                        ; bzip2recover.c:227:16
	bl	_putc
Ltmp323:
	;DEBUG_VALUE: bsClose:retVal <- $w0
	.loc	1 228 11 is_stmt 1              ; bzip2recover.c:228:11
	cmn	w0, #1
	b.eq	LBB2_10
Ltmp324:
; %bb.6:
	;DEBUG_VALUE: bsClose:retVal <- $w0
	;DEBUG_VALUE: bsClose:bs <- $x19
	.loc	1 229 15                        ; bzip2recover.c:229:15
	adrp	x8, _bytesOut@PAGE
	ldr	x9, [x8, _bytesOut@PAGEOFF]
	add	x9, x9, #1
	str	x9, [x8, _bytesOut@PAGEOFF]
	.loc	1 230 29                        ; bzip2recover.c:230:29
	ldr	x0, [x19]
Ltmp325:
	.loc	1 230 16 is_stmt 0              ; bzip2recover.c:230:16
	bl	_fflush
Ltmp326:
	;DEBUG_VALUE: bsClose:retVal <- $w0
	.loc	1 231 11 is_stmt 1              ; bzip2recover.c:231:11
	cmn	w0, #1
	b.eq	LBB2_11
Ltmp327:
LBB2_7:
	;DEBUG_VALUE: bsClose:bs <- $x19
	.loc	1 233 26                        ; bzip2recover.c:233:26
	ldr	x0, [x19]
	.loc	1 233 13 is_stmt 0              ; bzip2recover.c:233:13
	bl	_fclose
Ltmp328:
	;DEBUG_VALUE: bsClose:retVal <- $w0
	.loc	1 234 8 is_stmt 1               ; bzip2recover.c:234:8
	cmn	w0, #1
	b.eq	LBB2_9
Ltmp329:
; %bb.8:
	;DEBUG_VALUE: bsClose:retVal <- $w0
	;DEBUG_VALUE: bsClose:bs <- $x19
	.loc	1 237 4                         ; bzip2recover.c:237:4
	mov	x0, x19
Ltmp330:
	ldp	x29, x30, [sp, #16]             ; 16-byte Folded Reload
	ldp	x20, x19, [sp], #32             ; 16-byte Folded Reload
Ltmp331:
	;DEBUG_VALUE: bsClose:bs <- [DW_OP_LLVM_entry_value 1] $x0
	b	_free
Ltmp332:
LBB2_9:                                 ; %codeRepl18
	;DEBUG_VALUE: bsClose:retVal <- $w0
	;DEBUG_VALUE: bsClose:bs <- $x19
	.loc	1 0 0 is_stmt 0                 ; bzip2recover.c:0:0
	bl	_bsClose.cold.3
Ltmp333:
LBB2_10:                                ; %codeRepl
	;DEBUG_VALUE: bsClose:retVal <- $w0
	;DEBUG_VALUE: bsClose:bs <- $x19
	.loc	1 100 14 is_stmt 1              ; bzip2recover.c:100:14
	bl	_bsClose.cold.1
Ltmp334:
LBB2_11:                                ; %codeRepl17
	;DEBUG_VALUE: bsClose:retVal <- $w0
	;DEBUG_VALUE: bsClose:bs <- $x19
	.loc	1 100 14 is_stmt 0              ; bzip2recover.c:100:14
	bl	_bsClose.cold.2
Ltmp335:
Lfunc_end2:
	.cfi_endproc
                                        ; -- End function
	.p2align	2                               ; -- Begin function bsPutBit
_bsPutBit:                              ; @bsPutBit
Lfunc_begin3:
	.loc	1 181 0 is_stmt 1               ; bzip2recover.c:181:0
	.cfi_startproc
; %bb.0:
	;DEBUG_VALUE: bsPutBit:bs <- $x0
	;DEBUG_VALUE: bsPutBit:bit <- $w1
	stp	x20, x19, [sp, #-32]!           ; 16-byte Folded Spill
	.cfi_def_cfa_offset 32
	stp	x29, x30, [sp, #16]             ; 16-byte Folded Spill
	add	x29, sp, #16
	.cfi_def_cfa w29, 16
	.cfi_offset w30, -8
	.cfi_offset w29, -16
	.cfi_offset w19, -24
	.cfi_offset w20, -32
	mov	x20, x1
Ltmp336:
	;DEBUG_VALUE: bsPutBit:bit <- $w20
	mov	x19, x0
Ltmp337:
	;DEBUG_VALUE: bsPutBit:bs <- $x19
	.loc	1 182 12 prologue_end           ; bzip2recover.c:182:12
	ldp	w9, w8, [x0, #8]
Ltmp338:
	.loc	1 182 8 is_stmt 0               ; bzip2recover.c:182:8
	cmp	w8, #8
	b.ne	LBB3_3
Ltmp339:
; %bb.1:
	;DEBUG_VALUE: bsPutBit:bs <- $x19
	;DEBUG_VALUE: bsPutBit:bit <- $w20
	.loc	1 183 29 is_stmt 1              ; bzip2recover.c:183:29
	and	w0, w9, #0xff
	.loc	1 183 53 is_stmt 0              ; bzip2recover.c:183:53
	ldr	x1, [x19]
	.loc	1 183 22                        ; bzip2recover.c:183:22
	bl	_putc
Ltmp340:
	;DEBUG_VALUE: retVal <- $w0
	.loc	1 184 11 is_stmt 1              ; bzip2recover.c:184:11
	cmn	w0, #1
	b.eq	LBB3_5
Ltmp341:
; %bb.2:
	;DEBUG_VALUE: retVal <- $w0
	;DEBUG_VALUE: bsPutBit:bs <- $x19
	;DEBUG_VALUE: bsPutBit:bit <- $w20
	.loc	1 185 15                        ; bzip2recover.c:185:15
	adrp	x8, _bytesOut@PAGE
	ldr	x9, [x8, _bytesOut@PAGEOFF]
	add	x9, x9, #1
	str	x9, [x8, _bytesOut@PAGEOFF]
	mov	w8, #1
	.loc	1 187 24                        ; bzip2recover.c:187:24
	and	w9, w20, #0x1
	.loc	1 186 20                        ; bzip2recover.c:186:20
	stp	w9, w8, [x19, #8]
	b	LBB3_4
Ltmp342:
LBB3_3:
	;DEBUG_VALUE: bsPutBit:bs <- $x19
	;DEBUG_VALUE: bsPutBit:bit <- $w20
	.loc	1 189 40                        ; bzip2recover.c:189:40
	bfi	w20, w9, #1, #31
Ltmp343:
	.loc	1 190 19                        ; bzip2recover.c:190:19
	add	w8, w8, #1
	.loc	1 189 18                        ; bzip2recover.c:189:18
	stp	w20, w8, [x19, #8]
Ltmp344:
LBB3_4:
	;DEBUG_VALUE: bsPutBit:bs <- $x19
	.loc	1 192 1                         ; bzip2recover.c:192:1
	ldp	x29, x30, [sp, #16]             ; 16-byte Folded Reload
	ldp	x20, x19, [sp], #32             ; 16-byte Folded Reload
Ltmp345:
	;DEBUG_VALUE: bsPutBit:bs <- [DW_OP_LLVM_entry_value 1] $x0
	ret
Ltmp346:
LBB3_5:                                 ; %codeRepl
	;DEBUG_VALUE: retVal <- $w0
	;DEBUG_VALUE: bsPutBit:bs <- $x19
	;DEBUG_VALUE: bsPutBit:bit <- $w20
	.loc	1 100 14                        ; bzip2recover.c:100:14
	bl	_bsPutBit.cold.1
Ltmp347:
Lfunc_end3:
	.cfi_endproc
                                        ; -- End function
	.p2align	2                               ; -- Begin function bsGetBit.cold.1
_bsGetBit.cold.1:                       ; @bsGetBit.cold.1
Lfunc_begin4:
	.loc	1 0 0                           ; bzip2recover.c:0:0
	.cfi_startproc
; %bb.0:                                ; %newFuncRoot
	sub	sp, sp, #48
	.cfi_def_cfa_offset 48
	stp	x20, x19, [sp, #16]             ; 16-byte Folded Spill
	stp	x29, x30, [sp, #32]             ; 16-byte Folded Spill
	add	x29, sp, #32
	.cfi_def_cfa w29, 16
	.cfi_offset w30, -8
	.cfi_offset w29, -16
	.cfi_offset w19, -24
	.cfi_offset w20, -32
Ltmp348:
	.loc	1 87 14 prologue_end            ; bzip2recover.c:87:14
Lloh139:
	adrp	x20, ___stderrp@GOTPAGE
Lloh140:
	ldr	x20, [x20, ___stderrp@GOTPAGEOFF]
	ldr	x0, [x20]
	.loc	1 87 4 is_stmt 0                ; bzip2recover.c:87:4
Lloh141:
	adrp	x8, _inFileName@GOTPAGE
Lloh142:
	ldr	x8, [x8, _inFileName@GOTPAGEOFF]
Lloh143:
	adrp	x19, _progName@GOTPAGE
Lloh144:
	ldr	x19, [x19, _progName@GOTPAGEOFF]
	stp	x19, x8, [sp]
Lloh145:
	adrp	x1, l_.str.20@PAGE
Lloh146:
	add	x1, x1, l_.str.20@PAGEOFF
	bl	_fprintf
	bl	_OUTLINED_FUNCTION_0
	.loc	1 91 14 is_stmt 1               ; bzip2recover.c:91:14
	ldr	x0, [x20]
	.loc	1 91 4 is_stmt 0                ; bzip2recover.c:91:4
	str	x19, [sp]
Lloh147:
	adrp	x1, l_.str.19@PAGE
Lloh148:
	add	x1, x1, l_.str.19@PAGEOFF
	bl	_fprintf
	bl	_OUTLINED_FUNCTION_1
Ltmp349:
	.loh AdrpAdd	Lloh147, Lloh148
	.loh AdrpAdd	Lloh145, Lloh146
	.loh AdrpLdrGot	Lloh143, Lloh144
	.loh AdrpLdrGot	Lloh141, Lloh142
	.loh AdrpLdrGot	Lloh139, Lloh140
Lfunc_end4:
	.cfi_endproc
                                        ; -- End function
	.p2align	2                               ; -- Begin function bsClose.cold.1
_bsClose.cold.1:                        ; @bsClose.cold.1
Lfunc_begin5:
	.loc	1 0 0 is_stmt 1                 ; bzip2recover.c:0:0
	.cfi_startproc
; %bb.0:                                ; %newFuncRoot
	sub	sp, sp, #48
	.cfi_def_cfa_offset 48
	stp	x20, x19, [sp, #16]             ; 16-byte Folded Spill
	stp	x29, x30, [sp, #32]             ; 16-byte Folded Spill
	add	x29, sp, #32
	.cfi_def_cfa w29, 16
	.cfi_offset w30, -8
	.cfi_offset w29, -16
	.cfi_offset w19, -24
	.cfi_offset w20, -32
Ltmp350:
	.loc	1 100 14 prologue_end           ; bzip2recover.c:100:14
Lloh149:
	adrp	x20, ___stderrp@GOTPAGE
Lloh150:
	ldr	x20, [x20, ___stderrp@GOTPAGEOFF]
	ldr	x0, [x20]
	.loc	1 100 4 is_stmt 0               ; bzip2recover.c:100:4
Lloh151:
	adrp	x8, _inFileName@GOTPAGE
Lloh152:
	ldr	x8, [x8, _inFileName@GOTPAGEOFF]
Lloh153:
	adrp	x19, _progName@GOTPAGE
Lloh154:
	ldr	x19, [x19, _progName@GOTPAGEOFF]
	stp	x19, x8, [sp]
Lloh155:
	adrp	x1, l_.str.20@PAGE
Lloh156:
	add	x1, x1, l_.str.20@PAGEOFF
	bl	_fprintf
	bl	_OUTLINED_FUNCTION_0
	.loc	1 104 14 is_stmt 1              ; bzip2recover.c:104:14
	ldr	x0, [x20]
	.loc	1 104 4 is_stmt 0               ; bzip2recover.c:104:4
	str	x19, [sp]
Lloh157:
	adrp	x1, l_.str.19@PAGE
Lloh158:
	add	x1, x1, l_.str.19@PAGEOFF
	bl	_fprintf
	bl	_OUTLINED_FUNCTION_1
Ltmp351:
	.loh AdrpAdd	Lloh157, Lloh158
	.loh AdrpAdd	Lloh155, Lloh156
	.loh AdrpLdrGot	Lloh153, Lloh154
	.loh AdrpLdrGot	Lloh151, Lloh152
	.loh AdrpLdrGot	Lloh149, Lloh150
Lfunc_end5:
	.cfi_endproc
                                        ; -- End function
	.p2align	2                               ; -- Begin function bsClose.cold.2
_bsClose.cold.2:                        ; @bsClose.cold.2
Lfunc_begin6:
	.loc	1 0 0 is_stmt 1                 ; bzip2recover.c:0:0
	.cfi_startproc
; %bb.0:                                ; %newFuncRoot
	sub	sp, sp, #48
	.cfi_def_cfa_offset 48
	stp	x20, x19, [sp, #16]             ; 16-byte Folded Spill
	stp	x29, x30, [sp, #32]             ; 16-byte Folded Spill
	add	x29, sp, #32
	.cfi_def_cfa w29, 16
	.cfi_offset w30, -8
	.cfi_offset w29, -16
	.cfi_offset w19, -24
	.cfi_offset w20, -32
Ltmp352:
	.loc	1 100 14 prologue_end           ; bzip2recover.c:100:14
Lloh159:
	adrp	x20, ___stderrp@GOTPAGE
Lloh160:
	ldr	x20, [x20, ___stderrp@GOTPAGEOFF]
	ldr	x0, [x20]
	.loc	1 100 4 is_stmt 0               ; bzip2recover.c:100:4
Lloh161:
	adrp	x8, _inFileName@GOTPAGE
Lloh162:
	ldr	x8, [x8, _inFileName@GOTPAGEOFF]
Lloh163:
	adrp	x19, _progName@GOTPAGE
Lloh164:
	ldr	x19, [x19, _progName@GOTPAGEOFF]
	stp	x19, x8, [sp]
Lloh165:
	adrp	x1, l_.str.20@PAGE
Lloh166:
	add	x1, x1, l_.str.20@PAGEOFF
	bl	_fprintf
	bl	_OUTLINED_FUNCTION_0
	.loc	1 104 14 is_stmt 1              ; bzip2recover.c:104:14
	ldr	x0, [x20]
	.loc	1 104 4 is_stmt 0               ; bzip2recover.c:104:4
	str	x19, [sp]
Lloh167:
	adrp	x1, l_.str.19@PAGE
Lloh168:
	add	x1, x1, l_.str.19@PAGEOFF
	bl	_fprintf
	bl	_OUTLINED_FUNCTION_1
Ltmp353:
	.loh AdrpAdd	Lloh167, Lloh168
	.loh AdrpAdd	Lloh165, Lloh166
	.loh AdrpLdrGot	Lloh163, Lloh164
	.loh AdrpLdrGot	Lloh161, Lloh162
	.loh AdrpLdrGot	Lloh159, Lloh160
Lfunc_end6:
	.cfi_endproc
                                        ; -- End function
	.p2align	2                               ; -- Begin function bsClose.cold.3
_bsClose.cold.3:                        ; @bsClose.cold.3
Lfunc_begin7:
	.loc	1 0 0 is_stmt 1                 ; bzip2recover.c:0:0
	.cfi_startproc
; %bb.0:                                ; %newFuncRoot
	sub	sp, sp, #48
	.cfi_def_cfa_offset 48
	stp	x20, x19, [sp, #16]             ; 16-byte Folded Spill
	stp	x29, x30, [sp, #32]             ; 16-byte Folded Spill
	add	x29, sp, #32
	.cfi_def_cfa w29, 16
	.cfi_offset w30, -8
	.cfi_offset w29, -16
	.cfi_offset w19, -24
	.cfi_offset w20, -32
Ltmp354:
Lloh169:
	adrp	x20, ___stderrp@GOTPAGE
Lloh170:
	ldr	x20, [x20, ___stderrp@GOTPAGEOFF]
	ldr	x0, [x20]
Lloh171:
	adrp	x8, _inFileName@GOTPAGE
Lloh172:
	ldr	x8, [x8, _inFileName@GOTPAGEOFF]
Lloh173:
	adrp	x19, _progName@GOTPAGE
Lloh174:
	ldr	x19, [x19, _progName@GOTPAGEOFF]
	stp	x19, x8, [sp]
Lloh175:
	adrp	x1, l_.str.20@PAGE
Lloh176:
	add	x1, x1, l_.str.20@PAGEOFF
	bl	_fprintf
	bl	_OUTLINED_FUNCTION_0
	ldr	x0, [x20]
	str	x19, [sp]
Lloh177:
	adrp	x1, l_.str.19@PAGE
Lloh178:
	add	x1, x1, l_.str.19@PAGEOFF
	bl	_fprintf
	bl	_OUTLINED_FUNCTION_1
Ltmp355:
	.loh AdrpAdd	Lloh177, Lloh178
	.loh AdrpAdd	Lloh175, Lloh176
	.loh AdrpLdrGot	Lloh173, Lloh174
	.loh AdrpLdrGot	Lloh171, Lloh172
	.loh AdrpLdrGot	Lloh169, Lloh170
Lfunc_end7:
	.cfi_endproc
                                        ; -- End function
	.p2align	2                               ; -- Begin function bsPutBit.cold.1
_bsPutBit.cold.1:                       ; @bsPutBit.cold.1
Lfunc_begin8:
	.loc	1 0 0                           ; bzip2recover.c:0:0
	.cfi_startproc
; %bb.0:                                ; %newFuncRoot
	sub	sp, sp, #48
	.cfi_def_cfa_offset 48
	stp	x20, x19, [sp, #16]             ; 16-byte Folded Spill
	stp	x29, x30, [sp, #32]             ; 16-byte Folded Spill
	add	x29, sp, #32
	.cfi_def_cfa w29, 16
	.cfi_offset w30, -8
	.cfi_offset w29, -16
	.cfi_offset w19, -24
	.cfi_offset w20, -32
Ltmp356:
	.loc	1 100 14 prologue_end           ; bzip2recover.c:100:14
Lloh179:
	adrp	x20, ___stderrp@GOTPAGE
Lloh180:
	ldr	x20, [x20, ___stderrp@GOTPAGEOFF]
	ldr	x0, [x20]
	.loc	1 100 4 is_stmt 0               ; bzip2recover.c:100:4
Lloh181:
	adrp	x8, _inFileName@GOTPAGE
Lloh182:
	ldr	x8, [x8, _inFileName@GOTPAGEOFF]
Lloh183:
	adrp	x19, _progName@GOTPAGE
Lloh184:
	ldr	x19, [x19, _progName@GOTPAGEOFF]
	stp	x19, x8, [sp]
Lloh185:
	adrp	x1, l_.str.20@PAGE
Lloh186:
	add	x1, x1, l_.str.20@PAGEOFF
	bl	_fprintf
	bl	_OUTLINED_FUNCTION_0
	.loc	1 104 14 is_stmt 1              ; bzip2recover.c:104:14
	ldr	x0, [x20]
	.loc	1 104 4 is_stmt 0               ; bzip2recover.c:104:4
	str	x19, [sp]
Lloh187:
	adrp	x1, l_.str.19@PAGE
Lloh188:
	add	x1, x1, l_.str.19@PAGEOFF
	bl	_fprintf
	bl	_OUTLINED_FUNCTION_1
Ltmp357:
	.loh AdrpAdd	Lloh187, Lloh188
	.loh AdrpAdd	Lloh185, Lloh186
	.loh AdrpLdrGot	Lloh183, Lloh184
	.loh AdrpLdrGot	Lloh181, Lloh182
	.loh AdrpLdrGot	Lloh179, Lloh180
Lfunc_end8:
	.cfi_endproc
                                        ; -- End function
	.p2align	2                               ; -- Begin function OUTLINED_FUNCTION_0
_OUTLINED_FUNCTION_0:                   ; @OUTLINED_FUNCTION_0 Thunk
Lfunc_begin9:
	.cfi_startproc
; %bb.0:
	mov	x0, x19
	b	_perror
Lfunc_end9:
	.cfi_endproc
                                        ; -- End function
	.p2align	2                               ; -- Begin function OUTLINED_FUNCTION_1
_OUTLINED_FUNCTION_1:                   ; @OUTLINED_FUNCTION_1 Thunk
Lfunc_begin10:
	.cfi_startproc
; %bb.0:
	mov	w0, #1
	b	_exit
Lfunc_end10:
	.cfi_endproc
                                        ; -- End function
	.globl	_bytesOut                       ; @bytesOut
.zerofill __DATA,__common,_bytesOut,8,3
	.globl	_bytesIn                        ; @bytesIn
.zerofill __DATA,__common,_bytesIn,8,3
	.comm	_progName,2000,0                ; @progName
	.comm	_outFileName,2000,0             ; @outFileName
	.comm	_inFileName,2000,0              ; @inFileName
	.section	__TEXT,__cstring,cstring_literals
l_.str:                                 ; @.str
	.asciz	"bzip2recover 1.0.8: extracts blocks from damaged .bz2 files.\n"

l_.str.1:                               ; @.str.1
	.asciz	"%s: usage is `%s damaged_file_name'.\n"

l_.str.2:                               ; @.str.2
	.asciz	"\trestrictions on size of recovered file: None\n"

l_.str.3:                               ; @.str.3
	.asciz	"%s: supplied filename is suspiciously (>= %d chars) long.  Bye!\n"

l_.str.4:                               ; @.str.4
	.asciz	"rb"

l_.str.5:                               ; @.str.5
	.asciz	"%s: can't read `%s'\n"

l_.str.6:                               ; @.str.6
	.asciz	"%s: searching for block boundaries ...\n"

	.comm	_bStart,400000,3                ; @bStart
	.comm	_bEnd,400000,3                  ; @bEnd
l_.str.7:                               ; @.str.7
	.asciz	"   block %d runs from %Lu to %Lu (incomplete)\n"

l_.str.8:                               ; @.str.8
	.asciz	"   block %d runs from %Lu to %Lu\n"

	.comm	_rbStart,400000,3               ; @rbStart
	.comm	_rbEnd,400000,3                 ; @rbEnd
l_.str.9:                               ; @.str.9
	.asciz	"%s: sorry, I couldn't find any block boundaries.\n"

l_.str.10:                              ; @.str.10
	.asciz	"%s: splitting into blocks\n"

l_.str.11:                              ; @.str.11
	.asciz	"%s: can't open `%s'\n"

l_.str.12:                              ; @.str.12
	.asciz	"rec%5d"

l_.str.13:                              ; @.str.13
	.asciz	".bz2"

l_.str.14:                              ; @.str.14
	.asciz	"   writing block %d to `%s' ...\n"

l_.str.15:                              ; @.str.15
	.asciz	"wb"

l_.str.16:                              ; @.str.16
	.asciz	"%s: can't write `%s'\n"

l_.str.17:                              ; @.str.17
	.asciz	"%s: finished\n"

l_.str.18:                              ; @.str.18
	.asciz	"%s: malloc failed on request for %d bytes.\n"

l_.str.19:                              ; @.str.19
	.asciz	"%s: warning: output file(s) may be incomplete.\n"

l_.str.20:                              ; @.str.20
	.asciz	"%s: I/O error reading `%s', possible reason follows.\n"

l_.str.21:                              ; @.str.21
	.asciz	"%s: `%s' appears to contain more than %d blocks\n"

l_.str.22:                              ; @.str.22
	.asciz	"%s: and cannot be handled.  To fix, increase\n"

l_.str.23:                              ; @.str.23
	.asciz	"%s: BZ_MAX_HANDLED_BLOCKS in bzip2recover.c, and recompile.\n"
