	.section	__TEXT,__text,regular,pure_instructions
	.build_version macos, 14, 0	sdk_version 14, 2
	.file	1 "/Users/mac/rustmap-clone/c-code/bzip2" "bzip2.c"
	.file	2 "/Library/Developer/CommandLineTools/SDKs/MacOSX.sdk/usr/include" "_stdio.h"
	.file	3 "/Library/Developer/CommandLineTools/SDKs/MacOSX.sdk/usr/include/arm" "_types.h"
	.file	4 "/Library/Developer/CommandLineTools/SDKs/MacOSX.sdk/usr/include/sys" "_types.h"
	.file	5 "/Library/Developer/CommandLineTools/SDKs/MacOSX.sdk/usr/include/sys/_types" "_dev_t.h"
	.file	6 "/Library/Developer/CommandLineTools/SDKs/MacOSX.sdk/usr/include/sys" "stat.h"
	.file	7 "/Library/Developer/CommandLineTools/SDKs/MacOSX.sdk/usr/include/sys/_types" "_mode_t.h"
	.file	8 "/Library/Developer/CommandLineTools/SDKs/MacOSX.sdk/usr/include/sys/_types" "_nlink_t.h"
	.file	9 "/Library/Developer/CommandLineTools/SDKs/MacOSX.sdk/usr/include/sys/_types" "_uid_t.h"
	.file	10 "/Library/Developer/CommandLineTools/SDKs/MacOSX.sdk/usr/include/sys/_types" "_gid_t.h"
	.file	11 "/Library/Developer/CommandLineTools/SDKs/MacOSX.sdk/usr/include/sys/_types" "_timespec.h"
	.file	12 "/Library/Developer/CommandLineTools/SDKs/MacOSX.sdk/usr/include/sys/_types" "_off_t.h"
	.file	13 "/Library/Developer/CommandLineTools/SDKs/MacOSX.sdk/usr/include/sys/_types" "_blkcnt_t.h"
	.file	14 "/Library/Developer/CommandLineTools/SDKs/MacOSX.sdk/usr/include/sys/_types" "_blksize_t.h"
	.file	15 "/Library/Developer/CommandLineTools/SDKs/MacOSX.sdk/usr/include/sys/_types" "_size_t.h"
	.globl	_main                           ; -- Begin function main
	.p2align	2
_main:                                  ; @main
Lfunc_begin0:
	.loc	1 1785 0                        ; bzip2.c:1785:0
	.cfi_startproc
; %bb.0:                                ; %copyFileName.exit
	;DEBUG_VALUE: main:argc <- $w0
	;DEBUG_VALUE: main:argv <- $x1
	sub	sp, sp, #128
	.cfi_def_cfa_offset 128
	stp	x28, x27, [sp, #32]             ; 16-byte Folded Spill
	stp	x26, x25, [sp, #48]             ; 16-byte Folded Spill
	stp	x24, x23, [sp, #64]             ; 16-byte Folded Spill
	stp	x22, x21, [sp, #80]             ; 16-byte Folded Spill
	stp	x20, x19, [sp, #96]             ; 16-byte Folded Spill
	stp	x29, x30, [sp, #112]            ; 16-byte Folded Spill
	add	x29, sp, #112
	.cfi_def_cfa w29, 16
	.cfi_offset w30, -8
	.cfi_offset w29, -16
	.cfi_offset w19, -24
	.cfi_offset w20, -32
	.cfi_offset w21, -40
	.cfi_offset w22, -48
	.cfi_offset w23, -56
	.cfi_offset w24, -64
	.cfi_offset w25, -72
	.cfi_offset w26, -80
	.cfi_offset w27, -88
	.cfi_offset w28, -96
	mov	x20, x1
Ltmp0:
	;DEBUG_VALUE: main:argv <- $x20
	mov	x21, x0
Ltmp1:
	;DEBUG_VALUE: main:argc <- $w21
	.loc	1 1799 27 prologue_end          ; bzip2.c:1799:27
Lloh0:
	adrp	x8, _outputHandleJustInCase@GOTPAGE
Lloh1:
	ldr	x8, [x8, _outputHandleJustInCase@GOTPAGEOFF]
Lloh2:
	str	xzr, [x8]
	.loc	1 1800 14                       ; bzip2.c:1800:14
Lloh3:
	adrp	x8, _smallMode@GOTPAGE
Lloh4:
	ldr	x8, [x8, _smallMode@GOTPAGEOFF]
Lloh5:
	strb	wzr, [x8]
	.loc	1 1801 19                       ; bzip2.c:1801:19
Lloh6:
	adrp	x8, _keepInputFiles@GOTPAGE
Lloh7:
	ldr	x8, [x8, _keepInputFiles@GOTPAGEOFF]
Lloh8:
	strb	wzr, [x8]
	.loc	1 1802 19                       ; bzip2.c:1802:19
Lloh9:
	adrp	x8, _forceOverwrite@GOTPAGE
Lloh10:
	ldr	x8, [x8, _forceOverwrite@GOTPAGEOFF]
Lloh11:
	strb	wzr, [x8]
	.loc	1 1803 10                       ; bzip2.c:1803:10
Lloh12:
	adrp	x9, _noisy@GOTPAGE
Lloh13:
	ldr	x9, [x9, _noisy@GOTPAGEOFF]
	mov	w8, #1
Lloh14:
	strb	w8, [x9]
	.loc	1 1804 14                       ; bzip2.c:1804:14
Lloh15:
	adrp	x8, _verbosity@GOTPAGE
Lloh16:
	ldr	x8, [x8, _verbosity@GOTPAGEOFF]
Lloh17:
	str	wzr, [x8]
	.loc	1 1805 18                       ; bzip2.c:1805:18
Lloh18:
	adrp	x9, _blockSize100k@GOTPAGE
Lloh19:
	ldr	x9, [x9, _blockSize100k@GOTPAGEOFF]
	mov	w8, #9
Lloh20:
	str	w8, [x9]
	.loc	1 1806 19                       ; bzip2.c:1806:19
Lloh21:
	adrp	x8, _testFailsExist@GOTPAGE
Lloh22:
	ldr	x8, [x8, _testFailsExist@GOTPAGEOFF]
	.loc	1 1807 18                       ; bzip2.c:1807:18
Lloh23:
	adrp	x9, _unzFailsExist@GOTPAGE
Lloh24:
	ldr	x9, [x9, _unzFailsExist@GOTPAGEOFF]
	.loc	1 1806 19                       ; bzip2.c:1806:19
Lloh25:
	strb	wzr, [x8]
	.loc	1 1807 18                       ; bzip2.c:1807:18
Lloh26:
	strb	wzr, [x9]
	.loc	1 1808 17                       ; bzip2.c:1808:17
Lloh27:
	adrp	x28, _numFileNames@GOTPAGE
Lloh28:
	ldr	x28, [x28, _numFileNames@GOTPAGEOFF]
	.loc	1 1809 22                       ; bzip2.c:1809:22
Lloh29:
	adrp	x8, _numFilesProcessed@GOTPAGE
Lloh30:
	ldr	x8, [x8, _numFilesProcessed@GOTPAGEOFF]
	.loc	1 1808 17                       ; bzip2.c:1808:17
	str	wzr, [x28]
	.loc	1 1809 22                       ; bzip2.c:1809:22
Lloh31:
	str	wzr, [x8]
	.loc	1 1810 15                       ; bzip2.c:1810:15
Lloh32:
	adrp	x9, _workFactor@GOTPAGE
Lloh33:
	ldr	x9, [x9, _workFactor@GOTPAGEOFF]
	mov	w8, #30
Lloh34:
	str	w8, [x9]
	.loc	1 1811 28                       ; bzip2.c:1811:28
Lloh35:
	adrp	x8, _deleteOutputOnInterrupt@GOTPAGE
Lloh36:
	ldr	x8, [x8, _deleteOutputOnInterrupt@GOTPAGEOFF]
Lloh37:
	strb	wzr, [x8]
	.loc	1 1812 14                       ; bzip2.c:1812:14
Lloh38:
	adrp	x22, _exitValue@GOTPAGE
Lloh39:
	ldr	x22, [x22, _exitValue@GOTPAGEOFF]
	str	wzr, [x22]
Ltmp2:
	;DEBUG_VALUE: main:i <- 0
	;DEBUG_VALUE: main:j <- 0
	.loc	1 1816 4                        ; bzip2.c:1816:4
Lloh40:
	adrp	x19, _mySIGSEGVorSIGBUScatcher@PAGE
Lloh41:
	add	x19, x19, _mySIGSEGVorSIGBUScatcher@PAGEOFF
	mov	w0, #11
	mov	x1, x19
	bl	_signal
Ltmp3:
	.loc	1 1819 4                        ; bzip2.c:1819:4
	mov	w0, #10
	mov	x1, x19
	bl	_signal
Ltmp4:
	.loc	1 941 3                         ; bzip2.c:941:3
Lloh42:
	adrp	x0, _inName@GOTPAGE
Lloh43:
	ldr	x0, [x0, _inName@GOTPAGEOFF]
Ltmp5:
	;DEBUG_VALUE: copyFileName:to <- $x0
Lloh44:
	adrp	x19, l_.str.6@PAGE
Lloh45:
	add	x19, x19, l_.str.6@PAGEOFF
Ltmp6:
	;DEBUG_VALUE: copyFileName:from <- $x19
	mov	x1, x19
	mov	w2, #1024
	bl	_strncpy
Ltmp7:
	.loc	1 942 15                        ; bzip2.c:942:15
	strb	wzr, [x0, #1024]
Ltmp8:
	;DEBUG_VALUE: copyFileName:from <- $x19
	.loc	1 941 3                         ; bzip2.c:941:3
Lloh46:
	adrp	x0, _outName@GOTPAGE
Ltmp9:
Lloh47:
	ldr	x0, [x0, _outName@GOTPAGEOFF]
Ltmp10:
	;DEBUG_VALUE: copyFileName:to <- $x0
	mov	x1, x19
	mov	w2, #1024
	bl	_strncpy
Ltmp11:
	.loc	1 942 15                        ; bzip2.c:942:15
	strb	wzr, [x0, #1024]
Ltmp12:
	.loc	1 1826 35                       ; bzip2.c:1826:35
	ldr	x19, [x20]
Ltmp13:
	;DEBUG_VALUE: copyFileName:from <- $x19
	.loc	1 929 9                         ; bzip2.c:929:9
	mov	x0, x19
Ltmp14:
	bl	_strlen
Ltmp15:
	.loc	1 929 9 is_stmt 0               ; bzip2.c:929:9
	cmp	x0, #1025
Ltmp16:
	;DEBUG_VALUE: copyFileName:to <- undef
	b.hs	LBB0_145
Ltmp17:
; %bb.1:                                ; %copyFileName.exit134
	;DEBUG_VALUE: copyFileName:from <- $x19
	;DEBUG_VALUE: main:j <- 0
	;DEBUG_VALUE: main:i <- 0
	;DEBUG_VALUE: main:argc <- $w21
	;DEBUG_VALUE: main:argv <- $x20
	.loc	1 941 3 is_stmt 1               ; bzip2.c:941:3
Lloh48:
	adrp	x0, _progNameReally@GOTPAGE
Lloh49:
	ldr	x0, [x0, _progNameReally@GOTPAGEOFF]
Ltmp18:
	;DEBUG_VALUE: main:tmp <- $x0
	mov	x1, x19
	mov	w2, #1024
	bl	_strncpy
Ltmp19:
	.loc	1 942 15                        ; bzip2.c:942:15
	strb	wzr, [x0, #1024]
Ltmp20:
	.loc	1 1827 13                       ; bzip2.c:1827:13
Lloh50:
	adrp	x27, _progName@GOTPAGE
Lloh51:
	ldr	x27, [x27, _progName@GOTPAGEOFF]
	str	x0, [x27]
	add	x8, x0, #1
	b	LBB0_4
Ltmp21:
LBB0_2:                                 ;   in Loop: Header=BB0_4 Depth=1
	;DEBUG_VALUE: main:tmp <- [DW_OP_constu 1, DW_OP_minus, DW_OP_stack_value] $x8
	;DEBUG_VALUE: main:j <- 0
	;DEBUG_VALUE: main:i <- 0
	;DEBUG_VALUE: main:argc <- $w21
	;DEBUG_VALUE: main:argv <- $x20
	.loc	1 1829 33                       ; bzip2.c:1829:33
	str	x8, [x27]
Ltmp22:
LBB0_3:                                 ;   in Loop: Header=BB0_4 Depth=1
	;DEBUG_VALUE: main:tmp <- [DW_OP_constu 1, DW_OP_minus, DW_OP_stack_value] $x8
	;DEBUG_VALUE: main:j <- 0
	;DEBUG_VALUE: main:i <- 0
	;DEBUG_VALUE: main:argc <- $w21
	;DEBUG_VALUE: main:argv <- $x20
	;DEBUG_VALUE: main:tmp <- $x8
	.loc	1 1828 4                        ; bzip2.c:1828:4
	add	x8, x8, #1
Ltmp23:
LBB0_4:                                 ; =>This Inner Loop Header: Depth=1
	;DEBUG_VALUE: main:j <- 0
	;DEBUG_VALUE: main:i <- 0
	;DEBUG_VALUE: main:argc <- $w21
	;DEBUG_VALUE: main:argv <- $x20
	;DEBUG_VALUE: main:tmp <- [DW_OP_constu 1, DW_OP_minus, DW_OP_stack_value] $x8
	.loc	1 1828 35 is_stmt 0             ; bzip2.c:1828:35
	ldurb	w9, [x8, #-1]
Ltmp24:
	.loc	1 1828 4                        ; bzip2.c:1828:4
	cmp	w9, #47
	b.eq	LBB0_2
Ltmp25:
; %bb.5:                                ;   in Loop: Header=BB0_4 Depth=1
	;DEBUG_VALUE: main:tmp <- [DW_OP_constu 1, DW_OP_minus, DW_OP_stack_value] $x8
	;DEBUG_VALUE: main:j <- 0
	;DEBUG_VALUE: main:i <- 0
	;DEBUG_VALUE: main:argc <- $w21
	;DEBUG_VALUE: main:argv <- $x20
	cbnz	w9, LBB0_3
Ltmp26:
; %bb.6:
	;DEBUG_VALUE: main:tmp <- [DW_OP_constu 1, DW_OP_minus, DW_OP_stack_value] $x8
	;DEBUG_VALUE: main:j <- 0
	;DEBUG_VALUE: main:i <- 0
	;DEBUG_VALUE: main:argc <- $w21
	;DEBUG_VALUE: main:argv <- $x20
	;DEBUG_VALUE: main:argList <- 0
	.loc	1 1835 12 is_stmt 1             ; bzip2.c:1835:12
	str	xzr, [sp, #24]
Ltmp27:
	;DEBUG_VALUE: main:argList <- [DW_OP_plus_uconst 24, DW_OP_deref] $sp
	.loc	1 1836 4                        ; bzip2.c:1836:4
Lloh52:
	adrp	x1, l_.str.7@PAGE
Lloh53:
	add	x1, x1, l_.str.7@PAGEOFF
	add	x0, sp, #24
	bl	_addFlagsFromEnvVar
Ltmp28:
	.loc	1 1837 4                        ; bzip2.c:1837:4
Lloh54:
	adrp	x1, l_.str.8@PAGE
Lloh55:
	add	x1, x1, l_.str.8@PAGEOFF
	add	x0, sp, #24
	bl	_addFlagsFromEnvVar
Ltmp29:
	;DEBUG_VALUE: main:i <- 1
	.loc	1 0 4 is_stmt 0                 ; bzip2.c:0:4
	ldr	x26, [sp, #24]
Ltmp30:
	.loc	1 1838 4 is_stmt 1              ; bzip2.c:1838:4
	cmp	w21, #2
	b.lt	LBB0_9
Ltmp31:
; %bb.7:                                ; %.lr.ph.preheader
	;DEBUG_VALUE: main:i <- 1
	;DEBUG_VALUE: main:argList <- [DW_OP_plus_uconst 24, DW_OP_deref] $sp
	;DEBUG_VALUE: main:j <- 0
	;DEBUG_VALUE: main:argc <- $w21
	;DEBUG_VALUE: main:argv <- $x20
	.loc	1 1838 18 is_stmt 0             ; bzip2.c:1838:18
	mov	w8, w21
Ltmp32:
	.loc	1 1838 4                        ; bzip2.c:1838:4
	add	x19, x20, #8
	sub	x20, x8, #1
Ltmp33:
	;DEBUG_VALUE: main:argv <- [DW_OP_LLVM_entry_value 1] $x1
LBB0_8:                                 ; %.lr.ph
                                        ; =>This Inner Loop Header: Depth=1
	;DEBUG_VALUE: main:argv <- [DW_OP_LLVM_entry_value 1] $x1
	;DEBUG_VALUE: main:j <- 0
	;DEBUG_VALUE: main:argc <- $w21
	;DEBUG_VALUE: main:i <- [DW_OP_LLVM_arg 0, DW_OP_consts 8, DW_OP_LLVM_arg 0, DW_OP_plus, DW_OP_minus, DW_OP_consts 8, DW_OP_div, DW_OP_consts 1, DW_OP_plus, DW_OP_stack_value] undef
	;DEBUG_VALUE: main:argList <- $x26
	.loc	1 1839 38 is_stmt 1             ; bzip2.c:1839:38
	ldr	x1, [x19], #8
	.loc	1 1839 15 is_stmt 0             ; bzip2.c:1839:15
	mov	x0, x26
	bl	_snocString
Ltmp34:
	mov	x26, x0
Ltmp35:
	;DEBUG_VALUE: main:argList <- $x26
	;DEBUG_VALUE: main:i <- [DW_OP_LLVM_arg 0, DW_OP_consts 8, DW_OP_LLVM_arg 0, DW_OP_plus, DW_OP_minus, DW_OP_consts 8, DW_OP_div, DW_OP_consts 2, DW_OP_plus, DW_OP_stack_value] undef
	.loc	1 1838 18 is_stmt 1             ; bzip2.c:1838:18
	subs	x20, x20, #1
Ltmp36:
	.loc	1 1838 4 is_stmt 0              ; bzip2.c:1838:4
	b.ne	LBB0_8
Ltmp37:
LBB0_9:                                 ; %._crit_edge
	;DEBUG_VALUE: main:j <- 0
	;DEBUG_VALUE: main:argc <- $w21
	.loc	1 0 0                           ; bzip2.c:0:0
	str	x26, [sp, #24]
Ltmp38:
	.loc	1 1843 20 is_stmt 1             ; bzip2.c:1843:20
Lloh56:
	adrp	x19, _longestFileName@GOTPAGE
Lloh57:
	ldr	x19, [x19, _longestFileName@GOTPAGEOFF]
	mov	w8, #7
	str	w8, [x19]
	.loc	1 1844 17                       ; bzip2.c:1844:17
	str	wzr, [x28]
Ltmp39:
	;DEBUG_VALUE: main:aa <- $x26
	;DEBUG_VALUE: main:decode <- 1
	;DEBUG_VALUE: main:argList <- undef
	.loc	1 0 17 is_stmt 0                ; bzip2.c:0:17
	mov	w22, #0
Ltmp40:
	.loc	1 1846 4 is_stmt 1              ; bzip2.c:1846:4
	cbz	x26, LBB0_17
Ltmp41:
; %bb.10:                               ; %.lr.ph153.preheader
	;DEBUG_VALUE: main:decode <- 1
	;DEBUG_VALUE: main:aa <- $x26
	;DEBUG_VALUE: main:j <- 0
	;DEBUG_VALUE: main:argc <- $w21
	.loc	1 0 4 is_stmt 0                 ; bzip2.c:0:4
	mov	w23, #1
	mov	w24, #7
	mov	x25, x26
Lloh58:
	adrp	x20, l_.str.9@PAGE
Lloh59:
	add	x20, x20, l_.str.9@PAGEOFF
	b	LBB0_13
Ltmp42:
LBB0_11:                                ;   in Loop: Header=BB0_13 Depth=1
	;DEBUG_VALUE: main:decode <- $w23
	;DEBUG_VALUE: main:j <- 0
	mov	w23, #0
Ltmp43:
LBB0_12:                                ;   in Loop: Header=BB0_13 Depth=1
	;DEBUG_VALUE: main:j <- 0
	;DEBUG_VALUE: main:decode <- $w23
	;DEBUG_VALUE: main:aa <- undef
	ldr	x25, [x25, #8]
Ltmp44:
	;DEBUG_VALUE: main:aa <- $x25
	.loc	1 1846 4                        ; bzip2.c:1846:4
	cbz	x25, LBB0_17
Ltmp45:
LBB0_13:                                ; %.lr.ph153
                                        ; =>This Inner Loop Header: Depth=1
	;DEBUG_VALUE: main:j <- 0
	;DEBUG_VALUE: main:decode <- $w23
	.loc	1 1847 23 is_stmt 1             ; bzip2.c:1847:23
	ldr	x21, [x25]
	.loc	1 1847 12 is_stmt 0             ; bzip2.c:1847:12
	mov	x0, x21
	mov	x1, x20
	bl	_strcmp
Ltmp46:
	.loc	1 1847 11                       ; bzip2.c:1847:11
	cbz	w0, LBB0_11
Ltmp47:
; %bb.14:                               ;   in Loop: Header=BB0_13 Depth=1
	;DEBUG_VALUE: main:decode <- $w23
	;DEBUG_VALUE: main:j <- 0
	.loc	1 1848 11 is_stmt 1             ; bzip2.c:1848:11
	ldrb	w8, [x21]
	.loc	1 1848 30 is_stmt 0             ; bzip2.c:1848:30
	cmp	w8, #45
	ccmp	w23, #0, #4, eq
	b.ne	LBB0_12
Ltmp48:
; %bb.15:                               ;   in Loop: Header=BB0_13 Depth=1
	;DEBUG_VALUE: main:decode <- $w23
	;DEBUG_VALUE: main:j <- 0
	.loc	1 1849 19 is_stmt 1             ; bzip2.c:1849:19
	add	w22, w22, #1
	str	w22, [x28]
Ltmp49:
	.loc	1 1850 36                       ; bzip2.c:1850:36
	mov	x0, x21
	bl	_strlen
Ltmp50:
	.loc	1 1850 11 is_stmt 0             ; bzip2.c:1850:11
	cmp	w24, w0
	b.ge	LBB0_12
Ltmp51:
; %bb.16:                               ;   in Loop: Header=BB0_13 Depth=1
	;DEBUG_VALUE: main:decode <- $w23
	;DEBUG_VALUE: main:j <- 0
	.loc	1 1851 26 is_stmt 1             ; bzip2.c:1851:26
	str	w0, [x19]
	mov	x24, x0
	b	LBB0_12
Ltmp52:
LBB0_17:                                ; %._crit_edge154
	;DEBUG_VALUE: main:j <- 0
	.loc	1 0 26 is_stmt 0                ; bzip2.c:0:26
	cmp	w22, #0
	mov	w8, #3
	csinc	w8, w8, wzr, ne
Ltmp53:
Lloh60:
	adrp	x24, _srcMode@GOTPAGE
Lloh61:
	ldr	x24, [x24, _srcMode@GOTPAGEOFF]
	str	w8, [x24]
Ltmp54:
	.loc	1 1862 11 is_stmt 1             ; bzip2.c:1862:11
Lloh62:
	adrp	x9, _opMode@GOTPAGE
Lloh63:
	ldr	x9, [x9, _opMode@GOTPAGEOFF]
	mov	w8, #1
Lloh64:
	str	w8, [x9]
Ltmp55:
	.loc	1 1864 19                       ; bzip2.c:1864:19
	ldr	x20, [x27]
	.loc	1 1864 10 is_stmt 0             ; bzip2.c:1864:10
Lloh65:
	adrp	x1, l_.str.10@PAGE
Lloh66:
	add	x1, x1, l_.str.10@PAGEOFF
	mov	x0, x20
	bl	_strstr
Ltmp56:
	.loc	1 1864 45                       ; bzip2.c:1864:45
	cbnz	x0, LBB0_19
Ltmp57:
; %bb.18:
	;DEBUG_VALUE: main:j <- 0
	.loc	1 1865 10 is_stmt 1             ; bzip2.c:1865:10
Lloh67:
	adrp	x1, l_.str.11@PAGE
Lloh68:
	add	x1, x1, l_.str.11@PAGEOFF
	mov	x0, x20
	bl	_strstr
Ltmp58:
	.loc	1 1864 9                        ; bzip2.c:1864:9
	cbz	x0, LBB0_20
Ltmp59:
LBB0_19:
	;DEBUG_VALUE: main:j <- 0
	.loc	1 0 9 is_stmt 0                 ; bzip2.c:0:9
	mov	w8, #2
Ltmp60:
	.loc	1 1866 14 is_stmt 1             ; bzip2.c:1866:14
Lloh69:
	adrp	x9, _opMode@GOTPAGE
Lloh70:
	ldr	x9, [x9, _opMode@GOTPAGEOFF]
Lloh71:
	str	w8, [x9]
Ltmp61:
LBB0_20:
	;DEBUG_VALUE: main:j <- 0
	.loc	1 1868 10                       ; bzip2.c:1868:10
Lloh72:
	adrp	x1, l_.str.12@PAGE
Lloh73:
	add	x1, x1, l_.str.12@PAGEOFF
	mov	x0, x20
	bl	_strstr
Ltmp62:
	.loc	1 1868 45 is_stmt 0             ; bzip2.c:1868:45
	cbnz	x0, LBB0_24
Ltmp63:
; %bb.21:
	;DEBUG_VALUE: main:j <- 0
	.loc	1 1869 10 is_stmt 1             ; bzip2.c:1869:10
Lloh74:
	adrp	x1, l_.str.13@PAGE
Lloh75:
	add	x1, x1, l_.str.13@PAGEOFF
	mov	x0, x20
	bl	_strstr
Ltmp64:
	.loc	1 1869 45 is_stmt 0             ; bzip2.c:1869:45
	cbnz	x0, LBB0_24
Ltmp65:
; %bb.22:
	;DEBUG_VALUE: main:j <- 0
	.loc	1 1870 10 is_stmt 1             ; bzip2.c:1870:10
Lloh76:
	adrp	x1, l_.str.14@PAGE
Lloh77:
	add	x1, x1, l_.str.14@PAGEOFF
	mov	x0, x20
	bl	_strstr
Ltmp66:
	.loc	1 1870 44 is_stmt 0             ; bzip2.c:1870:44
	cbnz	x0, LBB0_24
Ltmp67:
; %bb.23:
	;DEBUG_VALUE: main:j <- 0
	.loc	1 1871 10 is_stmt 1             ; bzip2.c:1871:10
Lloh78:
	adrp	x1, l_.str.15@PAGE
Lloh79:
	add	x1, x1, l_.str.15@PAGEOFF
	mov	x0, x20
	bl	_strstr
Ltmp68:
	.loc	1 1868 9                        ; bzip2.c:1868:9
	cbz	x0, LBB0_25
Ltmp69:
LBB0_24:
	;DEBUG_VALUE: main:j <- 0
	.loc	1 0 9 is_stmt 0                 ; bzip2.c:0:9
	mov	w8, #2
Ltmp70:
	.loc	1 1872 14 is_stmt 1             ; bzip2.c:1872:14
Lloh80:
	adrp	x9, _opMode@GOTPAGE
Lloh81:
	ldr	x9, [x9, _opMode@GOTPAGEOFF]
Lloh82:
	str	w8, [x9]
	.loc	1 1873 17                       ; bzip2.c:1873:17
	cmp	w22, #0
	mov	w8, #1
	cinc	w8, w8, ne
	.loc	1 1873 15 is_stmt 0             ; bzip2.c:1873:15
	str	w8, [x24]
Ltmp71:
LBB0_25:
	;DEBUG_VALUE: main:j <- 0
	;DEBUG_VALUE: main:argList <- undef
	;DEBUG_VALUE: main:aa <- $x26
	.loc	1 1878 4 is_stmt 1              ; bzip2.c:1878:4
	cbz	x26, LBB0_94
Ltmp72:
; %bb.26:                               ; %.lr.ph162.preheader
	;DEBUG_VALUE: main:aa <- $x26
	;DEBUG_VALUE: main:j <- 0
	.loc	1 0 4 is_stmt 0                 ; bzip2.c:0:4
Lloh83:
	adrp	x20, l_.str.9@PAGE
Lloh84:
	add	x20, x20, l_.str.9@PAGEOFF
	mov	w25, #2
Lloh85:
	adrp	x28, lJTI0_0@PAGE
Lloh86:
	add	x28, x28, lJTI0_0@PAGEOFF
	mov	w23, #1
	mov	x19, x26
Lloh87:
	adrp	x21, l_.str.51@PAGE
Lloh88:
	add	x21, x21, l_.str.51@PAGEOFF
	b	LBB0_28
Ltmp73:
LBB0_27:                                ; %.loopexit142
                                        ;   in Loop: Header=BB0_28 Depth=1
	;DEBUG_VALUE: main:aa <- undef
	ldr	x19, [x19, #8]
Ltmp74:
	;DEBUG_VALUE: main:aa <- $x19
	.loc	1 1878 4                        ; bzip2.c:1878:4
	cbz	x19, LBB0_56
Ltmp75:
LBB0_28:                                ; %.lr.ph162
                                        ; =>This Loop Header: Depth=1
                                        ;     Child Loop BB0_35 Depth 2
	.loc	1 1879 23 is_stmt 1             ; bzip2.c:1879:23
	ldr	x22, [x19]
	.loc	1 1879 12 is_stmt 0             ; bzip2.c:1879:12
	mov	x0, x22
	mov	x1, x20
	bl	_strcmp
Ltmp76:
	.loc	1 1879 11                       ; bzip2.c:1879:11
	cbz	w0, LBB0_56
; %bb.29:                               ;   in Loop: Header=BB0_28 Depth=1
Ltmp77:
	.loc	1 1880 11 is_stmt 1             ; bzip2.c:1880:11
	ldrb	w8, [x22]
	.loc	1 1880 30 is_stmt 0             ; bzip2.c:1880:30
	cmp	w8, #45
Lloh89:
	adrp	x11, _blockSize100k@GOTPAGE
Lloh90:
	ldr	x11, [x11, _blockSize100k@GOTPAGEOFF]
	b.ne	LBB0_27
; %bb.30:                               ;   in Loop: Header=BB0_28 Depth=1
	.loc	1 1880 33                       ; bzip2.c:1880:33
	ldrb	w8, [x22, #1]
Ltmp78:
	.loc	1 1880 11                       ; bzip2.c:1880:11
	cbz	w8, LBB0_27
; %bb.31:                               ;   in Loop: Header=BB0_28 Depth=1
	cmp	w8, #45
	b.eq	LBB0_27
; %bb.32:                               ; %.lr.ph157.preheader
                                        ;   in Loop: Header=BB0_28 Depth=1
	.loc	1 0 11                          ; bzip2.c:0:11
	mov	w24, #2
	b	LBB0_35
LBB0_33:                                ;   in Loop: Header=BB0_35 Depth=2
Ltmp79:
	;DEBUG_VALUE: main:j <- [DW_OP_constu 1, DW_OP_minus, DW_OP_stack_value] $x24
Lloh91:
	adrp	x9, _verbosity@GOTPAGE
Lloh92:
	ldr	x9, [x9, _verbosity@GOTPAGEOFF]
Ltmp80:
	.loc	1 1902 35 is_stmt 1             ; bzip2.c:1902:35
	ldr	w8, [x9]
	add	w8, w8, #1
	str	w8, [x9]
Ltmp81:
LBB0_34:                                ;   in Loop: Header=BB0_35 Depth=2
	;DEBUG_VALUE: main:j <- [DW_OP_constu 1, DW_OP_minus, DW_OP_stack_value] $x24
	;DEBUG_VALUE: main:j <- $x24
	.loc	1 1881 26                       ; bzip2.c:1881:26
	ldr	x22, [x19]
	.loc	1 1881 22 is_stmt 0             ; bzip2.c:1881:22
	ldrb	w8, [x22, x24]
Ltmp82:
	.loc	1 1881 10                       ; bzip2.c:1881:10
	add	x24, x24, #1
Ltmp83:
	cbz	w8, LBB0_27
LBB0_35:                                ; %.lr.ph157
                                        ;   Parent Loop BB0_28 Depth=1
                                        ; =>  This Inner Loop Header: Depth=2
Ltmp84:
	;DEBUG_VALUE: main:j <- [DW_OP_constu 1, DW_OP_minus, DW_OP_stack_value] $x24
	.loc	1 1881 22                       ; bzip2.c:1881:22
	sxtb	w8, w8
Ltmp85:
	.loc	1 1882 13 is_stmt 1             ; bzip2.c:1882:13
	sub	w8, w8, #49
	cmp	w8, #73
	b.hi	LBB0_143
Ltmp86:
; %bb.36:                               ; %.lr.ph157
                                        ;   in Loop: Header=BB0_35 Depth=2
	;DEBUG_VALUE: main:j <- [DW_OP_constu 1, DW_OP_minus, DW_OP_stack_value] $x24
	.loc	1 0 13 is_stmt 0                ; bzip2.c:0:13
	adr	x9, LBB0_33
	ldrh	w10, [x28, x8, lsl  #1]
	add	x9, x9, x10, lsl #2
	br	x9
Ltmp87:
LBB0_37:                                ;   in Loop: Header=BB0_35 Depth=2
	;DEBUG_VALUE: main:j <- [DW_OP_constu 1, DW_OP_minus, DW_OP_stack_value] $x24
	.loc	1 1611 14 is_stmt 1             ; bzip2.c:1611:14
Lloh93:
	adrp	x8, ___stderrp@GOTPAGE
Lloh94:
	ldr	x8, [x8, ___stderrp@GOTPAGEOFF]
Lloh95:
	ldr	x22, [x8]
	.loc	1 1627 5                        ; bzip2.c:1627:5
	bl	_BZ2_bzlibVersion
Ltmp88:
	.loc	1 1611 4                        ; bzip2.c:1611:4
	str	x0, [sp]
	mov	x0, x22
	mov	x1, x21
	bl	_fprintf
Ltmp89:
	.loc	1 0 4 is_stmt 0                 ; bzip2.c:0:4
Lloh96:
	adrp	x11, _blockSize100k@GOTPAGE
Lloh97:
	ldr	x11, [x11, _blockSize100k@GOTPAGEOFF]
	b	LBB0_34
Ltmp90:
LBB0_38:                                ;   in Loop: Header=BB0_35 Depth=2
	;DEBUG_VALUE: main:j <- [DW_OP_constu 1, DW_OP_minus, DW_OP_stack_value] $x24
	.loc	1 1886 41 is_stmt 1             ; bzip2.c:1886:41
Lloh98:
	adrp	x8, _forceOverwrite@GOTPAGE
Lloh99:
	ldr	x8, [x8, _forceOverwrite@GOTPAGEOFF]
Lloh100:
	strb	w23, [x8]
	b	LBB0_34
Ltmp91:
LBB0_39:                                ;   in Loop: Header=BB0_35 Depth=2
	;DEBUG_VALUE: main:j <- [DW_OP_constu 1, DW_OP_minus, DW_OP_stack_value] $x24
	.loc	1 1887 33                       ; bzip2.c:1887:33
Lloh101:
	adrp	x8, _opMode@GOTPAGE
Lloh102:
	ldr	x8, [x8, _opMode@GOTPAGEOFF]
	mov	w9, #3
Lloh103:
	str	w9, [x8]
	b	LBB0_34
Ltmp92:
LBB0_40:                                ;   in Loop: Header=BB0_35 Depth=2
	;DEBUG_VALUE: main:j <- [DW_OP_constu 1, DW_OP_minus, DW_OP_stack_value] $x24
	.loc	1 1883 34                       ; bzip2.c:1883:34
Lloh104:
	adrp	x8, _srcMode@GOTPAGE
Lloh105:
	ldr	x8, [x8, _srcMode@GOTPAGEOFF]
	b	LBB0_44
Ltmp93:
LBB0_41:                                ;   in Loop: Header=BB0_35 Depth=2
	;DEBUG_VALUE: main:j <- [DW_OP_constu 1, DW_OP_minus, DW_OP_stack_value] $x24
	.loc	1 1885 33                       ; bzip2.c:1885:33
Lloh106:
	adrp	x8, _opMode@GOTPAGE
Lloh107:
	ldr	x8, [x8, _opMode@GOTPAGEOFF]
Lloh108:
	str	w23, [x8]
	b	LBB0_34
Ltmp94:
LBB0_42:                                ;   in Loop: Header=BB0_35 Depth=2
	;DEBUG_VALUE: main:j <- [DW_OP_constu 1, DW_OP_minus, DW_OP_stack_value] $x24
	.loc	1 1894 40                       ; bzip2.c:1894:40
	mov	w8, #4
	str	w8, [x11]
	b	LBB0_34
Ltmp95:
LBB0_43:                                ;   in Loop: Header=BB0_35 Depth=2
	;DEBUG_VALUE: main:j <- [DW_OP_constu 1, DW_OP_minus, DW_OP_stack_value] $x24
	.loc	1 1884 33                       ; bzip2.c:1884:33
Lloh109:
	adrp	x8, _opMode@GOTPAGE
Lloh110:
	ldr	x8, [x8, _opMode@GOTPAGEOFF]
Ltmp96:
LBB0_44:                                ;   in Loop: Header=BB0_35 Depth=2
	;DEBUG_VALUE: main:j <- [DW_OP_constu 1, DW_OP_minus, DW_OP_stack_value] $x24
	.loc	1 0 0 is_stmt 0                 ; bzip2.c:0:0
	str	w25, [x8]
	b	LBB0_34
Ltmp97:
LBB0_45:                                ;   in Loop: Header=BB0_35 Depth=2
	;DEBUG_VALUE: main:j <- [DW_OP_constu 1, DW_OP_minus, DW_OP_stack_value] $x24
	.loc	1 1893 40 is_stmt 1             ; bzip2.c:1893:40
	mov	w8, #3
	str	w8, [x11]
	b	LBB0_34
Ltmp98:
LBB0_46:                                ;   in Loop: Header=BB0_35 Depth=2
	;DEBUG_VALUE: main:j <- [DW_OP_constu 1, DW_OP_minus, DW_OP_stack_value] $x24
	.loc	1 1897 40                       ; bzip2.c:1897:40
	mov	w8, #7
	str	w8, [x11]
	b	LBB0_34
Ltmp99:
LBB0_47:                                ;   in Loop: Header=BB0_35 Depth=2
	;DEBUG_VALUE: main:j <- [DW_OP_constu 1, DW_OP_minus, DW_OP_stack_value] $x24
	.loc	1 1891 40                       ; bzip2.c:1891:40
	str	w23, [x11]
	b	LBB0_34
Ltmp100:
LBB0_48:                                ;   in Loop: Header=BB0_35 Depth=2
	;DEBUG_VALUE: main:j <- [DW_OP_constu 1, DW_OP_minus, DW_OP_stack_value] $x24
	.loc	1 1892 40                       ; bzip2.c:1892:40
	str	w25, [x11]
	b	LBB0_34
Ltmp101:
LBB0_49:                                ;   in Loop: Header=BB0_35 Depth=2
	;DEBUG_VALUE: main:j <- [DW_OP_constu 1, DW_OP_minus, DW_OP_stack_value] $x24
	.loc	1 1888 41                       ; bzip2.c:1888:41
Lloh111:
	adrp	x8, _keepInputFiles@GOTPAGE
Lloh112:
	ldr	x8, [x8, _keepInputFiles@GOTPAGEOFF]
Lloh113:
	strb	w23, [x8]
	b	LBB0_34
Ltmp102:
LBB0_50:                                ;   in Loop: Header=BB0_35 Depth=2
	;DEBUG_VALUE: main:j <- [DW_OP_constu 1, DW_OP_minus, DW_OP_stack_value] $x24
	.loc	1 1889 36                       ; bzip2.c:1889:36
Lloh114:
	adrp	x8, _smallMode@GOTPAGE
Lloh115:
	ldr	x8, [x8, _smallMode@GOTPAGEOFF]
Lloh116:
	strb	w23, [x8]
	b	LBB0_34
Ltmp103:
LBB0_51:                                ;   in Loop: Header=BB0_35 Depth=2
	;DEBUG_VALUE: main:j <- [DW_OP_constu 1, DW_OP_minus, DW_OP_stack_value] $x24
	.loc	1 1895 40                       ; bzip2.c:1895:40
	mov	w8, #5
	str	w8, [x11]
	b	LBB0_34
Ltmp104:
LBB0_52:                                ;   in Loop: Header=BB0_35 Depth=2
	;DEBUG_VALUE: main:j <- [DW_OP_constu 1, DW_OP_minus, DW_OP_stack_value] $x24
	.loc	1 1898 40                       ; bzip2.c:1898:40
	mov	w8, #8
	str	w8, [x11]
	b	LBB0_34
Ltmp105:
LBB0_53:                                ;   in Loop: Header=BB0_35 Depth=2
	;DEBUG_VALUE: main:j <- [DW_OP_constu 1, DW_OP_minus, DW_OP_stack_value] $x24
	.loc	1 1896 40                       ; bzip2.c:1896:40
	mov	w8, #6
	str	w8, [x11]
	b	LBB0_34
Ltmp106:
LBB0_54:                                ;   in Loop: Header=BB0_35 Depth=2
	;DEBUG_VALUE: main:j <- [DW_OP_constu 1, DW_OP_minus, DW_OP_stack_value] $x24
	.loc	1 1890 32                       ; bzip2.c:1890:32
Lloh117:
	adrp	x8, _noisy@GOTPAGE
Lloh118:
	ldr	x8, [x8, _noisy@GOTPAGEOFF]
Lloh119:
	strb	wzr, [x8]
	b	LBB0_34
Ltmp107:
LBB0_55:                                ;   in Loop: Header=BB0_35 Depth=2
	;DEBUG_VALUE: main:j <- [DW_OP_constu 1, DW_OP_minus, DW_OP_stack_value] $x24
	.loc	1 1899 40                       ; bzip2.c:1899:40
	mov	w8, #9
	str	w8, [x11]
	b	LBB0_34
Ltmp108:
LBB0_56:                                ; %._crit_edge163
	;DEBUG_VALUE: main:argList <- undef
	;DEBUG_VALUE: main:aa <- $x26
	.loc	1 0 40 is_stmt 0                ; bzip2.c:0:40
Lloh120:
	adrp	x24, _srcMode@GOTPAGE
Lloh121:
	ldr	x24, [x24, _srcMode@GOTPAGEOFF]
Ltmp109:
	.loc	1 1917 4 is_stmt 1              ; bzip2.c:1917:4
	cbz	x26, LBB0_94
Ltmp110:
; %bb.57:                               ; %.lr.ph169.preheader
	;DEBUG_VALUE: main:aa <- $x26
	.loc	1 0 4 is_stmt 0                 ; bzip2.c:0:4
Lloh122:
	adrp	x20, l_.str.9@PAGE
Lloh123:
	add	x20, x20, l_.str.9@PAGEOFF
Lloh124:
	adrp	x21, l_.str.17@PAGE
Lloh125:
	add	x21, x21, l_.str.17@PAGEOFF
	mov	w23, #2
Lloh126:
	adrp	x22, l_.str.18@PAGE
Lloh127:
	add	x22, x22, l_.str.18@PAGEOFF
Lloh128:
	adrp	x25, l_.str.19@PAGE
Lloh129:
	add	x25, x25, l_.str.19@PAGEOFF
	mov	x19, x26
	b	LBB0_60
Ltmp111:
LBB0_58:                                ;   in Loop: Header=BB0_60 Depth=1
	.loc	1 1919 56 is_stmt 1             ; bzip2.c:1919:56
	str	w23, [x24]
Ltmp112:
LBB0_59:                                ;   in Loop: Header=BB0_60 Depth=1
	;DEBUG_VALUE: main:aa <- undef
	.loc	1 0 0 is_stmt 0                 ; bzip2.c:0:0
	ldr	x19, [x19, #8]
Ltmp113:
	;DEBUG_VALUE: main:aa <- $x19
	.loc	1 1917 4 is_stmt 1              ; bzip2.c:1917:4
	cbz	x19, LBB0_94
Ltmp114:
LBB0_60:                                ; %.lr.ph169
                                        ; =>This Inner Loop Header: Depth=1
	.loc	1 1918 23                       ; bzip2.c:1918:23
	ldr	x28, [x19]
	.loc	1 1918 12 is_stmt 0             ; bzip2.c:1918:12
	mov	x0, x28
	mov	x1, x20
	bl	_strcmp
Ltmp115:
	.loc	1 1918 11                       ; bzip2.c:1918:11
	cbz	w0, LBB0_94
; %bb.61:                               ;   in Loop: Header=BB0_60 Depth=1
Ltmp116:
	.loc	1 1919 12 is_stmt 1             ; bzip2.c:1919:12
	mov	x0, x28
	mov	x1, x21
	bl	_strcmp
Ltmp117:
	.loc	1 1919 11 is_stmt 0             ; bzip2.c:1919:11
	cbz	w0, LBB0_58
; %bb.62:                               ;   in Loop: Header=BB0_60 Depth=1
Ltmp118:
	.loc	1 1920 12 is_stmt 1             ; bzip2.c:1920:12
	mov	x0, x28
	mov	x1, x22
	bl	_strcmp
Ltmp119:
	.loc	1 1920 11 is_stmt 0             ; bzip2.c:1920:11
	cbz	w0, LBB0_79
; %bb.63:                               ;   in Loop: Header=BB0_60 Depth=1
Ltmp120:
	.loc	1 1921 12 is_stmt 1             ; bzip2.c:1921:12
	mov	x0, x28
	mov	x1, x25
	bl	_strcmp
Ltmp121:
	.loc	1 1921 11 is_stmt 0             ; bzip2.c:1921:11
	cbz	w0, LBB0_80
; %bb.64:                               ;   in Loop: Header=BB0_60 Depth=1
Ltmp122:
	.loc	1 1922 12 is_stmt 1             ; bzip2.c:1922:12
	mov	x0, x28
Lloh130:
	adrp	x1, l_.str.20@PAGE
Lloh131:
	add	x1, x1, l_.str.20@PAGEOFF
	bl	_strcmp
Ltmp123:
	.loc	1 1922 11 is_stmt 0             ; bzip2.c:1922:11
	cbz	w0, LBB0_82
; %bb.65:                               ;   in Loop: Header=BB0_60 Depth=1
Ltmp124:
	.loc	1 1923 12 is_stmt 1             ; bzip2.c:1923:12
	mov	x0, x28
Lloh132:
	adrp	x1, l_.str.21@PAGE
Lloh133:
	add	x1, x1, l_.str.21@PAGEOFF
	bl	_strcmp
Ltmp125:
	.loc	1 1923 11 is_stmt 0             ; bzip2.c:1923:11
	cbz	w0, LBB0_83
; %bb.66:                               ;   in Loop: Header=BB0_60 Depth=1
Ltmp126:
	.loc	1 1924 12 is_stmt 1             ; bzip2.c:1924:12
	mov	x0, x28
Lloh134:
	adrp	x1, l_.str.22@PAGE
Lloh135:
	add	x1, x1, l_.str.22@PAGEOFF
	bl	_strcmp
Ltmp127:
	.loc	1 1924 11 is_stmt 0             ; bzip2.c:1924:11
	cbz	w0, LBB0_84
; %bb.67:                               ;   in Loop: Header=BB0_60 Depth=1
Ltmp128:
	.loc	1 1925 12 is_stmt 1             ; bzip2.c:1925:12
	mov	x0, x28
Lloh136:
	adrp	x1, l_.str.23@PAGE
Lloh137:
	add	x1, x1, l_.str.23@PAGEOFF
	bl	_strcmp
Ltmp129:
	.loc	1 1925 11 is_stmt 0             ; bzip2.c:1925:11
	cbz	w0, LBB0_85
; %bb.68:                               ;   in Loop: Header=BB0_60 Depth=1
Ltmp130:
	.loc	1 1926 12 is_stmt 1             ; bzip2.c:1926:12
	mov	x0, x28
Lloh138:
	adrp	x1, l_.str.24@PAGE
Lloh139:
	add	x1, x1, l_.str.24@PAGEOFF
	bl	_strcmp
Ltmp131:
	.loc	1 1926 11 is_stmt 0             ; bzip2.c:1926:11
	cbz	w0, LBB0_88
; %bb.69:                               ;   in Loop: Header=BB0_60 Depth=1
Ltmp132:
	.loc	1 1927 12 is_stmt 1             ; bzip2.c:1927:12
	mov	x0, x28
Lloh140:
	adrp	x1, l_.str.25@PAGE
Lloh141:
	add	x1, x1, l_.str.25@PAGEOFF
	bl	_strcmp
Ltmp133:
	.loc	1 1927 11 is_stmt 0             ; bzip2.c:1927:11
	cbz	w0, LBB0_87
; %bb.70:                               ;   in Loop: Header=BB0_60 Depth=1
Ltmp134:
	.loc	1 1928 12 is_stmt 1             ; bzip2.c:1928:12
	mov	x0, x28
Lloh142:
	adrp	x1, l_.str.26@PAGE
Lloh143:
	add	x1, x1, l_.str.26@PAGEOFF
	bl	_strcmp
Ltmp135:
	.loc	1 1928 11 is_stmt 0             ; bzip2.c:1928:11
	cbz	w0, LBB0_87
; %bb.71:                               ;   in Loop: Header=BB0_60 Depth=1
Ltmp136:
	.loc	1 1929 12 is_stmt 1             ; bzip2.c:1929:12
	mov	x0, x28
Lloh144:
	adrp	x1, l_.str.27@PAGE
Lloh145:
	add	x1, x1, l_.str.27@PAGEOFF
	bl	_strcmp
Ltmp137:
	.loc	1 1929 11 is_stmt 0             ; bzip2.c:1929:11
	cbz	w0, LBB0_90
; %bb.72:                               ;   in Loop: Header=BB0_60 Depth=1
Ltmp138:
	.loc	1 1930 12 is_stmt 1             ; bzip2.c:1930:12
	mov	x0, x28
Lloh146:
	adrp	x1, l_.str.28@PAGE
Lloh147:
	add	x1, x1, l_.str.28@PAGEOFF
	bl	_strcmp
Ltmp139:
	.loc	1 1930 11 is_stmt 0             ; bzip2.c:1930:11
	cbz	w0, LBB0_89
; %bb.73:                               ;   in Loop: Header=BB0_60 Depth=1
Ltmp140:
	.loc	1 1931 12 is_stmt 1             ; bzip2.c:1931:12
	mov	x0, x28
Lloh148:
	adrp	x1, l_.str.29@PAGE
Lloh149:
	add	x1, x1, l_.str.29@PAGEOFF
	bl	_strcmp
Ltmp141:
	.loc	1 1931 11 is_stmt 0             ; bzip2.c:1931:11
	cbz	w0, LBB0_89
; %bb.74:                               ;   in Loop: Header=BB0_60 Depth=1
Ltmp142:
	.loc	1 1932 12 is_stmt 1             ; bzip2.c:1932:12
	mov	x0, x28
Lloh150:
	adrp	x1, l_.str.30@PAGE
Lloh151:
	add	x1, x1, l_.str.30@PAGEOFF
	bl	_strcmp
Ltmp143:
	.loc	1 1932 11 is_stmt 0             ; bzip2.c:1932:11
	cbz	w0, LBB0_91
; %bb.75:                               ;   in Loop: Header=BB0_60 Depth=1
Ltmp144:
	.loc	1 1933 12 is_stmt 1             ; bzip2.c:1933:12
	mov	x0, x28
Lloh152:
	adrp	x1, l_.str.31@PAGE
Lloh153:
	add	x1, x1, l_.str.31@PAGEOFF
	bl	_strcmp
Ltmp145:
	.loc	1 1933 11 is_stmt 0             ; bzip2.c:1933:11
	cbz	w0, LBB0_92
; %bb.76:                               ;   in Loop: Header=BB0_60 Depth=1
Ltmp146:
	.loc	1 1934 12 is_stmt 1             ; bzip2.c:1934:12
	mov	x0, x28
Lloh154:
	adrp	x1, l_.str.32@PAGE
Lloh155:
	add	x1, x1, l_.str.32@PAGEOFF
	bl	_strcmp
Ltmp147:
	.loc	1 1934 11 is_stmt 0             ; bzip2.c:1934:11
	cbz	w0, LBB0_93
; %bb.77:                               ;   in Loop: Header=BB0_60 Depth=1
Ltmp148:
	.loc	1 1935 12 is_stmt 1             ; bzip2.c:1935:12
	mov	x0, x28
Lloh156:
	adrp	x1, l_.str.33@PAGE
Lloh157:
	add	x1, x1, l_.str.33@PAGEOFF
	bl	_strcmp
Ltmp149:
	.loc	1 1935 11 is_stmt 0             ; bzip2.c:1935:11
	cbz	w0, LBB0_142
; %bb.78:                               ;   in Loop: Header=BB0_60 Depth=1
Ltmp150:
	.loc	1 1937 14 is_stmt 1             ; bzip2.c:1937:14
	mov	x0, x28
	mov	x1, x20
	mov	w2, #2
	bl	_strncmp
Ltmp151:
	.loc	1 0 14 is_stmt 0                ; bzip2.c:0:14
	cbnz	w0, LBB0_59
	b	LBB0_153
Ltmp152:
LBB0_79:                                ;   in Loop: Header=BB0_60 Depth=1
	.loc	1 1920 59 is_stmt 1             ; bzip2.c:1920:59
Lloh158:
	adrp	x8, _opMode@GOTPAGE
Lloh159:
	ldr	x8, [x8, _opMode@GOTPAGEOFF]
Lloh160:
	str	w23, [x8]
	b	LBB0_59
LBB0_80:                                ;   in Loop: Header=BB0_60 Depth=1
Ltmp153:
	.loc	1 1921 57                       ; bzip2.c:1921:57
Lloh161:
	adrp	x8, _opMode@GOTPAGE
Lloh162:
	ldr	x8, [x8, _opMode@GOTPAGEOFF]
LBB0_81:                                ;   in Loop: Header=BB0_60 Depth=1
	.loc	1 0 0 is_stmt 0                 ; bzip2.c:0:0
	mov	w9, #1
	str	w9, [x8]
	b	LBB0_59
LBB0_82:                                ;   in Loop: Header=BB0_60 Depth=1
Ltmp154:
	.loc	1 1922 62 is_stmt 1             ; bzip2.c:1922:62
Lloh163:
	adrp	x8, _forceOverwrite@GOTPAGE
Lloh164:
	ldr	x8, [x8, _forceOverwrite@GOTPAGEOFF]
	b	LBB0_86
LBB0_83:                                ;   in Loop: Header=BB0_60 Depth=1
Ltmp155:
	.loc	1 1923 53                       ; bzip2.c:1923:53
Lloh165:
	adrp	x8, _opMode@GOTPAGE
Lloh166:
	ldr	x8, [x8, _opMode@GOTPAGEOFF]
	mov	w9, #3
Lloh167:
	str	w9, [x8]
	b	LBB0_59
LBB0_84:                                ;   in Loop: Header=BB0_60 Depth=1
Ltmp156:
	.loc	1 1924 61                       ; bzip2.c:1924:61
Lloh168:
	adrp	x8, _keepInputFiles@GOTPAGE
Lloh169:
	ldr	x8, [x8, _keepInputFiles@GOTPAGEOFF]
	b	LBB0_86
LBB0_85:                                ;   in Loop: Header=BB0_60 Depth=1
Ltmp157:
	.loc	1 1925 57                       ; bzip2.c:1925:57
Lloh170:
	adrp	x8, _smallMode@GOTPAGE
Lloh171:
	ldr	x8, [x8, _smallMode@GOTPAGEOFF]
Ltmp158:
LBB0_86:                                ;   in Loop: Header=BB0_60 Depth=1
	.loc	1 0 0 is_stmt 0                 ; bzip2.c:0:0
	mov	w9, #1
	strb	w9, [x8]
	b	LBB0_59
LBB0_87:                                ;   in Loop: Header=BB0_60 Depth=1
Ltmp159:
Lloh172:
	adrp	x8, ___stderrp@GOTPAGE
Lloh173:
	ldr	x8, [x8, ___stderrp@GOTPAGEOFF]
Lloh174:
	ldr	x28, [x8]
	bl	_BZ2_bzlibVersion
Ltmp160:
	str	x0, [sp]
	mov	x0, x28
Lloh175:
	adrp	x1, l_.str.51@PAGE
Lloh176:
	add	x1, x1, l_.str.51@PAGEOFF
	bl	_fprintf
Ltmp161:
	b	LBB0_59
Ltmp162:
LBB0_88:                                ;   in Loop: Header=BB0_60 Depth=1
	.loc	1 1926 53 is_stmt 1             ; bzip2.c:1926:53
Lloh177:
	adrp	x8, _noisy@GOTPAGE
Lloh178:
	ldr	x8, [x8, _noisy@GOTPAGEOFF]
Lloh179:
	strb	wzr, [x8]
	b	LBB0_59
LBB0_89:                                ;   in Loop: Header=BB0_60 Depth=1
Ltmp163:
	;DEBUG_VALUE: redundant:flag <- $x28
	.loc	1 0 0 is_stmt 0                 ; bzip2.c:0:0
Lloh180:
	adrp	x8, ___stderrp@GOTPAGE
Lloh181:
	ldr	x8, [x8, ___stderrp@GOTPAGEOFF]
Lloh182:
	ldr	x0, [x8]
	ldr	x8, [x27]
	stp	x8, x28, [sp]
Lloh183:
	adrp	x1, l_.str.53@PAGE
Lloh184:
	add	x1, x1, l_.str.53@PAGEOFF
	bl	_fprintf
Ltmp164:
	b	LBB0_59
Ltmp165:
LBB0_90:                                ;   in Loop: Header=BB0_60 Depth=1
	.loc	1 1929 64 is_stmt 1             ; bzip2.c:1929:64
Lloh185:
	adrp	x8, _workFactor@GOTPAGE
Lloh186:
	ldr	x8, [x8, _workFactor@GOTPAGEOFF]
	b	LBB0_81
LBB0_91:                                ;   in Loop: Header=BB0_60 Depth=1
Ltmp166:
	.loc	1 1932 60                       ; bzip2.c:1932:60
Lloh187:
	adrp	x8, _blockSize100k@GOTPAGE
Lloh188:
	ldr	x8, [x8, _blockSize100k@GOTPAGEOFF]
	b	LBB0_81
LBB0_92:                                ;   in Loop: Header=BB0_60 Depth=1
Ltmp167:
	.loc	1 1933 60                       ; bzip2.c:1933:60
Lloh189:
	adrp	x8, _blockSize100k@GOTPAGE
Lloh190:
	ldr	x8, [x8, _blockSize100k@GOTPAGEOFF]
	mov	w9, #9
Lloh191:
	str	w9, [x8]
	b	LBB0_59
LBB0_93:                                ;   in Loop: Header=BB0_60 Depth=1
	.loc	1 0 60 is_stmt 0                ; bzip2.c:0:60
Lloh192:
	adrp	x9, _verbosity@GOTPAGE
Lloh193:
	ldr	x9, [x9, _verbosity@GOTPAGEOFF]
Ltmp168:
	.loc	1 1934 58 is_stmt 1             ; bzip2.c:1934:58
	ldr	w8, [x9]
	add	w8, w8, #1
	str	w8, [x9]
	b	LBB0_59
Ltmp169:
LBB0_94:                                ; %._crit_edge170
	.loc	1 0 58 is_stmt 0                ; bzip2.c:0:58
Lloh194:
	adrp	x9, _verbosity@GOTPAGE
Lloh195:
	ldr	x9, [x9, _verbosity@GOTPAGEOFF]
Ltmp170:
	.loc	1 1944 8 is_stmt 1              ; bzip2.c:1944:8
	ldr	w8, [x9]
Ltmp171:
	.loc	1 1944 8 is_stmt 0              ; bzip2.c:1944:8
	cmp	w8, #5
	b.lt	LBB0_96
; %bb.95:
	.loc	1 0 8                           ; bzip2.c:0:8
	mov	w8, #4
Ltmp172:
	.loc	1 1944 33                       ; bzip2.c:1944:33
	str	w8, [x9]
Ltmp173:
LBB0_96:
	.loc	1 1945 8 is_stmt 1              ; bzip2.c:1945:8
Lloh196:
	adrp	x8, _opMode@GOTPAGE
Lloh197:
	ldr	x8, [x8, _opMode@GOTPAGEOFF]
Lloh198:
	ldr	w8, [x8]
Lloh199:
	adrp	x9, _smallMode@GOTPAGE
Lloh200:
	ldr	x9, [x9, _smallMode@GOTPAGEOFF]
	ldrb	w9, [x9]
Lloh201:
	adrp	x12, _blockSize100k@GOTPAGE
Lloh202:
	ldr	x12, [x12, _blockSize100k@GOTPAGEOFF]
	ldr	w10, [x12]
	.loc	1 1945 20 is_stmt 0             ; bzip2.c:1945:20
	cmp	w8, #1
	ccmp	w9, #0, #4, eq
	ccmp	w10, #3, #8, ne
Lloh203:
	adrp	x23, _numFilesProcessed@GOTPAGE
Lloh204:
	ldr	x23, [x23, _numFilesProcessed@GOTPAGEOFF]
Lloh205:
	adrp	x11, _numFileNames@GOTPAGE
Lloh206:
	ldr	x11, [x11, _numFileNames@GOTPAGEOFF]
	b.ge	LBB0_99
Ltmp174:
; %bb.97:
	.loc	1 0 20                          ; bzip2.c:0:20
	ldr	w9, [x24]
	cmp	w9, #2
	cset	w10, eq
Ltmp175:
	.loc	1 1948 20 is_stmt 1             ; bzip2.c:1948:20
	cmp	w8, #3
	ccmp	w9, #2, #0, eq
	b.ne	LBB0_100
; %bb.98:
Ltmp176:
	.loc	1 1949 17                       ; bzip2.c:1949:17
Lloh207:
	adrp	x8, ___stderrp@GOTPAGE
Lloh208:
	ldr	x8, [x8, ___stderrp@GOTPAGEOFF]
Lloh209:
	ldr	x0, [x8]
	.loc	1 1950 17                       ; bzip2.c:1950:17
	ldr	x8, [x27]
	.loc	1 1949 7                        ; bzip2.c:1949:7
	str	x8, [sp]
Lloh210:
	adrp	x1, l_.str.34@PAGE
Lloh211:
	add	x1, x1, l_.str.34@PAGEOFF
	bl	_fprintf
Ltmp177:
	.loc	1 1951 7                        ; bzip2.c:1951:7
	mov	w0, #1
	bl	_exit
Ltmp178:
LBB0_99:                                ; %.thread
	.loc	1 0 7 is_stmt 0                 ; bzip2.c:0:7
	mov	w9, #2
Ltmp179:
	.loc	1 1946 21 is_stmt 1             ; bzip2.c:1946:21
	str	w9, [x12]
	ldr	w9, [x24]
	cmp	w9, #2
	cset	w10, eq
Ltmp180:
LBB0_100:
	.loc	1 0 21 is_stmt 0                ; bzip2.c:0:21
	ldr	w11, [x11]
Ltmp181:
	.loc	1 1954 21 is_stmt 1             ; bzip2.c:1954:21
	cmp	w10, #0
	ccmp	w11, #0, #0, ne
	b.eq	LBB0_107
Ltmp182:
; %bb.101:
	.loc	1 1957 8                        ; bzip2.c:1957:8
	cmp	w8, #1
	b.ne	LBB0_108
LBB0_102:
	.loc	1 1959 8                        ; bzip2.c:1959:8
	cmp	w9, #3
	b.eq	LBB0_109
LBB0_103:
	.loc	1 1967 8                        ; bzip2.c:1967:8
	cmp	w8, #2
	b.eq	LBB0_110
LBB0_104:
	cmp	w8, #1
	b.ne	LBB0_113
; %bb.105:
Ltmp183:
	.loc	1 1968 10                       ; bzip2.c:1968:10
	ldr	w8, [x24]
Ltmp184:
	.loc	1 1968 10 is_stmt 0             ; bzip2.c:1968:10
	cmp	w8, #1
	b.ne	LBB0_121
; %bb.106:
Ltmp185:
	.loc	1 1969 9 is_stmt 1              ; bzip2.c:1969:9
	mov	x0, #0
	bl	_compress
Ltmp186:
	.loc	1 0 9 is_stmt 0                 ; bzip2.c:0:9
	b	LBB0_116
Ltmp187:
LBB0_107:
	mov	w9, #1
Ltmp188:
	.loc	1 1955 15 is_stmt 1             ; bzip2.c:1955:15
	str	w9, [x24]
Ltmp189:
	.loc	1 1957 8                        ; bzip2.c:1957:8
	cmp	w8, #1
	b.eq	LBB0_102
LBB0_108:
Ltmp190:
	.loc	1 1957 35 is_stmt 0             ; bzip2.c:1957:35
	str	wzr, [x12]
Ltmp191:
	.loc	1 1959 8 is_stmt 1              ; bzip2.c:1959:8
	cmp	w9, #3
	b.ne	LBB0_103
LBB0_109:
Ltmp192:
	.loc	1 1960 7                        ; bzip2.c:1960:7
Lloh212:
	adrp	x20, _mySignalCatcher@PAGE
Lloh213:
	add	x20, x20, _mySignalCatcher@PAGEOFF
	mov	w0, #2
	mov	x1, x20
	bl	_signal
Ltmp193:
	.loc	1 1961 7                        ; bzip2.c:1961:7
	mov	w0, #15
	mov	x1, x20
	bl	_signal
Ltmp194:
	.loc	1 1963 7                        ; bzip2.c:1963:7
	mov	w0, #1
	mov	x1, x20
	bl	_signal
Ltmp195:
	.loc	1 1967 8                        ; bzip2.c:1967:8
Lloh214:
	adrp	x8, _opMode@GOTPAGE
Lloh215:
	ldr	x8, [x8, _opMode@GOTPAGEOFF]
Lloh216:
	ldr	w8, [x8]
Ltmp196:
	.loc	1 1967 8 is_stmt 0              ; bzip2.c:1967:8
	cmp	w8, #2
	b.ne	LBB0_104
LBB0_110:
Ltmp197:
	.loc	1 1983 21 is_stmt 1             ; bzip2.c:1983:21
Lloh217:
	adrp	x8, _unzFailsExist@GOTPAGE
Lloh218:
	ldr	x8, [x8, _unzFailsExist@GOTPAGEOFF]
Lloh219:
	strb	wzr, [x8]
Ltmp198:
	.loc	1 1984 11                       ; bzip2.c:1984:11
	ldr	w8, [x24]
Ltmp199:
	.loc	1 1984 11 is_stmt 0             ; bzip2.c:1984:11
	cmp	w8, #1
	b.ne	LBB0_128
; %bb.111:
Ltmp200:
	.loc	1 1985 10 is_stmt 1             ; bzip2.c:1985:10
	mov	x0, #0
	bl	_uncompress
Ltmp201:
LBB0_112:                               ; %.loopexit140
	.loc	1 1995 11                       ; bzip2.c:1995:11
Lloh220:
	adrp	x8, _unzFailsExist@GOTPAGE
Lloh221:
	ldr	x8, [x8, _unzFailsExist@GOTPAGEOFF]
	ldrb	w8, [x8]
Ltmp202:
	.loc	1 1995 11 is_stmt 0             ; bzip2.c:1995:11
	cbz	w8, LBB0_116
	b	LBB0_149
Ltmp203:
LBB0_113:
	.loc	1 2002 22 is_stmt 1             ; bzip2.c:2002:22
Lloh222:
	adrp	x8, _testFailsExist@GOTPAGE
Lloh223:
	ldr	x8, [x8, _testFailsExist@GOTPAGEOFF]
Lloh224:
	strb	wzr, [x8]
Ltmp204:
	.loc	1 2003 11                       ; bzip2.c:2003:11
	ldr	w8, [x24]
Ltmp205:
	.loc	1 2003 11 is_stmt 0             ; bzip2.c:2003:11
	cmp	w8, #1
	b.ne	LBB0_135
; %bb.114:
Ltmp206:
	.loc	1 2004 10 is_stmt 1             ; bzip2.c:2004:10
	mov	x0, #0
	bl	_testf
Ltmp207:
LBB0_115:                               ; %.loopexit
	.loc	1 2014 11                       ; bzip2.c:2014:11
Lloh225:
	adrp	x8, _testFailsExist@GOTPAGE
Lloh226:
	ldr	x8, [x8, _testFailsExist@GOTPAGEOFF]
	ldrb	w8, [x8]
Ltmp208:
	.loc	1 2014 11 is_stmt 0             ; bzip2.c:2014:11
	cbnz	w8, LBB0_147
Ltmp209:
LBB0_116:                               ; %.loopexit138
	;DEBUG_VALUE: main:argList <- $x26
	;DEBUG_VALUE: main:aa <- $x26
	.loc	1 2031 4 is_stmt 1              ; bzip2.c:2031:4
	cbnz	x26, LBB0_119
Ltmp210:
LBB0_117:                               ; %._crit_edge191
	;DEBUG_VALUE: main:aa <- $x26
	.loc	1 2038 11                       ; bzip2.c:2038:11
Lloh227:
	adrp	x8, _exitValue@GOTPAGE
Lloh228:
	ldr	x8, [x8, _exitValue@GOTPAGEOFF]
Lloh229:
	ldr	w0, [x8]
	.loc	1 2038 4 is_stmt 0              ; bzip2.c:2038:4
	ldp	x29, x30, [sp, #112]            ; 16-byte Folded Reload
	ldp	x20, x19, [sp, #96]             ; 16-byte Folded Reload
	ldp	x22, x21, [sp, #80]             ; 16-byte Folded Reload
	ldp	x24, x23, [sp, #64]             ; 16-byte Folded Reload
	ldp	x26, x25, [sp, #48]             ; 16-byte Folded Reload
Ltmp211:
	ldp	x28, x27, [sp, #32]             ; 16-byte Folded Reload
	add	sp, sp, #128
	ret
LBB0_118:                               ;   in Loop: Header=BB0_119 Depth=1
Ltmp212:
	;DEBUG_VALUE: aa2 <- $x19
	;DEBUG_VALUE: main:aa <- $x26
	.loc	1 2034 7 is_stmt 1              ; bzip2.c:2034:7
	mov	x0, x26
	bl	_free
Ltmp213:
	;DEBUG_VALUE: main:aa <- $x19
	.loc	1 0 7 is_stmt 0                 ; bzip2.c:0:7
	mov	x26, x19
Ltmp214:
	;DEBUG_VALUE: main:aa <- $x26
	.loc	1 2031 4 is_stmt 1              ; bzip2.c:2031:4
	cbz	x19, LBB0_117
Ltmp215:
LBB0_119:                               ; %.lr.ph190
                                        ; =>This Inner Loop Header: Depth=1
	;DEBUG_VALUE: main:aa <- $x26
	;DEBUG_VALUE: main:aa <- $x26
	.loc	1 2032 23                       ; bzip2.c:2032:23
	ldp	x0, x19, [x26]
Ltmp216:
	;DEBUG_VALUE: aa2 <- $x19
	.loc	1 2033 11                       ; bzip2.c:2033:11
	cbz	x0, LBB0_118
Ltmp217:
; %bb.120:                              ;   in Loop: Header=BB0_119 Depth=1
	;DEBUG_VALUE: aa2 <- $x19
	;DEBUG_VALUE: main:aa <- $x26
	.loc	1 2033 36 is_stmt 0             ; bzip2.c:2033:36
	bl	_free
Ltmp218:
	.loc	1 0 36                          ; bzip2.c:0:36
	b	LBB0_118
Ltmp219:
LBB0_121:                               ; %.preheader137
	;DEBUG_VALUE: main:decode <- 1
	;DEBUG_VALUE: main:aa <- $x26
	.loc	1 1972 9 is_stmt 1              ; bzip2.c:1972:9
	cbz	x26, LBB0_117
Ltmp220:
; %bb.122:                              ; %.lr.ph181.preheader
	;DEBUG_VALUE: main:decode <- 1
	;DEBUG_VALUE: main:aa <- $x26
	.loc	1 0 9 is_stmt 0                 ; bzip2.c:0:9
	mov	w22, #1
Lloh230:
	adrp	x20, l_.str.9@PAGE
Lloh231:
	add	x20, x20, l_.str.9@PAGEOFF
	mov	x19, x26
	b	LBB0_125
Ltmp221:
LBB0_123:                               ;   in Loop: Header=BB0_125 Depth=1
	;DEBUG_VALUE: main:decode <- $w22
	mov	w22, #0
Ltmp222:
LBB0_124:                               ;   in Loop: Header=BB0_125 Depth=1
	;DEBUG_VALUE: main:decode <- $w22
	;DEBUG_VALUE: main:aa <- undef
	ldr	x19, [x19, #8]
Ltmp223:
	;DEBUG_VALUE: main:aa <- $x19
	.loc	1 1972 9                        ; bzip2.c:1972:9
	cbz	x19, LBB0_116
Ltmp224:
LBB0_125:                               ; %.lr.ph181
                                        ; =>This Inner Loop Header: Depth=1
	;DEBUG_VALUE: main:decode <- $w22
	.loc	1 1973 28 is_stmt 1             ; bzip2.c:1973:28
	ldr	x21, [x19]
	.loc	1 1973 17 is_stmt 0             ; bzip2.c:1973:17
	mov	x0, x21
	mov	x1, x20
	bl	_strcmp
Ltmp225:
	.loc	1 1973 16                       ; bzip2.c:1973:16
	cbz	w0, LBB0_123
Ltmp226:
; %bb.126:                              ;   in Loop: Header=BB0_125 Depth=1
	;DEBUG_VALUE: main:decode <- $w22
	.loc	1 1974 16 is_stmt 1             ; bzip2.c:1974:16
	ldrb	w8, [x21]
	.loc	1 1974 35 is_stmt 0             ; bzip2.c:1974:35
	cmp	w8, #45
	ccmp	w22, #0, #4, eq
	b.ne	LBB0_124
Ltmp227:
; %bb.127:                              ;   in Loop: Header=BB0_125 Depth=1
	;DEBUG_VALUE: main:decode <- $w22
	.loc	1 1975 29 is_stmt 1             ; bzip2.c:1975:29
	ldr	w8, [x23]
	add	w8, w8, #1
	str	w8, [x23]
	.loc	1 1976 12                       ; bzip2.c:1976:12
	mov	x0, x21
	bl	_compress
Ltmp228:
	.loc	1 0 12 is_stmt 0                ; bzip2.c:0:12
	b	LBB0_124
Ltmp229:
LBB0_128:                               ; %.preheader139
	;DEBUG_VALUE: main:decode <- 1
	;DEBUG_VALUE: main:aa <- $x26
	.loc	1 1988 10 is_stmt 1             ; bzip2.c:1988:10
	cbz	x26, LBB0_117
Ltmp230:
; %bb.129:                              ; %.lr.ph176.preheader
	;DEBUG_VALUE: main:decode <- 1
	;DEBUG_VALUE: main:aa <- $x26
	.loc	1 0 10 is_stmt 0                ; bzip2.c:0:10
	mov	w22, #1
Lloh232:
	adrp	x20, l_.str.9@PAGE
Lloh233:
	add	x20, x20, l_.str.9@PAGEOFF
	mov	x19, x26
	b	LBB0_132
Ltmp231:
LBB0_130:                               ;   in Loop: Header=BB0_132 Depth=1
	;DEBUG_VALUE: main:decode <- $w22
	mov	w22, #0
Ltmp232:
LBB0_131:                               ;   in Loop: Header=BB0_132 Depth=1
	;DEBUG_VALUE: main:decode <- $w22
	;DEBUG_VALUE: main:aa <- undef
	ldr	x19, [x19, #8]
Ltmp233:
	;DEBUG_VALUE: main:aa <- $x19
	.loc	1 1988 10                       ; bzip2.c:1988:10
	cbz	x19, LBB0_112
Ltmp234:
LBB0_132:                               ; %.lr.ph176
                                        ; =>This Inner Loop Header: Depth=1
	;DEBUG_VALUE: main:decode <- $w22
	.loc	1 1989 29 is_stmt 1             ; bzip2.c:1989:29
	ldr	x21, [x19]
	.loc	1 1989 18 is_stmt 0             ; bzip2.c:1989:18
	mov	x0, x21
	mov	x1, x20
	bl	_strcmp
Ltmp235:
	.loc	1 1989 17                       ; bzip2.c:1989:17
	cbz	w0, LBB0_130
Ltmp236:
; %bb.133:                              ;   in Loop: Header=BB0_132 Depth=1
	;DEBUG_VALUE: main:decode <- $w22
	.loc	1 1990 17 is_stmt 1             ; bzip2.c:1990:17
	ldrb	w8, [x21]
	.loc	1 1990 36 is_stmt 0             ; bzip2.c:1990:36
	cmp	w8, #45
	ccmp	w22, #0, #4, eq
	b.ne	LBB0_131
Ltmp237:
; %bb.134:                              ;   in Loop: Header=BB0_132 Depth=1
	;DEBUG_VALUE: main:decode <- $w22
	.loc	1 1991 30 is_stmt 1             ; bzip2.c:1991:30
	ldr	w8, [x23]
	add	w8, w8, #1
	str	w8, [x23]
	.loc	1 1992 13                       ; bzip2.c:1992:13
	mov	x0, x21
	bl	_uncompress
Ltmp238:
	.loc	1 0 13 is_stmt 0                ; bzip2.c:0:13
	b	LBB0_131
Ltmp239:
LBB0_135:                               ; %.preheader
	;DEBUG_VALUE: main:decode <- 1
	;DEBUG_VALUE: main:aa <- $x26
	.loc	1 2007 10 is_stmt 1             ; bzip2.c:2007:10
	cbz	x26, LBB0_117
Ltmp240:
; %bb.136:                              ; %.lr.ph186.preheader
	;DEBUG_VALUE: main:decode <- 1
	;DEBUG_VALUE: main:aa <- $x26
	.loc	1 0 10 is_stmt 0                ; bzip2.c:0:10
	mov	w22, #1
Lloh234:
	adrp	x20, l_.str.9@PAGE
Lloh235:
	add	x20, x20, l_.str.9@PAGEOFF
	mov	x19, x26
	b	LBB0_139
Ltmp241:
LBB0_137:                               ;   in Loop: Header=BB0_139 Depth=1
	;DEBUG_VALUE: main:decode <- $w22
	mov	w22, #0
Ltmp242:
LBB0_138:                               ;   in Loop: Header=BB0_139 Depth=1
	;DEBUG_VALUE: main:decode <- $w22
	;DEBUG_VALUE: main:aa <- undef
	ldr	x19, [x19, #8]
Ltmp243:
	;DEBUG_VALUE: main:aa <- $x19
	.loc	1 2007 10                       ; bzip2.c:2007:10
	cbz	x19, LBB0_115
Ltmp244:
LBB0_139:                               ; %.lr.ph186
                                        ; =>This Inner Loop Header: Depth=1
	;DEBUG_VALUE: main:decode <- $w22
	.loc	1 2008 22 is_stmt 1             ; bzip2.c:2008:22
	ldr	x21, [x19]
	.loc	1 2008 11 is_stmt 0             ; bzip2.c:2008:11
	mov	x0, x21
	mov	x1, x20
	bl	_strcmp
Ltmp245:
	.loc	1 2008 10                       ; bzip2.c:2008:10
	cbz	w0, LBB0_137
Ltmp246:
; %bb.140:                              ;   in Loop: Header=BB0_139 Depth=1
	;DEBUG_VALUE: main:decode <- $w22
	.loc	1 2009 17 is_stmt 1             ; bzip2.c:2009:17
	ldrb	w8, [x21]
	.loc	1 2009 36 is_stmt 0             ; bzip2.c:2009:36
	cmp	w8, #45
	ccmp	w22, #0, #4, eq
	b.ne	LBB0_138
Ltmp247:
; %bb.141:                              ;   in Loop: Header=BB0_139 Depth=1
	;DEBUG_VALUE: main:decode <- $w22
	.loc	1 2010 30 is_stmt 1             ; bzip2.c:2010:30
	ldr	w8, [x23]
	add	w8, w8, #1
	str	w8, [x23]
	.loc	1 2011 13                       ; bzip2.c:2011:13
	mov	x0, x21
	bl	_testf
Ltmp248:
	.loc	1 0 13 is_stmt 0                ; bzip2.c:0:13
	b	LBB0_138
Ltmp249:
LBB0_142:
	ldr	x0, [x27]
	bl	_usage
Ltmp250:
	mov	w0, #0
	bl	_exit
Ltmp251:
LBB0_143:
	;DEBUG_VALUE: main:j <- [DW_OP_constu 1, DW_OP_minus, DW_OP_stack_value] $x24
	.loc	1 1906 35 is_stmt 1             ; bzip2.c:1906:35
Lloh236:
	adrp	x8, ___stderrp@GOTPAGE
Lloh237:
	ldr	x8, [x8, ___stderrp@GOTPAGEOFF]
Lloh238:
	ldr	x0, [x8]
	.loc	1 1907 36                       ; bzip2.c:1907:36
	ldr	x8, [x27]
	.loc	1 1906 25                       ; bzip2.c:1906:25
	str	x22, [sp, #8]
Ltmp252:
LBB0_144:
	.loc	1 0 0 is_stmt 0                 ; bzip2.c:0:0
	str	x8, [sp]
Lloh239:
	adrp	x1, l_.str.16@PAGE
Lloh240:
	add	x1, x1, l_.str.16@PAGEOFF
	bl	_fprintf
Ltmp253:
	ldr	x0, [x27]
	bl	_usage
Ltmp254:
	mov	w0, #1
	bl	_exit
Ltmp255:
LBB0_145:
	;DEBUG_VALUE: copyFileName:from <- $x19
	;DEBUG_VALUE: main:j <- 0
	;DEBUG_VALUE: main:i <- 0
	;DEBUG_VALUE: main:argc <- $w21
	;DEBUG_VALUE: main:argv <- $x20
	.loc	1 931 10 is_stmt 1              ; bzip2.c:931:10
Lloh241:
	adrp	x8, ___stderrp@GOTPAGE
Lloh242:
	ldr	x8, [x8, ___stderrp@GOTPAGEOFF]
Lloh243:
	ldr	x0, [x8]
	mov	w8, #1024
	.loc	1 930 7                         ; bzip2.c:930:7
	stp	x19, x8, [sp]
Lloh244:
	adrp	x1, l_.str.41@PAGE
Lloh245:
	add	x1, x1, l_.str.41@PAGEOFF
	bl	_fprintf
Ltmp256:
	;DEBUG_VALUE: setExit:v <- 1
	.loc	1 653 12                        ; bzip2.c:653:12
	ldr	w0, [x22]
Ltmp257:
	.loc	1 653 8 is_stmt 0               ; bzip2.c:653:8
	cmp	w0, #0
	b.gt	LBB0_152
Ltmp258:
; %bb.146:
	;DEBUG_VALUE: setExit:v <- 1
	;DEBUG_VALUE: copyFileName:from <- $x19
	;DEBUG_VALUE: main:j <- 0
	;DEBUG_VALUE: main:i <- 0
	;DEBUG_VALUE: main:argc <- $w21
	;DEBUG_VALUE: main:argv <- $x20
	.loc	1 0 8                           ; bzip2.c:0:8
	mov	x8, x22
	mov	w0, #1
	b	LBB0_151
Ltmp259:
LBB0_147:
	.loc	1 2015 7 is_stmt 1              ; bzip2.c:2015:7
Lloh246:
	adrp	x8, _noisy@GOTPAGE
Lloh247:
	ldr	x8, [x8, _noisy@GOTPAGEOFF]
	ldrb	w8, [x8]
Ltmp260:
	.loc	1 2015 7 is_stmt 0              ; bzip2.c:2015:7
	cbz	w8, LBB0_149
; %bb.148:
Ltmp261:
	.loc	1 2016 23 is_stmt 1             ; bzip2.c:2016:23
Lloh248:
	adrp	x8, ___stderrp@GOTPAGE
Lloh249:
	ldr	x8, [x8, ___stderrp@GOTPAGEOFF]
Lloh250:
	ldr	x3, [x8]
	.loc	1 2016 13 is_stmt 0             ; bzip2.c:2016:13
Lloh251:
	adrp	x0, l_.str.35@PAGE
Lloh252:
	add	x0, x0, l_.str.35@PAGEOFF
	mov	w1, #112
	mov	w2, #1
	bl	_fwrite
Ltmp262:
LBB0_149:
	;DEBUG_VALUE: setExit:v <- 2
	.loc	1 0 0                           ; bzip2.c:0:0
Lloh253:
	adrp	x8, _exitValue@GOTPAGE
Lloh254:
	ldr	x8, [x8, _exitValue@GOTPAGEOFF]
Lloh255:
	ldr	w0, [x8]
	cmp	w0, #1
	b.gt	LBB0_152
Ltmp263:
; %bb.150:
	;DEBUG_VALUE: setExit:v <- 2
	mov	w0, #2
Lloh256:
	adrp	x8, _exitValue@GOTPAGE
Lloh257:
	ldr	x8, [x8, _exitValue@GOTPAGEOFF]
Ltmp264:
LBB0_151:                               ; %setExit.exit.i133
	str	w0, [x8]
LBB0_152:                               ; %setExit.exit.i133
	bl	_exit
Ltmp265:
LBB0_153:
	.loc	1 1938 23 is_stmt 1             ; bzip2.c:1938:23
Lloh258:
	adrp	x8, ___stderrp@GOTPAGE
Lloh259:
	ldr	x8, [x8, ___stderrp@GOTPAGEOFF]
Lloh260:
	ldr	x0, [x8]
	.loc	1 1938 57 is_stmt 0             ; bzip2.c:1938:57
	ldr	x8, [x27]
	.loc	1 1938 13                       ; bzip2.c:1938:13
	str	x28, [sp, #8]
	b	LBB0_144
Ltmp266:
	.loh AdrpLdrGot	Lloh46, Lloh47
	.loh AdrpAdd	Lloh44, Lloh45
	.loh AdrpLdrGot	Lloh42, Lloh43
	.loh AdrpAdd	Lloh40, Lloh41
	.loh AdrpLdrGot	Lloh38, Lloh39
	.loh AdrpLdrGotStr	Lloh35, Lloh36, Lloh37
	.loh AdrpLdrGotStr	Lloh32, Lloh33, Lloh34
	.loh AdrpLdrGotStr	Lloh29, Lloh30, Lloh31
	.loh AdrpLdrGot	Lloh27, Lloh28
	.loh AdrpLdrGotStr	Lloh23, Lloh24, Lloh26
	.loh AdrpLdrGotStr	Lloh21, Lloh22, Lloh25
	.loh AdrpLdrGotStr	Lloh18, Lloh19, Lloh20
	.loh AdrpLdrGotStr	Lloh15, Lloh16, Lloh17
	.loh AdrpLdrGotStr	Lloh12, Lloh13, Lloh14
	.loh AdrpLdrGotStr	Lloh9, Lloh10, Lloh11
	.loh AdrpLdrGotStr	Lloh6, Lloh7, Lloh8
	.loh AdrpLdrGotStr	Lloh3, Lloh4, Lloh5
	.loh AdrpLdrGotStr	Lloh0, Lloh1, Lloh2
	.loh AdrpLdrGot	Lloh50, Lloh51
	.loh AdrpLdrGot	Lloh48, Lloh49
	.loh AdrpAdd	Lloh54, Lloh55
	.loh AdrpAdd	Lloh52, Lloh53
	.loh AdrpLdrGot	Lloh56, Lloh57
	.loh AdrpAdd	Lloh58, Lloh59
	.loh AdrpAdd	Lloh65, Lloh66
	.loh AdrpLdrGotStr	Lloh62, Lloh63, Lloh64
	.loh AdrpLdrGot	Lloh60, Lloh61
	.loh AdrpAdd	Lloh67, Lloh68
	.loh AdrpLdrGotStr	Lloh69, Lloh70, Lloh71
	.loh AdrpAdd	Lloh72, Lloh73
	.loh AdrpAdd	Lloh74, Lloh75
	.loh AdrpAdd	Lloh76, Lloh77
	.loh AdrpAdd	Lloh78, Lloh79
	.loh AdrpLdrGotStr	Lloh80, Lloh81, Lloh82
	.loh AdrpAdd	Lloh87, Lloh88
	.loh AdrpAdd	Lloh85, Lloh86
	.loh AdrpAdd	Lloh83, Lloh84
	.loh AdrpLdrGot	Lloh89, Lloh90
	.loh AdrpLdrGot	Lloh91, Lloh92
	.loh AdrpLdrGot	Lloh96, Lloh97
	.loh AdrpLdrGotLdr	Lloh93, Lloh94, Lloh95
	.loh AdrpLdrGotStr	Lloh98, Lloh99, Lloh100
	.loh AdrpLdrGotStr	Lloh101, Lloh102, Lloh103
	.loh AdrpLdrGot	Lloh104, Lloh105
	.loh AdrpLdrGotStr	Lloh106, Lloh107, Lloh108
	.loh AdrpLdrGot	Lloh109, Lloh110
	.loh AdrpLdrGotStr	Lloh111, Lloh112, Lloh113
	.loh AdrpLdrGotStr	Lloh114, Lloh115, Lloh116
	.loh AdrpLdrGotStr	Lloh117, Lloh118, Lloh119
	.loh AdrpLdrGot	Lloh120, Lloh121
	.loh AdrpAdd	Lloh128, Lloh129
	.loh AdrpAdd	Lloh126, Lloh127
	.loh AdrpAdd	Lloh124, Lloh125
	.loh AdrpAdd	Lloh122, Lloh123
	.loh AdrpAdd	Lloh130, Lloh131
	.loh AdrpAdd	Lloh132, Lloh133
	.loh AdrpAdd	Lloh134, Lloh135
	.loh AdrpAdd	Lloh136, Lloh137
	.loh AdrpAdd	Lloh138, Lloh139
	.loh AdrpAdd	Lloh140, Lloh141
	.loh AdrpAdd	Lloh142, Lloh143
	.loh AdrpAdd	Lloh144, Lloh145
	.loh AdrpAdd	Lloh146, Lloh147
	.loh AdrpAdd	Lloh148, Lloh149
	.loh AdrpAdd	Lloh150, Lloh151
	.loh AdrpAdd	Lloh152, Lloh153
	.loh AdrpAdd	Lloh154, Lloh155
	.loh AdrpAdd	Lloh156, Lloh157
	.loh AdrpLdrGotStr	Lloh158, Lloh159, Lloh160
	.loh AdrpLdrGot	Lloh161, Lloh162
	.loh AdrpLdrGot	Lloh163, Lloh164
	.loh AdrpLdrGotStr	Lloh165, Lloh166, Lloh167
	.loh AdrpLdrGot	Lloh168, Lloh169
	.loh AdrpLdrGot	Lloh170, Lloh171
	.loh AdrpAdd	Lloh175, Lloh176
	.loh AdrpLdrGotLdr	Lloh172, Lloh173, Lloh174
	.loh AdrpLdrGotStr	Lloh177, Lloh178, Lloh179
	.loh AdrpAdd	Lloh183, Lloh184
	.loh AdrpLdrGotLdr	Lloh180, Lloh181, Lloh182
	.loh AdrpLdrGot	Lloh185, Lloh186
	.loh AdrpLdrGot	Lloh187, Lloh188
	.loh AdrpLdrGotStr	Lloh189, Lloh190, Lloh191
	.loh AdrpLdrGot	Lloh192, Lloh193
	.loh AdrpLdrGot	Lloh194, Lloh195
	.loh AdrpLdrGot	Lloh205, Lloh206
	.loh AdrpLdrGot	Lloh203, Lloh204
	.loh AdrpLdrGot	Lloh201, Lloh202
	.loh AdrpLdrGot	Lloh199, Lloh200
	.loh AdrpLdrGotLdr	Lloh196, Lloh197, Lloh198
	.loh AdrpAdd	Lloh210, Lloh211
	.loh AdrpLdrGotLdr	Lloh207, Lloh208, Lloh209
	.loh AdrpLdrGotLdr	Lloh214, Lloh215, Lloh216
	.loh AdrpAdd	Lloh212, Lloh213
	.loh AdrpLdrGotStr	Lloh217, Lloh218, Lloh219
	.loh AdrpLdrGot	Lloh220, Lloh221
	.loh AdrpLdrGotStr	Lloh222, Lloh223, Lloh224
	.loh AdrpLdrGot	Lloh225, Lloh226
	.loh AdrpLdrGotLdr	Lloh227, Lloh228, Lloh229
	.loh AdrpAdd	Lloh230, Lloh231
	.loh AdrpAdd	Lloh232, Lloh233
	.loh AdrpAdd	Lloh234, Lloh235
	.loh AdrpLdrGotLdr	Lloh236, Lloh237, Lloh238
	.loh AdrpAdd	Lloh239, Lloh240
	.loh AdrpAdd	Lloh244, Lloh245
	.loh AdrpLdrGotLdr	Lloh241, Lloh242, Lloh243
	.loh AdrpLdrGot	Lloh246, Lloh247
	.loh AdrpAdd	Lloh251, Lloh252
	.loh AdrpLdrGotLdr	Lloh248, Lloh249, Lloh250
	.loh AdrpLdrGotLdr	Lloh253, Lloh254, Lloh255
	.loh AdrpLdrGot	Lloh256, Lloh257
	.loh AdrpLdrGotLdr	Lloh258, Lloh259, Lloh260
Lfunc_end0:
	.cfi_endproc
	.section	__TEXT,__const
	.p2align	1, 0x0
lJTI0_0:
	.short	(LBB0_47-LBB0_33)>>2
	.short	(LBB0_48-LBB0_33)>>2
	.short	(LBB0_45-LBB0_33)>>2
	.short	(LBB0_42-LBB0_33)>>2
	.short	(LBB0_51-LBB0_33)>>2
	.short	(LBB0_53-LBB0_33)>>2
	.short	(LBB0_46-LBB0_33)>>2
	.short	(LBB0_52-LBB0_33)>>2
	.short	(LBB0_55-LBB0_33)>>2
	.short	(LBB0_143-LBB0_33)>>2
	.short	(LBB0_143-LBB0_33)>>2
	.short	(LBB0_143-LBB0_33)>>2
	.short	(LBB0_143-LBB0_33)>>2
	.short	(LBB0_143-LBB0_33)>>2
	.short	(LBB0_143-LBB0_33)>>2
	.short	(LBB0_143-LBB0_33)>>2
	.short	(LBB0_143-LBB0_33)>>2
	.short	(LBB0_143-LBB0_33)>>2
	.short	(LBB0_143-LBB0_33)>>2
	.short	(LBB0_143-LBB0_33)>>2
	.short	(LBB0_143-LBB0_33)>>2
	.short	(LBB0_143-LBB0_33)>>2
	.short	(LBB0_143-LBB0_33)>>2
	.short	(LBB0_143-LBB0_33)>>2
	.short	(LBB0_143-LBB0_33)>>2
	.short	(LBB0_143-LBB0_33)>>2
	.short	(LBB0_143-LBB0_33)>>2
	.short	(LBB0_37-LBB0_33)>>2
	.short	(LBB0_143-LBB0_33)>>2
	.short	(LBB0_143-LBB0_33)>>2
	.short	(LBB0_143-LBB0_33)>>2
	.short	(LBB0_143-LBB0_33)>>2
	.short	(LBB0_143-LBB0_33)>>2
	.short	(LBB0_143-LBB0_33)>>2
	.short	(LBB0_143-LBB0_33)>>2
	.short	(LBB0_143-LBB0_33)>>2
	.short	(LBB0_143-LBB0_33)>>2
	.short	(LBB0_37-LBB0_33)>>2
	.short	(LBB0_143-LBB0_33)>>2
	.short	(LBB0_143-LBB0_33)>>2
	.short	(LBB0_143-LBB0_33)>>2
	.short	(LBB0_143-LBB0_33)>>2
	.short	(LBB0_143-LBB0_33)>>2
	.short	(LBB0_143-LBB0_33)>>2
	.short	(LBB0_143-LBB0_33)>>2
	.short	(LBB0_143-LBB0_33)>>2
	.short	(LBB0_143-LBB0_33)>>2
	.short	(LBB0_143-LBB0_33)>>2
	.short	(LBB0_143-LBB0_33)>>2
	.short	(LBB0_143-LBB0_33)>>2
	.short	(LBB0_40-LBB0_33)>>2
	.short	(LBB0_43-LBB0_33)>>2
	.short	(LBB0_143-LBB0_33)>>2
	.short	(LBB0_38-LBB0_33)>>2
	.short	(LBB0_143-LBB0_33)>>2
	.short	(LBB0_142-LBB0_33)>>2
	.short	(LBB0_143-LBB0_33)>>2
	.short	(LBB0_143-LBB0_33)>>2
	.short	(LBB0_49-LBB0_33)>>2
	.short	(LBB0_143-LBB0_33)>>2
	.short	(LBB0_143-LBB0_33)>>2
	.short	(LBB0_143-LBB0_33)>>2
	.short	(LBB0_143-LBB0_33)>>2
	.short	(LBB0_143-LBB0_33)>>2
	.short	(LBB0_54-LBB0_33)>>2
	.short	(LBB0_143-LBB0_33)>>2
	.short	(LBB0_50-LBB0_33)>>2
	.short	(LBB0_39-LBB0_33)>>2
	.short	(LBB0_143-LBB0_33)>>2
	.short	(LBB0_33-LBB0_33)>>2
	.short	(LBB0_143-LBB0_33)>>2
	.short	(LBB0_143-LBB0_33)>>2
	.short	(LBB0_143-LBB0_33)>>2
	.short	(LBB0_41-LBB0_33)>>2
	.file	16 "/Library/Developer/CommandLineTools/SDKs/MacOSX.sdk/usr/include/sys" "signal.h"
	.file	17 "/Users/mac/rustmap-clone/c-code/bzip2" "./bzlib.h"
                                        ; -- End function
	.section	__TEXT,__text,regular,pure_instructions
	.p2align	2                               ; -- Begin function mySIGSEGVorSIGBUScatcher
_mySIGSEGVorSIGBUScatcher:              ; @mySIGSEGVorSIGBUScatcher
Lfunc_begin1:
	.loc	1 817 0 is_stmt 1               ; bzip2.c:817:0
	.cfi_startproc
; %bb.0:
	;DEBUG_VALUE: mySIGSEGVorSIGBUScatcher:n <- undef
	stp	x24, x23, [sp, #-64]!           ; 16-byte Folded Spill
	.cfi_def_cfa_offset 64
	stp	x22, x21, [sp, #16]             ; 16-byte Folded Spill
	stp	x20, x19, [sp, #32]             ; 16-byte Folded Spill
	stp	x29, x30, [sp, #48]             ; 16-byte Folded Spill
	add	x29, sp, #48
	.cfi_def_cfa w29, 16
	.cfi_offset w30, -8
	.cfi_offset w29, -16
	.cfi_offset w19, -24
	.cfi_offset w20, -32
	.cfi_offset w21, -40
	.cfi_offset w22, -48
	.cfi_offset w23, -56
	.cfi_offset w24, -64
Ltmp267:
	.loc	1 819 8 prologue_end            ; bzip2.c:819:8
Lloh261:
	adrp	x21, _opMode@GOTPAGE
Lloh262:
	ldr	x21, [x21, _opMode@GOTPAGEOFF]
	ldr	w22, [x21]
Lloh263:
	adrp	x23, l_.str.37@PAGE
Lloh264:
	add	x23, x23, l_.str.37@PAGEOFF
Lloh265:
	adrp	x24, l_.str.36@PAGE
Lloh266:
	add	x24, x24, l_.str.36@PAGEOFF
Ltmp268:
	.loc	1 857 4                         ; bzip2.c:857:4
Lloh267:
	adrp	x19, l_.str.38@PAGE
Lloh268:
	add	x19, x19, l_.str.38@PAGEOFF
	mov	w0, #2
	mov	x1, x19
	mov	w2, #1
	bl	_write
Ltmp269:
	.loc	1 858 15                        ; bzip2.c:858:15
Lloh269:
	adrp	x8, _progName@GOTPAGE
Lloh270:
	ldr	x8, [x8, _progName@GOTPAGEOFF]
Lloh271:
	ldr	x20, [x8]
	.loc	1 858 25 is_stmt 0              ; bzip2.c:858:25
	mov	x0, x20
	bl	_strlen
Ltmp270:
	mov	x2, x0
	.loc	1 858 4                         ; bzip2.c:858:4
	mov	w0, #2
	mov	x1, x20
	bl	_write
Ltmp271:
	.loc	1 0 4                           ; bzip2.c:0:4
	cmp	w22, #1
	csel	x1, x24, x23, eq
Ltmp272:
	;DEBUG_VALUE: mySIGSEGVorSIGBUScatcher:msg <- $x1
	mov	w8, #996
	mov	w9, #869
	.loc	1 859 20 is_stmt 1              ; bzip2.c:859:20
	csel	x2, x9, x8, eq
	.loc	1 859 4 is_stmt 0               ; bzip2.c:859:4
	mov	w0, #2
	bl	_write
Ltmp273:
	.loc	1 862 4 is_stmt 1               ; bzip2.c:862:4
Lloh272:
	adrp	x1, l_.str.39@PAGE
Lloh273:
	add	x1, x1, l_.str.39@PAGEOFF
Ltmp274:
	;DEBUG_VALUE: mySIGSEGVorSIGBUScatcher:msg <- $x1
	mov	w0, #2
	mov	w2, #14
	bl	_write
Ltmp275:
	.loc	1 863 23                        ; bzip2.c:863:23
Lloh274:
	adrp	x20, _inName@GOTPAGE
Lloh275:
	ldr	x20, [x20, _inName@GOTPAGEOFF]
	mov	x0, x20
	bl	_strlen
Ltmp276:
	mov	x2, x0
	.loc	1 863 4 is_stmt 0               ; bzip2.c:863:4
	mov	w0, #2
	mov	x1, x20
	bl	_write
Ltmp277:
	.loc	1 864 4 is_stmt 1               ; bzip2.c:864:4
	mov	w0, #2
	mov	x1, x19
	mov	w2, #1
	bl	_write
Ltmp278:
	.loc	1 866 4                         ; bzip2.c:866:4
Lloh276:
	adrp	x1, l_.str.40@PAGE
Lloh277:
	add	x1, x1, l_.str.40@PAGEOFF
Ltmp279:
	;DEBUG_VALUE: mySIGSEGVorSIGBUScatcher:msg <- $x1
	mov	w0, #2
	mov	w2, #15
	bl	_write
Ltmp280:
	.loc	1 867 24                        ; bzip2.c:867:24
Lloh278:
	adrp	x20, _outName@GOTPAGE
Lloh279:
	ldr	x20, [x20, _outName@GOTPAGEOFF]
	mov	x0, x20
	bl	_strlen
Ltmp281:
	mov	x2, x0
	.loc	1 867 4 is_stmt 0               ; bzip2.c:867:4
	mov	w0, #2
	mov	x1, x20
	bl	_write
Ltmp282:
	.loc	1 868 4 is_stmt 1               ; bzip2.c:868:4
	mov	w0, #2
	mov	x1, x19
	mov	w2, #1
	bl	_write
Ltmp283:
	.loc	1 873 8                         ; bzip2.c:873:8
	ldr	w9, [x21]
	.loc	1 0 0 is_stmt 0                 ; bzip2.c:0:0
Lloh280:
	adrp	x8, _exitValue@GOTPAGE
Lloh281:
	ldr	x8, [x8, _exitValue@GOTPAGEOFF]
	ldr	w0, [x8]
Ltmp284:
	.loc	1 873 8                         ; bzip2.c:873:8
	cmp	w9, #1
	b.ne	LBB1_3
Ltmp285:
; %bb.1:
	;DEBUG_VALUE: setExit:v <- 3
	.loc	1 653 8 is_stmt 1               ; bzip2.c:653:8
	cmp	w0, #3
	b.ge	LBB1_6
Ltmp286:
; %bb.2:
	;DEBUG_VALUE: setExit:v <- 3
	.loc	1 0 8 is_stmt 0                 ; bzip2.c:0:8
	mov	w0, #3
	b	LBB1_5
LBB1_3:
Ltmp287:
	;DEBUG_VALUE: setExit:v <- 2
	.loc	1 653 8                         ; bzip2.c:653:8
	cmp	w0, #1
	b.gt	LBB1_6
Ltmp288:
; %bb.4:
	;DEBUG_VALUE: setExit:v <- 2
	.loc	1 0 8                           ; bzip2.c:0:8
	mov	w0, #2
LBB1_5:                                 ; %setExit.exit.sink.split
	str	w0, [x8]
Ltmp289:
LBB1_6:                                 ; %setExit.exit
	.loc	1 874 4 is_stmt 1               ; bzip2.c:874:4
	bl	__exit
Ltmp290:
	.loh AdrpLdrGot	Lloh280, Lloh281
	.loh AdrpLdrGot	Lloh278, Lloh279
	.loh AdrpAdd	Lloh276, Lloh277
	.loh AdrpLdrGot	Lloh274, Lloh275
	.loh AdrpAdd	Lloh272, Lloh273
	.loh AdrpLdrGotLdr	Lloh269, Lloh270, Lloh271
	.loh AdrpAdd	Lloh267, Lloh268
	.loh AdrpAdd	Lloh265, Lloh266
	.loh AdrpAdd	Lloh263, Lloh264
	.loh AdrpLdrGot	Lloh261, Lloh262
Lfunc_end1:
	.cfi_endproc
	.file	18 "/Library/Developer/CommandLineTools/SDKs/MacOSX.sdk/usr/include" "unistd.h"
	.file	19 "/Library/Developer/CommandLineTools/SDKs/MacOSX.sdk/usr/include/sys/_types" "_ssize_t.h"
                                        ; -- End function
	.p2align	2                               ; -- Begin function addFlagsFromEnvVar
_addFlagsFromEnvVar:                    ; @addFlagsFromEnvVar
Lfunc_begin2:
	.loc	1 1756 0                        ; bzip2.c:1756:0
	.cfi_startproc
; %bb.0:
	;DEBUG_VALUE: addFlagsFromEnvVar:argList <- $x0
	;DEBUG_VALUE: addFlagsFromEnvVar:varName <- $x1
	stp	x28, x27, [sp, #-96]!           ; 16-byte Folded Spill
	.cfi_def_cfa_offset 96
	stp	x26, x25, [sp, #16]             ; 16-byte Folded Spill
	stp	x24, x23, [sp, #32]             ; 16-byte Folded Spill
	stp	x22, x21, [sp, #48]             ; 16-byte Folded Spill
	stp	x20, x19, [sp, #64]             ; 16-byte Folded Spill
	stp	x29, x30, [sp, #80]             ; 16-byte Folded Spill
	add	x29, sp, #80
	.cfi_def_cfa w29, 16
	.cfi_offset w30, -8
	.cfi_offset w29, -16
	.cfi_offset w19, -24
	.cfi_offset w20, -32
	.cfi_offset w21, -40
	.cfi_offset w22, -48
	.cfi_offset w23, -56
	.cfi_offset w24, -64
	.cfi_offset w25, -72
	.cfi_offset w26, -80
	.cfi_offset w27, -88
	.cfi_offset w28, -96
	mov	x19, x0
Ltmp291:
	;DEBUG_VALUE: addFlagsFromEnvVar:argList <- $x19
	.loc	1 1760 14 prologue_end          ; bzip2.c:1760:14
	mov	x0, x1
Ltmp292:
	;DEBUG_VALUE: addFlagsFromEnvVar:varName <- $x0
	bl	_getenv
Ltmp293:
	;DEBUG_VALUE: addFlagsFromEnvVar:envbase <- $x0
	.loc	1 1761 8                        ; bzip2.c:1761:8
	cbz	x0, LBB2_33
Ltmp294:
; %bb.1:                                ; %.preheader39
	;DEBUG_VALUE: addFlagsFromEnvVar:envbase <- $x0
	;DEBUG_VALUE: addFlagsFromEnvVar:argList <- $x19
	.loc	1 0 0 is_stmt 0                 ; bzip2.c:0:0
	mov	x20, x0
Ltmp295:
	;DEBUG_VALUE: addFlagsFromEnvVar:envbase <- $x20
	;DEBUG_VALUE: addFlagsFromEnvVar:p <- $x20
	;DEBUG_VALUE: addFlagsFromEnvVar:i <- 0
	.loc	1 1765 14 is_stmt 1             ; bzip2.c:1765:14
	ldrb	w8, [x0]
Ltmp296:
	.loc	1 1765 14 is_stmt 0             ; bzip2.c:1765:14
	cbz	w8, LBB2_33
Ltmp297:
; %bb.2:                                ; %.preheader38.preheader
	;DEBUG_VALUE: addFlagsFromEnvVar:i <- 0
	;DEBUG_VALUE: addFlagsFromEnvVar:p <- $x20
	;DEBUG_VALUE: addFlagsFromEnvVar:envbase <- $x20
	;DEBUG_VALUE: addFlagsFromEnvVar:argList <- $x19
	.loc	1 0 14                          ; bzip2.c:0:14
Lloh282:
	adrp	x22, __DefaultRuneLocale@GOTPAGE
Lloh283:
	ldr	x22, [x22, __DefaultRuneLocale@GOTPAGEOFF]
Lloh284:
	adrp	x21, _tmpName@GOTPAGE
Lloh285:
	ldr	x21, [x21, _tmpName@GOTPAGEOFF]
	b	LBB2_5
Ltmp298:
LBB2_3:                                 ;   in Loop: Header=BB2_5 Depth=1
	;DEBUG_VALUE: addFlagsFromEnvVar:i <- 0
	;DEBUG_VALUE: addFlagsFromEnvVar:argList <- $x19
	mov	w26, #0
Ltmp299:
LBB2_4:                                 ; %.critedge.thread
                                        ;   in Loop: Header=BB2_5 Depth=1
	;DEBUG_VALUE: addFlagsFromEnvVar:argList <- $x19
	;DEBUG_VALUE: addFlagsFromEnvVar:p <- undef
	.loc	1 1765 14                       ; bzip2.c:1765:14
	add	x8, x20, w26, uxtw
	add	x20, x8, x24
	ldrb	w8, [x20, #-1]!
Ltmp300:
	.loc	1 1765 14                       ; bzip2.c:1765:14
	cbz	w8, LBB2_33
Ltmp301:
LBB2_5:                                 ; %.preheader38
                                        ; =>This Loop Header: Depth=1
                                        ;     Child Loop BB2_8 Depth 2
                                        ;     Child Loop BB2_12 Depth 2
                                        ;     Child Loop BB2_25 Depth 2
                                        ;     Child Loop BB2_29 Depth 2
                                        ;     Child Loop BB2_31 Depth 2
	;DEBUG_VALUE: addFlagsFromEnvVar:argList <- $x19
	.loc	1 0 14                          ; bzip2.c:0:14
	mov	x24, #0
	.loc	1 1768 10 is_stmt 1             ; bzip2.c:1768:10
	add	x8, x20, #32
	mov	x25, x20
	b	LBB2_8
Ltmp302:
LBB2_6:                                 ;   in Loop: Header=BB2_8 Depth=2
	;DEBUG_VALUE: __istype:_f <- 16384
	;DEBUG_VALUE: isspace:_c <- $w0
	;DEBUG_VALUE: __istype:_c <- $w0
	;DEBUG_VALUE: addFlagsFromEnvVar:argList <- $x19
	.file	20 "/Library/Developer/CommandLineTools/SDKs/MacOSX.sdk/usr/include" "_ctype.h"
	.loc	20 159 7                        ; /Library/Developer/CommandLineTools/SDKs/MacOSX.sdk/usr/include/_ctype.h:159:7
	mov	w1, #16384
	bl	___maskrune
Ltmp303:
LBB2_7:                                 ; %isspace.exit
                                        ;   in Loop: Header=BB2_8 Depth=2
	;DEBUG_VALUE: addFlagsFromEnvVar:argList <- $x19
	;DEBUG_VALUE: addFlagsFromEnvVar:p <- [DW_OP_plus_uconst 1, DW_OP_stack_value] undef
	.loc	1 1768 10                       ; bzip2.c:1768:10
	add	x24, x24, #1
	add	x8, x28, #1
	add	x25, x27, #1
	cbz	w0, LBB2_10
Ltmp304:
LBB2_8:                                 ;   Parent Loop BB2_5 Depth=1
                                        ; =>  This Inner Loop Header: Depth=2
	;DEBUG_VALUE: addFlagsFromEnvVar:argList <- $x19
	.loc	1 0 10 is_stmt 0                ; bzip2.c:0:10
	mov	x28, x8
	mov	x27, x25
Ltmp305:
	;DEBUG_VALUE: addFlagsFromEnvVar:p <- undef
	.loc	1 1768 33                       ; bzip2.c:1768:33
	ldrsb	w0, [x20, x24]
Ltmp306:
	;DEBUG_VALUE: __istype:_c <- $w0
	;DEBUG_VALUE: isspace:_c <- $w0
	;DEBUG_VALUE: __istype:_f <- 16384
	.loc	20 158 10 is_stmt 1             ; /Library/Developer/CommandLineTools/SDKs/MacOSX.sdk/usr/include/_ctype.h:158:10
	tbnz	w0, #31, LBB2_6
Ltmp307:
; %bb.9:                                ;   in Loop: Header=BB2_8 Depth=2
	;DEBUG_VALUE: __istype:_f <- 16384
	;DEBUG_VALUE: isspace:_c <- $w0
	;DEBUG_VALUE: __istype:_c <- $w0
	;DEBUG_VALUE: addFlagsFromEnvVar:argList <- $x19
	.loc	20 158 27 is_stmt 0             ; /Library/Developer/CommandLineTools/SDKs/MacOSX.sdk/usr/include/_ctype.h:158:27
	add	x8, x22, w0, uxtw #2
	ldr	w8, [x8, #60]
	.loc	20 158 61                       ; /Library/Developer/CommandLineTools/SDKs/MacOSX.sdk/usr/include/_ctype.h:158:61
	and	w0, w8, #0x4000
Ltmp308:
	.loc	20 0 61                         ; /Library/Developer/CommandLineTools/SDKs/MacOSX.sdk/usr/include/_ctype.h:0:61
	b	LBB2_7
Ltmp309:
LBB2_10:                                ; %.preheader
                                        ;   in Loop: Header=BB2_5 Depth=1
	;DEBUG_VALUE: addFlagsFromEnvVar:argList <- $x19
	;DEBUG_VALUE: addFlagsFromEnvVar:i <- 0
	.loc	1 1769 17 is_stmt 1             ; bzip2.c:1769:17
	add	x23, x20, x24
	ldurb	w8, [x23, #-1]
	.loc	1 1769 27 is_stmt 0             ; bzip2.c:1769:27
	cbz	w8, LBB2_3
Ltmp310:
; %bb.11:                               ; %.lr.ph.preheader
                                        ;   in Loop: Header=BB2_5 Depth=1
	;DEBUG_VALUE: addFlagsFromEnvVar:i <- 0
	;DEBUG_VALUE: addFlagsFromEnvVar:argList <- $x19
	.loc	1 0 27                          ; bzip2.c:0:27
	mov	x26, #0
Ltmp311:
LBB2_12:                                ; %.lr.ph
                                        ;   Parent Loop BB2_5 Depth=1
                                        ; =>  This Inner Loop Header: Depth=2
	;DEBUG_VALUE: addFlagsFromEnvVar:argList <- $x19
	;DEBUG_VALUE: addFlagsFromEnvVar:i <- $x26
	.loc	1 1769 17                       ; bzip2.c:1769:17
	sxtb	w0, w8
Ltmp312:
	;DEBUG_VALUE: __istype:_f <- 16384
	;DEBUG_VALUE: __istype:_c <- $w0
	;DEBUG_VALUE: isspace:_c <- $w0
	.loc	20 158 10 is_stmt 1             ; /Library/Developer/CommandLineTools/SDKs/MacOSX.sdk/usr/include/_ctype.h:158:10
	tbnz	w8, #7, LBB2_14
Ltmp313:
; %bb.13:                               ;   in Loop: Header=BB2_12 Depth=2
	;DEBUG_VALUE: isspace:_c <- $w0
	;DEBUG_VALUE: __istype:_c <- $w0
	;DEBUG_VALUE: __istype:_f <- 16384
	;DEBUG_VALUE: addFlagsFromEnvVar:i <- $x26
	;DEBUG_VALUE: addFlagsFromEnvVar:argList <- $x19
	.loc	20 158 27 is_stmt 0             ; /Library/Developer/CommandLineTools/SDKs/MacOSX.sdk/usr/include/_ctype.h:158:27
	add	x8, x22, w0, uxtw #2
	ldr	w8, [x8, #60]
	.loc	20 158 61                       ; /Library/Developer/CommandLineTools/SDKs/MacOSX.sdk/usr/include/_ctype.h:158:61
	and	w0, w8, #0x4000
Ltmp314:
	.loc	20 0 61                         ; /Library/Developer/CommandLineTools/SDKs/MacOSX.sdk/usr/include/_ctype.h:0:61
	cbz	w0, LBB2_15
	b	LBB2_17
Ltmp315:
LBB2_14:                                ;   in Loop: Header=BB2_12 Depth=2
	;DEBUG_VALUE: isspace:_c <- $w0
	;DEBUG_VALUE: __istype:_c <- $w0
	;DEBUG_VALUE: __istype:_f <- 16384
	;DEBUG_VALUE: addFlagsFromEnvVar:i <- $x26
	;DEBUG_VALUE: addFlagsFromEnvVar:argList <- $x19
	.loc	20 159 7 is_stmt 1              ; /Library/Developer/CommandLineTools/SDKs/MacOSX.sdk/usr/include/_ctype.h:159:7
	mov	w1, #16384
	bl	___maskrune
Ltmp316:
	.loc	1 1769 10                       ; bzip2.c:1769:10
	cbnz	w0, LBB2_17
Ltmp317:
LBB2_15:                                ;   in Loop: Header=BB2_12 Depth=2
	;DEBUG_VALUE: addFlagsFromEnvVar:i <- $x26
	;DEBUG_VALUE: addFlagsFromEnvVar:argList <- $x19
	.loc	1 1769 56 is_stmt 0             ; bzip2.c:1769:56
	add	x9, x26, #1
Ltmp318:
	;DEBUG_VALUE: addFlagsFromEnvVar:i <- $x9
	.loc	1 1769 17                       ; bzip2.c:1769:17
	ldrb	w8, [x23, x26]
	mov	x26, x9
	.loc	1 1769 27                       ; bzip2.c:1769:27
	cbnz	w8, LBB2_12
Ltmp319:
; %bb.16:                               ; %iter.check.loopexit
                                        ;   in Loop: Header=BB2_5 Depth=1
	;DEBUG_VALUE: addFlagsFromEnvVar:i <- $x9
	;DEBUG_VALUE: addFlagsFromEnvVar:argList <- $x19
	.loc	1 0 27                          ; bzip2.c:0:27
	mov	x26, x9
	b	LBB2_18
Ltmp320:
LBB2_17:                                ; %.critedge
                                        ;   in Loop: Header=BB2_5 Depth=1
	;DEBUG_VALUE: addFlagsFromEnvVar:i <- $x26
	;DEBUG_VALUE: addFlagsFromEnvVar:argList <- $x19
	.loc	1 1770 14 is_stmt 1             ; bzip2.c:1770:14
	cbz	w26, LBB2_4
Ltmp321:
LBB2_18:                                ; %iter.check
                                        ;   in Loop: Header=BB2_5 Depth=1
	;DEBUG_VALUE: addFlagsFromEnvVar:argList <- $x19
	;DEBUG_VALUE: addFlagsFromEnvVar:k <- [DW_OP_LLVM_convert 64 7, DW_OP_LLVM_convert 32 7, DW_OP_stack_value] undef
	.loc	1 1771 24                       ; bzip2.c:1771:24
	cmp	w26, #1024
	mov	w8, #1024
	csel	w8, w26, w8, lo
Ltmp322:
	;DEBUG_VALUE: addFlagsFromEnvVar:j <- 0
	;DEBUG_VALUE: addFlagsFromEnvVar:k <- $w8
	.loc	1 1772 13                       ; bzip2.c:1772:13
	cmp	w8, #8
	b.hs	LBB2_20
Ltmp323:
; %bb.19:                               ;   in Loop: Header=BB2_5 Depth=1
	;DEBUG_VALUE: addFlagsFromEnvVar:k <- $w8
	;DEBUG_VALUE: addFlagsFromEnvVar:j <- 0
	;DEBUG_VALUE: addFlagsFromEnvVar:argList <- $x19
	.loc	1 0 13 is_stmt 0                ; bzip2.c:0:13
	mov	x9, #0
	b	LBB2_31
Ltmp324:
LBB2_20:                                ; %vector.memcheck
                                        ;   in Loop: Header=BB2_5 Depth=1
	;DEBUG_VALUE: addFlagsFromEnvVar:k <- $w8
	;DEBUG_VALUE: addFlagsFromEnvVar:j <- 0
	;DEBUG_VALUE: addFlagsFromEnvVar:argList <- $x19
	.loc	1 1772 13                       ; bzip2.c:1772:13
	sub	x9, x21, x20
	sub	x9, x9, x24
	add	x9, x9, #1
	cmp	x9, #64
	b.hs	LBB2_22
Ltmp325:
; %bb.21:                               ;   in Loop: Header=BB2_5 Depth=1
	;DEBUG_VALUE: addFlagsFromEnvVar:k <- $w8
	;DEBUG_VALUE: addFlagsFromEnvVar:j <- 0
	;DEBUG_VALUE: addFlagsFromEnvVar:argList <- $x19
	.loc	1 0 13                          ; bzip2.c:0:13
	mov	x9, #0
	b	LBB2_31
Ltmp326:
LBB2_22:                                ; %vector.main.loop.iter.check
                                        ;   in Loop: Header=BB2_5 Depth=1
	;DEBUG_VALUE: addFlagsFromEnvVar:k <- $w8
	;DEBUG_VALUE: addFlagsFromEnvVar:j <- 0
	;DEBUG_VALUE: addFlagsFromEnvVar:argList <- $x19
	.loc	1 1772 13                       ; bzip2.c:1772:13
	cmp	w8, #64
	b.hs	LBB2_24
Ltmp327:
; %bb.23:                               ;   in Loop: Header=BB2_5 Depth=1
	;DEBUG_VALUE: addFlagsFromEnvVar:k <- $w8
	;DEBUG_VALUE: addFlagsFromEnvVar:j <- 0
	;DEBUG_VALUE: addFlagsFromEnvVar:argList <- $x19
	.loc	1 0 13                          ; bzip2.c:0:13
	mov	x9, #0
	b	LBB2_28
Ltmp328:
LBB2_24:                                ; %vector.ph
                                        ;   in Loop: Header=BB2_5 Depth=1
	;DEBUG_VALUE: addFlagsFromEnvVar:k <- $w8
	;DEBUG_VALUE: addFlagsFromEnvVar:j <- 0
	;DEBUG_VALUE: addFlagsFromEnvVar:argList <- $x19
	add	x10, x21, #32
	.loc	1 1772 13                       ; bzip2.c:1772:13
	and	x9, x8, #0x7c0
	mov	x11, x9
Ltmp329:
LBB2_25:                                ; %vector.body
                                        ;   Parent Loop BB2_5 Depth=1
                                        ; =>  This Inner Loop Header: Depth=2
	;DEBUG_VALUE: addFlagsFromEnvVar:k <- $w8
	;DEBUG_VALUE: addFlagsFromEnvVar:j <- 0
	;DEBUG_VALUE: addFlagsFromEnvVar:argList <- $x19
	.loc	1 1772 50                       ; bzip2.c:1772:50
	ldp	q0, q1, [x28, #-32]
	ldp	q2, q3, [x28], #64
	.loc	1 1772 48                       ; bzip2.c:1772:48
	stp	q0, q1, [x10, #-32]
	stp	q2, q3, [x10], #64
	.loc	1 1772 33                       ; bzip2.c:1772:33
	subs	x11, x11, #64
	b.ne	LBB2_25
Ltmp330:
; %bb.26:                               ; %middle.block
                                        ;   in Loop: Header=BB2_5 Depth=1
	;DEBUG_VALUE: addFlagsFromEnvVar:k <- $w8
	;DEBUG_VALUE: addFlagsFromEnvVar:j <- 0
	;DEBUG_VALUE: addFlagsFromEnvVar:argList <- $x19
	.loc	1 1772 13                       ; bzip2.c:1772:13
	cmp	x9, x8
	b.eq	LBB2_32
Ltmp331:
; %bb.27:                               ; %vec.epilog.iter.check
                                        ;   in Loop: Header=BB2_5 Depth=1
	;DEBUG_VALUE: addFlagsFromEnvVar:k <- $w8
	;DEBUG_VALUE: addFlagsFromEnvVar:j <- 0
	;DEBUG_VALUE: addFlagsFromEnvVar:argList <- $x19
	tst	x8, #0x38
	b.eq	LBB2_31
Ltmp332:
LBB2_28:                                ; %vec.epilog.ph
                                        ;   in Loop: Header=BB2_5 Depth=1
	;DEBUG_VALUE: addFlagsFromEnvVar:k <- $w8
	;DEBUG_VALUE: addFlagsFromEnvVar:j <- 0
	;DEBUG_VALUE: addFlagsFromEnvVar:argList <- $x19
	.loc	1 0 13                          ; bzip2.c:0:13
	mov	x12, x9
	.loc	1 1772 13                       ; bzip2.c:1772:13
	and	x9, x8, #0x7f8
	add	x10, x27, x12
	add	x11, x21, x12
	sub	x12, x12, x9
Ltmp333:
LBB2_29:                                ; %vec.epilog.vector.body
                                        ;   Parent Loop BB2_5 Depth=1
                                        ; =>  This Inner Loop Header: Depth=2
	;DEBUG_VALUE: addFlagsFromEnvVar:k <- $w8
	;DEBUG_VALUE: addFlagsFromEnvVar:j <- 0
	;DEBUG_VALUE: addFlagsFromEnvVar:argList <- $x19
	.loc	1 1772 50                       ; bzip2.c:1772:50
	ldr	d0, [x10], #8
	.loc	1 1772 48                       ; bzip2.c:1772:48
	str	d0, [x11], #8
	.loc	1 1772 33                       ; bzip2.c:1772:33
	adds	x12, x12, #8
	b.ne	LBB2_29
Ltmp334:
; %bb.30:                               ; %vec.epilog.middle.block
                                        ;   in Loop: Header=BB2_5 Depth=1
	;DEBUG_VALUE: addFlagsFromEnvVar:k <- $w8
	;DEBUG_VALUE: addFlagsFromEnvVar:j <- 0
	;DEBUG_VALUE: addFlagsFromEnvVar:argList <- $x19
	.loc	1 1772 13                       ; bzip2.c:1772:13
	cmp	x9, x8
	b.eq	LBB2_32
Ltmp335:
LBB2_31:                                ; %.lr.ph44
                                        ;   Parent Loop BB2_5 Depth=1
                                        ; =>  This Inner Loop Header: Depth=2
	;DEBUG_VALUE: addFlagsFromEnvVar:k <- $w8
	;DEBUG_VALUE: addFlagsFromEnvVar:argList <- $x19
	;DEBUG_VALUE: addFlagsFromEnvVar:j <- $x9
	.loc	1 1772 50                       ; bzip2.c:1772:50
	add	x10, x25, x9
	ldurb	w10, [x10, #-1]
	.loc	1 1772 48                       ; bzip2.c:1772:48
	strb	w10, [x21, x9]
	.loc	1 1772 33                       ; bzip2.c:1772:33
	add	x9, x9, #1
Ltmp336:
	;DEBUG_VALUE: addFlagsFromEnvVar:j <- $x9
	.loc	1 1772 13                       ; bzip2.c:1772:13
	cmp	x8, x9
	b.ne	LBB2_31
Ltmp337:
LBB2_32:                                ; %._crit_edge
                                        ;   in Loop: Header=BB2_5 Depth=1
	;DEBUG_VALUE: addFlagsFromEnvVar:k <- $w8
	;DEBUG_VALUE: addFlagsFromEnvVar:argList <- $x19
	.loc	1 1773 24 is_stmt 1             ; bzip2.c:1773:24
	strb	wzr, [x21, x8]
	.loc	1 1774 34                       ; bzip2.c:1774:34
	ldr	x0, [x19]
	.loc	1 1774 22 is_stmt 0             ; bzip2.c:1774:22
	mov	x1, x21
	bl	_snocString
Ltmp338:
	.loc	1 1774 21                       ; bzip2.c:1774:21
	str	x0, [x19]
	b	LBB2_4
Ltmp339:
LBB2_33:                                ; %.loopexit
	;DEBUG_VALUE: addFlagsFromEnvVar:argList <- $x19
	.loc	1 1778 1 is_stmt 1              ; bzip2.c:1778:1
	ldp	x29, x30, [sp, #80]             ; 16-byte Folded Reload
	ldp	x20, x19, [sp, #64]             ; 16-byte Folded Reload
Ltmp340:
	;DEBUG_VALUE: addFlagsFromEnvVar:argList <- [DW_OP_LLVM_entry_value 1] $x0
	ldp	x22, x21, [sp, #48]             ; 16-byte Folded Reload
	ldp	x24, x23, [sp, #32]             ; 16-byte Folded Reload
	ldp	x26, x25, [sp, #16]             ; 16-byte Folded Reload
	ldp	x28, x27, [sp], #96             ; 16-byte Folded Reload
	ret
Ltmp341:
	.loh AdrpLdrGot	Lloh284, Lloh285
	.loh AdrpLdrGot	Lloh282, Lloh283
Lfunc_end2:
	.cfi_endproc
	.file	21 "/Library/Developer/CommandLineTools/SDKs/MacOSX.sdk/usr/include" "stdlib.h"
                                        ; -- End function
	.p2align	2                               ; -- Begin function snocString
_snocString:                            ; @snocString
Lfunc_begin3:
	.loc	1 1738 0                        ; bzip2.c:1738:0
	.cfi_startproc
; %bb.0:
	;DEBUG_VALUE: snocString:root <- $x0
	;DEBUG_VALUE: snocString:name <- $x1
	stp	x22, x21, [sp, #-48]!           ; 16-byte Folded Spill
	.cfi_def_cfa_offset 48
	stp	x20, x19, [sp, #16]             ; 16-byte Folded Spill
	stp	x29, x30, [sp, #32]             ; 16-byte Folded Spill
	add	x29, sp, #32
	.cfi_def_cfa w29, 16
	.cfi_offset w30, -8
	.cfi_offset w29, -16
	.cfi_offset w19, -24
	.cfi_offset w20, -32
	.cfi_offset w21, -40
	.cfi_offset w22, -48
	mov	x20, x1
Ltmp342:
	;DEBUG_VALUE: snocString:name <- $x20
	;DEBUG_VALUE: snocString:root <- $x0
	.loc	1 1739 8 prologue_end           ; bzip2.c:1739:8
	cbz	x0, LBB3_6
Ltmp343:
; %bb.1:
	;DEBUG_VALUE: snocString:name <- $x20
	;DEBUG_VALUE: snocString:root <- $x0
	.loc	1 0 8 is_stmt 0                 ; bzip2.c:0:8
	mov	x19, x0
Ltmp344:
	;DEBUG_VALUE: snocString:root <- $x19
	mov	x8, x0
Ltmp345:
LBB3_2:                                 ; %.preheader
                                        ; =>This Inner Loop Header: Depth=1
	;DEBUG_VALUE: snocString:root <- $x19
	;DEBUG_VALUE: snocString:name <- $x20
	mov	x22, x8
Ltmp346:
	;DEBUG_VALUE: tmp <- $x22
	.loc	1 1746 19 is_stmt 1             ; bzip2.c:1746:19
	ldr	x8, [x8, #8]
	.loc	1 1746 7 is_stmt 0              ; bzip2.c:1746:7
	cbnz	x8, LBB3_2
Ltmp347:
; %bb.3:
	;DEBUG_VALUE: tmp <- $x22
	;DEBUG_VALUE: snocString:root <- $x19
	;DEBUG_VALUE: snocString:name <- $x20
	;DEBUG_VALUE: snocString:root <- 0
	;DEBUG_VALUE: snocString:name <- $x20
	;DEBUG_VALUE: myMalloc:n <- 16
	.loc	1 1716 8 is_stmt 1              ; bzip2.c:1716:8
	mov	w0, #1
	mov	w1, #16
	bl	_calloc
Ltmp348:
	;DEBUG_VALUE: myMalloc:p <- $x0
	.loc	1 0 8 is_stmt 0                 ; bzip2.c:0:8
	cbz	x0, LBB3_10
Ltmp349:
; %bb.4:                                ; %mkCell.exit.i
	;DEBUG_VALUE: snocString:name <- $x20
	;DEBUG_VALUE: snocString:root <- 0
	;DEBUG_VALUE: tmp <- $x22
	;DEBUG_VALUE: snocString:root <- $x19
	;DEBUG_VALUE: snocString:name <- $x20
	mov	x21, x0
Ltmp350:
	;DEBUG_VALUE: myMalloc:p <- $x21
	;DEBUG_VALUE: mkCell:c <- $x21
	;DEBUG_VALUE: tmp <- $x21
	.loc	1 1741 42 is_stmt 1             ; bzip2.c:1741:42
	mov	x0, x20
	bl	_strlen
Ltmp351:
	;DEBUG_VALUE: myMalloc:n <- [DW_OP_LLVM_convert 64 7, DW_OP_LLVM_convert 32 7, DW_OP_plus_uconst 5, DW_OP_stack_value] $x0
	.loc	1 1716 17                       ; bzip2.c:1716:17
	add	w8, w0, #5
	sxtw	x0, w8
Ltmp352:
	.loc	1 1716 8 is_stmt 0              ; bzip2.c:1716:8
	bl	_malloc
Ltmp353:
	;DEBUG_VALUE: myMalloc:p <- $x0
	.loc	1 0 8                           ; bzip2.c:0:8
	cbz	x0, LBB3_10
Ltmp354:
; %bb.5:                                ; %snocString.exit
	;DEBUG_VALUE: tmp <- $x21
	;DEBUG_VALUE: snocString:name <- $x20
	;DEBUG_VALUE: snocString:root <- 0
	;DEBUG_VALUE: tmp <- $x22
	;DEBUG_VALUE: snocString:root <- $x19
	;DEBUG_VALUE: snocString:name <- $x20
	;DEBUG_VALUE: mkCell:c <- $x21
	;DEBUG_VALUE: tmp <- $x21
	.loc	1 1741 17 is_stmt 1             ; bzip2.c:1741:17
	str	x0, [x21]
	.loc	1 1742 7                        ; bzip2.c:1742:7
	mov	x1, x20
	bl	_strcpy
Ltmp355:
	.loc	1 1747 17                       ; bzip2.c:1747:17
	str	x21, [x22, #8]
	b	LBB3_9
Ltmp356:
LBB3_6:
	;DEBUG_VALUE: snocString:name <- $x20
	;DEBUG_VALUE: snocString:root <- $x0
	;DEBUG_VALUE: myMalloc:n <- 16
	.loc	1 1716 8                        ; bzip2.c:1716:8
	mov	w0, #1
Ltmp357:
	mov	w1, #16
	bl	_calloc
Ltmp358:
	;DEBUG_VALUE: myMalloc:p <- $x0
	.loc	1 1717 8                        ; bzip2.c:1717:8
	cbz	x0, LBB3_10
Ltmp359:
; %bb.7:                                ; %mkCell.exit
	;DEBUG_VALUE: snocString:name <- $x20
	.loc	1 0 0 is_stmt 0                 ; bzip2.c:0:0
	mov	x19, x0
Ltmp360:
	;DEBUG_VALUE: myMalloc:p <- $x19
	;DEBUG_VALUE: mkCell:c <- $x19
	;DEBUG_VALUE: tmp <- $x19
	.loc	1 1741 42 is_stmt 1             ; bzip2.c:1741:42
	mov	x0, x20
	bl	_strlen
Ltmp361:
	;DEBUG_VALUE: myMalloc:n <- [DW_OP_LLVM_convert 64 7, DW_OP_LLVM_convert 32 7, DW_OP_plus_uconst 5, DW_OP_stack_value] $x0
	.loc	1 1716 17                       ; bzip2.c:1716:17
	add	w8, w0, #5
	sxtw	x0, w8
Ltmp362:
	.loc	1 1716 8 is_stmt 0              ; bzip2.c:1716:8
	bl	_malloc
Ltmp363:
	;DEBUG_VALUE: myMalloc:p <- $x0
	.loc	1 1717 8 is_stmt 1              ; bzip2.c:1717:8
	cbz	x0, LBB3_10
Ltmp364:
; %bb.8:                                ; %myMalloc.exit
	;DEBUG_VALUE: tmp <- $x19
	;DEBUG_VALUE: snocString:name <- $x20
	;DEBUG_VALUE: mkCell:c <- $x19
	;DEBUG_VALUE: tmp <- $x19
	.loc	1 1741 17                       ; bzip2.c:1741:17
	str	x0, [x19]
	.loc	1 1742 7                        ; bzip2.c:1742:7
	mov	x1, x20
	bl	_strcpy
Ltmp365:
LBB3_9:
	;DEBUG_VALUE: snocString:name <- $x20
	.loc	1 1750 1                        ; bzip2.c:1750:1
	mov	x0, x19
	ldp	x29, x30, [sp, #32]             ; 16-byte Folded Reload
	ldp	x20, x19, [sp, #16]             ; 16-byte Folded Reload
Ltmp366:
	;DEBUG_VALUE: snocString:name <- [DW_OP_LLVM_entry_value 1] $x1
	ldp	x22, x21, [sp], #48             ; 16-byte Folded Reload
	ret
Ltmp367:
LBB3_10:
	;DEBUG_VALUE: snocString:name <- $x20
	.loc	1 0 0 is_stmt 0                 ; bzip2.c:0:0
	bl	_outOfMemory
Ltmp368:
Lfunc_end3:
	.cfi_endproc
                                        ; -- End function
	.p2align	2                               ; -- Begin function usage
_usage:                                 ; @usage
Lfunc_begin4:
	.loc	1 1635 0 is_stmt 1              ; bzip2.c:1635:0
	.cfi_startproc
; %bb.0:
	;DEBUG_VALUE: usage:fullProgName <- $x0
	sub	sp, sp, #48
	.cfi_def_cfa_offset 48
	stp	x20, x19, [sp, #16]             ; 16-byte Folded Spill
	stp	x29, x30, [sp, #32]             ; 16-byte Folded Spill
	add	x29, sp, #32
	.cfi_def_cfa w29, 16
	.cfi_offset w30, -8
	.cfi_offset w29, -16
	.cfi_offset w19, -24
	.cfi_offset w20, -32
	mov	x19, x0
Ltmp369:
	;DEBUG_VALUE: usage:fullProgName <- $x19
	.loc	1 1637 7 prologue_end           ; bzip2.c:1637:7
Lloh286:
	adrp	x8, ___stderrp@GOTPAGE
Lloh287:
	ldr	x8, [x8, ___stderrp@GOTPAGEOFF]
Lloh288:
	ldr	x20, [x8]
	.loc	1 1670 7                        ; bzip2.c:1670:7
	bl	_BZ2_bzlibVersion
Ltmp370:
	.loc	1 1636 4                        ; bzip2.c:1636:4
	stp	x0, x19, [sp]
Lloh289:
	adrp	x1, l_.str.52@PAGE
Lloh290:
	add	x1, x1, l_.str.52@PAGEOFF
	mov	x0, x20
	bl	_fprintf
Ltmp371:
	.loc	1 1673 1                        ; bzip2.c:1673:1
	ldp	x29, x30, [sp, #32]             ; 16-byte Folded Reload
	ldp	x20, x19, [sp, #16]             ; 16-byte Folded Reload
Ltmp372:
	;DEBUG_VALUE: usage:fullProgName <- [DW_OP_LLVM_entry_value 1] $x0
	add	sp, sp, #48
	ret
Ltmp373:
	.loh AdrpAdd	Lloh289, Lloh290
	.loh AdrpLdrGotLdr	Lloh286, Lloh287, Lloh288
Lfunc_end4:
	.cfi_endproc
                                        ; -- End function
	.p2align	2                               ; -- Begin function mySignalCatcher
_mySignalCatcher:                       ; @mySignalCatcher
Lfunc_begin5:
	.loc	1 806 0                         ; bzip2.c:806:0
	.cfi_startproc
; %bb.0:
	;DEBUG_VALUE: mySignalCatcher:n <- undef
	sub	sp, sp, #32
	.cfi_def_cfa_offset 32
	stp	x29, x30, [sp, #16]             ; 16-byte Folded Spill
	add	x29, sp, #16
	.cfi_def_cfa w29, 16
	.cfi_offset w30, -8
	.cfi_offset w29, -16
Ltmp374:
	.loc	1 807 14 prologue_end           ; bzip2.c:807:14
Lloh291:
	adrp	x8, ___stderrp@GOTPAGE
Lloh292:
	ldr	x8, [x8, ___stderrp@GOTPAGEOFF]
Lloh293:
	ldr	x0, [x8]
	.loc	1 809 14                        ; bzip2.c:809:14
Lloh294:
	adrp	x8, _progName@GOTPAGE
Lloh295:
	ldr	x8, [x8, _progName@GOTPAGEOFF]
Lloh296:
	ldr	x8, [x8]
	.loc	1 807 4                         ; bzip2.c:807:4
	str	x8, [sp]
Lloh297:
	adrp	x1, l_.str.54@PAGE
Lloh298:
	add	x1, x1, l_.str.54@PAGEOFF
	bl	_fprintf
Ltmp375:
	.loc	1 810 4                         ; bzip2.c:810:4
	mov	w0, #1
	bl	_cleanUpAndFail
Ltmp376:
	.loh AdrpAdd	Lloh297, Lloh298
	.loh AdrpLdrGotLdr	Lloh294, Lloh295, Lloh296
	.loh AdrpLdrGotLdr	Lloh291, Lloh292, Lloh293
Lfunc_end5:
	.cfi_endproc
                                        ; -- End function
	.p2align	2                               ; -- Begin function compress
_compress:                              ; @compress
Lfunc_begin6:
	.loc	1 1142 0                        ; bzip2.c:1142:0
	.cfi_startproc
; %bb.0:
	;DEBUG_VALUE: compress:name <- $x0
	stp	d9, d8, [sp, #-112]!            ; 16-byte Folded Spill
	.cfi_def_cfa_offset 112
	stp	x28, x27, [sp, #16]             ; 16-byte Folded Spill
	stp	x26, x25, [sp, #32]             ; 16-byte Folded Spill
	stp	x24, x23, [sp, #48]             ; 16-byte Folded Spill
	stp	x22, x21, [sp, #64]             ; 16-byte Folded Spill
	stp	x20, x19, [sp, #80]             ; 16-byte Folded Spill
	stp	x29, x30, [sp, #96]             ; 16-byte Folded Spill
	add	x29, sp, #96
	.cfi_def_cfa w29, 16
	.cfi_offset w30, -8
	.cfi_offset w29, -16
	.cfi_offset w19, -24
	.cfi_offset w20, -32
	.cfi_offset w21, -40
	.cfi_offset w22, -48
	.cfi_offset w23, -56
	.cfi_offset w24, -64
	.cfi_offset w25, -72
	.cfi_offset w26, -80
	.cfi_offset w27, -88
	.cfi_offset w28, -96
	.cfi_offset b8, -104
	.cfi_offset b9, -112
	mov	w9, #5312
Lloh299:
	adrp	x16, ___chkstk_darwin@GOTPAGE
Lloh300:
	ldr	x16, [x16, ___chkstk_darwin@GOTPAGEOFF]
	blr	x16
Ltmp377:
	sub	sp, sp, #1, lsl #12             ; =4096
	sub	sp, sp, #1216
	mov	x20, x0
Ltmp378:
	;DEBUG_VALUE: compress:name <- $x20
Lloh301:
	adrp	x8, ___stack_chk_guard@GOTPAGE
Lloh302:
	ldr	x8, [x8, ___stack_chk_guard@GOTPAGEOFF]
Lloh303:
	ldr	x8, [x8]
	stur	x8, [x29, #-112]
Ltmp379:
	.loc	1 1148 28 prologue_end          ; bzip2.c:1148:28
Lloh304:
	adrp	x25, _deleteOutputOnInterrupt@GOTPAGE
Lloh305:
	ldr	x25, [x25, _deleteOutputOnInterrupt@GOTPAGEOFF]
	strb	wzr, [x25]
Lloh306:
	adrp	x26, _srcMode@GOTPAGE
Lloh307:
	ldr	x26, [x26, _srcMode@GOTPAGEOFF]
	ldr	w8, [x26]
Ltmp380:
	.loc	1 1150 28                       ; bzip2.c:1150:28
	cbnz	x0, LBB6_2
Ltmp381:
; %bb.1:
	;DEBUG_VALUE: compress:name <- $x20
	cmp	w8, #1
	b.ne	LBB6_112
Ltmp382:
LBB6_2:
	;DEBUG_VALUE: compress:name <- $x20
	.loc	1 0 28 is_stmt 0                ; bzip2.c:0:28
Lloh308:
	adrp	x19, _inName@GOTPAGE
Lloh309:
	ldr	x19, [x19, _inName@GOTPAGEOFF]
	.loc	1 1153 4 is_stmt 1              ; bzip2.c:1153:4
	cmp	w8, #3
	b.eq	LBB6_6
Ltmp383:
; %bb.3:
	;DEBUG_VALUE: compress:name <- $x20
	cmp	w8, #2
	b.eq	LBB6_9
Ltmp384:
; %bb.4:
	;DEBUG_VALUE: compress:name <- $x20
	cmp	w8, #1
	b.ne	LBB6_13
Ltmp385:
; %bb.5:                                ; %copyFileName.exit
	;DEBUG_VALUE: compress:name <- $x20
	;DEBUG_VALUE: copyFileName:to <- $x19
	.loc	1 941 3                         ; bzip2.c:941:3
Lloh310:
	adrp	x1, l_.str.56@PAGE
Lloh311:
	add	x1, x1, l_.str.56@PAGEOFF
Ltmp386:
	;DEBUG_VALUE: copyFileName:from <- $x1
	mov	x0, x19
	b	LBB6_11
Ltmp387:
LBB6_6:
	;DEBUG_VALUE: compress:name <- $x20
	;DEBUG_VALUE: copyFileName:from <- $x20
	.loc	1 929 9                         ; bzip2.c:929:9
	mov	x0, x20
	bl	_strlen
Ltmp388:
	.loc	1 929 9 is_stmt 0               ; bzip2.c:929:9
	cmp	x0, #1025
Ltmp389:
	;DEBUG_VALUE: copyFileName:to <- undef
	b.hs	LBB6_114
Ltmp390:
; %bb.7:                                ; %copyFileName.exit54
	;DEBUG_VALUE: copyFileName:from <- $x20
	;DEBUG_VALUE: compress:name <- $x20
	.loc	1 941 3 is_stmt 1               ; bzip2.c:941:3
	mov	x0, x19
	mov	x1, x20
	mov	w2, #1024
	bl	_strncpy
Ltmp391:
	.loc	1 942 15                        ; bzip2.c:942:15
	strb	wzr, [x19, #1024]
Ltmp392:
	;DEBUG_VALUE: copyFileName:from <- $x20
	.loc	1 929 9                         ; bzip2.c:929:9
	mov	x0, x20
	bl	_strlen
Ltmp393:
	.loc	1 929 9 is_stmt 0               ; bzip2.c:929:9
	cmp	x0, #1025
Ltmp394:
	;DEBUG_VALUE: copyFileName:to <- undef
	b.hs	LBB6_114
Ltmp395:
; %bb.8:                                ; %copyFileName.exit56
	;DEBUG_VALUE: copyFileName:from <- $x20
	;DEBUG_VALUE: compress:name <- $x20
	.loc	1 941 3 is_stmt 1               ; bzip2.c:941:3
Lloh312:
	adrp	x0, _outName@GOTPAGE
Lloh313:
	ldr	x0, [x0, _outName@GOTPAGEOFF]
	mov	x1, x20
	mov	w2, #1024
	bl	_strncpy
Ltmp396:
	.loc	1 942 15                        ; bzip2.c:942:15
	strb	wzr, [x0, #1024]
Ltmp397:
	.loc	1 1161 10                       ; bzip2.c:1161:10
Lloh314:
	adrp	x1, l_.str@PAGE
Lloh315:
	add	x1, x1, l_.str@PAGEOFF
	mov	w2, #1034
	bl	___strcat_chk
Ltmp398:
	.loc	1 0 10 is_stmt 0                ; bzip2.c:0:10
	b	LBB6_12
Ltmp399:
LBB6_9:
	;DEBUG_VALUE: compress:name <- $x20
	;DEBUG_VALUE: copyFileName:from <- $x20
	.loc	1 929 9 is_stmt 1               ; bzip2.c:929:9
	mov	x0, x20
	bl	_strlen
Ltmp400:
	.loc	1 929 9 is_stmt 0               ; bzip2.c:929:9
	cmp	x0, #1025
Ltmp401:
	;DEBUG_VALUE: copyFileName:to <- undef
	b.hs	LBB6_114
Ltmp402:
; %bb.10:                               ; %copyFileName.exit58
	;DEBUG_VALUE: copyFileName:from <- $x20
	;DEBUG_VALUE: compress:name <- $x20
	.loc	1 941 3 is_stmt 1               ; bzip2.c:941:3
	mov	x0, x19
	mov	x1, x20
Ltmp403:
LBB6_11:                                ; %thread-pre-split
	;DEBUG_VALUE: compress:name <- $x20
	.loc	1 0 0 is_stmt 0                 ; bzip2.c:0:0
	mov	w2, #1024
	bl	_strncpy
Ltmp404:
	strb	wzr, [x19, #1024]
Lloh316:
	adrp	x0, _outName@GOTPAGE
Lloh317:
	ldr	x0, [x0, _outName@GOTPAGEOFF]
Ltmp405:
	;DEBUG_VALUE: copyFileName:to <- $x0
Lloh318:
	adrp	x1, l_.str.57@PAGE
Lloh319:
	add	x1, x1, l_.str.57@PAGEOFF
Ltmp406:
	;DEBUG_VALUE: copyFileName:from <- $x1
	mov	w2, #1024
	bl	_strncpy
Ltmp407:
	strb	wzr, [x0, #1024]
Ltmp408:
LBB6_12:                                ; %thread-pre-split
	;DEBUG_VALUE: compress:name <- $x20
	.loc	1 1169 9 is_stmt 1              ; bzip2.c:1169:9
	ldr	w8, [x26]
Ltmp409:
LBB6_13:
	;DEBUG_VALUE: compress:name <- $x20
	.loc	1 1176 22                       ; bzip2.c:1176:22
	cmp	w8, #1
	b.eq	LBB6_16
Ltmp410:
; %bb.14:
	;DEBUG_VALUE: compress:name <- $x20
	.loc	1 950 16                        ; bzip2.c:950:16
Lloh320:
	adrp	x20, _inName@GOTPAGE
Ltmp411:
	;DEBUG_VALUE: compress:name <- [DW_OP_LLVM_entry_value 1] $x0
Lloh321:
	ldr	x20, [x20, _inName@GOTPAGEOFF]
Ltmp412:
	;DEBUG_VALUE: fileExists:name <- $x20
Lloh322:
	adrp	x1, l_.str.68@PAGE
Lloh323:
	add	x1, x1, l_.str.68@PAGEOFF
	mov	x0, x20
	bl	_fopen
Ltmp413:
	;DEBUG_VALUE: fileExists:exists <- [DW_OP_LLVM_convert 1 7, DW_OP_LLVM_convert 32 7, DW_OP_LLVM_convert 32 7, DW_OP_LLVM_convert 8 7, DW_OP_stack_value] undef
	;DEBUG_VALUE: fileExists:tmp <- $x0
	.loc	1 952 8                         ; bzip2.c:952:8
	cbz	x0, LBB6_29
Ltmp414:
; %bb.15:                               ; %fileExists.exit
	;DEBUG_VALUE: fileExists:tmp <- $x0
	;DEBUG_VALUE: fileExists:name <- $x20
	;DEBUG_VALUE: compress:name <- [DW_OP_LLVM_entry_value 1] $x0
	.loc	1 952 28 is_stmt 0              ; bzip2.c:952:28
	bl	_fclose
Ltmp415:
	;DEBUG_VALUE: fileExists:exists <- [DW_OP_LLVM_convert 1 7, DW_OP_LLVM_convert 8 7, DW_OP_stack_value] undef
LBB6_16:
	;DEBUG_VALUE: compress:i <- 0
	.loc	1 0 0                           ; bzip2.c:0:0
	mov	x0, x19
	bl	_strlen
Ltmp416:
	mov	x21, x0
	add	x22, x19, w21, sxtw
Ltmp417:
	.loc	1 1183 29 is_stmt 1             ; bzip2.c:1183:29
Lloh324:
	adrp	x8, _zSuffix@PAGE
Lloh325:
	ldr	x20, [x8, _zSuffix@PAGEOFF]
Ltmp418:
	;DEBUG_VALUE: hasSuffix:suffix <- $x20
	;DEBUG_VALUE: hasSuffix:ns <- $w21
	;DEBUG_VALUE: hasSuffix:s <- $x19
	.loc	1 1121 15                       ; bzip2.c:1121:15
	mov	x0, x20
	bl	_strlen
Ltmp419:
	;DEBUG_VALUE: hasSuffix:nx <- $w0
	.loc	1 1122 8                        ; bzip2.c:1122:8
	cmp	w21, w0
	b.lt	LBB6_18
Ltmp420:
; %bb.17:                               ; %hasSuffix.exit
	;DEBUG_VALUE: hasSuffix:nx <- $w0
	;DEBUG_VALUE: hasSuffix:s <- $x19
	;DEBUG_VALUE: hasSuffix:ns <- $w21
	;DEBUG_VALUE: hasSuffix:suffix <- $x20
	;DEBUG_VALUE: compress:i <- 0
	.loc	1 1123 22                       ; bzip2.c:1123:22
	sub	x0, x22, w0, sxtw
Ltmp421:
	.loc	1 1123 8 is_stmt 0              ; bzip2.c:1123:8
	mov	x1, x20
	bl	_strcmp
Ltmp422:
	.loc	1 1183 11 is_stmt 1             ; bzip2.c:1183:11
	cbz	w0, LBB6_27
Ltmp423:
LBB6_18:                                ; %hasSuffix.exit.thread
	;DEBUG_VALUE: hasSuffix:s <- $x19
	;DEBUG_VALUE: hasSuffix:ns <- $w21
	;DEBUG_VALUE: hasSuffix:suffix <- $x20
	;DEBUG_VALUE: compress:i <- 0
	;DEBUG_VALUE: compress:i <- 1
	.loc	1 1183 29 is_stmt 0             ; bzip2.c:1183:29
Lloh326:
	adrp	x8, _zSuffix@PAGE+8
Lloh327:
	ldr	x20, [x8, _zSuffix@PAGEOFF+8]
Ltmp424:
	;DEBUG_VALUE: hasSuffix:suffix <- $x20
	;DEBUG_VALUE: hasSuffix:ns <- $w21
	.loc	1 1121 15 is_stmt 1             ; bzip2.c:1121:15
	mov	x0, x20
	bl	_strlen
Ltmp425:
	;DEBUG_VALUE: hasSuffix:nx <- $w0
	.loc	1 1122 8                        ; bzip2.c:1122:8
	cmp	w21, w0
Ltmp426:
	;DEBUG_VALUE: hasSuffix:s <- undef
	b.lt	LBB6_20
Ltmp427:
; %bb.19:                               ; %hasSuffix.exit.1
	;DEBUG_VALUE: compress:i <- 1
	;DEBUG_VALUE: hasSuffix:nx <- $w0
	;DEBUG_VALUE: hasSuffix:ns <- $w21
	;DEBUG_VALUE: hasSuffix:suffix <- $x20
	.loc	1 1123 22                       ; bzip2.c:1123:22
	sub	x0, x22, w0, sxtw
Ltmp428:
	.loc	1 1123 8 is_stmt 0              ; bzip2.c:1123:8
	mov	x1, x20
	bl	_strcmp
Ltmp429:
	.loc	1 1183 11 is_stmt 1             ; bzip2.c:1183:11
	cbz	w0, LBB6_27
Ltmp430:
LBB6_20:                                ; %hasSuffix.exit.thread.1
	;DEBUG_VALUE: compress:i <- 1
	;DEBUG_VALUE: hasSuffix:ns <- $w21
	;DEBUG_VALUE: hasSuffix:suffix <- $x20
	;DEBUG_VALUE: compress:i <- 2
	.loc	1 1183 29 is_stmt 0             ; bzip2.c:1183:29
Lloh328:
	adrp	x8, _zSuffix@PAGE+16
Lloh329:
	ldr	x20, [x8, _zSuffix@PAGEOFF+16]
Ltmp431:
	;DEBUG_VALUE: hasSuffix:suffix <- $x20
	;DEBUG_VALUE: hasSuffix:ns <- $w21
	.loc	1 1121 15 is_stmt 1             ; bzip2.c:1121:15
	mov	x0, x20
	bl	_strlen
Ltmp432:
	;DEBUG_VALUE: hasSuffix:nx <- $w0
	.loc	1 1122 8                        ; bzip2.c:1122:8
	cmp	w21, w0
Ltmp433:
	;DEBUG_VALUE: hasSuffix:s <- undef
	b.lt	LBB6_22
Ltmp434:
; %bb.21:                               ; %hasSuffix.exit.2
	;DEBUG_VALUE: compress:i <- 2
	;DEBUG_VALUE: hasSuffix:nx <- $w0
	;DEBUG_VALUE: hasSuffix:ns <- $w21
	;DEBUG_VALUE: hasSuffix:suffix <- $x20
	.loc	1 1123 22                       ; bzip2.c:1123:22
	sub	x0, x22, w0, sxtw
Ltmp435:
	.loc	1 1123 8 is_stmt 0              ; bzip2.c:1123:8
	mov	x1, x20
	bl	_strcmp
Ltmp436:
	.loc	1 1183 11 is_stmt 1             ; bzip2.c:1183:11
	cbz	w0, LBB6_27
Ltmp437:
LBB6_22:                                ; %hasSuffix.exit.thread.2
	;DEBUG_VALUE: compress:i <- 2
	;DEBUG_VALUE: hasSuffix:ns <- $w21
	;DEBUG_VALUE: hasSuffix:suffix <- $x20
	;DEBUG_VALUE: compress:i <- 3
	.loc	1 1183 29 is_stmt 0             ; bzip2.c:1183:29
Lloh330:
	adrp	x8, _zSuffix@PAGE+24
Lloh331:
	ldr	x20, [x8, _zSuffix@PAGEOFF+24]
Ltmp438:
	;DEBUG_VALUE: hasSuffix:suffix <- $x20
	;DEBUG_VALUE: hasSuffix:ns <- $w21
	.loc	1 1121 15 is_stmt 1             ; bzip2.c:1121:15
	mov	x0, x20
	bl	_strlen
Ltmp439:
	;DEBUG_VALUE: hasSuffix:nx <- $w0
	.loc	1 1122 8                        ; bzip2.c:1122:8
	cmp	w21, w0
Ltmp440:
	;DEBUG_VALUE: hasSuffix:s <- undef
	b.lt	LBB6_24
Ltmp441:
; %bb.23:                               ; %hasSuffix.exit.3
	;DEBUG_VALUE: compress:i <- 3
	;DEBUG_VALUE: hasSuffix:nx <- $w0
	;DEBUG_VALUE: hasSuffix:ns <- $w21
	;DEBUG_VALUE: hasSuffix:suffix <- $x20
	.loc	1 1123 22                       ; bzip2.c:1123:22
	sub	x0, x22, w0, sxtw
Ltmp442:
	.loc	1 1123 8 is_stmt 0              ; bzip2.c:1123:8
	mov	x1, x20
	bl	_strcmp
Ltmp443:
	.loc	1 1183 11 is_stmt 1             ; bzip2.c:1183:11
	cbz	w0, LBB6_27
Ltmp444:
LBB6_24:                                ; %hasSuffix.exit.thread.3
	;DEBUG_VALUE: compress:i <- 3
	;DEBUG_VALUE: compress:i <- 4
	.loc	1 1192 9                        ; bzip2.c:1192:9
	ldr	w8, [x26]
	.loc	1 1192 22 is_stmt 0             ; bzip2.c:1192:22
	and	w9, w8, #0xfffffffe
	cmp	w9, #2
	b.ne	LBB6_32
Ltmp445:
; %bb.25:
	;DEBUG_VALUE: compress:i <- 4
	.loc	1 1193 7 is_stmt 1              ; bzip2.c:1193:7
Lloh332:
	adrp	x20, _inName@GOTPAGE
Lloh333:
	ldr	x20, [x20, _inName@GOTPAGEOFF]
	add	x1, sp, #48
	mov	x0, x20
	bl	_stat
Ltmp446:
	.loc	1 1194 23                       ; bzip2.c:1194:23
	ldrh	w8, [sp, #52]
	.loc	1 1194 32 is_stmt 0             ; bzip2.c:1194:32
	and	w8, w8, #0xf000
Ltmp447:
	.loc	1 1194 12                       ; bzip2.c:1194:12
	cmp	w8, #4, lsl #12                 ; =16384
	b.ne	LBB6_31
Ltmp448:
; %bb.26:
	;DEBUG_VALUE: compress:i <- 4
	.loc	1 1195 19 is_stmt 1             ; bzip2.c:1195:19
Lloh334:
	adrp	x8, ___stderrp@GOTPAGE
Lloh335:
	ldr	x8, [x8, ___stderrp@GOTPAGEOFF]
Lloh336:
	ldr	x0, [x8]
	.loc	1 1197 19                       ; bzip2.c:1197:19
Lloh337:
	adrp	x8, _progName@GOTPAGE
Lloh338:
	ldr	x8, [x8, _progName@GOTPAGEOFF]
Lloh339:
	ldr	x8, [x8]
	.loc	1 1195 10                       ; bzip2.c:1195:10
	stp	x8, x20, [sp]
Lloh340:
	adrp	x1, l_.str.61@PAGE
Lloh341:
	add	x1, x1, l_.str.61@PAGEOFF
	b	LBB6_63
Ltmp449:
LBB6_27:
	.loc	1 1184 14                       ; bzip2.c:1184:14
Lloh342:
	adrp	x8, _noisy@GOTPAGE
Lloh343:
	ldr	x8, [x8, _noisy@GOTPAGEOFF]
	ldrb	w8, [x8]
Ltmp450:
	.loc	1 1184 14 is_stmt 0             ; bzip2.c:1184:14
	cbz	w8, LBB6_64
; %bb.28:
Ltmp451:
	.loc	1 1185 20 is_stmt 1             ; bzip2.c:1185:20
Lloh344:
	adrp	x8, ___stderrp@GOTPAGE
Lloh345:
	ldr	x8, [x8, ___stderrp@GOTPAGEOFF]
Lloh346:
	ldr	x0, [x8]
	.loc	1 1187 20                       ; bzip2.c:1187:20
Lloh347:
	adrp	x8, _progName@GOTPAGE
Lloh348:
	ldr	x8, [x8, _progName@GOTPAGEOFF]
Lloh349:
	ldr	x8, [x8]
	.loc	1 1185 10                       ; bzip2.c:1185:10
	stp	x19, x20, [sp, #8]
	str	x8, [sp]
Lloh350:
	adrp	x1, l_.str.60@PAGE
Lloh351:
	add	x1, x1, l_.str.60@PAGEOFF
	b	LBB6_63
Ltmp452:
LBB6_29:
	;DEBUG_VALUE: compress:name <- [DW_OP_LLVM_entry_value 1] $x0
	.loc	1 1177 17                       ; bzip2.c:1177:17
Lloh352:
	adrp	x8, ___stderrp@GOTPAGE
Lloh353:
	ldr	x8, [x8, ___stderrp@GOTPAGEOFF]
Lloh354:
	ldr	x19, [x8]
	.loc	1 1178 17                       ; bzip2.c:1178:17
Lloh355:
	adrp	x8, _progName@GOTPAGE
Lloh356:
	ldr	x8, [x8, _progName@GOTPAGEOFF]
Lloh357:
	ldr	x21, [x8]
	.loc	1 1178 46 is_stmt 0             ; bzip2.c:1178:46
	bl	___error
Ltmp453:
	.loc	1 1178 45                       ; bzip2.c:1178:45
	ldr	w0, [x0]
	.loc	1 1178 35                       ; bzip2.c:1178:35
	bl	_strerror
Ltmp454:
	.loc	1 1177 7 is_stmt 1              ; bzip2.c:1177:7
	stp	x20, x0, [sp, #8]
	str	x21, [sp]
Ltmp455:
LBB6_30:
	.loc	1 0 0 is_stmt 0                 ; bzip2.c:0:0
Lloh358:
	adrp	x1, l_.str.59@PAGE
Lloh359:
	add	x1, x1, l_.str.59@PAGEOFF
	mov	x0, x19
	b	LBB6_63
LBB6_31:                                ; %._crit_edge
Ltmp456:
	;DEBUG_VALUE: compress:i <- 4
	.loc	1 1202 9 is_stmt 1              ; bzip2.c:1202:9
	ldr	w8, [x26]
Ltmp457:
LBB6_32:
	;DEBUG_VALUE: compress:i <- 4
	.loc	1 0 9 is_stmt 0                 ; bzip2.c:0:9
Lloh360:
	adrp	x21, _forceOverwrite@GOTPAGE
Lloh361:
	ldr	x21, [x21, _forceOverwrite@GOTPAGEOFF]
	.loc	1 1202 22                       ; bzip2.c:1202:22
	cmp	w8, #3
	b.ne	LBB6_37
Ltmp458:
; %bb.33:
	;DEBUG_VALUE: compress:i <- 4
	.loc	1 0 22                          ; bzip2.c:0:22
	ldrb	w9, [x21]
	.loc	1 1202 22                       ; bzip2.c:1202:22
	cbnz	w9, LBB6_37
Ltmp459:
; %bb.34:
	;DEBUG_VALUE: compress:i <- 4
	.loc	1 994 8 is_stmt 1               ; bzip2.c:994:8
Lloh362:
	adrp	x20, _inName@GOTPAGE
Lloh363:
	ldr	x20, [x20, _inName@GOTPAGEOFF]
Ltmp460:
	;DEBUG_VALUE: notAStandardFile:name <- $x20
	add	x1, sp, #296
	mov	x0, x20
	bl	_lstat
Ltmp461:
	;DEBUG_VALUE: notAStandardFile:i <- $w0
	.loc	1 1202 9                        ; bzip2.c:1202:9
	cbnz	w0, LBB6_45
Ltmp462:
; %bb.35:
	;DEBUG_VALUE: compress:i <- 4
	.loc	1 0 0 is_stmt 0                 ; bzip2.c:0:0
	ldrh	w8, [sp, #300]
	and	w8, w8, #0xf000
	.loc	1 1202 9                        ; bzip2.c:1202:9
	cmp	w8, #8, lsl #12                 ; =32768
	b.ne	LBB6_45
Ltmp463:
; %bb.36:                               ; %thread-pre-split84
	;DEBUG_VALUE: compress:i <- 4
	.loc	1 1209 9 is_stmt 1              ; bzip2.c:1209:9
	ldr	w8, [x26]
Ltmp464:
LBB6_37:
	;DEBUG_VALUE: compress:i <- 4
	.loc	1 1209 22 is_stmt 0             ; bzip2.c:1209:22
	cmp	w8, #3
	b.ne	LBB6_41
Ltmp465:
; %bb.38:
	;DEBUG_VALUE: compress:i <- 4
	.loc	1 950 16 is_stmt 1              ; bzip2.c:950:16
Lloh364:
	adrp	x20, _outName@GOTPAGE
Lloh365:
	ldr	x20, [x20, _outName@GOTPAGEOFF]
Ltmp466:
	;DEBUG_VALUE: fileExists:name <- $x20
Lloh366:
	adrp	x1, l_.str.68@PAGE
Lloh367:
	add	x1, x1, l_.str.68@PAGEOFF
	mov	x0, x20
	bl	_fopen
Ltmp467:
	;DEBUG_VALUE: fileExists:exists <- [DW_OP_LLVM_convert 1 7, DW_OP_LLVM_convert 32 7, DW_OP_LLVM_convert 32 7, DW_OP_LLVM_convert 8 7, DW_OP_stack_value] undef
	;DEBUG_VALUE: fileExists:tmp <- $x0
	.loc	1 952 8                         ; bzip2.c:952:8
	cbz	x0, LBB6_41
Ltmp468:
; %bb.39:
	;DEBUG_VALUE: fileExists:tmp <- $x0
	;DEBUG_VALUE: fileExists:name <- $x20
	;DEBUG_VALUE: compress:i <- 4
	.loc	1 952 28 is_stmt 0              ; bzip2.c:952:28
	bl	_fclose
Ltmp469:
	.loc	1 1210 11 is_stmt 1             ; bzip2.c:1210:11
	ldrb	w8, [x21]
Ltmp470:
	;DEBUG_VALUE: fileExists:exists <- [DW_OP_LLVM_convert 1 7, DW_OP_LLVM_convert 8 7, DW_OP_stack_value] undef
	.loc	1 1210 11 is_stmt 0             ; bzip2.c:1210:11
	cbz	w8, LBB6_62
Ltmp471:
; %bb.40:
	;DEBUG_VALUE: compress:i <- 4
	.loc	1 1211 3 is_stmt 1              ; bzip2.c:1211:3
Lloh368:
	adrp	x0, _outName@GOTPAGE
Lloh369:
	ldr	x0, [x0, _outName@GOTPAGEOFF]
	bl	_remove
Ltmp472:
LBB6_41:                                ; %fileExists.exit65.thread
	;DEBUG_VALUE: compress:i <- 4
	.loc	1 1219 9                        ; bzip2.c:1219:9
	ldr	w8, [x26]
	.loc	1 1219 22 is_stmt 0             ; bzip2.c:1219:22
	cmp	w8, #3
	b.ne	LBB6_48
Ltmp473:
; %bb.42:                               ; %fileExists.exit65.thread
	;DEBUG_VALUE: compress:i <- 4
	.loc	1 0 22                          ; bzip2.c:0:22
	ldrb	w9, [x21]
	.loc	1 1219 22                       ; bzip2.c:1219:22
	cbnz	w9, LBB6_48
Ltmp474:
; %bb.43:
	;DEBUG_VALUE: compress:i <- 4
	.loc	1 1011 8 is_stmt 1              ; bzip2.c:1011:8
Lloh370:
	adrp	x20, _inName@GOTPAGE
Lloh371:
	ldr	x20, [x20, _inName@GOTPAGEOFF]
Ltmp475:
	;DEBUG_VALUE: countHardLinks:name <- $x20
	add	x1, sp, #296
	mov	x0, x20
	bl	_lstat
Ltmp476:
	;DEBUG_VALUE: countHardLinks:i <- $w0
	.loc	1 1012 8                        ; bzip2.c:1012:8
	ldrh	w8, [sp, #302]
	sub	w8, w8, #1
	cmp	w0, #0
	csel	w8, w8, wzr, eq
Ltmp477:
	;DEBUG_VALUE: compress:n <- $w8
	.loc	1 1219 9                        ; bzip2.c:1219:9
	cmp	w8, #1
	b.lt	LBB6_47
Ltmp478:
; %bb.44:
	;DEBUG_VALUE: compress:n <- $w8
	;DEBUG_VALUE: compress:i <- 4
	.loc	1 1221 17                       ; bzip2.c:1221:17
Lloh372:
	adrp	x9, ___stderrp@GOTPAGE
Lloh373:
	ldr	x9, [x9, ___stderrp@GOTPAGEOFF]
Lloh374:
	ldr	x0, [x9]
	.loc	1 1222 17                       ; bzip2.c:1222:17
Lloh375:
	adrp	x9, _progName@GOTPAGE
Lloh376:
	ldr	x9, [x9, _progName@GOTPAGEOFF]
Lloh377:
	ldr	x9, [x9]
	.loc	1 1222 38 is_stmt 0             ; bzip2.c:1222:38
Lloh378:
	adrp	x10, l_.str.65@PAGE
Lloh379:
	add	x10, x10, l_.str.65@PAGEOFF
Lloh380:
	adrp	x11, l_.str.4@PAGE
Lloh381:
	add	x11, x11, l_.str.4@PAGEOFF
	cmp	w8, #1
	csel	x10, x11, x10, eq
	.loc	1 1221 7 is_stmt 1              ; bzip2.c:1221:7
	stp	x8, x10, [sp, #16]
	stp	x9, x20, [sp]
Lloh382:
	adrp	x1, l_.str.64@PAGE
Lloh383:
	add	x1, x1, l_.str.64@PAGEOFF
	b	LBB6_63
Ltmp479:
LBB6_45:
	;DEBUG_VALUE: compress:i <- 4
	.loc	1 1203 11                       ; bzip2.c:1203:11
Lloh384:
	adrp	x8, _noisy@GOTPAGE
Lloh385:
	ldr	x8, [x8, _noisy@GOTPAGEOFF]
	ldrb	w8, [x8]
Ltmp480:
	.loc	1 1203 11 is_stmt 0             ; bzip2.c:1203:11
	cbz	w8, LBB6_64
Ltmp481:
; %bb.46:
	;DEBUG_VALUE: compress:i <- 4
	.loc	1 1204 17 is_stmt 1             ; bzip2.c:1204:17
Lloh386:
	adrp	x8, ___stderrp@GOTPAGE
Lloh387:
	ldr	x8, [x8, ___stderrp@GOTPAGEOFF]
Lloh388:
	ldr	x0, [x8]
	.loc	1 1205 17                       ; bzip2.c:1205:17
Lloh389:
	adrp	x8, _progName@GOTPAGE
Lloh390:
	ldr	x8, [x8, _progName@GOTPAGEOFF]
Lloh391:
	ldr	x8, [x8]
	.loc	1 1204 7                        ; bzip2.c:1204:7
	stp	x8, x20, [sp]
Lloh392:
	adrp	x1, l_.str.62@PAGE
Lloh393:
	add	x1, x1, l_.str.62@PAGEOFF
	b	LBB6_63
Ltmp482:
LBB6_47:                                ; %thread-pre-split87
	;DEBUG_VALUE: compress:n <- $w8
	;DEBUG_VALUE: compress:i <- 4
	.loc	1 1227 9                        ; bzip2.c:1227:9
	ldr	w8, [x26]
Ltmp483:
LBB6_48:
	;DEBUG_VALUE: compress:i <- 4
	.loc	1 1227 9 is_stmt 0              ; bzip2.c:1227:9
	cmp	w8, #3
	b.ne	LBB6_51
Ltmp484:
; %bb.49:
	;DEBUG_VALUE: compress:i <- 4
	.loc	1 1051 13 is_stmt 1             ; bzip2.c:1051:13
Lloh394:
	adrp	x0, _inName@GOTPAGE
Lloh395:
	ldr	x0, [x0, _inName@GOTPAGEOFF]
Ltmp485:
	;DEBUG_VALUE: saveInputFileMetaInfo:srcName <- $x0
Lloh396:
	adrp	x1, _fileMetaInfo@PAGE
Lloh397:
	add	x1, x1, _fileMetaInfo@PAGEOFF
	bl	_stat
Ltmp486:
	;DEBUG_VALUE: saveInputFileMetaInfo:retVal <- $w0
	.loc	1 1052 10                       ; bzip2.c:1052:10
	cbnz	w0, LBB6_111
Ltmp487:
; %bb.50:                               ; %.saveInputFileMetaInfo.exit_crit_edge
	;DEBUG_VALUE: compress:i <- 4
	.loc	1 1233 13                       ; bzip2.c:1233:13
	ldr	w8, [x26]
Ltmp488:
LBB6_51:                                ; %saveInputFileMetaInfo.exit
	;DEBUG_VALUE: compress:i <- 4
	.loc	1 1233 4 is_stmt 0              ; bzip2.c:1233:4
	cmp	w8, #3
	b.eq	LBB6_56
Ltmp489:
; %bb.52:                               ; %saveInputFileMetaInfo.exit
	;DEBUG_VALUE: compress:i <- 4
	cmp	w8, #2
	b.eq	LBB6_60
Ltmp490:
; %bb.53:                               ; %saveInputFileMetaInfo.exit
	;DEBUG_VALUE: compress:i <- 4
	cmp	w8, #1
	b.ne	LBB6_119
Ltmp491:
; %bb.54:
	;DEBUG_VALUE: compress:i <- 4
	.loc	1 1236 18 is_stmt 1             ; bzip2.c:1236:18
Lloh398:
	adrp	x8, ___stdinp@GOTPAGE
Lloh399:
	ldr	x8, [x8, ___stdinp@GOTPAGEOFF]
Lloh400:
	ldr	x20, [x8]
Ltmp492:
	;DEBUG_VALUE: compress:inStr <- $x20
	.loc	1 1237 19                       ; bzip2.c:1237:19
Lloh401:
	adrp	x8, ___stdoutp@GOTPAGE
Lloh402:
	ldr	x8, [x8, ___stdoutp@GOTPAGEOFF]
Lloh403:
	ldr	x21, [x8]
Ltmp493:
	;DEBUG_VALUE: compress:outStr <- $x21
	.loc	1 1238 24                       ; bzip2.c:1238:24
	mov	x0, x21
	bl	_fileno
Ltmp494:
	.loc	1 1238 15 is_stmt 0             ; bzip2.c:1238:15
	bl	_isatty
Ltmp495:
	.loc	1 1238 15                       ; bzip2.c:1238:15
	cbz	w0, LBB6_69
Ltmp496:
; %bb.55:
	;DEBUG_VALUE: compress:outStr <- $x21
	;DEBUG_VALUE: compress:inStr <- $x20
	;DEBUG_VALUE: compress:i <- 4
	.loc	1 1239 23 is_stmt 1             ; bzip2.c:1239:23
Lloh404:
	adrp	x19, ___stderrp@GOTPAGE
Lloh405:
	ldr	x19, [x19, ___stderrp@GOTPAGEOFF]
	ldr	x0, [x19]
	.loc	1 1241 23                       ; bzip2.c:1241:23
Lloh406:
	adrp	x20, _progName@GOTPAGE
Ltmp497:
Lloh407:
	ldr	x20, [x20, _progName@GOTPAGEOFF]
	ldr	x8, [x20]
	.loc	1 1239 13                       ; bzip2.c:1239:13
	str	x8, [sp]
Lloh408:
	adrp	x1, l_.str.66@PAGE
Lloh409:
	add	x1, x1, l_.str.66@PAGEOFF
	bl	_fprintf
Ltmp498:
	.loc	1 1242 23                       ; bzip2.c:1242:23
	ldr	x0, [x19]
	.loc	1 1243 31                       ; bzip2.c:1243:31
	ldr	x8, [x20]
	.loc	1 1242 13                       ; bzip2.c:1242:13
	stp	x8, x8, [sp]
Lloh410:
	adrp	x1, l_.str.67@PAGE
Lloh411:
	add	x1, x1, l_.str.67@PAGEOFF
	b	LBB6_63
Ltmp499:
LBB6_56:
	;DEBUG_VALUE: compress:i <- 4
	.loc	1 1271 18                       ; bzip2.c:1271:18
Lloh412:
	adrp	x22, _inName@GOTPAGE
Lloh413:
	ldr	x22, [x22, _inName@GOTPAGEOFF]
Lloh414:
	adrp	x1, l_.str.68@PAGE
Lloh415:
	add	x1, x1, l_.str.68@PAGEOFF
	mov	x0, x22
	bl	_fopen
Ltmp500:
	mov	x20, x0
Ltmp501:
	;DEBUG_VALUE: compress:inStr <- $x20
	.loc	1 0 18 is_stmt 0                ; bzip2.c:0:18
	mov	w8, #384
Ltmp502:
	.loc	1 973 9 is_stmt 1               ; bzip2.c:973:9
	str	x8, [sp]
Lloh416:
	adrp	x23, _outName@GOTPAGE
Lloh417:
	ldr	x23, [x23, _outName@GOTPAGEOFF]
Ltmp503:
	;DEBUG_VALUE: fopen_output_safely:name <- $x23
	mov	x0, x23
	mov	w1, #2561
	bl	_open
Ltmp504:
	;DEBUG_VALUE: fopen_output_safely:fh <- $w0
	.loc	1 974 8                         ; bzip2.c:974:8
	cmn	w0, #1
Ltmp505:
	;DEBUG_VALUE: fopen_output_safely:mode <- undef
	b.eq	LBB6_103
Ltmp506:
; %bb.57:
	;DEBUG_VALUE: fopen_output_safely:fh <- $w0
	;DEBUG_VALUE: fopen_output_safely:name <- $x23
	;DEBUG_VALUE: compress:inStr <- $x20
	;DEBUG_VALUE: compress:i <- 4
	.loc	1 0 0 is_stmt 0                 ; bzip2.c:0:0
	mov	x24, x0
Ltmp507:
	;DEBUG_VALUE: fopen_output_safely:fh <- $w24
	.loc	1 975 9 is_stmt 1               ; bzip2.c:975:9
Lloh418:
	adrp	x1, l_.str.69@PAGE
Lloh419:
	add	x1, x1, l_.str.69@PAGEOFF
	bl	_fdopen
Ltmp508:
	;DEBUG_VALUE: fopen_output_safely:fp <- $x0
	;DEBUG_VALUE: compress:outStr <- $x0
	.loc	1 976 8                         ; bzip2.c:976:8
	cbz	x0, LBB6_102
Ltmp509:
; %bb.58:                               ; %fopen_output_safely.exit
	;DEBUG_VALUE: compress:outStr <- $x0
	;DEBUG_VALUE: compress:inStr <- $x20
	;DEBUG_VALUE: compress:i <- 4
	.loc	1 0 0 is_stmt 0                 ; bzip2.c:0:0
	mov	x21, x0
Ltmp510:
	;DEBUG_VALUE: compress:outStr <- $x21
	;DEBUG_VALUE: fopen_output_safely:fp <- $x21
	;DEBUG_VALUE: compress:outStr <- $x21
	.loc	1 1280 15 is_stmt 1             ; bzip2.c:1280:15
	cbnz	x20, LBB6_69
Ltmp511:
; %bb.59:
	;DEBUG_VALUE: compress:outStr <- $x21
	;DEBUG_VALUE: compress:inStr <- $x20
	;DEBUG_VALUE: compress:i <- 4
	.loc	1 1281 23                       ; bzip2.c:1281:23
Lloh420:
	adrp	x8, ___stderrp@GOTPAGE
Lloh421:
	ldr	x8, [x8, ___stderrp@GOTPAGEOFF]
Lloh422:
	ldr	x19, [x8]
	.loc	1 1282 23                       ; bzip2.c:1282:23
Lloh423:
	adrp	x8, _progName@GOTPAGE
Lloh424:
	ldr	x8, [x8, _progName@GOTPAGEOFF]
Lloh425:
	ldr	x20, [x8]
Ltmp512:
	.loc	1 1282 52 is_stmt 0             ; bzip2.c:1282:52
	bl	___error
Ltmp513:
	.loc	1 1282 51                       ; bzip2.c:1282:51
	ldr	w0, [x0]
	.loc	1 1282 41                       ; bzip2.c:1282:41
	bl	_strerror
Ltmp514:
	.loc	1 1281 13 is_stmt 1             ; bzip2.c:1281:13
	stp	x22, x0, [sp, #8]
	str	x20, [sp]
Lloh426:
	adrp	x1, l_.str.59@PAGE
Lloh427:
	add	x1, x1, l_.str.59@PAGEOFF
	mov	x0, x19
	bl	_fprintf
Ltmp515:
	.loc	1 1283 42                       ; bzip2.c:1283:42
	mov	x0, x21
	bl	_fclose
Ltmp516:
	;DEBUG_VALUE: setExit:v <- 1
	.loc	1 0 42 is_stmt 0                ; bzip2.c:0:42
	b	LBB6_64
Ltmp517:
LBB6_60:
	;DEBUG_VALUE: compress:i <- 4
	.loc	1 1250 18 is_stmt 1             ; bzip2.c:1250:18
Lloh428:
	adrp	x22, _inName@GOTPAGE
Lloh429:
	ldr	x22, [x22, _inName@GOTPAGEOFF]
Lloh430:
	adrp	x1, l_.str.68@PAGE
Lloh431:
	add	x1, x1, l_.str.68@PAGEOFF
	mov	x0, x22
	bl	_fopen
Ltmp518:
	mov	x20, x0
Ltmp519:
	;DEBUG_VALUE: compress:inStr <- $x20
	.loc	1 1251 19                       ; bzip2.c:1251:19
Lloh432:
	adrp	x8, ___stdoutp@GOTPAGE
Lloh433:
	ldr	x8, [x8, ___stdoutp@GOTPAGEOFF]
Lloh434:
	ldr	x21, [x8]
Ltmp520:
	;DEBUG_VALUE: compress:outStr <- $x21
	.loc	1 1252 24                       ; bzip2.c:1252:24
	mov	x0, x21
	bl	_fileno
Ltmp521:
	.loc	1 1252 15 is_stmt 0             ; bzip2.c:1252:15
	bl	_isatty
Ltmp522:
	.loc	1 1252 15                       ; bzip2.c:1252:15
	cbz	w0, LBB6_68
Ltmp523:
; %bb.61:
	;DEBUG_VALUE: compress:outStr <- $x21
	;DEBUG_VALUE: compress:inStr <- $x20
	;DEBUG_VALUE: compress:i <- 4
	.loc	1 1253 23 is_stmt 1             ; bzip2.c:1253:23
Lloh435:
	adrp	x19, ___stderrp@GOTPAGE
Lloh436:
	ldr	x19, [x19, ___stderrp@GOTPAGEOFF]
	ldr	x0, [x19]
	.loc	1 1255 23                       ; bzip2.c:1255:23
Lloh437:
	adrp	x21, _progName@GOTPAGE
Ltmp524:
Lloh438:
	ldr	x21, [x21, _progName@GOTPAGEOFF]
	ldr	x8, [x21]
	.loc	1 1253 13                       ; bzip2.c:1253:13
	str	x8, [sp]
Lloh439:
	adrp	x1, l_.str.66@PAGE
Lloh440:
	add	x1, x1, l_.str.66@PAGEOFF
	bl	_fprintf
Ltmp525:
	.loc	1 1256 23                       ; bzip2.c:1256:23
	ldr	x0, [x19]
	.loc	1 1257 31                       ; bzip2.c:1257:31
	ldr	x8, [x21]
	.loc	1 1256 13                       ; bzip2.c:1256:13
	stp	x8, x8, [sp]
Lloh441:
	adrp	x1, l_.str.67@PAGE
Lloh442:
	add	x1, x1, l_.str.67@PAGEOFF
	b	LBB6_104
Ltmp526:
LBB6_62:
	;DEBUG_VALUE: compress:i <- 4
	.loc	1 1213 13                       ; bzip2.c:1213:13
Lloh443:
	adrp	x8, ___stderrp@GOTPAGE
Lloh444:
	ldr	x8, [x8, ___stderrp@GOTPAGEOFF]
Lloh445:
	ldr	x0, [x8]
	.loc	1 1214 6                        ; bzip2.c:1214:6
Lloh446:
	adrp	x8, _progName@GOTPAGE
Lloh447:
	ldr	x8, [x8, _progName@GOTPAGEOFF]
Lloh448:
	ldr	x8, [x8]
	.loc	1 1213 3                        ; bzip2.c:1213:3
	stp	x8, x20, [sp]
Lloh449:
	adrp	x1, l_.str.63@PAGE
Lloh450:
	add	x1, x1, l_.str.63@PAGEOFF
Ltmp527:
LBB6_63:
	.loc	1 0 0 is_stmt 0                 ; bzip2.c:0:0
	bl	_fprintf
Ltmp528:
	;DEBUG_VALUE: setExit:v <- 1
LBB6_64:
Lloh451:
	adrp	x8, _exitValue@GOTPAGE
Lloh452:
	ldr	x8, [x8, _exitValue@GOTPAGEOFF]
	ldr	w9, [x8]
	cmp	w9, #0
	;DEBUG_VALUE: fileExists:exists <- [DW_OP_LLVM_convert 1 7, DW_OP_LLVM_convert 8 7, DW_OP_stack_value] undef
	b.gt	LBB6_66
; %bb.65:
	mov	w9, #1
	str	w9, [x8]
LBB6_66:                                ; %setExit.exit
	ldur	x8, [x29, #-112]
Lloh453:
	adrp	x9, ___stack_chk_guard@GOTPAGE
Lloh454:
	ldr	x9, [x9, ___stack_chk_guard@GOTPAGEOFF]
Lloh455:
	ldr	x9, [x9]
	cmp	x9, x8
	b.ne	LBB6_113
; %bb.67:                               ; %setExit.exit
	.loc	1 1317 1 is_stmt 1              ; bzip2.c:1317:1
	add	sp, sp, #1, lsl #12             ; =4096
	add	sp, sp, #1216
	ldp	x29, x30, [sp, #96]             ; 16-byte Folded Reload
	ldp	x20, x19, [sp, #80]             ; 16-byte Folded Reload
	ldp	x22, x21, [sp, #64]             ; 16-byte Folded Reload
	ldp	x24, x23, [sp, #48]             ; 16-byte Folded Reload
	ldp	x26, x25, [sp, #32]             ; 16-byte Folded Reload
	ldp	x28, x27, [sp, #16]             ; 16-byte Folded Reload
	ldp	d9, d8, [sp], #112              ; 16-byte Folded Reload
	ret
LBB6_68:
Ltmp529:
	;DEBUG_VALUE: compress:outStr <- $x21
	;DEBUG_VALUE: compress:inStr <- $x20
	;DEBUG_VALUE: compress:i <- 4
	.loc	1 1262 15                       ; bzip2.c:1262:15
	cbz	x20, LBB6_106
Ltmp530:
LBB6_69:
	;DEBUG_VALUE: compress:outStr <- $x21
	;DEBUG_VALUE: compress:inStr <- $x20
	;DEBUG_VALUE: compress:i <- 4
	;DEBUG_VALUE: compress:inStr <- $x20
	;DEBUG_VALUE: compress:outStr <- $x21
	.loc	1 1294 8                        ; bzip2.c:1294:8
Lloh456:
	adrp	x24, _verbosity@GOTPAGE
Lloh457:
	ldr	x24, [x24, _verbosity@GOTPAGEOFF]
	ldr	w8, [x24]
Ltmp531:
	.loc	1 1294 8 is_stmt 0              ; bzip2.c:1294:8
	cmp	w8, #1
	b.lt	LBB6_74
Ltmp532:
; %bb.70:
	;DEBUG_VALUE: compress:outStr <- $x21
	;DEBUG_VALUE: compress:inStr <- $x20
	;DEBUG_VALUE: compress:i <- 4
	.loc	1 1295 17 is_stmt 1             ; bzip2.c:1295:17
Lloh458:
	adrp	x22, ___stderrp@GOTPAGE
Lloh459:
	ldr	x22, [x22, ___stderrp@GOTPAGEOFF]
	ldr	x0, [x22]
	.loc	1 1295 7 is_stmt 0              ; bzip2.c:1295:7
	str	x19, [sp]
Lloh460:
	adrp	x1, l_.str.72@PAGE
Lloh461:
	add	x1, x1, l_.str.72@PAGEOFF
	bl	_fprintf
Ltmp533:
	;DEBUG_VALUE: pad:s <- $x19
	.loc	1 919 16 is_stmt 1              ; bzip2.c:919:16
	mov	x0, x19
	bl	_strlen
Ltmp534:
	.loc	1 919 29 is_stmt 0              ; bzip2.c:919:29
Lloh462:
	adrp	x23, _longestFileName@GOTPAGE
Lloh463:
	ldr	x23, [x23, _longestFileName@GOTPAGEOFF]
	ldr	w8, [x23]
Ltmp535:
	.loc	1 919 9                         ; bzip2.c:919:9
	cmp	w8, w0
	b.le	LBB6_73
Ltmp536:
; %bb.71:                               ; %.lr.ph.i.preheader
	;DEBUG_VALUE: pad:s <- $x19
	;DEBUG_VALUE: compress:outStr <- $x21
	;DEBUG_VALUE: compress:inStr <- $x20
	;DEBUG_VALUE: compress:i <- 4
	.loc	1 0 9                           ; bzip2.c:0:9
	mov	w27, #0
Lloh464:
	adrp	x19, _inName@GOTPAGE
Ltmp537:
Lloh465:
	ldr	x19, [x19, _inName@GOTPAGEOFF]
Ltmp538:
LBB6_72:                                ; %.lr.ph.i
                                        ; =>This Inner Loop Header: Depth=1
	;DEBUG_VALUE: compress:outStr <- $x21
	;DEBUG_VALUE: compress:inStr <- $x20
	;DEBUG_VALUE: compress:i <- 4
	;DEBUG_VALUE: pad:i <- [DW_OP_plus_uconst 1, DW_OP_stack_value] $w27
	.loc	1 921 17 is_stmt 1              ; bzip2.c:921:17
	ldr	x1, [x22]
	.loc	1 921 7 is_stmt 0               ; bzip2.c:921:7
	mov	w0, #32
	bl	_fputc
Ltmp539:
	;DEBUG_VALUE: pad:i <- [DW_OP_plus_uconst 2, DW_OP_stack_value] $w27
	.loc	1 920 21 is_stmt 1              ; bzip2.c:920:21
	ldr	w28, [x23]
	.loc	1 920 46 is_stmt 0              ; bzip2.c:920:46
	mov	x0, x19
	bl	_strlen
Ltmp540:
	.loc	1 920 18                        ; bzip2.c:920:18
	add	w27, w27, #1
Ltmp541:
	.loc	1 920 37                        ; bzip2.c:920:37
	sub	w8, w28, w0
Ltmp542:
	.loc	1 920 4                         ; bzip2.c:920:4
	cmp	w27, w8
	b.lt	LBB6_72
Ltmp543:
LBB6_73:                                ; %pad.exit
	;DEBUG_VALUE: compress:outStr <- $x21
	;DEBUG_VALUE: compress:inStr <- $x20
	;DEBUG_VALUE: compress:i <- 4
	.loc	1 1297 16 is_stmt 1             ; bzip2.c:1297:16
	ldr	x0, [x22]
	.loc	1 1297 7 is_stmt 0              ; bzip2.c:1297:7
	bl	_fflush
Ltmp544:
LBB6_74:
	;DEBUG_VALUE: compress:outStr <- $x21
	;DEBUG_VALUE: compress:inStr <- $x20
	;DEBUG_VALUE: compress:i <- 4
	.loc	1 1301 27 is_stmt 1             ; bzip2.c:1301:27
Lloh466:
	adrp	x23, _outputHandleJustInCase@GOTPAGE
Lloh467:
	ldr	x23, [x23, _outputHandleJustInCase@GOTPAGEOFF]
	str	x21, [x23]
	mov	w8, #1
	.loc	1 1302 28                       ; bzip2.c:1302:28
	strb	w8, [x25]
Ltmp545:
	;DEBUG_VALUE: compressStream:bzf <- 0
	;DEBUG_VALUE: compressStream:zStream <- $x21
	;DEBUG_VALUE: compressStream:stream <- $x20
	.loc	1 341 8                         ; bzip2.c:341:8
	mov	x0, x20
	bl	_ferror
Ltmp546:
	.loc	1 341 8 is_stmt 0               ; bzip2.c:341:8
	cbnz	w0, LBB6_111
Ltmp547:
; %bb.75:
	;DEBUG_VALUE: compressStream:stream <- $x20
	;DEBUG_VALUE: compressStream:zStream <- $x21
	;DEBUG_VALUE: compressStream:bzf <- 0
	;DEBUG_VALUE: compress:outStr <- $x21
	;DEBUG_VALUE: compress:inStr <- $x20
	;DEBUG_VALUE: compress:i <- 4
	.loc	1 342 8 is_stmt 1               ; bzip2.c:342:8
	mov	x0, x21
	bl	_ferror
Ltmp548:
	.loc	1 342 8 is_stmt 0               ; bzip2.c:342:8
	cbnz	w0, LBB6_111
Ltmp549:
; %bb.76:
	;DEBUG_VALUE: compressStream:stream <- $x20
	;DEBUG_VALUE: compressStream:zStream <- $x21
	;DEBUG_VALUE: compressStream:bzf <- 0
	;DEBUG_VALUE: compress:outStr <- $x21
	;DEBUG_VALUE: compress:inStr <- $x20
	;DEBUG_VALUE: compress:i <- 4
	.loc	1 345 28 is_stmt 1              ; bzip2.c:345:28
Lloh468:
	adrp	x8, _blockSize100k@GOTPAGE
Lloh469:
	ldr	x8, [x8, _blockSize100k@GOTPAGEOFF]
Lloh470:
	ldr	w2, [x8]
	.loc	1 345 43 is_stmt 0              ; bzip2.c:345:43
	ldr	w3, [x24]
	.loc	1 345 54                        ; bzip2.c:345:54
Lloh471:
	adrp	x8, _workFactor@GOTPAGE
Lloh472:
	ldr	x8, [x8, _workFactor@GOTPAGEOFF]
Lloh473:
	ldr	w4, [x8]
Ltmp550:
	;DEBUG_VALUE: compressStream:bzerr <- [DW_OP_plus_uconst 196, DW_OP_deref] $sp
	.loc	1 344 10 is_stmt 1              ; bzip2.c:344:10
	add	x0, sp, #196
	mov	x1, x21
	bl	_BZ2_bzWriteOpen
Ltmp551:
	mov	x19, x0
Ltmp552:
	;DEBUG_VALUE: compressStream:bzf <- $x19
	.loc	1 346 8                         ; bzip2.c:346:8
	ldr	w8, [sp, #196]
Ltmp553:
	;DEBUG_VALUE: compressStream:bzerr <- $w8
	.loc	1 346 8 is_stmt 0               ; bzip2.c:346:8
	cbnz	w8, LBB6_107
Ltmp554:
; %bb.77:
	;DEBUG_VALUE: compressStream:bzerr <- $w8
	;DEBUG_VALUE: compressStream:bzf <- $x19
	;DEBUG_VALUE: compressStream:stream <- $x20
	;DEBUG_VALUE: compressStream:zStream <- $x21
	;DEBUG_VALUE: compress:outStr <- $x21
	;DEBUG_VALUE: compress:inStr <- $x20
	;DEBUG_VALUE: compress:i <- 4
	.loc	1 348 8 is_stmt 1               ; bzip2.c:348:8
	ldr	w8, [x24]
Ltmp555:
	.loc	1 348 8 is_stmt 0               ; bzip2.c:348:8
	cmp	w8, #2
	b.lt	LBB6_80
Ltmp556:
; %bb.78:
	;DEBUG_VALUE: compressStream:bzf <- $x19
	;DEBUG_VALUE: compressStream:stream <- $x20
	;DEBUG_VALUE: compressStream:zStream <- $x21
	;DEBUG_VALUE: compress:outStr <- $x21
	;DEBUG_VALUE: compress:inStr <- $x20
	;DEBUG_VALUE: compress:i <- 4
	.loc	1 348 34                        ; bzip2.c:348:34
Lloh474:
	adrp	x8, ___stderrp@GOTPAGE
Lloh475:
	ldr	x8, [x8, ___stderrp@GOTPAGEOFF]
Lloh476:
	ldr	x1, [x8]
	.loc	1 348 24                        ; bzip2.c:348:24
	mov	w0, #10
	bl	_fputc
Ltmp557:
	.loc	1 0 24                          ; bzip2.c:0:24
	b	LBB6_80
Ltmp558:
LBB6_79:                                ;   in Loop: Header=BB6_80 Depth=1
	;DEBUG_VALUE: compressStream:nIbuf <- $w22
	;DEBUG_VALUE: compressStream:bzf <- $x19
	;DEBUG_VALUE: compressStream:stream <- $x20
	;DEBUG_VALUE: compressStream:zStream <- $x21
	;DEBUG_VALUE: compress:outStr <- $x21
	;DEBUG_VALUE: compress:inStr <- $x20
	;DEBUG_VALUE: compress:i <- 4
	.loc	1 356 11 is_stmt 1              ; bzip2.c:356:11
	ldr	w8, [sp, #196]
Ltmp559:
	;DEBUG_VALUE: compressStream:bzerr <- $w8
	.loc	1 356 11 is_stmt 0              ; bzip2.c:356:11
	cbnz	w8, LBB6_107
Ltmp560:
LBB6_80:                                ; %.preheader
                                        ; =>This Inner Loop Header: Depth=1
	;DEBUG_VALUE: compressStream:bzf <- $x19
	;DEBUG_VALUE: compressStream:stream <- $x20
	;DEBUG_VALUE: compressStream:zStream <- $x21
	;DEBUG_VALUE: compress:outStr <- $x21
	;DEBUG_VALUE: compress:inStr <- $x20
	;DEBUG_VALUE: compress:i <- 4
	;DEBUG_VALUE: myfeof:f <- $x20
	.loc	1 320 14 is_stmt 1              ; bzip2.c:320:14
	mov	x0, x20
	bl	_fgetc
Ltmp561:
	;DEBUG_VALUE: myfeof:c <- $w0
	.loc	1 321 8                         ; bzip2.c:321:8
	cmn	w0, #1
	b.eq	LBB6_84
Ltmp562:
; %bb.81:                               ;   in Loop: Header=BB6_80 Depth=1
	;DEBUG_VALUE: myfeof:c <- $w0
	;DEBUG_VALUE: myfeof:f <- $x20
	;DEBUG_VALUE: compressStream:bzf <- $x19
	;DEBUG_VALUE: compressStream:stream <- $x20
	;DEBUG_VALUE: compressStream:zStream <- $x21
	;DEBUG_VALUE: compress:outStr <- $x21
	;DEBUG_VALUE: compress:inStr <- $x20
	;DEBUG_VALUE: compress:i <- 4
	.loc	1 322 4                         ; bzip2.c:322:4
	mov	x1, x20
	bl	_ungetc
Ltmp563:
	.loc	1 353 15                        ; bzip2.c:353:15
	add	x0, sp, #296
	mov	w1, #1
	mov	w2, #5000
	mov	x3, x20
	bl	_fread
Ltmp564:
	mov	x22, x0
Ltmp565:
	;DEBUG_VALUE: compressStream:nIbuf <- undef
	.loc	1 354 11                        ; bzip2.c:354:11
	mov	x0, x20
	bl	_ferror
Ltmp566:
	.loc	1 354 11 is_stmt 0              ; bzip2.c:354:11
	cbnz	w0, LBB6_111
Ltmp567:
; %bb.82:                               ;   in Loop: Header=BB6_80 Depth=1
	;DEBUG_VALUE: compressStream:bzf <- $x19
	;DEBUG_VALUE: compressStream:stream <- $x20
	;DEBUG_VALUE: compressStream:zStream <- $x21
	;DEBUG_VALUE: compress:outStr <- $x21
	;DEBUG_VALUE: compress:inStr <- $x20
	;DEBUG_VALUE: compress:i <- 4
	;DEBUG_VALUE: compressStream:nIbuf <- $w22
	.loc	1 355 11 is_stmt 1              ; bzip2.c:355:11
	cmp	w22, #1
	b.lt	LBB6_79
Ltmp568:
; %bb.83:                               ;   in Loop: Header=BB6_80 Depth=1
	;DEBUG_VALUE: compressStream:nIbuf <- $w22
	;DEBUG_VALUE: compressStream:bzf <- $x19
	;DEBUG_VALUE: compressStream:stream <- $x20
	;DEBUG_VALUE: compressStream:zStream <- $x21
	;DEBUG_VALUE: compress:outStr <- $x21
	;DEBUG_VALUE: compress:inStr <- $x20
	;DEBUG_VALUE: compress:i <- 4
	;DEBUG_VALUE: compressStream:bzerr <- [DW_OP_plus_uconst 196, DW_OP_deref] $sp
	.loc	1 355 22 is_stmt 0              ; bzip2.c:355:22
	add	x0, sp, #196
	add	x2, sp, #296
	mov	x1, x19
	mov	x3, x22
	bl	_BZ2_bzWrite
Ltmp569:
	.loc	1 0 22                          ; bzip2.c:0:22
	b	LBB6_79
Ltmp570:
LBB6_84:                                ; %myfeof.exit.i
	;DEBUG_VALUE: compressStream:bzf <- $x19
	;DEBUG_VALUE: compressStream:stream <- $x20
	;DEBUG_VALUE: compressStream:zStream <- $x21
	;DEBUG_VALUE: compress:outStr <- $x21
	;DEBUG_VALUE: compress:inStr <- $x20
	;DEBUG_VALUE: compress:i <- 4
	;DEBUG_VALUE: compressStream:bzerr <- [DW_OP_plus_uconst 196, DW_OP_deref] $sp
	;DEBUG_VALUE: compressStream:nbytes_in_lo32 <- [DW_OP_plus_uconst 212, DW_OP_deref] $sp
	;DEBUG_VALUE: compressStream:nbytes_in_hi32 <- [DW_OP_plus_uconst 208, DW_OP_deref] $sp
	;DEBUG_VALUE: compressStream:nbytes_out_lo32 <- [DW_OP_plus_uconst 204, DW_OP_deref] $sp
	;DEBUG_VALUE: compressStream:nbytes_out_hi32 <- [DW_OP_plus_uconst 200, DW_OP_deref] $sp
	.loc	1 360 4 is_stmt 1               ; bzip2.c:360:4
	add	x0, sp, #196
	add	x3, sp, #212
	add	x4, sp, #208
	add	x5, sp, #204
	add	x6, sp, #200
	mov	x1, x19
	mov	w2, #0
	bl	_BZ2_bzWriteClose64
Ltmp571:
	.loc	1 363 8                         ; bzip2.c:363:8
	ldr	w8, [sp, #196]
Ltmp572:
	;DEBUG_VALUE: compressStream:bzerr <- $w8
	.loc	1 363 8 is_stmt 0               ; bzip2.c:363:8
	cbnz	w8, LBB6_107
Ltmp573:
; %bb.85:
	;DEBUG_VALUE: compressStream:nbytes_out_hi32 <- [DW_OP_plus_uconst 200, DW_OP_deref] $sp
	;DEBUG_VALUE: compressStream:nbytes_out_lo32 <- [DW_OP_plus_uconst 204, DW_OP_deref] $sp
	;DEBUG_VALUE: compressStream:nbytes_in_hi32 <- [DW_OP_plus_uconst 208, DW_OP_deref] $sp
	;DEBUG_VALUE: compressStream:nbytes_in_lo32 <- [DW_OP_plus_uconst 212, DW_OP_deref] $sp
	;DEBUG_VALUE: compressStream:bzerr <- $w8
	;DEBUG_VALUE: compressStream:bzf <- $x19
	;DEBUG_VALUE: compressStream:stream <- $x20
	;DEBUG_VALUE: compressStream:zStream <- $x21
	;DEBUG_VALUE: compress:outStr <- $x21
	;DEBUG_VALUE: compress:inStr <- $x20
	;DEBUG_VALUE: compress:i <- 4
	.loc	1 365 8 is_stmt 1               ; bzip2.c:365:8
	mov	x0, x21
	bl	_ferror
Ltmp574:
	.loc	1 365 8 is_stmt 0               ; bzip2.c:365:8
	cbnz	w0, LBB6_111
Ltmp575:
; %bb.86:
	;DEBUG_VALUE: compressStream:nbytes_out_hi32 <- [DW_OP_plus_uconst 200, DW_OP_deref] $sp
	;DEBUG_VALUE: compressStream:nbytes_out_lo32 <- [DW_OP_plus_uconst 204, DW_OP_deref] $sp
	;DEBUG_VALUE: compressStream:nbytes_in_hi32 <- [DW_OP_plus_uconst 208, DW_OP_deref] $sp
	;DEBUG_VALUE: compressStream:nbytes_in_lo32 <- [DW_OP_plus_uconst 212, DW_OP_deref] $sp
	;DEBUG_VALUE: compressStream:bzf <- $x19
	;DEBUG_VALUE: compressStream:stream <- $x20
	;DEBUG_VALUE: compressStream:zStream <- $x21
	;DEBUG_VALUE: compress:outStr <- $x21
	;DEBUG_VALUE: compress:inStr <- $x20
	;DEBUG_VALUE: compress:i <- 4
	.loc	1 366 10 is_stmt 1              ; bzip2.c:366:10
	mov	x0, x21
	bl	_fflush
Ltmp576:
	;DEBUG_VALUE: compressStream:ret <- $w0
	.loc	1 367 8                         ; bzip2.c:367:8
	cmn	w0, #1
	b.eq	LBB6_111
Ltmp577:
; %bb.87:
	;DEBUG_VALUE: compressStream:ret <- $w0
	;DEBUG_VALUE: compressStream:nbytes_out_hi32 <- [DW_OP_plus_uconst 200, DW_OP_deref] $sp
	;DEBUG_VALUE: compressStream:nbytes_out_lo32 <- [DW_OP_plus_uconst 204, DW_OP_deref] $sp
	;DEBUG_VALUE: compressStream:nbytes_in_hi32 <- [DW_OP_plus_uconst 208, DW_OP_deref] $sp
	;DEBUG_VALUE: compressStream:nbytes_in_lo32 <- [DW_OP_plus_uconst 212, DW_OP_deref] $sp
	;DEBUG_VALUE: compressStream:bzf <- $x19
	;DEBUG_VALUE: compressStream:stream <- $x20
	;DEBUG_VALUE: compressStream:zStream <- $x21
	;DEBUG_VALUE: compress:outStr <- $x21
	;DEBUG_VALUE: compress:inStr <- $x20
	;DEBUG_VALUE: compress:i <- 4
	.loc	1 368 19                        ; bzip2.c:368:19
Lloh477:
	adrp	x8, ___stdoutp@GOTPAGE
Lloh478:
	ldr	x8, [x8, ___stdoutp@GOTPAGEOFF]
Lloh479:
	ldr	x8, [x8]
Ltmp578:
	.loc	1 368 8 is_stmt 0               ; bzip2.c:368:8
	cmp	x8, x21
	b.eq	LBB6_91
Ltmp579:
; %bb.88:
	;DEBUG_VALUE: compressStream:ret <- $w0
	;DEBUG_VALUE: compressStream:nbytes_out_hi32 <- [DW_OP_plus_uconst 200, DW_OP_deref] $sp
	;DEBUG_VALUE: compressStream:nbytes_out_lo32 <- [DW_OP_plus_uconst 204, DW_OP_deref] $sp
	;DEBUG_VALUE: compressStream:nbytes_in_hi32 <- [DW_OP_plus_uconst 208, DW_OP_deref] $sp
	;DEBUG_VALUE: compressStream:nbytes_in_lo32 <- [DW_OP_plus_uconst 212, DW_OP_deref] $sp
	;DEBUG_VALUE: compressStream:bzf <- $x19
	;DEBUG_VALUE: compressStream:stream <- $x20
	;DEBUG_VALUE: compressStream:zStream <- $x21
	;DEBUG_VALUE: compress:outStr <- $x21
	;DEBUG_VALUE: compress:inStr <- $x20
	;DEBUG_VALUE: compress:i <- 4
	.loc	1 369 18 is_stmt 1              ; bzip2.c:369:18
	mov	x0, x21
Ltmp580:
	bl	_fileno
Ltmp581:
	;DEBUG_VALUE: fd <- $w0
	.loc	1 370 11                        ; bzip2.c:370:11
	tbnz	w0, #31, LBB6_111
Ltmp582:
; %bb.89:
	;DEBUG_VALUE: fd <- $w0
	;DEBUG_VALUE: compressStream:nbytes_out_hi32 <- [DW_OP_plus_uconst 200, DW_OP_deref] $sp
	;DEBUG_VALUE: compressStream:nbytes_out_lo32 <- [DW_OP_plus_uconst 204, DW_OP_deref] $sp
	;DEBUG_VALUE: compressStream:nbytes_in_hi32 <- [DW_OP_plus_uconst 208, DW_OP_deref] $sp
	;DEBUG_VALUE: compressStream:nbytes_in_lo32 <- [DW_OP_plus_uconst 212, DW_OP_deref] $sp
	;DEBUG_VALUE: compressStream:bzf <- $x19
	;DEBUG_VALUE: compressStream:stream <- $x20
	;DEBUG_VALUE: compressStream:zStream <- $x21
	;DEBUG_VALUE: compress:outStr <- $x21
	;DEBUG_VALUE: compress:inStr <- $x20
	;DEBUG_VALUE: compress:i <- 4
	.loc	1 0 0 is_stmt 0                 ; bzip2.c:0:0
	mov	x19, x0
Ltmp583:
	;DEBUG_VALUE: fd <- $w19
	;DEBUG_VALUE: applySavedFileAttrToOutputFile:fd <- $w19
	.loc	1 1078 39 is_stmt 1             ; bzip2.c:1078:39
	adrp	x8, _fileMetaInfo@PAGE+4
	ldrh	w1, [x8, _fileMetaInfo@PAGEOFF+4]
	.loc	1 1078 13 is_stmt 0             ; bzip2.c:1078:13
	bl	_fchmod
Ltmp584:
	;DEBUG_VALUE: applySavedFileAttrToOutputFile:retVal <- $w0
	.loc	1 1079 10 is_stmt 1             ; bzip2.c:1079:10
	cbnz	w0, LBB6_111
Ltmp585:
; %bb.90:                               ; %applySavedFileAttrToOutputFile.exit.i
	;DEBUG_VALUE: applySavedFileAttrToOutputFile:retVal <- $w0
	;DEBUG_VALUE: applySavedFileAttrToOutputFile:fd <- $w19
	;DEBUG_VALUE: fd <- $w19
	;DEBUG_VALUE: compressStream:nbytes_out_hi32 <- [DW_OP_plus_uconst 200, DW_OP_deref] $sp
	;DEBUG_VALUE: compressStream:nbytes_out_lo32 <- [DW_OP_plus_uconst 204, DW_OP_deref] $sp
	;DEBUG_VALUE: compressStream:nbytes_in_hi32 <- [DW_OP_plus_uconst 208, DW_OP_deref] $sp
	;DEBUG_VALUE: compressStream:nbytes_in_lo32 <- [DW_OP_plus_uconst 212, DW_OP_deref] $sp
	;DEBUG_VALUE: compressStream:stream <- $x20
	;DEBUG_VALUE: compressStream:zStream <- $x21
	;DEBUG_VALUE: compress:outStr <- $x21
	;DEBUG_VALUE: compress:inStr <- $x20
	;DEBUG_VALUE: compress:i <- 4
	.loc	1 1081 37                       ; bzip2.c:1081:37
Lloh480:
	adrp	x8, _fileMetaInfo@PAGE+16
Lloh481:
	add	x8, x8, _fileMetaInfo@PAGEOFF+16
	ldp	w1, w2, [x8]
	.loc	1 1081 11 is_stmt 0             ; bzip2.c:1081:11
	mov	x0, x19
Ltmp586:
	bl	_fchown
Ltmp587:
	.loc	1 372 13 is_stmt 1              ; bzip2.c:372:13
	mov	x0, x21
	bl	_fclose
Ltmp588:
	;DEBUG_VALUE: compressStream:ret <- $w0
	.loc	1 373 30                        ; bzip2.c:373:30
	str	xzr, [x23]
Ltmp589:
	.loc	1 0 0 is_stmt 0                 ; bzip2.c:0:0
	cmn	w0, #1
	b.eq	LBB6_111
Ltmp590:
LBB6_91:
	;DEBUG_VALUE: compressStream:ret <- $w0
	;DEBUG_VALUE: compressStream:nbytes_out_hi32 <- [DW_OP_plus_uconst 200, DW_OP_deref] $sp
	;DEBUG_VALUE: compressStream:nbytes_out_lo32 <- [DW_OP_plus_uconst 204, DW_OP_deref] $sp
	;DEBUG_VALUE: compressStream:nbytes_in_hi32 <- [DW_OP_plus_uconst 208, DW_OP_deref] $sp
	;DEBUG_VALUE: compressStream:nbytes_in_lo32 <- [DW_OP_plus_uconst 212, DW_OP_deref] $sp
	;DEBUG_VALUE: compressStream:stream <- $x20
	;DEBUG_VALUE: compressStream:zStream <- $x21
	;DEBUG_VALUE: compress:outStr <- $x21
	;DEBUG_VALUE: compress:inStr <- $x20
	;DEBUG_VALUE: compress:i <- 4
	.loc	1 376 27 is_stmt 1              ; bzip2.c:376:27
	str	xzr, [x23]
Ltmp591:
	.loc	1 377 8                         ; bzip2.c:377:8
	mov	x0, x20
Ltmp592:
	bl	_ferror
Ltmp593:
	.loc	1 377 8 is_stmt 0               ; bzip2.c:377:8
	cbnz	w0, LBB6_111
Ltmp594:
; %bb.92:
	;DEBUG_VALUE: compressStream:nbytes_out_hi32 <- [DW_OP_plus_uconst 200, DW_OP_deref] $sp
	;DEBUG_VALUE: compressStream:nbytes_out_lo32 <- [DW_OP_plus_uconst 204, DW_OP_deref] $sp
	;DEBUG_VALUE: compressStream:nbytes_in_hi32 <- [DW_OP_plus_uconst 208, DW_OP_deref] $sp
	;DEBUG_VALUE: compressStream:nbytes_in_lo32 <- [DW_OP_plus_uconst 212, DW_OP_deref] $sp
	;DEBUG_VALUE: compressStream:stream <- $x20
	;DEBUG_VALUE: compressStream:zStream <- $x21
	;DEBUG_VALUE: compress:outStr <- $x21
	;DEBUG_VALUE: compress:inStr <- $x20
	;DEBUG_VALUE: compress:i <- 4
	.loc	1 378 10 is_stmt 1              ; bzip2.c:378:10
	mov	x0, x20
	bl	_fclose
Ltmp595:
	;DEBUG_VALUE: compressStream:ret <- $w0
	.loc	1 379 8                         ; bzip2.c:379:8
	cmn	w0, #1
	b.eq	LBB6_111
Ltmp596:
; %bb.93:
	;DEBUG_VALUE: compressStream:ret <- $w0
	;DEBUG_VALUE: compressStream:nbytes_out_hi32 <- [DW_OP_plus_uconst 200, DW_OP_deref] $sp
	;DEBUG_VALUE: compressStream:nbytes_out_lo32 <- [DW_OP_plus_uconst 204, DW_OP_deref] $sp
	;DEBUG_VALUE: compressStream:nbytes_in_hi32 <- [DW_OP_plus_uconst 208, DW_OP_deref] $sp
	;DEBUG_VALUE: compressStream:nbytes_in_lo32 <- [DW_OP_plus_uconst 212, DW_OP_deref] $sp
	;DEBUG_VALUE: compressStream:stream <- $x20
	;DEBUG_VALUE: compressStream:zStream <- $x21
	;DEBUG_VALUE: compress:outStr <- $x21
	;DEBUG_VALUE: compress:inStr <- $x20
	;DEBUG_VALUE: compress:i <- 4
	.loc	1 381 8                         ; bzip2.c:381:8
	ldr	w8, [x24]
Ltmp597:
	.loc	1 381 8 is_stmt 0               ; bzip2.c:381:8
	cmp	w8, #1
	b.lt	LBB6_97
Ltmp598:
; %bb.94:
	;DEBUG_VALUE: compressStream:ret <- $w0
	;DEBUG_VALUE: compressStream:nbytes_out_hi32 <- [DW_OP_plus_uconst 200, DW_OP_deref] $sp
	;DEBUG_VALUE: compressStream:nbytes_out_lo32 <- [DW_OP_plus_uconst 204, DW_OP_deref] $sp
	;DEBUG_VALUE: compressStream:nbytes_in_hi32 <- [DW_OP_plus_uconst 208, DW_OP_deref] $sp
	;DEBUG_VALUE: compressStream:nbytes_in_lo32 <- [DW_OP_plus_uconst 212, DW_OP_deref] $sp
	;DEBUG_VALUE: compressStream:stream <- $x20
	;DEBUG_VALUE: compressStream:zStream <- $x21
	;DEBUG_VALUE: compress:outStr <- $x21
	;DEBUG_VALUE: compress:inStr <- $x20
	;DEBUG_VALUE: compress:i <- 4
	.loc	1 382 11 is_stmt 1              ; bzip2.c:382:11
	ldp	w9, w8, [sp, #208]
Ltmp599:
	;DEBUG_VALUE: compressStream:nbytes_in_lo32 <- $w8
	;DEBUG_VALUE: compressStream:nbytes_in_hi32 <- $w9
	.loc	1 382 26 is_stmt 0              ; bzip2.c:382:26
	orr	w10, w8, w9
	.loc	1 382 31                        ; bzip2.c:382:31
	cbnz	w10, LBB6_96
Ltmp600:
; %bb.95:
	;DEBUG_VALUE: compressStream:nbytes_in_hi32 <- $w9
	;DEBUG_VALUE: compressStream:nbytes_in_lo32 <- $w8
	;DEBUG_VALUE: compressStream:ret <- $w0
	;DEBUG_VALUE: compressStream:nbytes_out_hi32 <- [DW_OP_plus_uconst 200, DW_OP_deref] $sp
	;DEBUG_VALUE: compressStream:nbytes_out_lo32 <- [DW_OP_plus_uconst 204, DW_OP_deref] $sp
	;DEBUG_VALUE: compressStream:stream <- $x20
	;DEBUG_VALUE: compressStream:zStream <- $x21
	;DEBUG_VALUE: compress:outStr <- $x21
	;DEBUG_VALUE: compress:inStr <- $x20
	;DEBUG_VALUE: compress:i <- 4
	.loc	1 383 13 is_stmt 1              ; bzip2.c:383:13
Lloh482:
	adrp	x8, ___stderrp@GOTPAGE
Ltmp601:
Lloh483:
	ldr	x8, [x8, ___stderrp@GOTPAGEOFF]
Lloh484:
	ldr	x3, [x8]
	.loc	1 383 3 is_stmt 0               ; bzip2.c:383:3
Lloh485:
	adrp	x0, l_.str.75@PAGE
Ltmp602:
Lloh486:
	add	x0, x0, l_.str.75@PAGEOFF
	mov	w1, #21
	mov	w2, #1
	bl	_fwrite
Ltmp603:
	.loc	1 0 3                           ; bzip2.c:0:3
	b	LBB6_97
Ltmp604:
LBB6_96:
	;DEBUG_VALUE: compressStream:nbytes_in_hi32 <- $w9
	;DEBUG_VALUE: compressStream:nbytes_in_lo32 <- $w8
	;DEBUG_VALUE: compressStream:ret <- $w0
	;DEBUG_VALUE: compressStream:nbytes_out_hi32 <- [DW_OP_plus_uconst 200, DW_OP_deref] $sp
	;DEBUG_VALUE: compressStream:nbytes_out_lo32 <- [DW_OP_plus_uconst 204, DW_OP_deref] $sp
	;DEBUG_VALUE: compressStream:stream <- $x20
	;DEBUG_VALUE: compressStream:zStream <- $x21
	;DEBUG_VALUE: compress:outStr <- $x21
	;DEBUG_VALUE: compress:inStr <- $x20
	;DEBUG_VALUE: compress:i <- 4
	;DEBUG_VALUE: compressStream:nbytes_in_lo32 <- $w8
	;DEBUG_VALUE: compressStream:nbytes_in_hi32 <- $w9
	;DEBUG_VALUE: uInt64_from_UInt32s:n <- [DW_OP_plus_uconst 224, DW_OP_stack_value] $sp
	;DEBUG_VALUE: uInt64_from_UInt32s:lo32 <- $w8
	;DEBUG_VALUE: uInt64_from_UInt32s:hi32 <- $w9
	.loc	1 240 28 is_stmt 1              ; bzip2.c:240:28
	lsr	w10, w9, #24
	.loc	1 241 14                        ; bzip2.c:241:14
	ubfx	w11, w9, #16, #8
	.loc	1 242 14                        ; bzip2.c:242:14
	ubfx	w12, w9, #8, #8
	.loc	1 243 14                        ; bzip2.c:243:14
	and	w13, w9, #0xff
	.loc	1 243 12 is_stmt 0              ; bzip2.c:243:12
	str	w9, [sp, #228]
	.loc	1 244 28 is_stmt 1              ; bzip2.c:244:28
	lsr	w9, w8, #24
Ltmp605:
	.loc	1 244 12 is_stmt 0              ; bzip2.c:244:12
	strb	w9, [sp, #227]
	.loc	1 245 28 is_stmt 1              ; bzip2.c:245:28
	lsr	w14, w8, #16
	.loc	1 245 14 is_stmt 0              ; bzip2.c:245:14
	ubfx	w15, w8, #16, #8
	.loc	1 245 12                        ; bzip2.c:245:12
	strb	w14, [sp, #226]
	.loc	1 246 28 is_stmt 1              ; bzip2.c:246:28
	lsr	w14, w8, #8
	.loc	1 246 14 is_stmt 0              ; bzip2.c:246:14
	ubfx	w16, w8, #8, #8
	.loc	1 246 12                        ; bzip2.c:246:12
	strb	w14, [sp, #225]
	.loc	1 247 14 is_stmt 1              ; bzip2.c:247:14
	and	w14, w8, #0xff
	.loc	1 247 12 is_stmt 0              ; bzip2.c:247:12
	strb	w8, [sp, #224]
Ltmp606:
	.loc	1 391 11 is_stmt 1              ; bzip2.c:391:11
	ldp	w17, w8, [sp, #200]
Ltmp607:
	;DEBUG_VALUE: compressStream:nbytes_out_lo32 <- $w8
	;DEBUG_VALUE: uInt64_from_UInt32s:lo32 <- $w8
	;DEBUG_VALUE: uInt64_from_UInt32s:n <- [DW_OP_plus_uconst 216, DW_OP_stack_value] $sp
	;DEBUG_VALUE: uInt64_from_UInt32s:hi32 <- $w17
	;DEBUG_VALUE: compressStream:nbytes_out_hi32 <- $w17
	.loc	1 240 28                        ; bzip2.c:240:28
	lsr	w0, w17, #24
Ltmp608:
	.loc	1 241 14                        ; bzip2.c:241:14
	ubfx	w1, w17, #16, #8
	.loc	1 242 14                        ; bzip2.c:242:14
	ubfx	w2, w17, #8, #8
	.loc	1 243 14                        ; bzip2.c:243:14
	and	w3, w17, #0xff
	.loc	1 243 12 is_stmt 0              ; bzip2.c:243:12
	str	w17, [sp, #220]
	.loc	1 244 28 is_stmt 1              ; bzip2.c:244:28
	lsr	w17, w8, #24
Ltmp609:
	.loc	1 244 12 is_stmt 0              ; bzip2.c:244:12
	strb	w17, [sp, #219]
	.loc	1 245 28 is_stmt 1              ; bzip2.c:245:28
	lsr	w4, w8, #16
	.loc	1 245 14 is_stmt 0              ; bzip2.c:245:14
	ubfx	w5, w8, #16, #8
	.loc	1 245 12                        ; bzip2.c:245:12
	strb	w4, [sp, #218]
	.loc	1 246 28 is_stmt 1              ; bzip2.c:246:28
	lsr	w4, w8, #8
	.loc	1 246 14 is_stmt 0              ; bzip2.c:246:14
	ubfx	w6, w8, #8, #8
	.loc	1 246 12                        ; bzip2.c:246:12
	strb	w4, [sp, #217]
	.loc	1 247 14 is_stmt 1              ; bzip2.c:247:14
	and	w4, w8, #0xff
	.loc	1 247 12 is_stmt 0              ; bzip2.c:247:12
	strb	w8, [sp, #216]
Ltmp610:
	;DEBUG_VALUE: uInt64_to_double:i <- 0
	;DEBUG_VALUE: uInt64_to_double:base <- 1.000000e+00
	;DEBUG_VALUE: uInt64_to_double:sum <- 0.000000e+00
	;DEBUG_VALUE: uInt64_to_double:n <- [DW_OP_plus_uconst 224, DW_OP_stack_value] $sp
	.loc	1 258 21 is_stmt 1              ; bzip2.c:258:21
	ucvtf	d0, w14
Ltmp611:
	;DEBUG_VALUE: uInt64_to_double:i <- 1
	;DEBUG_VALUE: uInt64_to_double:base <- 2.560000e+02
	;DEBUG_VALUE: uInt64_to_double:sum <- $d0
	ucvtf	d1, w16
	mov	x8, #4643211215818981376
Ltmp612:
	.loc	1 0 21 is_stmt 0                ; bzip2.c:0:21
	fmov	d2, x8
	.loc	1 258 11                        ; bzip2.c:258:11
	fmadd	d0, d1, d2, d0
Ltmp613:
	;DEBUG_VALUE: uInt64_to_double:i <- 2
	;DEBUG_VALUE: uInt64_to_double:base <- 6.553600e+04
	;DEBUG_VALUE: uInt64_to_double:sum <- $d0
	.loc	1 258 21                        ; bzip2.c:258:21
	ucvtf	d1, w15
	mov	x8, #4679240012837945344
	fmov	d3, x8
	.loc	1 258 11                        ; bzip2.c:258:11
	fmadd	d0, d1, d3, d0
Ltmp614:
	;DEBUG_VALUE: uInt64_to_double:i <- 3
	;DEBUG_VALUE: uInt64_to_double:base <- 1.677722e+07
	;DEBUG_VALUE: uInt64_to_double:sum <- $d0
	.loc	1 258 21                        ; bzip2.c:258:21
	ucvtf	d1, w9
	mov	x8, #4715268809856909312
	fmov	d4, x8
	ucvtf	d5, w13
	.loc	1 258 11                        ; bzip2.c:258:11
	fmadd	d0, d1, d4, d0
Ltmp615:
	;DEBUG_VALUE: uInt64_to_double:i <- 4
	;DEBUG_VALUE: uInt64_to_double:base <- 4.294967e+09
	;DEBUG_VALUE: uInt64_to_double:sum <- $d0
	.loc	1 0 11                          ; bzip2.c:0:11
	mov	x8, #4751297606875873280
	fmov	d1, x8
	.loc	1 258 11                        ; bzip2.c:258:11
	fmadd	d0, d5, d1, d0
Ltmp616:
	;DEBUG_VALUE: uInt64_to_double:i <- 5
	;DEBUG_VALUE: uInt64_to_double:base <- 1.099512e+12
	;DEBUG_VALUE: uInt64_to_double:sum <- $d0
	.loc	1 258 21                        ; bzip2.c:258:21
	ucvtf	d5, w12
	mov	x8, #4787326403894837248
	fmov	d6, x8
	.loc	1 258 11                        ; bzip2.c:258:11
	fmadd	d0, d5, d6, d0
Ltmp617:
	;DEBUG_VALUE: uInt64_to_double:i <- 6
	;DEBUG_VALUE: uInt64_to_double:base <- 2.814750e+14
	;DEBUG_VALUE: uInt64_to_double:sum <- $d0
	.loc	1 258 21                        ; bzip2.c:258:21
	ucvtf	d5, w11
	mov	x8, #4823355200913801216
	fmov	d7, x8
	.loc	1 258 11                        ; bzip2.c:258:11
	fmadd	d0, d5, d7, d0
Ltmp618:
	;DEBUG_VALUE: uInt64_to_double:i <- 7
	;DEBUG_VALUE: uInt64_to_double:base <- 7.205759e+16
	;DEBUG_VALUE: uInt64_to_double:sum <- $d0
	.loc	1 258 21                        ; bzip2.c:258:21
	ucvtf	d5, w10
	mov	x8, #4859383997932765184
	fmov	d16, x8
	.loc	1 258 11                        ; bzip2.c:258:11
	fmadd	d8, d5, d16, d0
Ltmp619:
	;DEBUG_VALUE: uInt64_to_double:i <- 0
	;DEBUG_VALUE: uInt64_to_double:base <- 1.000000e+00
	;DEBUG_VALUE: uInt64_to_double:sum <- 0.000000e+00
	;DEBUG_VALUE: uInt64_to_double:n <- [DW_OP_plus_uconst 216, DW_OP_stack_value] $sp
	;DEBUG_VALUE: nbytes_in_d <- $d8
	;DEBUG_VALUE: uInt64_to_double:i <- 8
	;DEBUG_VALUE: uInt64_to_double:base <- 1.844674e+19
	;DEBUG_VALUE: uInt64_to_double:sum <- $d8
	.loc	1 258 21                        ; bzip2.c:258:21
	ucvtf	d0, w4
Ltmp620:
	;DEBUG_VALUE: uInt64_to_double:i <- 1
	;DEBUG_VALUE: uInt64_to_double:base <- 2.560000e+02
	;DEBUG_VALUE: uInt64_to_double:sum <- $d0
	ucvtf	d5, w6
	.loc	1 258 11                        ; bzip2.c:258:11
	fmadd	d0, d5, d2, d0
Ltmp621:
	;DEBUG_VALUE: uInt64_to_double:i <- 2
	;DEBUG_VALUE: uInt64_to_double:base <- 6.553600e+04
	;DEBUG_VALUE: uInt64_to_double:sum <- $d0
	.loc	1 258 21                        ; bzip2.c:258:21
	ucvtf	d2, w5
	.loc	1 258 11                        ; bzip2.c:258:11
	fmadd	d0, d2, d3, d0
Ltmp622:
	;DEBUG_VALUE: uInt64_to_double:i <- 3
	;DEBUG_VALUE: uInt64_to_double:base <- 1.677722e+07
	;DEBUG_VALUE: uInt64_to_double:sum <- $d0
	.loc	1 258 21                        ; bzip2.c:258:21
	ucvtf	d2, w17
	.loc	1 258 11                        ; bzip2.c:258:11
	fmadd	d0, d2, d4, d0
Ltmp623:
	;DEBUG_VALUE: uInt64_to_double:i <- 4
	;DEBUG_VALUE: uInt64_to_double:base <- 4.294967e+09
	;DEBUG_VALUE: uInt64_to_double:sum <- $d0
	.loc	1 258 21                        ; bzip2.c:258:21
	ucvtf	d2, w3
	.loc	1 258 11                        ; bzip2.c:258:11
	fmadd	d0, d2, d1, d0
Ltmp624:
	;DEBUG_VALUE: uInt64_to_double:i <- 5
	;DEBUG_VALUE: uInt64_to_double:base <- 1.099512e+12
	;DEBUG_VALUE: uInt64_to_double:sum <- $d0
	.loc	1 258 21                        ; bzip2.c:258:21
	ucvtf	d1, w2
	.loc	1 258 11                        ; bzip2.c:258:11
	fmadd	d0, d1, d6, d0
Ltmp625:
	;DEBUG_VALUE: uInt64_to_double:i <- 6
	;DEBUG_VALUE: uInt64_to_double:base <- 2.814750e+14
	;DEBUG_VALUE: uInt64_to_double:sum <- $d0
	.loc	1 258 21                        ; bzip2.c:258:21
	ucvtf	d1, w1
	.loc	1 258 11                        ; bzip2.c:258:11
	fmadd	d0, d1, d7, d0
Ltmp626:
	;DEBUG_VALUE: uInt64_to_double:i <- 7
	;DEBUG_VALUE: uInt64_to_double:base <- 7.205759e+16
	;DEBUG_VALUE: uInt64_to_double:sum <- $d0
	.loc	1 258 21                        ; bzip2.c:258:21
	ucvtf	d1, w0
	.loc	1 258 11                        ; bzip2.c:258:11
	fmadd	d9, d1, d16, d0
Ltmp627:
	;DEBUG_VALUE: nbytes_out_d <- $d9
	;DEBUG_VALUE: uInt64_to_double:i <- 8
	;DEBUG_VALUE: uInt64_to_double:base <- 1.844674e+19
	;DEBUG_VALUE: uInt64_to_double:sum <- $d9
	.loc	1 0 11                          ; bzip2.c:0:11
	add	x19, sp, #264
Ltmp628:
	.loc	1 394 3 is_stmt 1               ; bzip2.c:394:3
	add	x0, sp, #264
	add	x1, sp, #224
	bl	_uInt64_toAscii
Ltmp629:
	.loc	1 0 3 is_stmt 0                 ; bzip2.c:0:3
	add	x20, sp, #232
Ltmp630:
	.loc	1 395 3 is_stmt 1               ; bzip2.c:395:3
	add	x0, sp, #232
	add	x1, sp, #216
	bl	_uInt64_toAscii
Ltmp631:
	.loc	1 396 13                        ; bzip2.c:396:13
Lloh487:
	adrp	x8, ___stderrp@GOTPAGE
Lloh488:
	ldr	x8, [x8, ___stderrp@GOTPAGEOFF]
Lloh489:
	ldr	x0, [x8]
	.loc	1 398 18                        ; bzip2.c:398:18
	fdiv	d0, d8, d9
	fmov	d1, #8.00000000
	.loc	1 399 11                        ; bzip2.c:399:11
	fmul	d1, d9, d1
	.loc	1 400 34                        ; bzip2.c:400:34
	fdiv	d2, d9, d8
	fmov	d3, #1.00000000
	.loc	1 400 19 is_stmt 0              ; bzip2.c:400:19
	fsub	d2, d3, d2
	mov	x8, #4636737291354636288
	fmov	d3, x8
	.loc	1 400 12                        ; bzip2.c:400:12
	fmul	d2, d2, d3
	.loc	1 399 27 is_stmt 1              ; bzip2.c:399:27
	fdiv	d1, d1, d8
	.loc	1 396 3                         ; bzip2.c:396:3
	stp	x19, x20, [sp, #24]
	str	d1, [sp, #8]
	str	d0, [sp]
	str	d2, [sp, #16]
Lloh490:
	adrp	x1, l_.str.76@PAGE
Lloh491:
	add	x1, x1, l_.str.76@PAGEOFF
	bl	_fprintf
Ltmp632:
LBB6_97:                                ; %compressStream.exit
	;DEBUG_VALUE: compress:outStr <- $x21
	;DEBUG_VALUE: compress:i <- 4
	.loc	1 1304 27                       ; bzip2.c:1304:27
	str	xzr, [x23]
Ltmp633:
	.loc	1 1307 9                        ; bzip2.c:1307:9
	ldr	w8, [x26]
Ltmp634:
	.loc	1 1307 9 is_stmt 0              ; bzip2.c:1307:9
	cmp	w8, #3
	b.ne	LBB6_101
Ltmp635:
; %bb.98:
	;DEBUG_VALUE: compress:outStr <- $x21
	;DEBUG_VALUE: compress:i <- 4
	.loc	1 1064 47 is_stmt 1             ; bzip2.c:1064:47
Lloh492:
	adrp	x8, _fileMetaInfo@PAGE+32
Lloh493:
	add	x8, x8, _fileMetaInfo@PAGEOFF+32
	ldr	x9, [x8]
	.loc	1 1065 48                       ; bzip2.c:1065:48
	ldr	x8, [x8, #16]
	.loc	1 1064 19                       ; bzip2.c:1064:19
	stp	x9, x8, [sp, #296]
	.loc	1 1067 13                       ; bzip2.c:1067:13
Lloh494:
	adrp	x0, _outName@GOTPAGE
Lloh495:
	ldr	x0, [x0, _outName@GOTPAGEOFF]
Ltmp636:
	;DEBUG_VALUE: applySavedTimeInfoToOutputFile:dstName <- $x0
	add	x1, sp, #296
	bl	_utime
Ltmp637:
	;DEBUG_VALUE: applySavedTimeInfoToOutputFile:retVal <- $w0
	.loc	1 1068 10                       ; bzip2.c:1068:10
	cbnz	w0, LBB6_111
Ltmp638:
; %bb.99:                               ; %applySavedTimeInfoToOutputFile.exit
	;DEBUG_VALUE: compress:outStr <- $x21
	;DEBUG_VALUE: compress:i <- 4
	.loc	1 1309 31                       ; bzip2.c:1309:31
	strb	wzr, [x25]
Ltmp639:
	.loc	1 1310 13                       ; bzip2.c:1310:13
Lloh496:
	adrp	x8, _keepInputFiles@GOTPAGE
Lloh497:
	ldr	x8, [x8, _keepInputFiles@GOTPAGEOFF]
	ldrb	w8, [x8]
Ltmp640:
	.loc	1 1310 12 is_stmt 0             ; bzip2.c:1310:12
	cbnz	w8, LBB6_101
Ltmp641:
; %bb.100:
	;DEBUG_VALUE: compress:outStr <- $x21
	;DEBUG_VALUE: compress:i <- 4
	.loc	1 1311 29 is_stmt 1             ; bzip2.c:1311:29
Lloh498:
	adrp	x0, _inName@GOTPAGE
Lloh499:
	ldr	x0, [x0, _inName@GOTPAGEOFF]
	bl	_remove
Ltmp642:
	;DEBUG_VALUE: retVal <- $w0
	.loc	1 1312 16                       ; bzip2.c:1312:16
	cbnz	w0, LBB6_111
Ltmp643:
LBB6_101:
	;DEBUG_VALUE: compress:outStr <- $x21
	;DEBUG_VALUE: compress:i <- 4
	.loc	1 1316 28                       ; bzip2.c:1316:28
	strb	wzr, [x25]
	b	LBB6_66
Ltmp644:
LBB6_102:
	;DEBUG_VALUE: compress:outStr <- $x0
	;DEBUG_VALUE: fopen_output_safely:fp <- $x0
	;DEBUG_VALUE: fopen_output_safely:fh <- $w24
	;DEBUG_VALUE: fopen_output_safely:name <- $x23
	;DEBUG_VALUE: compress:inStr <- $x20
	;DEBUG_VALUE: compress:i <- 4
	.loc	1 976 27                        ; bzip2.c:976:27
	mov	x0, x24
Ltmp645:
	bl	_close
Ltmp646:
LBB6_103:
	;DEBUG_VALUE: compress:inStr <- $x20
	;DEBUG_VALUE: compress:i <- 4
	.loc	1 1274 23                       ; bzip2.c:1274:23
Lloh500:
	adrp	x8, ___stderrp@GOTPAGE
Lloh501:
	ldr	x8, [x8, ___stderrp@GOTPAGEOFF]
Lloh502:
	ldr	x19, [x8]
	.loc	1 1275 23                       ; bzip2.c:1275:23
Lloh503:
	adrp	x8, _progName@GOTPAGE
Lloh504:
	ldr	x8, [x8, _progName@GOTPAGEOFF]
Lloh505:
	ldr	x21, [x8]
	.loc	1 1275 53 is_stmt 0             ; bzip2.c:1275:53
	bl	___error
Ltmp647:
	.loc	1 1275 52                       ; bzip2.c:1275:52
	ldr	w0, [x0]
	.loc	1 1275 42                       ; bzip2.c:1275:42
	bl	_strerror
Ltmp648:
	.loc	1 1274 13 is_stmt 1             ; bzip2.c:1274:13
	stp	x23, x0, [sp, #8]
	str	x21, [sp]
Lloh506:
	adrp	x1, l_.str.70@PAGE
Lloh507:
	add	x1, x1, l_.str.70@PAGEOFF
	mov	x0, x19
Ltmp649:
LBB6_104:
	;DEBUG_VALUE: compress:inStr <- $x20
	;DEBUG_VALUE: compress:i <- 4
	.loc	1 0 0 is_stmt 0                 ; bzip2.c:0:0
	bl	_fprintf
Ltmp650:
	cbz	x20, LBB6_64
Ltmp651:
; %bb.105:
	;DEBUG_VALUE: compress:inStr <- $x20
	;DEBUG_VALUE: compress:i <- 4
	mov	x0, x20
	bl	_fclose
Ltmp652:
	b	LBB6_64
Ltmp653:
LBB6_106:
	;DEBUG_VALUE: compress:outStr <- $x21
	;DEBUG_VALUE: compress:inStr <- $x20
	;DEBUG_VALUE: compress:i <- 4
	.loc	1 1263 23 is_stmt 1             ; bzip2.c:1263:23
Lloh508:
	adrp	x8, ___stderrp@GOTPAGE
Lloh509:
	ldr	x8, [x8, ___stderrp@GOTPAGEOFF]
Lloh510:
	ldr	x19, [x8]
	.loc	1 1264 23                       ; bzip2.c:1264:23
Lloh511:
	adrp	x8, _progName@GOTPAGE
Lloh512:
	ldr	x8, [x8, _progName@GOTPAGEOFF]
Lloh513:
	ldr	x20, [x8]
Ltmp654:
	.loc	1 1264 52 is_stmt 0             ; bzip2.c:1264:52
	bl	___error
Ltmp655:
	.loc	1 1264 51                       ; bzip2.c:1264:51
	ldr	w0, [x0]
	.loc	1 1264 41                       ; bzip2.c:1264:41
	bl	_strerror
Ltmp656:
	.loc	1 1263 13 is_stmt 1             ; bzip2.c:1263:13
	stp	x22, x0, [sp, #8]
	str	x20, [sp]
	b	LBB6_30
Ltmp657:
LBB6_107:                               ; %.loopexit.i
	;DEBUG_VALUE: compressStream:bzerr <- $w8
	;DEBUG_VALUE: compressStream:bzf <- $x19
	;DEBUG_VALUE: compressStream:stream <- $x20
	;DEBUG_VALUE: compressStream:zStream <- $x21
	;DEBUG_VALUE: compress:outStr <- $x21
	;DEBUG_VALUE: compress:inStr <- $x20
	;DEBUG_VALUE: compress:i <- 4
	;DEBUG_VALUE: compressStream:nbytes_in_lo32 <- [DW_OP_plus_uconst 212, DW_OP_deref] $sp
	;DEBUG_VALUE: compressStream:nbytes_in_hi32 <- [DW_OP_plus_uconst 208, DW_OP_deref] $sp
	;DEBUG_VALUE: compressStream:nbytes_out_lo32 <- [DW_OP_plus_uconst 204, DW_OP_deref] $sp
	;DEBUG_VALUE: compressStream:nbytes_out_hi32 <- [DW_OP_plus_uconst 200, DW_OP_deref] $sp
	;DEBUG_VALUE: compressStream:bzerr_dummy <- [DW_OP_plus_uconst 264, DW_OP_deref] $sp
	;DEBUG_LABEL: compressStream:errhandler
	.loc	1 410 4                         ; bzip2.c:410:4
	add	x0, sp, #264
	add	x3, sp, #212
	add	x4, sp, #208
	add	x5, sp, #204
	add	x6, sp, #200
	mov	x1, x19
	mov	w2, #1
	bl	_BZ2_bzWriteClose64
Ltmp658:
	.loc	1 413 12                        ; bzip2.c:413:12
	ldr	w8, [sp, #196]
Ltmp659:
	;DEBUG_VALUE: compressStream:bzerr <- $w8
	.loc	1 413 4 is_stmt 0               ; bzip2.c:413:4
	cmn	w8, #3
	b.eq	LBB6_117
Ltmp660:
; %bb.108:                              ; %.loopexit.i
	;DEBUG_VALUE: compressStream:bzerr_dummy <- [DW_OP_plus_uconst 264, DW_OP_deref] $sp
	;DEBUG_VALUE: compressStream:nbytes_out_hi32 <- [DW_OP_plus_uconst 200, DW_OP_deref] $sp
	;DEBUG_VALUE: compressStream:nbytes_out_lo32 <- [DW_OP_plus_uconst 204, DW_OP_deref] $sp
	;DEBUG_VALUE: compressStream:nbytes_in_hi32 <- [DW_OP_plus_uconst 208, DW_OP_deref] $sp
	;DEBUG_VALUE: compressStream:nbytes_in_lo32 <- [DW_OP_plus_uconst 212, DW_OP_deref] $sp
	;DEBUG_VALUE: compressStream:bzerr <- $w8
	;DEBUG_VALUE: compressStream:bzf <- $x19
	;DEBUG_VALUE: compressStream:stream <- $x20
	;DEBUG_VALUE: compressStream:zStream <- $x21
	;DEBUG_VALUE: compress:outStr <- $x21
	;DEBUG_VALUE: compress:inStr <- $x20
	;DEBUG_VALUE: compress:i <- 4
	cmn	w8, #6
	b.eq	LBB6_111
Ltmp661:
; %bb.109:                              ; %.loopexit.i
	;DEBUG_VALUE: compressStream:bzerr_dummy <- [DW_OP_plus_uconst 264, DW_OP_deref] $sp
	;DEBUG_VALUE: compressStream:nbytes_out_hi32 <- [DW_OP_plus_uconst 200, DW_OP_deref] $sp
	;DEBUG_VALUE: compressStream:nbytes_out_lo32 <- [DW_OP_plus_uconst 204, DW_OP_deref] $sp
	;DEBUG_VALUE: compressStream:nbytes_in_hi32 <- [DW_OP_plus_uconst 208, DW_OP_deref] $sp
	;DEBUG_VALUE: compressStream:nbytes_in_lo32 <- [DW_OP_plus_uconst 212, DW_OP_deref] $sp
	;DEBUG_VALUE: compressStream:bzerr <- $w8
	;DEBUG_VALUE: compressStream:bzf <- $x19
	;DEBUG_VALUE: compressStream:stream <- $x20
	;DEBUG_VALUE: compressStream:zStream <- $x21
	;DEBUG_VALUE: compress:outStr <- $x21
	;DEBUG_VALUE: compress:inStr <- $x20
	;DEBUG_VALUE: compress:i <- 4
	cmn	w8, #9
	b.ne	LBB6_118
Ltmp662:
; %bb.110:
	;DEBUG_VALUE: compressStream:bzerr_dummy <- [DW_OP_plus_uconst 264, DW_OP_deref] $sp
	;DEBUG_VALUE: compressStream:nbytes_out_hi32 <- [DW_OP_plus_uconst 200, DW_OP_deref] $sp
	;DEBUG_VALUE: compressStream:nbytes_out_lo32 <- [DW_OP_plus_uconst 204, DW_OP_deref] $sp
	;DEBUG_VALUE: compressStream:nbytes_in_hi32 <- [DW_OP_plus_uconst 208, DW_OP_deref] $sp
	;DEBUG_VALUE: compressStream:nbytes_in_lo32 <- [DW_OP_plus_uconst 212, DW_OP_deref] $sp
	;DEBUG_VALUE: compressStream:bzerr <- $w8
	;DEBUG_VALUE: compressStream:bzf <- $x19
	;DEBUG_VALUE: compressStream:stream <- $x20
	;DEBUG_VALUE: compressStream:zStream <- $x21
	;DEBUG_VALUE: compress:outStr <- $x21
	;DEBUG_VALUE: compress:inStr <- $x20
	;DEBUG_VALUE: compress:i <- 4
	.loc	1 415 10 is_stmt 1              ; bzip2.c:415:10
	bl	_configError
Ltmp663:
LBB6_111:
	;DEBUG_VALUE: compress:i <- 4
	.loc	1 0 0 is_stmt 0                 ; bzip2.c:0:0
	bl	_ioError
Ltmp664:
LBB6_112:
	;DEBUG_VALUE: compress:name <- $x20
	.loc	1 1151 7 is_stmt 1              ; bzip2.c:1151:7
Lloh514:
	adrp	x0, l_.str.55@PAGE
Lloh515:
	add	x0, x0, l_.str.55@PAGEOFF
	bl	_panic
Ltmp665:
LBB6_113:                               ; %setExit.exit
	.loc	1 0 7 is_stmt 0                 ; bzip2.c:0:7
	bl	___stack_chk_fail
Ltmp666:
LBB6_114:
	;DEBUG_VALUE: compress:name <- $x20
Lloh516:
	adrp	x8, ___stderrp@GOTPAGE
Lloh517:
	ldr	x8, [x8, ___stderrp@GOTPAGEOFF]
Lloh518:
	ldr	x0, [x8]
	mov	w8, #1024
	stp	x20, x8, [sp]
Lloh519:
	adrp	x1, l_.str.41@PAGE
Lloh520:
	add	x1, x1, l_.str.41@PAGEOFF
	bl	_fprintf
Ltmp667:
	;DEBUG_VALUE: setExit:v <- 1
Lloh521:
	adrp	x8, _exitValue@GOTPAGE
Lloh522:
	ldr	x8, [x8, _exitValue@GOTPAGEOFF]
	ldr	w0, [x8]
	cmp	w0, #0
	b.gt	LBB6_116
Ltmp668:
; %bb.115:
	;DEBUG_VALUE: setExit:v <- 1
	;DEBUG_VALUE: compress:name <- $x20
	mov	w0, #1
	str	w0, [x8]
Ltmp669:
LBB6_116:                               ; %setExit.exit.i53
	;DEBUG_VALUE: setExit:v <- 1
	;DEBUG_VALUE: compress:name <- $x20
	bl	_exit
Ltmp670:
LBB6_117:
	;DEBUG_VALUE: compressStream:bzerr_dummy <- [DW_OP_plus_uconst 264, DW_OP_deref] $sp
	;DEBUG_VALUE: compressStream:nbytes_out_hi32 <- [DW_OP_plus_uconst 200, DW_OP_deref] $sp
	;DEBUG_VALUE: compressStream:nbytes_out_lo32 <- [DW_OP_plus_uconst 204, DW_OP_deref] $sp
	;DEBUG_VALUE: compressStream:nbytes_in_hi32 <- [DW_OP_plus_uconst 208, DW_OP_deref] $sp
	;DEBUG_VALUE: compressStream:nbytes_in_lo32 <- [DW_OP_plus_uconst 212, DW_OP_deref] $sp
	;DEBUG_VALUE: compressStream:bzerr <- $w8
	;DEBUG_VALUE: compressStream:bzf <- $x19
	;DEBUG_VALUE: compressStream:stream <- $x20
	;DEBUG_VALUE: compressStream:zStream <- $x21
	;DEBUG_VALUE: compress:outStr <- $x21
	;DEBUG_VALUE: compress:inStr <- $x20
	;DEBUG_VALUE: compress:i <- 4
	.loc	1 417 10 is_stmt 1              ; bzip2.c:417:10
	bl	_outOfMemory
Ltmp671:
LBB6_118:
	;DEBUG_VALUE: compressStream:bzerr_dummy <- [DW_OP_plus_uconst 264, DW_OP_deref] $sp
	;DEBUG_VALUE: compressStream:nbytes_out_hi32 <- [DW_OP_plus_uconst 200, DW_OP_deref] $sp
	;DEBUG_VALUE: compressStream:nbytes_out_lo32 <- [DW_OP_plus_uconst 204, DW_OP_deref] $sp
	;DEBUG_VALUE: compressStream:nbytes_in_hi32 <- [DW_OP_plus_uconst 208, DW_OP_deref] $sp
	;DEBUG_VALUE: compressStream:nbytes_in_lo32 <- [DW_OP_plus_uconst 212, DW_OP_deref] $sp
	;DEBUG_VALUE: compressStream:bzerr <- $w8
	;DEBUG_VALUE: compressStream:bzf <- $x19
	;DEBUG_VALUE: compressStream:stream <- $x20
	;DEBUG_VALUE: compressStream:zStream <- $x21
	;DEBUG_VALUE: compress:outStr <- $x21
	;DEBUG_VALUE: compress:inStr <- $x20
	;DEBUG_VALUE: compress:i <- 4
	.loc	1 422 10                        ; bzip2.c:422:10
Lloh523:
	adrp	x0, l_.str.77@PAGE
Lloh524:
	add	x0, x0, l_.str.77@PAGEOFF
	bl	_panic
Ltmp672:
LBB6_119:
	;DEBUG_VALUE: compress:i <- 4
	.loc	1 1290 10                       ; bzip2.c:1290:10
Lloh525:
	adrp	x0, l_.str.71@PAGE
Lloh526:
	add	x0, x0, l_.str.71@PAGEOFF
	bl	_panic
Ltmp673:
	.loh AdrpLdrGot	Lloh306, Lloh307
	.loh AdrpLdrGot	Lloh304, Lloh305
	.loh AdrpLdrGotLdr	Lloh301, Lloh302, Lloh303
	.loh AdrpLdrGot	Lloh299, Lloh300
	.loh AdrpLdrGot	Lloh308, Lloh309
	.loh AdrpAdd	Lloh310, Lloh311
	.loh AdrpAdd	Lloh314, Lloh315
	.loh AdrpLdrGot	Lloh312, Lloh313
	.loh AdrpAdd	Lloh318, Lloh319
	.loh AdrpLdrGot	Lloh316, Lloh317
	.loh AdrpAdd	Lloh322, Lloh323
	.loh AdrpLdrGot	Lloh320, Lloh321
	.loh AdrpLdr	Lloh324, Lloh325
	.loh AdrpLdr	Lloh326, Lloh327
	.loh AdrpLdr	Lloh328, Lloh329
	.loh AdrpLdr	Lloh330, Lloh331
	.loh AdrpLdrGot	Lloh332, Lloh333
	.loh AdrpAdd	Lloh340, Lloh341
	.loh AdrpLdrGotLdr	Lloh337, Lloh338, Lloh339
	.loh AdrpLdrGotLdr	Lloh334, Lloh335, Lloh336
	.loh AdrpLdrGot	Lloh342, Lloh343
	.loh AdrpAdd	Lloh350, Lloh351
	.loh AdrpLdrGotLdr	Lloh347, Lloh348, Lloh349
	.loh AdrpLdrGotLdr	Lloh344, Lloh345, Lloh346
	.loh AdrpLdrGotLdr	Lloh355, Lloh356, Lloh357
	.loh AdrpLdrGotLdr	Lloh352, Lloh353, Lloh354
	.loh AdrpAdd	Lloh358, Lloh359
	.loh AdrpLdrGot	Lloh360, Lloh361
	.loh AdrpLdrGot	Lloh362, Lloh363
	.loh AdrpAdd	Lloh366, Lloh367
	.loh AdrpLdrGot	Lloh364, Lloh365
	.loh AdrpLdrGot	Lloh368, Lloh369
	.loh AdrpLdrGot	Lloh370, Lloh371
	.loh AdrpAdd	Lloh382, Lloh383
	.loh AdrpAdd	Lloh380, Lloh381
	.loh AdrpAdd	Lloh378, Lloh379
	.loh AdrpLdrGotLdr	Lloh375, Lloh376, Lloh377
	.loh AdrpLdrGotLdr	Lloh372, Lloh373, Lloh374
	.loh AdrpLdrGot	Lloh384, Lloh385
	.loh AdrpAdd	Lloh392, Lloh393
	.loh AdrpLdrGotLdr	Lloh389, Lloh390, Lloh391
	.loh AdrpLdrGotLdr	Lloh386, Lloh387, Lloh388
	.loh AdrpAdd	Lloh396, Lloh397
	.loh AdrpLdrGot	Lloh394, Lloh395
	.loh AdrpLdrGotLdr	Lloh401, Lloh402, Lloh403
	.loh AdrpLdrGotLdr	Lloh398, Lloh399, Lloh400
	.loh AdrpAdd	Lloh410, Lloh411
	.loh AdrpAdd	Lloh408, Lloh409
	.loh AdrpLdrGot	Lloh406, Lloh407
	.loh AdrpLdrGot	Lloh404, Lloh405
	.loh AdrpLdrGot	Lloh416, Lloh417
	.loh AdrpAdd	Lloh414, Lloh415
	.loh AdrpLdrGot	Lloh412, Lloh413
	.loh AdrpAdd	Lloh418, Lloh419
	.loh AdrpAdd	Lloh426, Lloh427
	.loh AdrpLdrGotLdr	Lloh423, Lloh424, Lloh425
	.loh AdrpLdrGotLdr	Lloh420, Lloh421, Lloh422
	.loh AdrpLdrGotLdr	Lloh432, Lloh433, Lloh434
	.loh AdrpAdd	Lloh430, Lloh431
	.loh AdrpLdrGot	Lloh428, Lloh429
	.loh AdrpAdd	Lloh441, Lloh442
	.loh AdrpAdd	Lloh439, Lloh440
	.loh AdrpLdrGot	Lloh437, Lloh438
	.loh AdrpLdrGot	Lloh435, Lloh436
	.loh AdrpAdd	Lloh449, Lloh450
	.loh AdrpLdrGotLdr	Lloh446, Lloh447, Lloh448
	.loh AdrpLdrGotLdr	Lloh443, Lloh444, Lloh445
	.loh AdrpLdrGot	Lloh451, Lloh452
	.loh AdrpLdrGotLdr	Lloh453, Lloh454, Lloh455
	.loh AdrpLdrGot	Lloh456, Lloh457
	.loh AdrpLdrGot	Lloh462, Lloh463
	.loh AdrpAdd	Lloh460, Lloh461
	.loh AdrpLdrGot	Lloh458, Lloh459
	.loh AdrpLdrGot	Lloh464, Lloh465
	.loh AdrpLdrGot	Lloh466, Lloh467
	.loh AdrpLdrGotLdr	Lloh471, Lloh472, Lloh473
	.loh AdrpLdrGotLdr	Lloh468, Lloh469, Lloh470
	.loh AdrpLdrGotLdr	Lloh474, Lloh475, Lloh476
	.loh AdrpLdrGotLdr	Lloh477, Lloh478, Lloh479
	.loh AdrpAdd	Lloh480, Lloh481
	.loh AdrpAdd	Lloh485, Lloh486
	.loh AdrpLdrGotLdr	Lloh482, Lloh483, Lloh484
	.loh AdrpAdd	Lloh490, Lloh491
	.loh AdrpLdrGotLdr	Lloh487, Lloh488, Lloh489
	.loh AdrpLdrGot	Lloh494, Lloh495
	.loh AdrpAdd	Lloh492, Lloh493
	.loh AdrpLdrGot	Lloh496, Lloh497
	.loh AdrpLdrGot	Lloh498, Lloh499
	.loh AdrpAdd	Lloh506, Lloh507
	.loh AdrpLdrGotLdr	Lloh503, Lloh504, Lloh505
	.loh AdrpLdrGotLdr	Lloh500, Lloh501, Lloh502
	.loh AdrpLdrGotLdr	Lloh511, Lloh512, Lloh513
	.loh AdrpLdrGotLdr	Lloh508, Lloh509, Lloh510
	.loh AdrpAdd	Lloh514, Lloh515
	.loh AdrpLdrGot	Lloh521, Lloh522
	.loh AdrpAdd	Lloh519, Lloh520
	.loh AdrpLdrGotLdr	Lloh516, Lloh517, Lloh518
	.loh AdrpAdd	Lloh523, Lloh524
	.loh AdrpAdd	Lloh525, Lloh526
Lfunc_end6:
	.cfi_endproc
	.file	22 "/Library/Developer/CommandLineTools/SDKs/MacOSX.sdk/usr/include/sys/_types" "_time_t.h"
	.file	23 "/Library/Developer/CommandLineTools/SDKs/MacOSX.sdk/usr/include" "utime.h"
	.file	24 "/Library/Developer/CommandLineTools/SDKs/MacOSX.sdk/usr/include" "stdio.h"
	.file	25 "/Library/Developer/CommandLineTools/SDKs/MacOSX.sdk/usr/include/sys" "fcntl.h"
                                        ; -- End function
	.p2align	2                               ; -- Begin function uncompress
_uncompress:                            ; @uncompress
Lfunc_begin7:
	.loc	1 1323 0                        ; bzip2.c:1323:0
	.cfi_startproc
; %bb.0:
	;DEBUG_VALUE: uncompress:name <- $x0
	stp	x28, x27, [sp, #-96]!           ; 16-byte Folded Spill
	.cfi_def_cfa_offset 96
	stp	x26, x25, [sp, #16]             ; 16-byte Folded Spill
	stp	x24, x23, [sp, #32]             ; 16-byte Folded Spill
	stp	x22, x21, [sp, #48]             ; 16-byte Folded Spill
	stp	x20, x19, [sp, #64]             ; 16-byte Folded Spill
	stp	x29, x30, [sp, #80]             ; 16-byte Folded Spill
	add	x29, sp, #80
	.cfi_def_cfa w29, 16
	.cfi_offset w30, -8
	.cfi_offset w29, -16
	.cfi_offset w19, -24
	.cfi_offset w20, -32
	.cfi_offset w21, -40
	.cfi_offset w22, -48
	.cfi_offset w23, -56
	.cfi_offset w24, -64
	.cfi_offset w25, -72
	.cfi_offset w26, -80
	.cfi_offset w27, -88
	.cfi_offset w28, -96
	mov	w9, #10224
Lloh527:
	adrp	x16, ___chkstk_darwin@GOTPAGE
Lloh528:
	ldr	x16, [x16, ___chkstk_darwin@GOTPAGEOFF]
	blr	x16
Ltmp674:
	sub	sp, sp, #2, lsl #12             ; =8192
	sub	sp, sp, #2032
	mov	x20, x0
Ltmp675:
	;DEBUG_VALUE: uncompress:name <- $x20
Lloh529:
	adrp	x8, ___stack_chk_guard@GOTPAGE
Lloh530:
	ldr	x8, [x8, ___stack_chk_guard@GOTPAGEOFF]
Lloh531:
	ldr	x8, [x8]
	stur	x8, [x29, #-96]
Ltmp676:
	.loc	1 1331 28 prologue_end          ; bzip2.c:1331:28
Lloh532:
	adrp	x24, _deleteOutputOnInterrupt@GOTPAGE
Lloh533:
	ldr	x24, [x24, _deleteOutputOnInterrupt@GOTPAGEOFF]
	strb	wzr, [x24]
Lloh534:
	adrp	x25, _srcMode@GOTPAGE
Lloh535:
	ldr	x25, [x25, _srcMode@GOTPAGEOFF]
	ldr	w8, [x25]
Ltmp677:
	.loc	1 1333 28                       ; bzip2.c:1333:28
	cbnz	x0, LBB7_2
Ltmp678:
; %bb.1:
	;DEBUG_VALUE: uncompress:name <- $x20
	cmp	w8, #1
	b.ne	LBB7_151
Ltmp679:
LBB7_2:
	;DEBUG_VALUE: uncompress:name <- $x20
	;DEBUG_VALUE: uncompress:cantGuess <- 0
	.loc	1 1337 4                        ; bzip2.c:1337:4
	cmp	w8, #3
	b.eq	LBB7_6
Ltmp680:
; %bb.3:
	;DEBUG_VALUE: uncompress:cantGuess <- 0
	;DEBUG_VALUE: uncompress:name <- $x20
	cmp	w8, #2
	b.eq	LBB7_17
Ltmp681:
; %bb.4:
	;DEBUG_VALUE: uncompress:cantGuess <- 0
	;DEBUG_VALUE: uncompress:name <- $x20
	cmp	w8, #1
	b.ne	LBB7_20
Ltmp682:
; %bb.5:                                ; %copyFileName.exit
	;DEBUG_VALUE: uncompress:cantGuess <- 0
	;DEBUG_VALUE: uncompress:name <- $x20
	.loc	1 941 3                         ; bzip2.c:941:3
Lloh536:
	adrp	x0, _inName@GOTPAGE
Lloh537:
	ldr	x0, [x0, _inName@GOTPAGEOFF]
Ltmp683:
	;DEBUG_VALUE: copyFileName:to <- $x0
Lloh538:
	adrp	x1, l_.str.56@PAGE
Lloh539:
	add	x1, x1, l_.str.56@PAGEOFF
Ltmp684:
	;DEBUG_VALUE: copyFileName:from <- $x1
	.loc	1 0 3 is_stmt 0                 ; bzip2.c:0:3
	b	LBB7_19
Ltmp685:
LBB7_6:
	;DEBUG_VALUE: uncompress:cantGuess <- 0
	;DEBUG_VALUE: uncompress:name <- $x20
	;DEBUG_VALUE: copyFileName:from <- $x20
	.loc	1 929 9 is_stmt 1               ; bzip2.c:929:9
	mov	x0, x20
	bl	_strlen
Ltmp686:
	.loc	1 929 9 is_stmt 0               ; bzip2.c:929:9
	cmp	x0, #1025
Ltmp687:
	;DEBUG_VALUE: copyFileName:to <- undef
	b.hs	LBB7_157
Ltmp688:
; %bb.7:                                ; %copyFileName.exit60
	;DEBUG_VALUE: copyFileName:from <- $x20
	;DEBUG_VALUE: uncompress:cantGuess <- 0
	;DEBUG_VALUE: uncompress:name <- $x20
	.loc	1 941 3 is_stmt 1               ; bzip2.c:941:3
Lloh540:
	adrp	x0, _inName@GOTPAGE
Lloh541:
	ldr	x0, [x0, _inName@GOTPAGEOFF]
	mov	x1, x20
	mov	w2, #1024
	bl	_strncpy
Ltmp689:
	.loc	1 942 15                        ; bzip2.c:942:15
	strb	wzr, [x0, #1024]
Ltmp690:
	;DEBUG_VALUE: copyFileName:from <- $x20
	.loc	1 929 9                         ; bzip2.c:929:9
	mov	x0, x20
	bl	_strlen
Ltmp691:
	.loc	1 929 9 is_stmt 0               ; bzip2.c:929:9
	cmp	x0, #1025
Ltmp692:
	;DEBUG_VALUE: copyFileName:to <- undef
	b.hs	LBB7_157
Ltmp693:
; %bb.8:                                ; %copyFileName.exit62
	;DEBUG_VALUE: copyFileName:from <- $x20
	;DEBUG_VALUE: uncompress:cantGuess <- 0
	;DEBUG_VALUE: uncompress:name <- $x20
	.loc	1 941 3 is_stmt 1               ; bzip2.c:941:3
Lloh542:
	adrp	x19, _outName@GOTPAGE
Lloh543:
	ldr	x19, [x19, _outName@GOTPAGEOFF]
Ltmp694:
	;DEBUG_VALUE: uncompress:i <- 0
	mov	x0, x19
	mov	x1, x20
	mov	w2, #1024
	bl	_strncpy
Ltmp695:
	.loc	1 942 15                        ; bzip2.c:942:15
	strb	wzr, [x19, #1024]
Ltmp696:
	.loc	1 0 0 is_stmt 0                 ; bzip2.c:0:0
	bl	_strlen
Ltmp697:
	mov	x20, x0
Ltmp698:
	;DEBUG_VALUE: uncompress:name <- [DW_OP_LLVM_entry_value 1] $x0
	add	x23, x19, w20, sxtw
Ltmp699:
	.loc	1 1346 35 is_stmt 1             ; bzip2.c:1346:35
Lloh544:
	adrp	x8, _zSuffix@PAGE
Lloh545:
	ldr	x22, [x8, _zSuffix@PAGEOFF]
Ltmp700:
	;DEBUG_VALUE: mapSuffix:newSuffix <- undef
	;DEBUG_VALUE: hasSuffix:suffix <- $x22
	;DEBUG_VALUE: mapSuffix:oldSuffix <- $x22
	;DEBUG_VALUE: hasSuffix:ns <- $w20
	;DEBUG_VALUE: hasSuffix:s <- $x19
	;DEBUG_VALUE: mapSuffix:name <- $x19
	.loc	1 1121 15                       ; bzip2.c:1121:15
	mov	x0, x22
	bl	_strlen
Ltmp701:
	mov	x21, x0
Ltmp702:
	;DEBUG_VALUE: hasSuffix:nx <- $w21
	.loc	1 1122 8                        ; bzip2.c:1122:8
	cmp	w20, w21
	b.lt	LBB7_10
Ltmp703:
; %bb.9:                                ; %hasSuffix.exit.i
	;DEBUG_VALUE: hasSuffix:nx <- $w21
	;DEBUG_VALUE: mapSuffix:name <- $x19
	;DEBUG_VALUE: hasSuffix:s <- $x19
	;DEBUG_VALUE: hasSuffix:ns <- $w20
	;DEBUG_VALUE: mapSuffix:oldSuffix <- $x22
	;DEBUG_VALUE: hasSuffix:suffix <- $x22
	;DEBUG_VALUE: uncompress:i <- 0
	;DEBUG_VALUE: uncompress:name <- [DW_OP_LLVM_entry_value 1] $x0
	;DEBUG_VALUE: uncompress:cantGuess <- 0
	.loc	1 1123 22                       ; bzip2.c:1123:22
	sub	x0, x23, w21, sxtw
	.loc	1 1123 8 is_stmt 0              ; bzip2.c:1123:8
	mov	x1, x22
	bl	_strcmp
Ltmp704:
	.loc	1 1132 8 is_stmt 1              ; bzip2.c:1132:8
	cbz	w0, LBB7_21
Ltmp705:
LBB7_10:
	;DEBUG_VALUE: hasSuffix:nx <- $w21
	;DEBUG_VALUE: mapSuffix:name <- $x19
	;DEBUG_VALUE: hasSuffix:s <- $x19
	;DEBUG_VALUE: hasSuffix:ns <- $w20
	;DEBUG_VALUE: mapSuffix:oldSuffix <- $x22
	;DEBUG_VALUE: hasSuffix:suffix <- $x22
	;DEBUG_VALUE: uncompress:i <- 0
	;DEBUG_VALUE: uncompress:name <- [DW_OP_LLVM_entry_value 1] $x0
	;DEBUG_VALUE: uncompress:cantGuess <- 0
	;DEBUG_VALUE: uncompress:i <- 1
	.loc	1 1346 35                       ; bzip2.c:1346:35
Lloh546:
	adrp	x8, _zSuffix@PAGE+8
Lloh547:
	ldr	x22, [x8, _zSuffix@PAGEOFF+8]
Ltmp706:
	;DEBUG_VALUE: mapSuffix:newSuffix <- undef
	;DEBUG_VALUE: hasSuffix:suffix <- $x22
	;DEBUG_VALUE: mapSuffix:oldSuffix <- $x22
	;DEBUG_VALUE: hasSuffix:ns <- $w20
	.loc	1 1121 15                       ; bzip2.c:1121:15
	mov	x0, x22
	bl	_strlen
Ltmp707:
	mov	x21, x0
Ltmp708:
	;DEBUG_VALUE: hasSuffix:nx <- $w21
	.loc	1 1122 8                        ; bzip2.c:1122:8
	cmp	w20, w21
Ltmp709:
	;DEBUG_VALUE: hasSuffix:s <- undef
	;DEBUG_VALUE: mapSuffix:name <- undef
	b.lt	LBB7_12
Ltmp710:
; %bb.11:                               ; %hasSuffix.exit.i.1
	;DEBUG_VALUE: uncompress:i <- 1
	;DEBUG_VALUE: hasSuffix:nx <- $w21
	;DEBUG_VALUE: hasSuffix:ns <- $w20
	;DEBUG_VALUE: mapSuffix:oldSuffix <- $x22
	;DEBUG_VALUE: hasSuffix:suffix <- $x22
	;DEBUG_VALUE: uncompress:name <- [DW_OP_LLVM_entry_value 1] $x0
	;DEBUG_VALUE: uncompress:cantGuess <- 0
	.loc	1 1123 22                       ; bzip2.c:1123:22
	sub	x0, x23, w21, sxtw
	.loc	1 1123 8 is_stmt 0              ; bzip2.c:1123:8
	mov	x1, x22
	bl	_strcmp
Ltmp711:
	.loc	1 1132 8 is_stmt 1              ; bzip2.c:1132:8
	cbz	w0, LBB7_22
Ltmp712:
LBB7_12:
	;DEBUG_VALUE: uncompress:i <- 1
	;DEBUG_VALUE: hasSuffix:nx <- $w21
	;DEBUG_VALUE: hasSuffix:ns <- $w20
	;DEBUG_VALUE: mapSuffix:oldSuffix <- $x22
	;DEBUG_VALUE: hasSuffix:suffix <- $x22
	;DEBUG_VALUE: uncompress:name <- [DW_OP_LLVM_entry_value 1] $x0
	;DEBUG_VALUE: uncompress:cantGuess <- 0
	;DEBUG_VALUE: uncompress:i <- 2
	.loc	1 1346 35                       ; bzip2.c:1346:35
Lloh548:
	adrp	x8, _zSuffix@PAGE+16
Lloh549:
	ldr	x22, [x8, _zSuffix@PAGEOFF+16]
Ltmp713:
	;DEBUG_VALUE: mapSuffix:newSuffix <- undef
	;DEBUG_VALUE: hasSuffix:suffix <- $x22
	;DEBUG_VALUE: mapSuffix:oldSuffix <- $x22
	;DEBUG_VALUE: hasSuffix:ns <- $w20
	.loc	1 1121 15                       ; bzip2.c:1121:15
	mov	x0, x22
	bl	_strlen
Ltmp714:
	mov	x21, x0
Ltmp715:
	;DEBUG_VALUE: hasSuffix:nx <- $w21
	.loc	1 1122 8                        ; bzip2.c:1122:8
	cmp	w20, w21
Ltmp716:
	;DEBUG_VALUE: hasSuffix:s <- undef
	;DEBUG_VALUE: mapSuffix:name <- undef
	b.lt	LBB7_14
Ltmp717:
; %bb.13:                               ; %hasSuffix.exit.i.2
	;DEBUG_VALUE: uncompress:i <- 2
	;DEBUG_VALUE: hasSuffix:nx <- $w21
	;DEBUG_VALUE: hasSuffix:ns <- $w20
	;DEBUG_VALUE: mapSuffix:oldSuffix <- $x22
	;DEBUG_VALUE: hasSuffix:suffix <- $x22
	;DEBUG_VALUE: uncompress:name <- [DW_OP_LLVM_entry_value 1] $x0
	;DEBUG_VALUE: uncompress:cantGuess <- 0
	.loc	1 1123 22                       ; bzip2.c:1123:22
	sub	x0, x23, w21, sxtw
	.loc	1 1123 8 is_stmt 0              ; bzip2.c:1123:8
	mov	x1, x22
	bl	_strcmp
Ltmp718:
	.loc	1 1132 8 is_stmt 1              ; bzip2.c:1132:8
	cbz	w0, LBB7_23
Ltmp719:
LBB7_14:
	;DEBUG_VALUE: uncompress:i <- 2
	;DEBUG_VALUE: hasSuffix:nx <- $w21
	;DEBUG_VALUE: hasSuffix:ns <- $w20
	;DEBUG_VALUE: mapSuffix:oldSuffix <- $x22
	;DEBUG_VALUE: hasSuffix:suffix <- $x22
	;DEBUG_VALUE: uncompress:name <- [DW_OP_LLVM_entry_value 1] $x0
	;DEBUG_VALUE: uncompress:cantGuess <- 0
	;DEBUG_VALUE: uncompress:i <- 3
	.loc	1 1346 35                       ; bzip2.c:1346:35
Lloh550:
	adrp	x8, _zSuffix@PAGE+24
Lloh551:
	ldr	x22, [x8, _zSuffix@PAGEOFF+24]
Ltmp720:
	;DEBUG_VALUE: mapSuffix:newSuffix <- undef
	;DEBUG_VALUE: hasSuffix:suffix <- $x22
	;DEBUG_VALUE: mapSuffix:oldSuffix <- $x22
	;DEBUG_VALUE: hasSuffix:ns <- $w20
	.loc	1 1121 15                       ; bzip2.c:1121:15
	mov	x0, x22
	bl	_strlen
Ltmp721:
	mov	x21, x0
Ltmp722:
	;DEBUG_VALUE: hasSuffix:nx <- $w21
	.loc	1 1122 8                        ; bzip2.c:1122:8
	cmp	w20, w21
Ltmp723:
	;DEBUG_VALUE: hasSuffix:s <- undef
	;DEBUG_VALUE: mapSuffix:name <- undef
	b.lt	LBB7_16
Ltmp724:
; %bb.15:                               ; %hasSuffix.exit.i.3
	;DEBUG_VALUE: uncompress:i <- 3
	;DEBUG_VALUE: hasSuffix:nx <- $w21
	;DEBUG_VALUE: hasSuffix:ns <- $w20
	;DEBUG_VALUE: mapSuffix:oldSuffix <- $x22
	;DEBUG_VALUE: hasSuffix:suffix <- $x22
	;DEBUG_VALUE: uncompress:name <- [DW_OP_LLVM_entry_value 1] $x0
	;DEBUG_VALUE: uncompress:cantGuess <- 0
	.loc	1 1123 22                       ; bzip2.c:1123:22
	sub	x0, x23, w21, sxtw
	.loc	1 1123 8 is_stmt 0              ; bzip2.c:1123:8
	mov	x1, x22
	bl	_strcmp
Ltmp725:
	.loc	1 1132 8 is_stmt 1              ; bzip2.c:1132:8
	cbz	w0, LBB7_24
Ltmp726:
LBB7_16:
	;DEBUG_VALUE: uncompress:i <- 3
	;DEBUG_VALUE: uncompress:name <- [DW_OP_LLVM_entry_value 1] $x0
	;DEBUG_VALUE: uncompress:cantGuess <- 0
	;DEBUG_VALUE: uncompress:cantGuess <- 1
	;DEBUG_VALUE: uncompress:i <- 4
	.loc	1 1349 10                       ; bzip2.c:1349:10
Lloh552:
	adrp	x0, _outName@GOTPAGE
Lloh553:
	ldr	x0, [x0, _outName@GOTPAGEOFF]
Lloh554:
	adrp	x1, l_.str.81@PAGE
Lloh555:
	add	x1, x1, l_.str.81@PAGEOFF
	mov	w2, #1034
	bl	___strcat_chk
Ltmp727:
	.loc	1 0 10 is_stmt 0                ; bzip2.c:0:10
	mov	w20, #1
	b	LBB7_26
Ltmp728:
LBB7_17:
	;DEBUG_VALUE: uncompress:cantGuess <- 0
	;DEBUG_VALUE: uncompress:name <- $x20
	;DEBUG_VALUE: copyFileName:from <- $x20
	.loc	1 929 9 is_stmt 1               ; bzip2.c:929:9
	mov	x0, x20
	bl	_strlen
Ltmp729:
	.loc	1 929 9 is_stmt 0               ; bzip2.c:929:9
	cmp	x0, #1025
Ltmp730:
	;DEBUG_VALUE: copyFileName:to <- undef
	b.hs	LBB7_157
Ltmp731:
; %bb.18:                               ; %copyFileName.exit64
	;DEBUG_VALUE: copyFileName:from <- $x20
	;DEBUG_VALUE: uncompress:cantGuess <- 0
	;DEBUG_VALUE: uncompress:name <- $x20
	.loc	1 941 3 is_stmt 1               ; bzip2.c:941:3
Lloh556:
	adrp	x0, _inName@GOTPAGE
Lloh557:
	ldr	x0, [x0, _inName@GOTPAGEOFF]
	mov	x1, x20
Ltmp732:
LBB7_19:                                ; %thread-pre-split
	;DEBUG_VALUE: uncompress:cantGuess <- 0
	;DEBUG_VALUE: uncompress:name <- $x20
	.loc	1 0 0 is_stmt 0                 ; bzip2.c:0:0
	mov	w2, #1024
	bl	_strncpy
Ltmp733:
	strb	wzr, [x0, #1024]
Lloh558:
	adrp	x0, _outName@GOTPAGE
Lloh559:
	ldr	x0, [x0, _outName@GOTPAGEOFF]
Ltmp734:
	;DEBUG_VALUE: copyFileName:to <- $x0
Lloh560:
	adrp	x1, l_.str.57@PAGE
Lloh561:
	add	x1, x1, l_.str.57@PAGEOFF
Ltmp735:
	;DEBUG_VALUE: copyFileName:from <- $x1
	mov	w2, #1024
	bl	_strncpy
Ltmp736:
	mov	w20, #0
Ltmp737:
	;DEBUG_VALUE: uncompress:name <- [DW_OP_LLVM_entry_value 1] $x0
	strb	wzr, [x0, #1024]
	b	LBB7_26
Ltmp738:
LBB7_20:
	;DEBUG_VALUE: uncompress:cantGuess <- 0
	;DEBUG_VALUE: uncompress:name <- $x20
	mov	w20, #0
Ltmp739:
	;DEBUG_VALUE: uncompress:name <- [DW_OP_LLVM_entry_value 1] $x0
	;DEBUG_VALUE: uncompress:cantGuess <- undef
	;DEBUG_LABEL: uncompress:zzz
	.loc	1 1365 22 is_stmt 1             ; bzip2.c:1365:22
	cmp	w8, #1
	b.ne	LBB7_27
	b	LBB7_36
Ltmp740:
LBB7_21:
	;DEBUG_VALUE: hasSuffix:nx <- $w21
	;DEBUG_VALUE: mapSuffix:name <- $x19
	;DEBUG_VALUE: hasSuffix:s <- $x19
	;DEBUG_VALUE: hasSuffix:ns <- $w20
	;DEBUG_VALUE: mapSuffix:oldSuffix <- $x22
	;DEBUG_VALUE: hasSuffix:suffix <- $x22
	;DEBUG_VALUE: uncompress:i <- 0
	;DEBUG_VALUE: uncompress:name <- [DW_OP_LLVM_entry_value 1] $x0
	;DEBUG_VALUE: uncompress:cantGuess <- 0
	.loc	1 0 22 is_stmt 0                ; bzip2.c:0:22
	mov	x8, #0
	b	LBB7_25
Ltmp741:
LBB7_22:
	;DEBUG_VALUE: uncompress:i <- 1
	;DEBUG_VALUE: hasSuffix:nx <- $w21
	;DEBUG_VALUE: hasSuffix:ns <- $w20
	;DEBUG_VALUE: mapSuffix:oldSuffix <- $x22
	;DEBUG_VALUE: hasSuffix:suffix <- $x22
	;DEBUG_VALUE: uncompress:name <- [DW_OP_LLVM_entry_value 1] $x0
	;DEBUG_VALUE: uncompress:cantGuess <- 0
	mov	w8, #1
	b	LBB7_25
Ltmp742:
LBB7_23:
	;DEBUG_VALUE: uncompress:i <- 2
	;DEBUG_VALUE: hasSuffix:nx <- $w21
	;DEBUG_VALUE: hasSuffix:ns <- $w20
	;DEBUG_VALUE: mapSuffix:oldSuffix <- $x22
	;DEBUG_VALUE: hasSuffix:suffix <- $x22
	;DEBUG_VALUE: uncompress:name <- [DW_OP_LLVM_entry_value 1] $x0
	;DEBUG_VALUE: uncompress:cantGuess <- 0
	mov	w8, #2
	b	LBB7_25
Ltmp743:
LBB7_24:
	;DEBUG_VALUE: uncompress:i <- 3
	;DEBUG_VALUE: hasSuffix:nx <- $w21
	;DEBUG_VALUE: hasSuffix:ns <- $w20
	;DEBUG_VALUE: mapSuffix:oldSuffix <- $x22
	;DEBUG_VALUE: hasSuffix:suffix <- $x22
	;DEBUG_VALUE: uncompress:name <- [DW_OP_LLVM_entry_value 1] $x0
	;DEBUG_VALUE: uncompress:cantGuess <- 0
	mov	w8, #3
Ltmp744:
LBB7_25:                                ; %mapSuffix.exit
	;DEBUG_VALUE: mapSuffix:oldSuffix <- $x22
	;DEBUG_VALUE: uncompress:name <- [DW_OP_LLVM_entry_value 1] $x0
	;DEBUG_VALUE: uncompress:cantGuess <- 0
	.loc	1 1346 46 is_stmt 1             ; bzip2.c:1346:46
Lloh562:
	adrp	x9, _unzSuffix@PAGE
Lloh563:
	add	x9, x9, _unzSuffix@PAGEOFF
	ldr	x1, [x9, x8, lsl  #3]
Ltmp745:
	.loc	1 1133 21                       ; bzip2.c:1133:21
	sub	x8, x20, x21
	.loc	1 1133 41 is_stmt 0             ; bzip2.c:1133:41
	strb	wzr, [x19, x8]
	.loc	1 1134 4 is_stmt 1              ; bzip2.c:1134:4
	mov	x0, x19
	bl	_strcat
Ltmp746:
	.loc	1 0 4 is_stmt 0                 ; bzip2.c:0:4
	mov	w20, #0
Ltmp747:
LBB7_26:                                ; %thread-pre-split
	;DEBUG_VALUE: uncompress:name <- [DW_OP_LLVM_entry_value 1] $x0
	.loc	1 1358 9 is_stmt 1              ; bzip2.c:1358:9
	ldr	w8, [x25]
Ltmp748:
	;DEBUG_VALUE: uncompress:cantGuess <- undef
	;DEBUG_LABEL: uncompress:zzz
	.loc	1 1365 22                       ; bzip2.c:1365:22
	cmp	w8, #1
	b.eq	LBB7_36
Ltmp749:
LBB7_27:
	;DEBUG_VALUE: uncompress:name <- [DW_OP_LLVM_entry_value 1] $x0
	.loc	1 950 16                        ; bzip2.c:950:16
Lloh564:
	adrp	x19, _inName@GOTPAGE
Lloh565:
	ldr	x19, [x19, _inName@GOTPAGEOFF]
Ltmp750:
	;DEBUG_VALUE: fileExists:name <- $x19
Lloh566:
	adrp	x1, l_.str.68@PAGE
Lloh567:
	add	x1, x1, l_.str.68@PAGEOFF
	mov	x0, x19
	bl	_fopen
Ltmp751:
	;DEBUG_VALUE: fileExists:exists <- [DW_OP_LLVM_convert 1 7, DW_OP_LLVM_convert 32 7, DW_OP_LLVM_convert 32 7, DW_OP_LLVM_convert 8 7, DW_OP_stack_value] undef
	;DEBUG_VALUE: fileExists:tmp <- $x0
	.loc	1 952 8                         ; bzip2.c:952:8
	cbz	x0, LBB7_31
Ltmp752:
; %bb.28:
	;DEBUG_VALUE: fileExists:tmp <- $x0
	;DEBUG_VALUE: fileExists:name <- $x19
	;DEBUG_VALUE: uncompress:name <- [DW_OP_LLVM_entry_value 1] $x0
	.loc	1 952 28 is_stmt 0              ; bzip2.c:952:28
	bl	_fclose
Ltmp753:
	.loc	1 1371 9 is_stmt 1              ; bzip2.c:1371:9
	ldr	w8, [x25]
	.loc	1 1371 22 is_stmt 0             ; bzip2.c:1371:22
	and	w9, w8, #0xfffffffe
	cmp	w9, #2
	;DEBUG_VALUE: fileExists:exists <- [DW_OP_LLVM_convert 1 7, DW_OP_LLVM_convert 8 7, DW_OP_stack_value] undef
	b.ne	LBB7_33
Ltmp754:
; %bb.29:
	;DEBUG_VALUE: uncompress:name <- [DW_OP_LLVM_entry_value 1] $x0
	.loc	1 1372 7 is_stmt 1              ; bzip2.c:1372:7
Lloh568:
	adrp	x19, _inName@GOTPAGE
Lloh569:
	ldr	x19, [x19, _inName@GOTPAGEOFF]
	add	x1, sp, #40
	mov	x0, x19
	bl	_stat
Ltmp755:
	.loc	1 1373 23                       ; bzip2.c:1373:23
	ldrh	w8, [sp, #44]
	.loc	1 1373 32 is_stmt 0             ; bzip2.c:1373:32
	and	w8, w8, #0xf000
Ltmp756:
	.loc	1 1373 12                       ; bzip2.c:1373:12
	cmp	w8, #4, lsl #12                 ; =16384
	b.ne	LBB7_32
Ltmp757:
; %bb.30:
	;DEBUG_VALUE: uncompress:name <- [DW_OP_LLVM_entry_value 1] $x0
	.loc	1 1374 19 is_stmt 1             ; bzip2.c:1374:19
Lloh570:
	adrp	x8, ___stderrp@GOTPAGE
Lloh571:
	ldr	x8, [x8, ___stderrp@GOTPAGEOFF]
Lloh572:
	ldr	x0, [x8]
	.loc	1 1376 19                       ; bzip2.c:1376:19
Lloh573:
	adrp	x8, _progName@GOTPAGE
Lloh574:
	ldr	x8, [x8, _progName@GOTPAGEOFF]
Lloh575:
	ldr	x8, [x8]
	.loc	1 1374 10                       ; bzip2.c:1374:10
	stp	x8, x19, [sp]
Lloh576:
	adrp	x1, l_.str.61@PAGE
Lloh577:
	add	x1, x1, l_.str.61@PAGEOFF
	b	LBB7_116
Ltmp758:
LBB7_31:
	;DEBUG_VALUE: uncompress:name <- [DW_OP_LLVM_entry_value 1] $x0
	.loc	1 1366 17                       ; bzip2.c:1366:17
Lloh578:
	adrp	x8, ___stderrp@GOTPAGE
Lloh579:
	ldr	x8, [x8, ___stderrp@GOTPAGEOFF]
Lloh580:
	ldr	x20, [x8]
	.loc	1 1367 17                       ; bzip2.c:1367:17
Lloh581:
	adrp	x8, _progName@GOTPAGE
Lloh582:
	ldr	x8, [x8, _progName@GOTPAGEOFF]
Lloh583:
	ldr	x21, [x8]
	.loc	1 1367 46 is_stmt 0             ; bzip2.c:1367:46
	bl	___error
Ltmp759:
	.loc	1 1367 45                       ; bzip2.c:1367:45
	ldr	w0, [x0]
	.loc	1 1367 35                       ; bzip2.c:1367:35
	bl	_strerror
Ltmp760:
	.loc	1 1366 7 is_stmt 1              ; bzip2.c:1366:7
	stp	x19, x0, [sp, #8]
	str	x21, [sp]
Lloh584:
	adrp	x1, l_.str.59@PAGE
Lloh585:
	add	x1, x1, l_.str.59@PAGEOFF
	b	LBB7_115
Ltmp761:
LBB7_32:                                ; %._crit_edge
	;DEBUG_VALUE: uncompress:name <- [DW_OP_LLVM_entry_value 1] $x0
	.loc	1 1381 9                        ; bzip2.c:1381:9
	ldr	w8, [x25]
Ltmp762:
LBB7_33:
	;DEBUG_VALUE: uncompress:name <- [DW_OP_LLVM_entry_value 1] $x0
	.loc	1 0 9 is_stmt 0                 ; bzip2.c:0:9
Lloh586:
	adrp	x9, _forceOverwrite@GOTPAGE
Lloh587:
	ldr	x9, [x9, _forceOverwrite@GOTPAGEOFF]
	ldrb	w9, [x9]
	.loc	1 1381 22                       ; bzip2.c:1381:22
	cmp	w8, #3
	ccmp	w9, #0, #0, eq
	b.ne	LBB7_36
Ltmp763:
; %bb.34:
	;DEBUG_VALUE: uncompress:name <- [DW_OP_LLVM_entry_value 1] $x0
	.loc	1 994 8 is_stmt 1               ; bzip2.c:994:8
Lloh588:
	adrp	x19, _inName@GOTPAGE
Lloh589:
	ldr	x19, [x19, _inName@GOTPAGEOFF]
Ltmp764:
	;DEBUG_VALUE: notAStandardFile:name <- $x19
	add	x1, sp, #1, lsl #12             ; =4096
	add	x1, x1, #1112
	mov	x0, x19
	bl	_lstat
Ltmp765:
	;DEBUG_VALUE: notAStandardFile:i <- $w0
	.loc	1 1381 9                        ; bzip2.c:1381:9
	cbnz	w0, LBB7_112
Ltmp766:
; %bb.35:
	;DEBUG_VALUE: uncompress:name <- [DW_OP_LLVM_entry_value 1] $x0
	.loc	1 0 0 is_stmt 0                 ; bzip2.c:0:0
	ldrh	w8, [sp, #5212]
	and	w8, w8, #0xf000
	.loc	1 1381 9                        ; bzip2.c:1381:9
	cmp	w8, #8, lsl #12                 ; =32768
	b.ne	LBB7_112
Ltmp767:
LBB7_36:                                ; %.thread147
	;DEBUG_VALUE: uncompress:name <- [DW_OP_LLVM_entry_value 1] $x0
	.loc	1 0 9                           ; bzip2.c:0:9
Lloh590:
	adrp	x26, _noisy@GOTPAGE
Lloh591:
	ldr	x26, [x26, _noisy@GOTPAGEOFF]
	ldrb	w8, [x26]
	cmp	w8, #0
	cset	w8, ne
	.loc	1 1388 9 is_stmt 1              ; bzip2.c:1388:9
	and	w8, w20, w8
	cmp	w8, #1
	b.ne	LBB7_38
Ltmp768:
; %bb.37:
	;DEBUG_VALUE: uncompress:name <- [DW_OP_LLVM_entry_value 1] $x0
	.loc	1 1390 17                       ; bzip2.c:1390:17
Lloh592:
	adrp	x8, ___stderrp@GOTPAGE
Lloh593:
	ldr	x8, [x8, ___stderrp@GOTPAGEOFF]
Lloh594:
	ldr	x0, [x8]
	.loc	1 1392 17                       ; bzip2.c:1392:17
Lloh595:
	adrp	x8, _progName@GOTPAGE
Lloh596:
	ldr	x8, [x8, _progName@GOTPAGEOFF]
Lloh597:
	ldr	x8, [x8]
	.loc	1 1390 7                        ; bzip2.c:1390:7
Lloh598:
	adrp	x9, _outName@GOTPAGE
Lloh599:
	ldr	x9, [x9, _outName@GOTPAGEOFF]
	str	x9, [sp, #16]
Lloh600:
	adrp	x9, _inName@GOTPAGE
Lloh601:
	ldr	x9, [x9, _inName@GOTPAGEOFF]
	stp	x8, x9, [sp]
Lloh602:
	adrp	x1, l_.str.82@PAGE
Lloh603:
	add	x1, x1, l_.str.82@PAGEOFF
	bl	_fprintf
Ltmp769:
LBB7_38:
	;DEBUG_VALUE: uncompress:name <- [DW_OP_LLVM_entry_value 1] $x0
	.loc	1 1395 9                        ; bzip2.c:1395:9
	ldr	w8, [x25]
	.loc	1 1395 22 is_stmt 0             ; bzip2.c:1395:22
	cmp	w8, #3
	b.ne	LBB7_42
Ltmp770:
; %bb.39:
	;DEBUG_VALUE: uncompress:name <- [DW_OP_LLVM_entry_value 1] $x0
	.loc	1 950 16 is_stmt 1              ; bzip2.c:950:16
Lloh604:
	adrp	x19, _outName@GOTPAGE
Lloh605:
	ldr	x19, [x19, _outName@GOTPAGEOFF]
Ltmp771:
	;DEBUG_VALUE: fileExists:name <- $x19
Lloh606:
	adrp	x1, l_.str.68@PAGE
Lloh607:
	add	x1, x1, l_.str.68@PAGEOFF
	mov	x0, x19
	bl	_fopen
Ltmp772:
	;DEBUG_VALUE: fileExists:exists <- [DW_OP_LLVM_convert 1 7, DW_OP_LLVM_convert 32 7, DW_OP_LLVM_convert 32 7, DW_OP_LLVM_convert 8 7, DW_OP_stack_value] undef
	;DEBUG_VALUE: fileExists:tmp <- $x0
	.loc	1 952 8                         ; bzip2.c:952:8
	cbz	x0, LBB7_42
Ltmp773:
; %bb.40:
	;DEBUG_VALUE: fileExists:tmp <- $x0
	;DEBUG_VALUE: fileExists:name <- $x19
	;DEBUG_VALUE: uncompress:name <- [DW_OP_LLVM_entry_value 1] $x0
	.loc	1 952 28 is_stmt 0              ; bzip2.c:952:28
	bl	_fclose
Ltmp774:
	.loc	1 1396 11 is_stmt 1             ; bzip2.c:1396:11
Lloh608:
	adrp	x8, _forceOverwrite@GOTPAGE
Lloh609:
	ldr	x8, [x8, _forceOverwrite@GOTPAGEOFF]
	ldrb	w8, [x8]
Ltmp775:
	;DEBUG_VALUE: fileExists:exists <- [DW_OP_LLVM_convert 1 7, DW_OP_LLVM_convert 8 7, DW_OP_stack_value] undef
	.loc	1 1396 11 is_stmt 0             ; bzip2.c:1396:11
	cbz	w8, LBB7_109
Ltmp776:
; %bb.41:
	;DEBUG_VALUE: uncompress:name <- [DW_OP_LLVM_entry_value 1] $x0
	.loc	1 1397 2 is_stmt 1              ; bzip2.c:1397:2
Lloh610:
	adrp	x0, _outName@GOTPAGE
Lloh611:
	ldr	x0, [x0, _outName@GOTPAGEOFF]
	bl	_remove
Ltmp777:
LBB7_42:                                ; %fileExists.exit71.thread
	;DEBUG_VALUE: uncompress:name <- [DW_OP_LLVM_entry_value 1] $x0
	.loc	1 1405 9                        ; bzip2.c:1405:9
	ldr	w8, [x25]
Lloh612:
	adrp	x9, _forceOverwrite@GOTPAGE
Lloh613:
	ldr	x9, [x9, _forceOverwrite@GOTPAGEOFF]
	ldrb	w9, [x9]
	.loc	1 1405 22 is_stmt 0             ; bzip2.c:1405:22
	cmp	w8, #3
	ccmp	w9, #0, #0, eq
	b.ne	LBB7_46
Ltmp778:
; %bb.43:
	;DEBUG_VALUE: uncompress:name <- [DW_OP_LLVM_entry_value 1] $x0
	.loc	1 1011 8 is_stmt 1              ; bzip2.c:1011:8
Lloh614:
	adrp	x19, _inName@GOTPAGE
Lloh615:
	ldr	x19, [x19, _inName@GOTPAGEOFF]
Ltmp779:
	;DEBUG_VALUE: countHardLinks:name <- $x19
	add	x1, sp, #1, lsl #12             ; =4096
	add	x1, x1, #1112
	mov	x0, x19
	bl	_lstat
Ltmp780:
	;DEBUG_VALUE: countHardLinks:i <- $w0
	.loc	1 1012 8                        ; bzip2.c:1012:8
	ldrh	w8, [sp, #5214]
	sub	w8, w8, #1
	cmp	w0, #0
	csel	w8, w8, wzr, eq
Ltmp781:
	;DEBUG_VALUE: uncompress:n <- $w8
	.loc	1 1405 9                        ; bzip2.c:1405:9
	cmp	w8, #1
	b.lt	LBB7_45
Ltmp782:
; %bb.44:
	;DEBUG_VALUE: uncompress:n <- $w8
	;DEBUG_VALUE: uncompress:name <- [DW_OP_LLVM_entry_value 1] $x0
	.loc	1 1407 17                       ; bzip2.c:1407:17
Lloh616:
	adrp	x9, ___stderrp@GOTPAGE
Lloh617:
	ldr	x9, [x9, ___stderrp@GOTPAGEOFF]
Lloh618:
	ldr	x0, [x9]
	.loc	1 1408 17                       ; bzip2.c:1408:17
Lloh619:
	adrp	x9, _progName@GOTPAGE
Lloh620:
	ldr	x9, [x9, _progName@GOTPAGEOFF]
Lloh621:
	ldr	x9, [x9]
	.loc	1 1408 38 is_stmt 0             ; bzip2.c:1408:38
Lloh622:
	adrp	x10, l_.str.65@PAGE
Lloh623:
	add	x10, x10, l_.str.65@PAGEOFF
Lloh624:
	adrp	x11, l_.str.4@PAGE
Lloh625:
	add	x11, x11, l_.str.4@PAGEOFF
	cmp	w8, #1
	csel	x10, x11, x10, eq
	.loc	1 1407 7 is_stmt 1              ; bzip2.c:1407:7
	stp	x8, x10, [sp, #16]
	stp	x9, x19, [sp]
Lloh626:
	adrp	x1, l_.str.64@PAGE
Lloh627:
	add	x1, x1, l_.str.64@PAGEOFF
	b	LBB7_116
Ltmp783:
LBB7_45:                                ; %thread-pre-split91
	;DEBUG_VALUE: uncompress:n <- $w8
	;DEBUG_VALUE: uncompress:name <- [DW_OP_LLVM_entry_value 1] $x0
	.loc	1 1413 9                        ; bzip2.c:1413:9
	ldr	w8, [x25]
Ltmp784:
LBB7_46:
	;DEBUG_VALUE: uncompress:name <- [DW_OP_LLVM_entry_value 1] $x0
	.loc	1 1413 9 is_stmt 0              ; bzip2.c:1413:9
	cmp	w8, #3
	b.ne	LBB7_49
Ltmp785:
; %bb.47:
	;DEBUG_VALUE: uncompress:name <- [DW_OP_LLVM_entry_value 1] $x0
	.loc	1 1051 13 is_stmt 1             ; bzip2.c:1051:13
Lloh628:
	adrp	x0, _inName@GOTPAGE
Lloh629:
	ldr	x0, [x0, _inName@GOTPAGEOFF]
Ltmp786:
	;DEBUG_VALUE: saveInputFileMetaInfo:srcName <- $x0
Lloh630:
	adrp	x1, _fileMetaInfo@PAGE
Lloh631:
	add	x1, x1, _fileMetaInfo@PAGEOFF
	bl	_stat
Ltmp787:
	;DEBUG_VALUE: saveInputFileMetaInfo:retVal <- $w0
	.loc	1 1052 10                       ; bzip2.c:1052:10
	cbnz	w0, LBB7_156
Ltmp788:
; %bb.48:                               ; %.saveInputFileMetaInfo.exit_crit_edge
	;DEBUG_VALUE: uncompress:name <- [DW_OP_LLVM_entry_value 1] $x0
	.loc	1 1419 13                       ; bzip2.c:1419:13
	ldr	w8, [x25]
Ltmp789:
LBB7_49:                                ; %saveInputFileMetaInfo.exit
	;DEBUG_VALUE: uncompress:name <- [DW_OP_LLVM_entry_value 1] $x0
	.loc	1 1419 4 is_stmt 0              ; bzip2.c:1419:4
	cmp	w8, #3
	b.eq	LBB7_54
Ltmp790:
; %bb.50:                               ; %saveInputFileMetaInfo.exit
	;DEBUG_VALUE: uncompress:name <- [DW_OP_LLVM_entry_value 1] $x0
	cmp	w8, #2
	b.eq	LBB7_58
Ltmp791:
; %bb.51:                               ; %saveInputFileMetaInfo.exit
	;DEBUG_VALUE: uncompress:name <- [DW_OP_LLVM_entry_value 1] $x0
	cmp	w8, #1
	b.ne	LBB7_163
Ltmp792:
; %bb.52:
	;DEBUG_VALUE: uncompress:name <- [DW_OP_LLVM_entry_value 1] $x0
	.loc	1 1422 18 is_stmt 1             ; bzip2.c:1422:18
Lloh632:
	adrp	x8, ___stdinp@GOTPAGE
Lloh633:
	ldr	x8, [x8, ___stdinp@GOTPAGEOFF]
Lloh634:
	ldr	x20, [x8]
Ltmp793:
	;DEBUG_VALUE: uncompress:inStr <- $x20
	.loc	1 1423 19                       ; bzip2.c:1423:19
Lloh635:
	adrp	x8, ___stdoutp@GOTPAGE
Lloh636:
	ldr	x8, [x8, ___stdoutp@GOTPAGEOFF]
Lloh637:
	ldr	x19, [x8]
Ltmp794:
	;DEBUG_VALUE: uncompress:outStr <- $x19
	.loc	1 1424 24                       ; bzip2.c:1424:24
	mov	x0, x20
	bl	_fileno
Ltmp795:
	.loc	1 1424 15 is_stmt 0             ; bzip2.c:1424:15
	bl	_isatty
Ltmp796:
	.loc	1 1424 15                       ; bzip2.c:1424:15
	cbz	w0, LBB7_60
Ltmp797:
; %bb.53:
	;DEBUG_VALUE: uncompress:outStr <- $x19
	;DEBUG_VALUE: uncompress:inStr <- $x20
	;DEBUG_VALUE: uncompress:name <- [DW_OP_LLVM_entry_value 1] $x0
	.loc	1 1425 23 is_stmt 1             ; bzip2.c:1425:23
Lloh638:
	adrp	x19, ___stderrp@GOTPAGE
Ltmp798:
Lloh639:
	ldr	x19, [x19, ___stderrp@GOTPAGEOFF]
	ldr	x0, [x19]
	.loc	1 1427 23                       ; bzip2.c:1427:23
Lloh640:
	adrp	x20, _progName@GOTPAGE
Ltmp799:
Lloh641:
	ldr	x20, [x20, _progName@GOTPAGEOFF]
	ldr	x8, [x20]
	.loc	1 1425 13                       ; bzip2.c:1425:13
	str	x8, [sp]
Lloh642:
	adrp	x1, l_.str.83@PAGE
Lloh643:
	add	x1, x1, l_.str.83@PAGEOFF
	bl	_fprintf
Ltmp800:
	.loc	1 1428 23                       ; bzip2.c:1428:23
	ldr	x0, [x19]
	.loc	1 1429 31                       ; bzip2.c:1429:31
	ldr	x8, [x20]
	.loc	1 1428 13                       ; bzip2.c:1428:13
	stp	x8, x8, [sp]
Lloh644:
	adrp	x1, l_.str.67@PAGE
Lloh645:
	add	x1, x1, l_.str.67@PAGEOFF
	b	LBB7_116
Ltmp801:
LBB7_54:
	;DEBUG_VALUE: uncompress:name <- [DW_OP_LLVM_entry_value 1] $x0
	.loc	1 1448 18                       ; bzip2.c:1448:18
Lloh646:
	adrp	x21, _inName@GOTPAGE
Lloh647:
	ldr	x21, [x21, _inName@GOTPAGEOFF]
Lloh648:
	adrp	x1, l_.str.68@PAGE
Lloh649:
	add	x1, x1, l_.str.68@PAGEOFF
	mov	x0, x21
	bl	_fopen
Ltmp802:
	mov	x20, x0
Ltmp803:
	;DEBUG_VALUE: uncompress:inStr <- $x20
	.loc	1 0 18 is_stmt 0                ; bzip2.c:0:18
	mov	w8, #384
Ltmp804:
	.loc	1 973 9 is_stmt 1               ; bzip2.c:973:9
	str	x8, [sp]
Lloh650:
	adrp	x22, _outName@GOTPAGE
Lloh651:
	ldr	x22, [x22, _outName@GOTPAGEOFF]
Ltmp805:
	;DEBUG_VALUE: fopen_output_safely:name <- $x22
	mov	x0, x22
	mov	w1, #2561
	bl	_open
Ltmp806:
	;DEBUG_VALUE: fopen_output_safely:fh <- $w0
	.loc	1 974 8                         ; bzip2.c:974:8
	cmn	w0, #1
Ltmp807:
	;DEBUG_VALUE: fopen_output_safely:mode <- undef
	b.eq	LBB7_127
Ltmp808:
; %bb.55:
	;DEBUG_VALUE: fopen_output_safely:fh <- $w0
	;DEBUG_VALUE: fopen_output_safely:name <- $x22
	;DEBUG_VALUE: uncompress:inStr <- $x20
	;DEBUG_VALUE: uncompress:name <- [DW_OP_LLVM_entry_value 1] $x0
	.loc	1 0 0 is_stmt 0                 ; bzip2.c:0:0
	mov	x23, x0
Ltmp809:
	;DEBUG_VALUE: fopen_output_safely:fh <- $w23
	.loc	1 975 9 is_stmt 1               ; bzip2.c:975:9
Lloh652:
	adrp	x1, l_.str.69@PAGE
Lloh653:
	add	x1, x1, l_.str.69@PAGEOFF
	bl	_fdopen
Ltmp810:
	;DEBUG_VALUE: fopen_output_safely:fp <- $x0
	;DEBUG_VALUE: uncompress:outStr <- $x0
	.loc	1 976 8                         ; bzip2.c:976:8
	cbz	x0, LBB7_126
Ltmp811:
; %bb.56:                               ; %fopen_output_safely.exit
	;DEBUG_VALUE: uncompress:outStr <- $x0
	;DEBUG_VALUE: uncompress:inStr <- $x20
	;DEBUG_VALUE: uncompress:name <- [DW_OP_LLVM_entry_value 1] $x0
	.loc	1 0 0 is_stmt 0                 ; bzip2.c:0:0
	mov	x19, x0
Ltmp812:
	;DEBUG_VALUE: uncompress:outStr <- $x19
	;DEBUG_VALUE: fopen_output_safely:fp <- $x19
	;DEBUG_VALUE: uncompress:outStr <- $x19
	.loc	1 1457 15 is_stmt 1             ; bzip2.c:1457:15
	cbnz	x20, LBB7_60
Ltmp813:
; %bb.57:
	;DEBUG_VALUE: uncompress:outStr <- $x19
	;DEBUG_VALUE: uncompress:inStr <- $x20
	;DEBUG_VALUE: uncompress:name <- [DW_OP_LLVM_entry_value 1] $x0
	.loc	1 1458 23                       ; bzip2.c:1458:23
Lloh654:
	adrp	x8, ___stderrp@GOTPAGE
Lloh655:
	ldr	x8, [x8, ___stderrp@GOTPAGEOFF]
Lloh656:
	ldr	x20, [x8]
Ltmp814:
	.loc	1 1459 23                       ; bzip2.c:1459:23
Lloh657:
	adrp	x8, _progName@GOTPAGE
Lloh658:
	ldr	x8, [x8, _progName@GOTPAGEOFF]
Lloh659:
	ldr	x22, [x8]
	.loc	1 1459 52 is_stmt 0             ; bzip2.c:1459:52
	bl	___error
Ltmp815:
	.loc	1 1459 51                       ; bzip2.c:1459:51
	ldr	w0, [x0]
	.loc	1 1459 41                       ; bzip2.c:1459:41
	bl	_strerror
Ltmp816:
	.loc	1 1458 13 is_stmt 1             ; bzip2.c:1458:13
	stp	x21, x0, [sp, #8]
	str	x22, [sp]
Lloh660:
	adrp	x1, l_.str.59@PAGE
Lloh661:
	add	x1, x1, l_.str.59@PAGEOFF
	mov	x0, x20
	bl	_fprintf
Ltmp817:
	.loc	1 1460 42                       ; bzip2.c:1460:42
	mov	x0, x19
	bl	_fclose
Ltmp818:
	;DEBUG_VALUE: setExit:v <- 1
	.loc	1 0 42 is_stmt 0                ; bzip2.c:0:42
	b	LBB7_117
Ltmp819:
LBB7_58:
	;DEBUG_VALUE: uncompress:name <- [DW_OP_LLVM_entry_value 1] $x0
	.loc	1 1436 18 is_stmt 1             ; bzip2.c:1436:18
Lloh662:
	adrp	x19, _inName@GOTPAGE
Lloh663:
	ldr	x19, [x19, _inName@GOTPAGEOFF]
Lloh664:
	adrp	x1, l_.str.68@PAGE
Lloh665:
	add	x1, x1, l_.str.68@PAGEOFF
	mov	x0, x19
	bl	_fopen
Ltmp820:
	;DEBUG_VALUE: uncompress:outStr <- undef
	;DEBUG_VALUE: uncompress:inStr <- $x0
	.loc	1 1438 15                       ; bzip2.c:1438:15
	cbz	x0, LBB7_114
Ltmp821:
; %bb.59:
	;DEBUG_VALUE: uncompress:inStr <- $x0
	;DEBUG_VALUE: uncompress:name <- [DW_OP_LLVM_entry_value 1] $x0
	.loc	1 0 15 is_stmt 0                ; bzip2.c:0:15
	mov	x20, x0
Ltmp822:
	;DEBUG_VALUE: uncompress:inStr <- $x20
Lloh666:
	adrp	x8, ___stdoutp@GOTPAGE
Lloh667:
	ldr	x8, [x8, ___stdoutp@GOTPAGEOFF]
Lloh668:
	ldr	x19, [x8]
Ltmp823:
	;DEBUG_VALUE: uncompress:outStr <- $x19
LBB7_60:
	;DEBUG_VALUE: uncompress:outStr <- $x19
	;DEBUG_VALUE: uncompress:inStr <- $x20
	;DEBUG_VALUE: uncompress:name <- [DW_OP_LLVM_entry_value 1] $x0
	;DEBUG_VALUE: uncompress:inStr <- $x20
	;DEBUG_VALUE: uncompress:outStr <- $x19
	.loc	1 1471 8 is_stmt 1              ; bzip2.c:1471:8
Lloh669:
	adrp	x22, _verbosity@GOTPAGE
Lloh670:
	ldr	x22, [x22, _verbosity@GOTPAGEOFF]
	ldr	w8, [x22]
Ltmp824:
	.loc	1 1471 8 is_stmt 0              ; bzip2.c:1471:8
	cmp	w8, #1
	b.lt	LBB7_65
Ltmp825:
; %bb.61:
	;DEBUG_VALUE: uncompress:outStr <- $x19
	;DEBUG_VALUE: uncompress:inStr <- $x20
	;DEBUG_VALUE: uncompress:name <- [DW_OP_LLVM_entry_value 1] $x0
	.loc	1 0 8                           ; bzip2.c:0:8
	mov	x27, x22
	mov	x26, x24
Ltmp826:
	.loc	1 1472 17 is_stmt 1             ; bzip2.c:1472:17
Lloh671:
	adrp	x23, ___stderrp@GOTPAGE
Lloh672:
	ldr	x23, [x23, ___stderrp@GOTPAGEOFF]
	ldr	x0, [x23]
	.loc	1 1472 7 is_stmt 0              ; bzip2.c:1472:7
Lloh673:
	adrp	x21, _inName@GOTPAGE
Lloh674:
	ldr	x21, [x21, _inName@GOTPAGEOFF]
	str	x21, [sp]
Lloh675:
	adrp	x1, l_.str.72@PAGE
Lloh676:
	add	x1, x1, l_.str.72@PAGEOFF
	bl	_fprintf
Ltmp827:
	;DEBUG_VALUE: pad:s <- $x21
	.loc	1 919 16 is_stmt 1              ; bzip2.c:919:16
	mov	x0, x21
	bl	_strlen
Ltmp828:
	.loc	1 919 29 is_stmt 0              ; bzip2.c:919:29
Lloh677:
	adrp	x28, _longestFileName@GOTPAGE
Lloh678:
	ldr	x28, [x28, _longestFileName@GOTPAGEOFF]
	ldr	w8, [x28]
Ltmp829:
	.loc	1 919 9                         ; bzip2.c:919:9
	cmp	w8, w0
	b.le	LBB7_64
Ltmp830:
; %bb.62:                               ; %.lr.ph.i.preheader
	;DEBUG_VALUE: pad:s <- $x21
	;DEBUG_VALUE: uncompress:outStr <- $x19
	;DEBUG_VALUE: uncompress:inStr <- $x20
	;DEBUG_VALUE: uncompress:name <- [DW_OP_LLVM_entry_value 1] $x0
	.loc	1 0 9                           ; bzip2.c:0:9
	mov	w22, #0
Lloh679:
	adrp	x21, _inName@GOTPAGE
Ltmp831:
Lloh680:
	ldr	x21, [x21, _inName@GOTPAGEOFF]
Ltmp832:
LBB7_63:                                ; %.lr.ph.i
                                        ; =>This Inner Loop Header: Depth=1
	;DEBUG_VALUE: uncompress:outStr <- $x19
	;DEBUG_VALUE: uncompress:inStr <- $x20
	;DEBUG_VALUE: uncompress:name <- [DW_OP_LLVM_entry_value 1] $x0
	;DEBUG_VALUE: pad:i <- [DW_OP_plus_uconst 1, DW_OP_stack_value] $w22
	.loc	1 921 17 is_stmt 1              ; bzip2.c:921:17
	ldr	x1, [x23]
	.loc	1 921 7 is_stmt 0               ; bzip2.c:921:7
	mov	w0, #32
	bl	_fputc
Ltmp833:
	;DEBUG_VALUE: pad:i <- [DW_OP_plus_uconst 2, DW_OP_stack_value] $w22
	.loc	1 920 21 is_stmt 1              ; bzip2.c:920:21
	ldr	w24, [x28]
	.loc	1 920 46 is_stmt 0              ; bzip2.c:920:46
	mov	x0, x21
	bl	_strlen
Ltmp834:
	.loc	1 920 18                        ; bzip2.c:920:18
	add	w22, w22, #1
Ltmp835:
	.loc	1 920 37                        ; bzip2.c:920:37
	sub	w8, w24, w0
Ltmp836:
	.loc	1 920 4                         ; bzip2.c:920:4
	cmp	w22, w8
	b.lt	LBB7_63
Ltmp837:
LBB7_64:                                ; %pad.exit
	;DEBUG_VALUE: uncompress:outStr <- $x19
	;DEBUG_VALUE: uncompress:inStr <- $x20
	;DEBUG_VALUE: uncompress:name <- [DW_OP_LLVM_entry_value 1] $x0
	.loc	1 1474 16 is_stmt 1             ; bzip2.c:1474:16
	ldr	x0, [x23]
	.loc	1 1474 7 is_stmt 0              ; bzip2.c:1474:7
	bl	_fflush
Ltmp838:
	.loc	1 0 7                           ; bzip2.c:0:7
	mov	x24, x26
	mov	x22, x27
Lloh681:
	adrp	x26, _noisy@GOTPAGE
Lloh682:
	ldr	x26, [x26, _noisy@GOTPAGEOFF]
Ltmp839:
LBB7_65:
	;DEBUG_VALUE: uncompress:outStr <- $x19
	;DEBUG_VALUE: uncompress:inStr <- $x20
	;DEBUG_VALUE: uncompress:name <- [DW_OP_LLVM_entry_value 1] $x0
	.loc	1 1478 27 is_stmt 1             ; bzip2.c:1478:27
Lloh683:
	adrp	x23, _outputHandleJustInCase@GOTPAGE
Lloh684:
	ldr	x23, [x23, _outputHandleJustInCase@GOTPAGEOFF]
	str	x19, [x23]
	mov	w8, #1
	.loc	1 1479 28                       ; bzip2.c:1479:28
	strb	w8, [x24]
Ltmp840:
	;DEBUG_VALUE: uncompressStream:nUnused <- 0
	;DEBUG_VALUE: uncompressStream:bzf <- 0
	;DEBUG_VALUE: uncompressStream:stream <- $x19
	;DEBUG_VALUE: uncompressStream:zStream <- $x20
	.loc	1 443 12                        ; bzip2.c:443:12
	str	wzr, [sp, #196]
Ltmp841:
	;DEBUG_VALUE: uncompressStream:streamNo <- 0
	.loc	1 449 8                         ; bzip2.c:449:8
	mov	x0, x19
	bl	_ferror
Ltmp842:
	.loc	1 449 8 is_stmt 0               ; bzip2.c:449:8
	cbnz	w0, LBB7_156
Ltmp843:
; %bb.66:
	;DEBUG_VALUE: uncompressStream:streamNo <- 0
	;DEBUG_VALUE: uncompressStream:zStream <- $x20
	;DEBUG_VALUE: uncompressStream:stream <- $x19
	;DEBUG_VALUE: uncompressStream:bzf <- 0
	;DEBUG_VALUE: uncompressStream:nUnused <- 0
	;DEBUG_VALUE: uncompress:outStr <- $x19
	;DEBUG_VALUE: uncompress:inStr <- $x20
	;DEBUG_VALUE: uncompress:name <- [DW_OP_LLVM_entry_value 1] $x0
	.loc	1 450 8 is_stmt 1               ; bzip2.c:450:8
	mov	x0, x20
	bl	_ferror
Ltmp844:
	.loc	1 450 8 is_stmt 0               ; bzip2.c:450:8
	cbnz	w0, LBB7_156
Ltmp845:
; %bb.67:                               ; %.preheader.i
	;DEBUG_VALUE: uncompressStream:streamNo <- 0
	;DEBUG_VALUE: uncompressStream:zStream <- $x20
	;DEBUG_VALUE: uncompressStream:stream <- $x19
	;DEBUG_VALUE: uncompressStream:bzf <- 0
	;DEBUG_VALUE: uncompressStream:nUnused <- 0
	;DEBUG_VALUE: uncompress:outStr <- $x19
	;DEBUG_VALUE: uncompress:inStr <- $x20
	;DEBUG_VALUE: uncompress:name <- [DW_OP_LLVM_entry_value 1] $x0
	;DEBUG_VALUE: uncompressStream:streamNo <- 0
	.loc	1 455 33 is_stmt 1              ; bzip2.c:455:33
	ldr	w2, [x22]
	.loc	1 456 21                        ; bzip2.c:456:21
Lloh685:
	adrp	x8, _smallMode@GOTPAGE
Lloh686:
	ldr	x8, [x8, _smallMode@GOTPAGEOFF]
	ldrb	w3, [x8]
Ltmp846:
	;DEBUG_VALUE: uncompressStream:bzerr <- [DW_OP_plus_uconst 204, DW_OP_deref] $sp
	;DEBUG_VALUE: uncompressStream:nUnused <- 0
	.loc	1 0 21 is_stmt 0                ; bzip2.c:0:21
	add	x27, sp, #208
	.loc	1 454 13 is_stmt 1              ; bzip2.c:454:13
	add	x0, sp, #204
	add	x4, sp, #208
	mov	x1, x20
	mov	w5, #0
	bl	_BZ2_bzReadOpen
Ltmp847:
	mov	x21, x0
Ltmp848:
	;DEBUG_VALUE: uncompressStream:bzf <- $x21
	.loc	1 0 13 is_stmt 0                ; bzip2.c:0:13
	ldr	w8, [sp, #204]
Ltmp849:
	;DEBUG_VALUE: uncompressStream:bzerr <- $w8
	.loc	1 458 30 is_stmt 1              ; bzip2.c:458:30
	cmp	x0, #0
	mov	w28, #0
	ccmp	w8, #0, #0, ne
	b.eq	LBB7_81
Ltmp850:
; %bb.68:
	;DEBUG_VALUE: uncompressStream:bzerr <- $w8
	;DEBUG_VALUE: uncompressStream:bzf <- $x21
	;DEBUG_VALUE: uncompressStream:streamNo <- 0
	;DEBUG_VALUE: uncompressStream:zStream <- $x20
	;DEBUG_VALUE: uncompressStream:stream <- $x19
	;DEBUG_VALUE: uncompressStream:nUnused <- 0
	;DEBUG_VALUE: uncompress:outStr <- $x19
	;DEBUG_VALUE: uncompress:inStr <- $x20
	;DEBUG_VALUE: uncompress:name <- [DW_OP_LLVM_entry_value 1] $x0
	.loc	1 0 30 is_stmt 0                ; bzip2.c:0:30
	mov	x27, x23
Ltmp851:
LBB7_69:                                ; %.loopexit90.i
	;DEBUG_VALUE: uncompressStream:bzf <- $x21
	;DEBUG_VALUE: uncompressStream:zStream <- $x20
	;DEBUG_VALUE: uncompressStream:stream <- $x19
	;DEBUG_VALUE: uncompress:outStr <- $x19
	;DEBUG_VALUE: uncompress:inStr <- $x20
	;DEBUG_VALUE: uncompress:name <- [DW_OP_LLVM_entry_value 1] $x0
	;DEBUG_VALUE: uncompressStream:streamNo <- $w28
	;DEBUG_VALUE: uncompressStream:bzerr_dummy <- [DW_OP_plus_uconst 200, DW_OP_deref] $sp
	;DEBUG_LABEL: uncompressStream:errhandler
	.loc	1 518 4 is_stmt 1               ; bzip2.c:518:4
	add	x0, sp, #200
	mov	x1, x21
	bl	_BZ2_bzReadClose
Ltmp852:
	.loc	1 519 12                        ; bzip2.c:519:12
	ldr	w8, [sp, #204]
Ltmp853:
	;DEBUG_VALUE: uncompressStream:bzerr <- $w8
	.loc	1 519 4 is_stmt 0               ; bzip2.c:519:4
	cmn	w8, #5
	b.ne	LBB7_153
Ltmp854:
; %bb.70:
	;DEBUG_VALUE: uncompressStream:bzerr_dummy <- [DW_OP_plus_uconst 200, DW_OP_deref] $sp
	;DEBUG_VALUE: uncompressStream:streamNo <- $w28
	;DEBUG_VALUE: uncompressStream:bzerr <- $w8
	;DEBUG_VALUE: uncompressStream:bzf <- $x21
	;DEBUG_VALUE: uncompressStream:zStream <- $x20
	;DEBUG_VALUE: uncompressStream:stream <- $x19
	;DEBUG_VALUE: uncompress:outStr <- $x19
	;DEBUG_VALUE: uncompress:inStr <- $x20
	;DEBUG_VALUE: uncompress:name <- [DW_OP_LLVM_entry_value 1] $x0
	.loc	1 532 25 is_stmt 1              ; bzip2.c:532:25
Lloh687:
	adrp	x8, ___stdinp@GOTPAGE
Ltmp855:
Lloh688:
	ldr	x8, [x8, ___stdinp@GOTPAGEOFF]
Lloh689:
	ldr	x8, [x8]
Ltmp856:
	.loc	1 532 14 is_stmt 0              ; bzip2.c:532:14
	cmp	x8, x20
	b.eq	LBB7_72
Ltmp857:
; %bb.71:
	;DEBUG_VALUE: uncompressStream:bzerr_dummy <- [DW_OP_plus_uconst 200, DW_OP_deref] $sp
	;DEBUG_VALUE: uncompressStream:streamNo <- $w28
	;DEBUG_VALUE: uncompressStream:bzf <- $x21
	;DEBUG_VALUE: uncompressStream:zStream <- $x20
	;DEBUG_VALUE: uncompressStream:stream <- $x19
	;DEBUG_VALUE: uncompress:outStr <- $x19
	;DEBUG_VALUE: uncompress:inStr <- $x20
	;DEBUG_VALUE: uncompress:name <- [DW_OP_LLVM_entry_value 1] $x0
	.loc	1 532 35                        ; bzip2.c:532:35
	mov	x0, x20
	bl	_fclose
Ltmp858:
LBB7_72:
	;DEBUG_VALUE: uncompressStream:bzerr_dummy <- [DW_OP_plus_uconst 200, DW_OP_deref] $sp
	;DEBUG_VALUE: uncompressStream:streamNo <- $w28
	;DEBUG_VALUE: uncompressStream:bzf <- $x21
	;DEBUG_VALUE: uncompressStream:zStream <- $x20
	;DEBUG_VALUE: uncompressStream:stream <- $x19
	;DEBUG_VALUE: uncompress:outStr <- $x19
	;DEBUG_VALUE: uncompress:inStr <- $x20
	;DEBUG_VALUE: uncompress:name <- [DW_OP_LLVM_entry_value 1] $x0
	.loc	1 533 24 is_stmt 1              ; bzip2.c:533:24
Lloh690:
	adrp	x8, ___stdoutp@GOTPAGE
Lloh691:
	ldr	x8, [x8, ___stdoutp@GOTPAGEOFF]
Lloh692:
	ldr	x8, [x8]
Ltmp859:
	.loc	1 533 14 is_stmt 0              ; bzip2.c:533:14
	cmp	x8, x19
	b.eq	LBB7_74
Ltmp860:
; %bb.73:
	;DEBUG_VALUE: uncompressStream:bzerr_dummy <- [DW_OP_plus_uconst 200, DW_OP_deref] $sp
	;DEBUG_VALUE: uncompressStream:streamNo <- $w28
	;DEBUG_VALUE: uncompressStream:bzf <- $x21
	;DEBUG_VALUE: uncompressStream:zStream <- $x20
	;DEBUG_VALUE: uncompressStream:stream <- $x19
	;DEBUG_VALUE: uncompress:outStr <- $x19
	;DEBUG_VALUE: uncompress:inStr <- $x20
	;DEBUG_VALUE: uncompress:name <- [DW_OP_LLVM_entry_value 1] $x0
	.loc	1 533 35                        ; bzip2.c:533:35
	mov	x0, x19
	bl	_fclose
Ltmp861:
LBB7_74:
	;DEBUG_VALUE: uncompressStream:bzerr_dummy <- [DW_OP_plus_uconst 200, DW_OP_deref] $sp
	;DEBUG_VALUE: uncompressStream:streamNo <- $w28
	;DEBUG_VALUE: uncompressStream:bzf <- $x21
	;DEBUG_VALUE: uncompressStream:zStream <- $x20
	;DEBUG_VALUE: uncompressStream:stream <- $x19
	;DEBUG_VALUE: uncompress:outStr <- $x19
	;DEBUG_VALUE: uncompress:inStr <- $x20
	;DEBUG_VALUE: uncompress:name <- [DW_OP_LLVM_entry_value 1] $x0
	.loc	1 534 14 is_stmt 1              ; bzip2.c:534:14
	cmp	w28, #1
	b.ne	LBB7_110
Ltmp862:
; %bb.75:
	;DEBUG_VALUE: uncompress:outStr <- $x19
	;DEBUG_VALUE: uncompress:inStr <- $x20
	;DEBUG_VALUE: uncompress:name <- [DW_OP_LLVM_entry_value 1] $x0
	;DEBUG_VALUE: uncompress:magicNumberOK <- 0
	.loc	1 1494 21                       ; bzip2.c:1494:21
Lloh693:
	adrp	x8, _unzFailsExist@GOTPAGE
Lloh694:
	ldr	x8, [x8, _unzFailsExist@GOTPAGEOFF]
Ltmp863:
	.loc	1 1481 27                       ; bzip2.c:1481:27
	str	xzr, [x27]
	mov	w9, #1
Ltmp864:
	.loc	1 1494 21                       ; bzip2.c:1494:21
Lloh695:
	strb	w9, [x8]
	.loc	1 1495 31                       ; bzip2.c:1495:31
	strb	wzr, [x24]
Ltmp865:
	.loc	1 1496 12                       ; bzip2.c:1496:12
	ldr	w8, [x25]
Ltmp866:
	.loc	1 1496 12 is_stmt 0             ; bzip2.c:1496:12
	cmp	w8, #3
	b.ne	LBB7_77
Ltmp867:
; %bb.76:
	;DEBUG_VALUE: uncompress:magicNumberOK <- 0
	;DEBUG_VALUE: uncompress:outStr <- $x19
	;DEBUG_VALUE: uncompress:inStr <- $x20
	;DEBUG_VALUE: uncompress:name <- [DW_OP_LLVM_entry_value 1] $x0
	.loc	1 1497 29 is_stmt 1             ; bzip2.c:1497:29
Lloh696:
	adrp	x0, _outName@GOTPAGE
Lloh697:
	ldr	x0, [x0, _outName@GOTPAGEOFF]
	bl	_remove
Ltmp868:
	;DEBUG_VALUE: retVal <- $w0
	.loc	1 1498 16                       ; bzip2.c:1498:16
	cbnz	w0, LBB7_156
Ltmp869:
LBB7_77:
	;DEBUG_VALUE: uncompress:magicNumberOK <- 0
	;DEBUG_VALUE: uncompress:outStr <- $x19
	;DEBUG_VALUE: uncompress:inStr <- $x20
	;DEBUG_VALUE: uncompress:name <- [DW_OP_LLVM_entry_value 1] $x0
	.loc	1 1501 28                       ; bzip2.c:1501:28
	strb	wzr, [x24]
Ltmp870:
	;DEBUG_VALUE: setExit:v <- 2
	.loc	1 653 12                        ; bzip2.c:653:12
Lloh698:
	adrp	x8, _exitValue@GOTPAGE
Lloh699:
	ldr	x8, [x8, _exitValue@GOTPAGEOFF]
	ldr	w9, [x8]
Ltmp871:
	.loc	1 653 8 is_stmt 0               ; bzip2.c:653:8
	cmp	w9, #1
	b.gt	LBB7_79
Ltmp872:
; %bb.78:
	;DEBUG_VALUE: setExit:v <- 2
	;DEBUG_VALUE: uncompress:magicNumberOK <- 0
	;DEBUG_VALUE: uncompress:outStr <- $x19
	;DEBUG_VALUE: uncompress:inStr <- $x20
	;DEBUG_VALUE: uncompress:name <- [DW_OP_LLVM_entry_value 1] $x0
	.loc	1 0 8                           ; bzip2.c:0:8
	mov	w9, #2
Ltmp873:
	.loc	1 653 33                        ; bzip2.c:653:33
	str	w9, [x8]
Ltmp874:
LBB7_79:                                ; %setExit.exit86
	;DEBUG_VALUE: uncompress:magicNumberOK <- 0
	;DEBUG_VALUE: uncompress:outStr <- $x19
	;DEBUG_VALUE: uncompress:inStr <- $x20
	;DEBUG_VALUE: uncompress:name <- [DW_OP_LLVM_entry_value 1] $x0
	.loc	1 1508 11 is_stmt 1             ; bzip2.c:1508:11
	ldr	w8, [x22]
	.loc	1 0 0 is_stmt 0                 ; bzip2.c:0:0
Lloh700:
	adrp	x9, ___stderrp@GOTPAGE
Lloh701:
	ldr	x9, [x9, ___stderrp@GOTPAGEOFF]
Lloh702:
	ldr	x3, [x9]
Ltmp875:
	.loc	1 1508 11                       ; bzip2.c:1508:11
	cmp	w8, #1
	b.lt	LBB7_129
Ltmp876:
; %bb.80:
	;DEBUG_VALUE: uncompress:magicNumberOK <- 0
	;DEBUG_VALUE: uncompress:outStr <- $x19
	;DEBUG_VALUE: uncompress:inStr <- $x20
	;DEBUG_VALUE: uncompress:name <- [DW_OP_LLVM_entry_value 1] $x0
	.loc	1 1509 10 is_stmt 1             ; bzip2.c:1509:10
Lloh703:
	adrp	x0, l_.str.87@PAGE
Lloh704:
	add	x0, x0, l_.str.87@PAGEOFF
	mov	w1, #18
	b	LBB7_148
Ltmp877:
LBB7_81:                                ; %.lr.ph115.i.preheader
	;DEBUG_VALUE: uncompressStream:bzerr <- $w8
	;DEBUG_VALUE: uncompressStream:bzf <- $x21
	;DEBUG_VALUE: uncompressStream:streamNo <- 0
	;DEBUG_VALUE: uncompressStream:zStream <- $x20
	;DEBUG_VALUE: uncompressStream:stream <- $x19
	;DEBUG_VALUE: uncompressStream:nUnused <- 0
	;DEBUG_VALUE: uncompress:outStr <- $x19
	;DEBUG_VALUE: uncompress:inStr <- $x20
	;DEBUG_VALUE: uncompress:name <- [DW_OP_LLVM_entry_value 1] $x0
	.loc	1 452 4                         ; bzip2.c:452:4
	add	x8, x27, #32
Ltmp878:
	.loc	1 0 4 is_stmt 0                 ; bzip2.c:0:4
	str	x8, [sp, #32]                   ; 8-byte Folded Spill
	mov	x27, x23
Ltmp879:
LBB7_82:                                ; %.lr.ph115.i
                                        ; =>This Loop Header: Depth=1
                                        ;     Child Loop BB7_83 Depth 2
                                        ;     Child Loop BB7_96 Depth 2
                                        ;     Child Loop BB7_100 Depth 2
                                        ;     Child Loop BB7_103 Depth 2
	;DEBUG_VALUE: uncompressStream:bzf <- $x21
	;DEBUG_VALUE: uncompressStream:zStream <- $x20
	;DEBUG_VALUE: uncompressStream:stream <- $x19
	;DEBUG_VALUE: uncompress:outStr <- $x19
	;DEBUG_VALUE: uncompress:inStr <- $x20
	;DEBUG_VALUE: uncompress:name <- [DW_OP_LLVM_entry_value 1] $x0
	;DEBUG_VALUE: uncompressStream:streamNo <- $w28
	mov	w8, #0
Ltmp880:
	.loc	1 459 15 is_stmt 1              ; bzip2.c:459:15
	add	w28, w28, #1
Ltmp881:
	;DEBUG_VALUE: uncompressStream:streamNo <- $w28
	;DEBUG_VALUE: uncompressStream:bzerr <- $w8
	.loc	1 461 7                         ; bzip2.c:461:7
	cbnz	w8, LBB7_88
Ltmp882:
LBB7_83:                                ;   Parent Loop BB7_82 Depth=1
                                        ; =>  This Inner Loop Header: Depth=2
	;DEBUG_VALUE: uncompressStream:streamNo <- $w28
	;DEBUG_VALUE: uncompressStream:bzerr <- $w8
	;DEBUG_VALUE: uncompressStream:bzf <- $x21
	;DEBUG_VALUE: uncompressStream:zStream <- $x20
	;DEBUG_VALUE: uncompressStream:stream <- $x19
	;DEBUG_VALUE: uncompress:outStr <- $x19
	;DEBUG_VALUE: uncompress:inStr <- $x20
	;DEBUG_VALUE: uncompress:name <- [DW_OP_LLVM_entry_value 1] $x0
	;DEBUG_VALUE: uncompressStream:bzerr <- [DW_OP_plus_uconst 204, DW_OP_deref] $sp
	.loc	1 462 18                        ; bzip2.c:462:18
	add	x0, sp, #204
	add	x2, sp, #1, lsl #12             ; =4096
	add	x2, x2, #1112
	mov	x1, x21
	mov	w3, #5000
	bl	_BZ2_bzRead
Ltmp883:
	;DEBUG_VALUE: uncompressStream:nread <- $w0
	.loc	1 463 14                        ; bzip2.c:463:14
	ldr	w8, [sp, #204]
Ltmp884:
	;DEBUG_VALUE: uncompressStream:bzerr <- $w8
	.loc	1 463 14 is_stmt 0              ; bzip2.c:463:14
	cmn	w8, #5
	b.eq	LBB7_119
Ltmp885:
; %bb.84:                               ;   in Loop: Header=BB7_83 Depth=2
	;DEBUG_VALUE: uncompressStream:nread <- $w0
	;DEBUG_VALUE: uncompressStream:streamNo <- $w28
	;DEBUG_VALUE: uncompressStream:bzerr <- $w8
	;DEBUG_VALUE: uncompressStream:bzf <- $x21
	;DEBUG_VALUE: uncompressStream:zStream <- $x20
	;DEBUG_VALUE: uncompressStream:stream <- $x19
	;DEBUG_VALUE: uncompress:outStr <- $x19
	;DEBUG_VALUE: uncompress:inStr <- $x20
	;DEBUG_VALUE: uncompress:name <- [DW_OP_LLVM_entry_value 1] $x0
	.loc	1 464 26 is_stmt 1              ; bzip2.c:464:26
	and	w8, w8, #0xfffffffb
Ltmp886:
	cmp	w8, #0
	ccmp	w0, #1, #8, eq
	b.lt	LBB7_86
Ltmp887:
; %bb.85:                               ;   in Loop: Header=BB7_83 Depth=2
	;DEBUG_VALUE: uncompressStream:nread <- $w0
	;DEBUG_VALUE: uncompressStream:streamNo <- $w28
	;DEBUG_VALUE: uncompressStream:bzf <- $x21
	;DEBUG_VALUE: uncompressStream:zStream <- $x20
	;DEBUG_VALUE: uncompressStream:stream <- $x19
	;DEBUG_VALUE: uncompress:outStr <- $x19
	;DEBUG_VALUE: uncompress:inStr <- $x20
	;DEBUG_VALUE: uncompress:name <- [DW_OP_LLVM_entry_value 1] $x0
	.loc	1 0 26 is_stmt 0                ; bzip2.c:0:26
	mov	w2, w0
	.loc	1 465 13 is_stmt 1              ; bzip2.c:465:13
	add	x0, sp, #1, lsl #12             ; =4096
Ltmp888:
	add	x0, x0, #1112
	mov	w1, #1
	mov	x3, x19
	bl	_fwrite
Ltmp889:
LBB7_86:                                ;   in Loop: Header=BB7_83 Depth=2
	;DEBUG_VALUE: uncompressStream:streamNo <- $w28
	;DEBUG_VALUE: uncompressStream:bzf <- $x21
	;DEBUG_VALUE: uncompressStream:zStream <- $x20
	;DEBUG_VALUE: uncompressStream:stream <- $x19
	;DEBUG_VALUE: uncompress:outStr <- $x19
	;DEBUG_VALUE: uncompress:inStr <- $x20
	;DEBUG_VALUE: uncompress:name <- [DW_OP_LLVM_entry_value 1] $x0
	.loc	1 466 14                        ; bzip2.c:466:14
	mov	x0, x19
	bl	_ferror
Ltmp890:
	.loc	1 466 14 is_stmt 0              ; bzip2.c:466:14
	cbnz	w0, LBB7_156
Ltmp891:
; %bb.87:                               ; %thread-pre-split.i
                                        ;   in Loop: Header=BB7_83 Depth=2
	;DEBUG_VALUE: uncompressStream:streamNo <- $w28
	;DEBUG_VALUE: uncompressStream:bzf <- $x21
	;DEBUG_VALUE: uncompressStream:zStream <- $x20
	;DEBUG_VALUE: uncompressStream:stream <- $x19
	;DEBUG_VALUE: uncompress:outStr <- $x19
	;DEBUG_VALUE: uncompress:inStr <- $x20
	;DEBUG_VALUE: uncompress:name <- [DW_OP_LLVM_entry_value 1] $x0
	.loc	1 461 14 is_stmt 1              ; bzip2.c:461:14
	ldr	w8, [sp, #204]
Ltmp892:
	;DEBUG_VALUE: uncompressStream:bzerr <- $w8
	.loc	1 461 7 is_stmt 0               ; bzip2.c:461:7
	cbz	w8, LBB7_83
Ltmp893:
LBB7_88:                                ;   in Loop: Header=BB7_82 Depth=1
	;DEBUG_VALUE: uncompressStream:streamNo <- $w28
	;DEBUG_VALUE: uncompressStream:bzerr <- $w8
	;DEBUG_VALUE: uncompressStream:bzf <- $x21
	;DEBUG_VALUE: uncompressStream:zStream <- $x20
	;DEBUG_VALUE: uncompressStream:stream <- $x19
	;DEBUG_VALUE: uncompress:outStr <- $x19
	;DEBUG_VALUE: uncompress:inStr <- $x20
	;DEBUG_VALUE: uncompress:name <- [DW_OP_LLVM_entry_value 1] $x0
	cmp	w8, #4
	b.ne	LBB7_69
Ltmp894:
; %bb.89:                               ;   in Loop: Header=BB7_82 Depth=1
	;DEBUG_VALUE: uncompressStream:streamNo <- $w28
	;DEBUG_VALUE: uncompressStream:bzerr <- $w8
	;DEBUG_VALUE: uncompressStream:bzf <- $x21
	;DEBUG_VALUE: uncompressStream:zStream <- $x20
	;DEBUG_VALUE: uncompressStream:stream <- $x19
	;DEBUG_VALUE: uncompress:outStr <- $x19
	;DEBUG_VALUE: uncompress:inStr <- $x20
	;DEBUG_VALUE: uncompress:name <- [DW_OP_LLVM_entry_value 1] $x0
	;DEBUG_VALUE: uncompressStream:nUnused <- [DW_OP_plus_uconst 196, DW_OP_deref] $sp
	;DEBUG_VALUE: uncompressStream:bzerr <- [DW_OP_plus_uconst 204, DW_OP_deref] $sp
	;DEBUG_VALUE: uncompressStream:unusedTmpV <- [DW_OP_plus_uconst 184, DW_OP_deref] $sp
	.loc	1 470 7 is_stmt 1               ; bzip2.c:470:7
	add	x0, sp, #204
	add	x2, sp, #184
	add	x3, sp, #196
	mov	x1, x21
	bl	_BZ2_bzReadGetUnused
Ltmp895:
	.loc	1 471 11                        ; bzip2.c:471:11
	ldr	w8, [sp, #204]
Ltmp896:
	;DEBUG_VALUE: uncompressStream:bzerr <- $w8
	.loc	1 471 11 is_stmt 0              ; bzip2.c:471:11
	cbnz	w8, LBB7_165
Ltmp897:
; %bb.90:                               ;   in Loop: Header=BB7_82 Depth=1
	;DEBUG_VALUE: uncompressStream:unusedTmpV <- [DW_OP_plus_uconst 184, DW_OP_deref] $sp
	;DEBUG_VALUE: uncompressStream:nUnused <- [DW_OP_plus_uconst 196, DW_OP_deref] $sp
	;DEBUG_VALUE: uncompressStream:streamNo <- $w28
	;DEBUG_VALUE: uncompressStream:bzerr <- $w8
	;DEBUG_VALUE: uncompressStream:bzf <- $x21
	;DEBUG_VALUE: uncompressStream:zStream <- $x20
	;DEBUG_VALUE: uncompressStream:stream <- $x19
	;DEBUG_VALUE: uncompress:outStr <- $x19
	;DEBUG_VALUE: uncompress:inStr <- $x20
	;DEBUG_VALUE: uncompress:name <- [DW_OP_LLVM_entry_value 1] $x0
	;DEBUG_VALUE: uncompressStream:unusedTmpV <- undef
	;DEBUG_VALUE: uncompressStream:unusedTmp <- undef
	;DEBUG_VALUE: uncompressStream:i <- 0
	.loc	1 0 11                          ; bzip2.c:0:11
	ldr	w8, [sp, #196]
Ltmp898:
	;DEBUG_VALUE: uncompressStream:nUnused <- $w8
	.loc	1 474 7 is_stmt 1               ; bzip2.c:474:7
	cmp	w8, #1
	add	x14, sp, #208
	b.lt	LBB7_104
Ltmp899:
; %bb.91:                               ; %iter.check
                                        ;   in Loop: Header=BB7_82 Depth=1
	;DEBUG_VALUE: uncompressStream:nUnused <- $w8
	;DEBUG_VALUE: uncompressStream:i <- 0
	;DEBUG_VALUE: uncompressStream:streamNo <- $w28
	;DEBUG_VALUE: uncompressStream:bzf <- $x21
	;DEBUG_VALUE: uncompressStream:zStream <- $x20
	;DEBUG_VALUE: uncompressStream:stream <- $x19
	;DEBUG_VALUE: uncompress:outStr <- $x19
	;DEBUG_VALUE: uncompress:inStr <- $x20
	;DEBUG_VALUE: uncompress:name <- [DW_OP_LLVM_entry_value 1] $x0
	.loc	1 0 7 is_stmt 0                 ; bzip2.c:0:7
	mov	x10, #0
	ldr	x9, [sp, #184]
Ltmp900:
	;DEBUG_VALUE: uncompressStream:unusedTmp <- $x9
	;DEBUG_VALUE: uncompressStream:unusedTmpV <- $x9
	.loc	1 474 7                         ; bzip2.c:474:7
	cmp	w8, #8
	b.lo	LBB7_102
Ltmp901:
; %bb.92:                               ; %iter.check
                                        ;   in Loop: Header=BB7_82 Depth=1
	;DEBUG_VALUE: uncompressStream:unusedTmpV <- $x9
	;DEBUG_VALUE: uncompressStream:unusedTmp <- $x9
	;DEBUG_VALUE: uncompressStream:nUnused <- $w8
	;DEBUG_VALUE: uncompressStream:i <- 0
	;DEBUG_VALUE: uncompressStream:streamNo <- $w28
	;DEBUG_VALUE: uncompressStream:bzf <- $x21
	;DEBUG_VALUE: uncompressStream:zStream <- $x20
	;DEBUG_VALUE: uncompressStream:stream <- $x19
	;DEBUG_VALUE: uncompress:outStr <- $x19
	;DEBUG_VALUE: uncompress:inStr <- $x20
	;DEBUG_VALUE: uncompress:name <- [DW_OP_LLVM_entry_value 1] $x0
	sub	x11, x14, x9
	cmp	x11, #64
	b.lo	LBB7_102
Ltmp902:
; %bb.93:                               ; %vector.main.loop.iter.check
                                        ;   in Loop: Header=BB7_82 Depth=1
	;DEBUG_VALUE: uncompressStream:unusedTmpV <- $x9
	;DEBUG_VALUE: uncompressStream:unusedTmp <- $x9
	;DEBUG_VALUE: uncompressStream:nUnused <- $w8
	;DEBUG_VALUE: uncompressStream:i <- 0
	;DEBUG_VALUE: uncompressStream:streamNo <- $w28
	;DEBUG_VALUE: uncompressStream:bzf <- $x21
	;DEBUG_VALUE: uncompressStream:zStream <- $x20
	;DEBUG_VALUE: uncompressStream:stream <- $x19
	;DEBUG_VALUE: uncompress:outStr <- $x19
	;DEBUG_VALUE: uncompress:inStr <- $x20
	;DEBUG_VALUE: uncompress:name <- [DW_OP_LLVM_entry_value 1] $x0
	cmp	w8, #64
	b.hs	LBB7_95
Ltmp903:
; %bb.94:                               ;   in Loop: Header=BB7_82 Depth=1
	;DEBUG_VALUE: uncompressStream:unusedTmpV <- $x9
	;DEBUG_VALUE: uncompressStream:unusedTmp <- $x9
	;DEBUG_VALUE: uncompressStream:nUnused <- $w8
	;DEBUG_VALUE: uncompressStream:i <- 0
	;DEBUG_VALUE: uncompressStream:streamNo <- $w28
	;DEBUG_VALUE: uncompressStream:bzf <- $x21
	;DEBUG_VALUE: uncompressStream:zStream <- $x20
	;DEBUG_VALUE: uncompressStream:stream <- $x19
	;DEBUG_VALUE: uncompress:outStr <- $x19
	;DEBUG_VALUE: uncompress:inStr <- $x20
	;DEBUG_VALUE: uncompress:name <- [DW_OP_LLVM_entry_value 1] $x0
	.loc	1 0 7                           ; bzip2.c:0:7
	mov	x10, #0
	b	LBB7_99
Ltmp904:
LBB7_95:                                ; %vector.ph
                                        ;   in Loop: Header=BB7_82 Depth=1
	;DEBUG_VALUE: uncompressStream:unusedTmpV <- $x9
	;DEBUG_VALUE: uncompressStream:unusedTmp <- $x9
	;DEBUG_VALUE: uncompressStream:nUnused <- $w8
	;DEBUG_VALUE: uncompressStream:i <- 0
	;DEBUG_VALUE: uncompressStream:streamNo <- $w28
	;DEBUG_VALUE: uncompressStream:bzf <- $x21
	;DEBUG_VALUE: uncompressStream:zStream <- $x20
	;DEBUG_VALUE: uncompressStream:stream <- $x19
	;DEBUG_VALUE: uncompress:outStr <- $x19
	;DEBUG_VALUE: uncompress:inStr <- $x20
	;DEBUG_VALUE: uncompress:name <- [DW_OP_LLVM_entry_value 1] $x0
	.loc	1 474 7                         ; bzip2.c:474:7
	and	x10, x8, #0xffffffc0
	add	x11, x9, #32
	ldr	x12, [sp, #32]                  ; 8-byte Folded Reload
	mov	x13, x10
Ltmp905:
LBB7_96:                                ; %vector.body
                                        ;   Parent Loop BB7_82 Depth=1
                                        ; =>  This Inner Loop Header: Depth=2
	;DEBUG_VALUE: uncompressStream:unusedTmpV <- $x9
	;DEBUG_VALUE: uncompressStream:unusedTmp <- $x9
	;DEBUG_VALUE: uncompressStream:nUnused <- $w8
	;DEBUG_VALUE: uncompressStream:i <- 0
	;DEBUG_VALUE: uncompressStream:streamNo <- $w28
	;DEBUG_VALUE: uncompressStream:bzf <- $x21
	;DEBUG_VALUE: uncompressStream:zStream <- $x20
	;DEBUG_VALUE: uncompressStream:stream <- $x19
	;DEBUG_VALUE: uncompress:outStr <- $x19
	;DEBUG_VALUE: uncompress:inStr <- $x20
	;DEBUG_VALUE: uncompress:name <- [DW_OP_LLVM_entry_value 1] $x0
	.loc	1 474 49                        ; bzip2.c:474:49
	ldp	q0, q1, [x11, #-32]
	ldp	q2, q3, [x11], #64
	.loc	1 474 47                        ; bzip2.c:474:47
	stp	q0, q1, [x12, #-32]
	stp	q2, q3, [x12], #64
	.loc	1 474 33                        ; bzip2.c:474:33
	subs	x13, x13, #64
	b.ne	LBB7_96
Ltmp906:
; %bb.97:                               ; %middle.block
                                        ;   in Loop: Header=BB7_82 Depth=1
	;DEBUG_VALUE: uncompressStream:unusedTmpV <- $x9
	;DEBUG_VALUE: uncompressStream:unusedTmp <- $x9
	;DEBUG_VALUE: uncompressStream:nUnused <- $w8
	;DEBUG_VALUE: uncompressStream:i <- 0
	;DEBUG_VALUE: uncompressStream:streamNo <- $w28
	;DEBUG_VALUE: uncompressStream:bzf <- $x21
	;DEBUG_VALUE: uncompressStream:zStream <- $x20
	;DEBUG_VALUE: uncompressStream:stream <- $x19
	;DEBUG_VALUE: uncompress:outStr <- $x19
	;DEBUG_VALUE: uncompress:inStr <- $x20
	;DEBUG_VALUE: uncompress:name <- [DW_OP_LLVM_entry_value 1] $x0
	.loc	1 474 7                         ; bzip2.c:474:7
	cmp	x10, x8
	b.eq	LBB7_104
Ltmp907:
; %bb.98:                               ; %vec.epilog.iter.check
                                        ;   in Loop: Header=BB7_82 Depth=1
	;DEBUG_VALUE: uncompressStream:unusedTmpV <- $x9
	;DEBUG_VALUE: uncompressStream:unusedTmp <- $x9
	;DEBUG_VALUE: uncompressStream:nUnused <- $w8
	;DEBUG_VALUE: uncompressStream:i <- 0
	;DEBUG_VALUE: uncompressStream:streamNo <- $w28
	;DEBUG_VALUE: uncompressStream:bzf <- $x21
	;DEBUG_VALUE: uncompressStream:zStream <- $x20
	;DEBUG_VALUE: uncompressStream:stream <- $x19
	;DEBUG_VALUE: uncompress:outStr <- $x19
	;DEBUG_VALUE: uncompress:inStr <- $x20
	;DEBUG_VALUE: uncompress:name <- [DW_OP_LLVM_entry_value 1] $x0
	tst	x8, #0x38
	b.eq	LBB7_102
Ltmp908:
LBB7_99:                                ; %vec.epilog.ph
                                        ;   in Loop: Header=BB7_82 Depth=1
	;DEBUG_VALUE: uncompressStream:unusedTmpV <- $x9
	;DEBUG_VALUE: uncompressStream:unusedTmp <- $x9
	;DEBUG_VALUE: uncompressStream:nUnused <- $w8
	;DEBUG_VALUE: uncompressStream:i <- 0
	;DEBUG_VALUE: uncompressStream:streamNo <- $w28
	;DEBUG_VALUE: uncompressStream:bzf <- $x21
	;DEBUG_VALUE: uncompressStream:zStream <- $x20
	;DEBUG_VALUE: uncompressStream:stream <- $x19
	;DEBUG_VALUE: uncompress:outStr <- $x19
	;DEBUG_VALUE: uncompress:inStr <- $x20
	;DEBUG_VALUE: uncompress:name <- [DW_OP_LLVM_entry_value 1] $x0
	.loc	1 0 7                           ; bzip2.c:0:7
	mov	x13, x10
	.loc	1 474 7                         ; bzip2.c:474:7
	and	x10, x8, #0xfffffff8
	add	x11, x9, x13
	add	x12, x14, x13
	sub	x13, x13, x10
Ltmp909:
LBB7_100:                               ; %vec.epilog.vector.body
                                        ;   Parent Loop BB7_82 Depth=1
                                        ; =>  This Inner Loop Header: Depth=2
	;DEBUG_VALUE: uncompressStream:unusedTmpV <- $x9
	;DEBUG_VALUE: uncompressStream:unusedTmp <- $x9
	;DEBUG_VALUE: uncompressStream:nUnused <- $w8
	;DEBUG_VALUE: uncompressStream:i <- 0
	;DEBUG_VALUE: uncompressStream:streamNo <- $w28
	;DEBUG_VALUE: uncompressStream:bzf <- $x21
	;DEBUG_VALUE: uncompressStream:zStream <- $x20
	;DEBUG_VALUE: uncompressStream:stream <- $x19
	;DEBUG_VALUE: uncompress:outStr <- $x19
	;DEBUG_VALUE: uncompress:inStr <- $x20
	;DEBUG_VALUE: uncompress:name <- [DW_OP_LLVM_entry_value 1] $x0
	.loc	1 474 49                        ; bzip2.c:474:49
	ldr	d0, [x11], #8
	.loc	1 474 47                        ; bzip2.c:474:47
	str	d0, [x12], #8
	.loc	1 474 33                        ; bzip2.c:474:33
	adds	x13, x13, #8
	b.ne	LBB7_100
Ltmp910:
; %bb.101:                              ; %vec.epilog.middle.block
                                        ;   in Loop: Header=BB7_82 Depth=1
	;DEBUG_VALUE: uncompressStream:unusedTmpV <- $x9
	;DEBUG_VALUE: uncompressStream:unusedTmp <- $x9
	;DEBUG_VALUE: uncompressStream:nUnused <- $w8
	;DEBUG_VALUE: uncompressStream:i <- 0
	;DEBUG_VALUE: uncompressStream:streamNo <- $w28
	;DEBUG_VALUE: uncompressStream:bzf <- $x21
	;DEBUG_VALUE: uncompressStream:zStream <- $x20
	;DEBUG_VALUE: uncompressStream:stream <- $x19
	;DEBUG_VALUE: uncompress:outStr <- $x19
	;DEBUG_VALUE: uncompress:inStr <- $x20
	;DEBUG_VALUE: uncompress:name <- [DW_OP_LLVM_entry_value 1] $x0
	.loc	1 474 7                         ; bzip2.c:474:7
	cmp	x10, x8
	b.eq	LBB7_104
Ltmp911:
LBB7_102:                               ; %.lr.ph.i84.preheader
                                        ;   in Loop: Header=BB7_82 Depth=1
	;DEBUG_VALUE: uncompressStream:unusedTmpV <- $x9
	;DEBUG_VALUE: uncompressStream:unusedTmp <- $x9
	;DEBUG_VALUE: uncompressStream:nUnused <- $w8
	;DEBUG_VALUE: uncompressStream:i <- 0
	;DEBUG_VALUE: uncompressStream:streamNo <- $w28
	;DEBUG_VALUE: uncompressStream:bzf <- $x21
	;DEBUG_VALUE: uncompressStream:zStream <- $x20
	;DEBUG_VALUE: uncompressStream:stream <- $x19
	;DEBUG_VALUE: uncompress:outStr <- $x19
	;DEBUG_VALUE: uncompress:inStr <- $x20
	;DEBUG_VALUE: uncompress:name <- [DW_OP_LLVM_entry_value 1] $x0
	sub	x8, x8, x10
Ltmp912:
	add	x11, x14, x10
	add	x9, x9, x10
Ltmp913:
LBB7_103:                               ; %.lr.ph.i84
                                        ;   Parent Loop BB7_82 Depth=1
                                        ; =>  This Inner Loop Header: Depth=2
	;DEBUG_VALUE: uncompressStream:streamNo <- $w28
	;DEBUG_VALUE: uncompressStream:bzf <- $x21
	;DEBUG_VALUE: uncompressStream:zStream <- $x20
	;DEBUG_VALUE: uncompressStream:stream <- $x19
	;DEBUG_VALUE: uncompress:outStr <- $x19
	;DEBUG_VALUE: uncompress:inStr <- $x20
	;DEBUG_VALUE: uncompress:name <- [DW_OP_LLVM_entry_value 1] $x0
	;DEBUG_VALUE: uncompressStream:i <- [DW_OP_LLVM_arg 0, DW_OP_LLVM_arg 0, DW_OP_LLVM_convert 64 7, DW_OP_consts 18446744073709551615, DW_OP_LLVM_arg 0, DW_OP_mul, DW_OP_plus, DW_OP_minus, DW_OP_consts 18446744073709551615, DW_OP_div, DW_OP_LLVM_arg 0, DW_OP_plus, DW_OP_stack_value] undef
	.loc	1 474 49                        ; bzip2.c:474:49
	ldrb	w10, [x9], #1
	.loc	1 474 47                        ; bzip2.c:474:47
	strb	w10, [x11], #1
Ltmp914:
	;DEBUG_VALUE: uncompressStream:i <- [DW_OP_LLVM_arg 0, DW_OP_LLVM_arg 0, DW_OP_LLVM_convert 64 7, DW_OP_consts 18446744073709551615, DW_OP_LLVM_arg 0, DW_OP_mul, DW_OP_plus, DW_OP_minus, DW_OP_consts 18446744073709551615, DW_OP_div, DW_OP_consts 1, DW_OP_LLVM_arg 0, DW_OP_plus, DW_OP_plus, DW_OP_stack_value] undef
	.loc	1 474 21                        ; bzip2.c:474:21
	subs	x8, x8, #1
Ltmp915:
	;DEBUG_VALUE: uncompressStream:nUnused <- undef
	.loc	1 474 7                         ; bzip2.c:474:7
	b.ne	LBB7_103
Ltmp916:
LBB7_104:                               ; %._crit_edge.i
                                        ;   in Loop: Header=BB7_82 Depth=1
	;DEBUG_VALUE: uncompressStream:streamNo <- $w28
	;DEBUG_VALUE: uncompressStream:bzf <- $x21
	;DEBUG_VALUE: uncompressStream:zStream <- $x20
	;DEBUG_VALUE: uncompressStream:stream <- $x19
	;DEBUG_VALUE: uncompress:outStr <- $x19
	;DEBUG_VALUE: uncompress:inStr <- $x20
	;DEBUG_VALUE: uncompress:name <- [DW_OP_LLVM_entry_value 1] $x0
	;DEBUG_VALUE: uncompressStream:bzerr <- [DW_OP_plus_uconst 204, DW_OP_deref] $sp
	.loc	1 476 7 is_stmt 1               ; bzip2.c:476:7
	add	x0, sp, #204
	mov	x1, x21
	bl	_BZ2_bzReadClose
Ltmp917:
	.loc	1 477 11                        ; bzip2.c:477:11
	ldr	w8, [sp, #204]
Ltmp918:
	;DEBUG_VALUE: uncompressStream:bzerr <- $w8
	.loc	1 477 11 is_stmt 0              ; bzip2.c:477:11
	cbnz	w8, LBB7_165
Ltmp919:
; %bb.105:                              ;   in Loop: Header=BB7_82 Depth=1
	;DEBUG_VALUE: uncompressStream:streamNo <- $w28
	;DEBUG_VALUE: uncompressStream:bzerr <- $w8
	;DEBUG_VALUE: uncompressStream:bzf <- $x21
	;DEBUG_VALUE: uncompressStream:zStream <- $x20
	;DEBUG_VALUE: uncompressStream:stream <- $x19
	;DEBUG_VALUE: uncompress:outStr <- $x19
	;DEBUG_VALUE: uncompress:inStr <- $x20
	;DEBUG_VALUE: uncompress:name <- [DW_OP_LLVM_entry_value 1] $x0
	.loc	1 479 11 is_stmt 1              ; bzip2.c:479:11
	ldr	w5, [sp, #196]
Ltmp920:
	;DEBUG_VALUE: uncompressStream:nUnused <- $w5
	.loc	1 479 24 is_stmt 0              ; bzip2.c:479:24
	cbnz	w5, LBB7_108
Ltmp921:
; %bb.106:                              ;   in Loop: Header=BB7_82 Depth=1
	;DEBUG_VALUE: uncompressStream:nUnused <- $w5
	;DEBUG_VALUE: uncompressStream:streamNo <- $w28
	;DEBUG_VALUE: uncompressStream:bzerr <- $w8
	;DEBUG_VALUE: uncompressStream:bzf <- $x21
	;DEBUG_VALUE: uncompressStream:zStream <- $x20
	;DEBUG_VALUE: uncompressStream:stream <- $x19
	;DEBUG_VALUE: uncompress:outStr <- $x19
	;DEBUG_VALUE: uncompress:inStr <- $x20
	;DEBUG_VALUE: uncompress:name <- [DW_OP_LLVM_entry_value 1] $x0
	;DEBUG_VALUE: myfeof:f <- $x20
	.loc	1 320 14 is_stmt 1              ; bzip2.c:320:14
	mov	x0, x20
	bl	_fgetc
Ltmp922:
	;DEBUG_VALUE: myfeof:c <- $w0
	.loc	1 321 8                         ; bzip2.c:321:8
	cmn	w0, #1
	b.eq	LBB7_130
Ltmp923:
; %bb.107:                              ; %myfeof.exit.thread.i
                                        ;   in Loop: Header=BB7_82 Depth=1
	;DEBUG_VALUE: myfeof:c <- $w0
	;DEBUG_VALUE: myfeof:f <- $x20
	;DEBUG_VALUE: uncompressStream:streamNo <- $w28
	;DEBUG_VALUE: uncompressStream:bzf <- $x21
	;DEBUG_VALUE: uncompressStream:zStream <- $x20
	;DEBUG_VALUE: uncompressStream:stream <- $x19
	;DEBUG_VALUE: uncompress:outStr <- $x19
	;DEBUG_VALUE: uncompress:inStr <- $x20
	;DEBUG_VALUE: uncompress:name <- [DW_OP_LLVM_entry_value 1] $x0
	.loc	1 322 4                         ; bzip2.c:322:4
	mov	x1, x20
	bl	_ungetc
Ltmp924:
	.loc	1 456 40                        ; bzip2.c:456:40
	ldr	w5, [sp, #196]
Ltmp925:
LBB7_108:                               ;   in Loop: Header=BB7_82 Depth=1
	;DEBUG_VALUE: uncompressStream:streamNo <- $w28
	;DEBUG_VALUE: uncompressStream:bzf <- $x21
	;DEBUG_VALUE: uncompressStream:zStream <- $x20
	;DEBUG_VALUE: uncompressStream:stream <- $x19
	;DEBUG_VALUE: uncompress:outStr <- $x19
	;DEBUG_VALUE: uncompress:inStr <- $x20
	;DEBUG_VALUE: uncompress:name <- [DW_OP_LLVM_entry_value 1] $x0
	;DEBUG_VALUE: uncompressStream:streamNo <- $w28
	.loc	1 455 33                        ; bzip2.c:455:33
	ldr	w2, [x22]
	.loc	1 456 21                        ; bzip2.c:456:21
Lloh705:
	adrp	x8, _smallMode@GOTPAGE
Lloh706:
	ldr	x8, [x8, _smallMode@GOTPAGEOFF]
	ldrb	w3, [x8]
Ltmp926:
	;DEBUG_VALUE: uncompressStream:bzerr <- [DW_OP_plus_uconst 204, DW_OP_deref] $sp
	;DEBUG_VALUE: uncompressStream:nUnused <- $w5
	.loc	1 454 13                        ; bzip2.c:454:13
	add	x0, sp, #204
	add	x4, sp, #208
	mov	x1, x20
	bl	_BZ2_bzReadOpen
Ltmp927:
	mov	x21, x0
Ltmp928:
	;DEBUG_VALUE: uncompressStream:bzf <- $x21
	.loc	1 0 13 is_stmt 0                ; bzip2.c:0:13
	ldr	w8, [sp, #204]
Ltmp929:
	;DEBUG_VALUE: uncompressStream:bzerr <- $w8
	.loc	1 458 30 is_stmt 1              ; bzip2.c:458:30
	cmp	x0, #0
	ccmp	w8, #0, #0, ne
	b.eq	LBB7_82
	b	LBB7_69
Ltmp930:
LBB7_109:
	;DEBUG_VALUE: uncompress:name <- [DW_OP_LLVM_entry_value 1] $x0
	.loc	1 1399 19                       ; bzip2.c:1399:19
Lloh707:
	adrp	x8, ___stderrp@GOTPAGE
Lloh708:
	ldr	x8, [x8, ___stderrp@GOTPAGEOFF]
Lloh709:
	ldr	x0, [x8]
	.loc	1 1400 19                       ; bzip2.c:1400:19
Lloh710:
	adrp	x8, _progName@GOTPAGE
Lloh711:
	ldr	x8, [x8, _progName@GOTPAGEOFF]
Lloh712:
	ldr	x8, [x8]
	.loc	1 1399 9                        ; bzip2.c:1399:9
	stp	x8, x19, [sp]
Lloh713:
	adrp	x1, l_.str.63@PAGE
Lloh714:
	add	x1, x1, l_.str.63@PAGEOFF
	b	LBB7_116
Ltmp931:
LBB7_110:
	;DEBUG_VALUE: uncompressStream:bzerr_dummy <- [DW_OP_plus_uconst 200, DW_OP_deref] $sp
	;DEBUG_VALUE: uncompressStream:streamNo <- $w28
	;DEBUG_VALUE: uncompressStream:bzf <- $x21
	;DEBUG_VALUE: uncompressStream:zStream <- $x20
	;DEBUG_VALUE: uncompressStream:stream <- $x19
	;DEBUG_VALUE: uncompress:outStr <- $x19
	;DEBUG_VALUE: uncompress:inStr <- $x20
	;DEBUG_VALUE: uncompress:name <- [DW_OP_LLVM_entry_value 1] $x0
	.loc	1 537 17                        ; bzip2.c:537:17
	ldrb	w8, [x26]
Ltmp932:
	.loc	1 537 17 is_stmt 0              ; bzip2.c:537:17
	cbz	w8, LBB7_142
Ltmp933:
; %bb.111:
	;DEBUG_VALUE: uncompressStream:bzerr_dummy <- [DW_OP_plus_uconst 200, DW_OP_deref] $sp
	;DEBUG_VALUE: uncompressStream:streamNo <- $w28
	;DEBUG_VALUE: uncompressStream:bzf <- $x21
	;DEBUG_VALUE: uncompressStream:zStream <- $x20
	;DEBUG_VALUE: uncompressStream:stream <- $x19
	;DEBUG_VALUE: uncompress:outStr <- $x19
	;DEBUG_VALUE: uncompress:inStr <- $x20
	;DEBUG_VALUE: uncompress:name <- [DW_OP_LLVM_entry_value 1] $x0
	.loc	1 538 23 is_stmt 1              ; bzip2.c:538:23
Lloh715:
	adrp	x8, ___stderrp@GOTPAGE
Lloh716:
	ldr	x8, [x8, ___stderrp@GOTPAGEOFF]
Lloh717:
	ldr	x0, [x8]
	.loc	1 540 23                        ; bzip2.c:540:23
Lloh718:
	adrp	x8, _progName@GOTPAGE
Lloh719:
	ldr	x8, [x8, _progName@GOTPAGEOFF]
Lloh720:
	ldr	x8, [x8]
	.loc	1 538 13                        ; bzip2.c:538:13
Lloh721:
	adrp	x9, _inName@GOTPAGE
Lloh722:
	ldr	x9, [x9, _inName@GOTPAGEOFF]
	stp	x8, x9, [sp]
Lloh723:
	adrp	x1, l_.str.91@PAGE
Lloh724:
	add	x1, x1, l_.str.91@PAGEOFF
	bl	_fprintf
Ltmp934:
	.loc	1 0 13 is_stmt 0                ; bzip2.c:0:13
	b	LBB7_142
Ltmp935:
LBB7_112:
	;DEBUG_VALUE: uncompress:name <- [DW_OP_LLVM_entry_value 1] $x0
	.loc	1 1382 11 is_stmt 1             ; bzip2.c:1382:11
Lloh725:
	adrp	x8, _noisy@GOTPAGE
Lloh726:
	ldr	x8, [x8, _noisy@GOTPAGEOFF]
	ldrb	w8, [x8]
Ltmp936:
	.loc	1 1382 11 is_stmt 0             ; bzip2.c:1382:11
	cbz	w8, LBB7_117
Ltmp937:
; %bb.113:
	;DEBUG_VALUE: uncompress:name <- [DW_OP_LLVM_entry_value 1] $x0
	.loc	1 1383 17 is_stmt 1             ; bzip2.c:1383:17
Lloh727:
	adrp	x8, ___stderrp@GOTPAGE
Lloh728:
	ldr	x8, [x8, ___stderrp@GOTPAGEOFF]
Lloh729:
	ldr	x0, [x8]
	.loc	1 1384 17                       ; bzip2.c:1384:17
Lloh730:
	adrp	x8, _progName@GOTPAGE
Lloh731:
	ldr	x8, [x8, _progName@GOTPAGEOFF]
Lloh732:
	ldr	x8, [x8]
	.loc	1 1383 7                        ; bzip2.c:1383:7
	stp	x8, x19, [sp]
Lloh733:
	adrp	x1, l_.str.62@PAGE
Lloh734:
	add	x1, x1, l_.str.62@PAGEOFF
	b	LBB7_116
Ltmp938:
LBB7_114:
	;DEBUG_VALUE: uncompress:inStr <- $x0
	;DEBUG_VALUE: uncompress:name <- [DW_OP_LLVM_entry_value 1] $x0
	.loc	1 1439 23                       ; bzip2.c:1439:23
Lloh735:
	adrp	x8, ___stderrp@GOTPAGE
Lloh736:
	ldr	x8, [x8, ___stderrp@GOTPAGEOFF]
Lloh737:
	ldr	x20, [x8]
	.loc	1 1440 23                       ; bzip2.c:1440:23
Lloh738:
	adrp	x8, _progName@GOTPAGE
Lloh739:
	ldr	x8, [x8, _progName@GOTPAGEOFF]
Lloh740:
	ldr	x21, [x8]
	.loc	1 1440 52 is_stmt 0             ; bzip2.c:1440:52
	bl	___error
Ltmp939:
	.loc	1 1440 51                       ; bzip2.c:1440:51
	ldr	w0, [x0]
	.loc	1 1440 41                       ; bzip2.c:1440:41
	bl	_strerror
Ltmp940:
	.loc	1 1439 13 is_stmt 1             ; bzip2.c:1439:13
	stp	x19, x0, [sp, #8]
	str	x21, [sp]
Lloh741:
	adrp	x1, l_.str.84@PAGE
Lloh742:
	add	x1, x1, l_.str.84@PAGEOFF
Ltmp941:
LBB7_115:
	;DEBUG_VALUE: uncompress:name <- [DW_OP_LLVM_entry_value 1] $x0
	.loc	1 0 0 is_stmt 0                 ; bzip2.c:0:0
	mov	x0, x20
Ltmp942:
LBB7_116:
	;DEBUG_VALUE: uncompress:name <- [DW_OP_LLVM_entry_value 1] $x0
	bl	_fprintf
Ltmp943:
	;DEBUG_VALUE: setExit:v <- 1
LBB7_117:
	;DEBUG_VALUE: uncompress:name <- [DW_OP_LLVM_entry_value 1] $x0
Lloh743:
	adrp	x8, _exitValue@GOTPAGE
Lloh744:
	ldr	x8, [x8, _exitValue@GOTPAGEOFF]
	ldr	w9, [x8]
	cmp	w9, #0
	;DEBUG_VALUE: fileExists:exists <- [DW_OP_LLVM_convert 1 7, DW_OP_LLVM_convert 8 7, DW_OP_stack_value] undef
	b.gt	LBB7_149
Ltmp944:
; %bb.118:
	;DEBUG_VALUE: uncompress:name <- [DW_OP_LLVM_entry_value 1] $x0
	mov	w9, #1
	str	w9, [x8]
	b	LBB7_149
Ltmp945:
LBB7_119:
	;DEBUG_VALUE: uncompressStream:nread <- $w0
	;DEBUG_VALUE: uncompressStream:streamNo <- $w28
	;DEBUG_VALUE: uncompressStream:bzerr <- $w8
	;DEBUG_VALUE: uncompressStream:bzf <- $x21
	;DEBUG_VALUE: uncompressStream:zStream <- $x20
	;DEBUG_VALUE: uncompressStream:stream <- $x19
	;DEBUG_VALUE: uncompress:outStr <- $x19
	;DEBUG_VALUE: uncompress:inStr <- $x20
	;DEBUG_VALUE: uncompress:name <- [DW_OP_LLVM_entry_value 1] $x0
	;DEBUG_LABEL: uncompressStream:trycat
	.loc	1 505 8 is_stmt 1               ; bzip2.c:505:8
Lloh745:
	adrp	x8, _forceOverwrite@GOTPAGE
Ltmp946:
Lloh746:
	ldr	x8, [x8, _forceOverwrite@GOTPAGEOFF]
	ldrb	w8, [x8]
Ltmp947:
	.loc	1 505 8 is_stmt 0               ; bzip2.c:505:8
	cbz	w8, LBB7_69
Ltmp948:
; %bb.120:
	;DEBUG_VALUE: uncompressStream:nread <- $w0
	;DEBUG_VALUE: uncompressStream:streamNo <- $w28
	;DEBUG_VALUE: uncompressStream:bzf <- $x21
	;DEBUG_VALUE: uncompressStream:zStream <- $x20
	;DEBUG_VALUE: uncompressStream:stream <- $x19
	;DEBUG_VALUE: uncompress:outStr <- $x19
	;DEBUG_VALUE: uncompress:inStr <- $x20
	;DEBUG_VALUE: uncompress:name <- [DW_OP_LLVM_entry_value 1] $x0
	.loc	1 506 7 is_stmt 1               ; bzip2.c:506:7
	mov	x0, x20
Ltmp949:
	bl	_rewind
Ltmp950:
	.loc	1 0 7 is_stmt 0                 ; bzip2.c:0:7
	b	LBB7_122
Ltmp951:
LBB7_121:                               ;   in Loop: Header=BB7_122 Depth=1
	;DEBUG_VALUE: uncompressStream:nread <- $w21
	;DEBUG_VALUE: uncompressStream:streamNo <- $w28
	;DEBUG_VALUE: uncompressStream:zStream <- $x20
	;DEBUG_VALUE: uncompressStream:stream <- $x19
	;DEBUG_VALUE: uncompress:outStr <- $x19
	;DEBUG_VALUE: uncompress:inStr <- $x20
	;DEBUG_VALUE: uncompress:name <- [DW_OP_LLVM_entry_value 1] $x0
	.loc	1 512 13 is_stmt 1              ; bzip2.c:512:13
	mov	x0, x19
	bl	_ferror
Ltmp952:
	.loc	1 512 13 is_stmt 0              ; bzip2.c:512:13
	cbnz	w0, LBB7_156
Ltmp953:
LBB7_122:                               ; =>This Inner Loop Header: Depth=1
	;DEBUG_VALUE: uncompressStream:streamNo <- $w28
	;DEBUG_VALUE: uncompressStream:zStream <- $x20
	;DEBUG_VALUE: uncompressStream:stream <- $x19
	;DEBUG_VALUE: uncompress:outStr <- $x19
	;DEBUG_VALUE: uncompress:inStr <- $x20
	;DEBUG_VALUE: uncompress:name <- [DW_OP_LLVM_entry_value 1] $x0
	;DEBUG_VALUE: myfeof:f <- $x20
	.loc	1 320 14 is_stmt 1              ; bzip2.c:320:14
	mov	x0, x20
	bl	_fgetc
Ltmp954:
	;DEBUG_VALUE: myfeof:c <- $w0
	.loc	1 321 8                         ; bzip2.c:321:8
	cmn	w0, #1
	b.eq	LBB7_130
Ltmp955:
; %bb.123:                              ;   in Loop: Header=BB7_122 Depth=1
	;DEBUG_VALUE: myfeof:c <- $w0
	;DEBUG_VALUE: myfeof:f <- $x20
	;DEBUG_VALUE: uncompressStream:streamNo <- $w28
	;DEBUG_VALUE: uncompressStream:zStream <- $x20
	;DEBUG_VALUE: uncompressStream:stream <- $x19
	;DEBUG_VALUE: uncompress:outStr <- $x19
	;DEBUG_VALUE: uncompress:inStr <- $x20
	;DEBUG_VALUE: uncompress:name <- [DW_OP_LLVM_entry_value 1] $x0
	.loc	1 322 4                         ; bzip2.c:322:4
	mov	x1, x20
	bl	_ungetc
Ltmp956:
	.loc	1 509 17                        ; bzip2.c:509:17
	add	x0, sp, #1, lsl #12             ; =4096
	add	x0, x0, #1112
	mov	w1, #1
	mov	w2, #5000
	mov	x3, x20
	bl	_fread
Ltmp957:
	mov	x21, x0
Ltmp958:
	;DEBUG_VALUE: uncompressStream:nread <- [DW_OP_LLVM_convert 64 7, DW_OP_LLVM_convert 32 7, DW_OP_stack_value] $x21
	.loc	1 510 13                        ; bzip2.c:510:13
	mov	x0, x20
	bl	_ferror
Ltmp959:
	.loc	1 510 13 is_stmt 0              ; bzip2.c:510:13
	cbnz	w0, LBB7_156
Ltmp960:
; %bb.124:                              ;   in Loop: Header=BB7_122 Depth=1
	;DEBUG_VALUE: uncompressStream:nread <- [DW_OP_LLVM_convert 64 7, DW_OP_LLVM_convert 32 7, DW_OP_stack_value] $x21
	;DEBUG_VALUE: uncompressStream:streamNo <- $w28
	;DEBUG_VALUE: uncompressStream:zStream <- $x20
	;DEBUG_VALUE: uncompressStream:stream <- $x19
	;DEBUG_VALUE: uncompress:outStr <- $x19
	;DEBUG_VALUE: uncompress:inStr <- $x20
	;DEBUG_VALUE: uncompress:name <- [DW_OP_LLVM_entry_value 1] $x0
	;DEBUG_VALUE: uncompressStream:nread <- $w21
	.loc	1 511 13 is_stmt 1              ; bzip2.c:511:13
	cmp	w21, #1
	b.lt	LBB7_121
Ltmp961:
; %bb.125:                              ;   in Loop: Header=BB7_122 Depth=1
	;DEBUG_VALUE: uncompressStream:nread <- $w21
	;DEBUG_VALUE: uncompressStream:streamNo <- $w28
	;DEBUG_VALUE: uncompressStream:zStream <- $x20
	;DEBUG_VALUE: uncompressStream:stream <- $x19
	;DEBUG_VALUE: uncompress:outStr <- $x19
	;DEBUG_VALUE: uncompress:inStr <- $x20
	;DEBUG_VALUE: uncompress:name <- [DW_OP_LLVM_entry_value 1] $x0
	.loc	1 0 13 is_stmt 0                ; bzip2.c:0:13
	and	x2, x21, #0xffffffff
Ltmp962:
	.loc	1 511 24                        ; bzip2.c:511:24
	add	x0, sp, #1, lsl #12             ; =4096
	add	x0, x0, #1112
	mov	w1, #1
	mov	x3, x19
	bl	_fwrite
Ltmp963:
	.loc	1 0 24                          ; bzip2.c:0:24
	b	LBB7_121
Ltmp964:
LBB7_126:
	;DEBUG_VALUE: uncompress:outStr <- $x0
	;DEBUG_VALUE: fopen_output_safely:fp <- $x0
	;DEBUG_VALUE: fopen_output_safely:fh <- $w23
	;DEBUG_VALUE: fopen_output_safely:name <- $x22
	;DEBUG_VALUE: uncompress:inStr <- $x20
	;DEBUG_VALUE: uncompress:name <- [DW_OP_LLVM_entry_value 1] $x0
	.loc	1 976 27 is_stmt 1              ; bzip2.c:976:27
	mov	x0, x23
Ltmp965:
	bl	_close
Ltmp966:
LBB7_127:
	;DEBUG_VALUE: uncompress:inStr <- $x20
	;DEBUG_VALUE: uncompress:name <- [DW_OP_LLVM_entry_value 1] $x0
	.loc	1 1451 23                       ; bzip2.c:1451:23
Lloh747:
	adrp	x8, ___stderrp@GOTPAGE
Lloh748:
	ldr	x8, [x8, ___stderrp@GOTPAGEOFF]
Lloh749:
	ldr	x19, [x8]
	.loc	1 1452 23                       ; bzip2.c:1452:23
Lloh750:
	adrp	x8, _progName@GOTPAGE
Lloh751:
	ldr	x8, [x8, _progName@GOTPAGEOFF]
Lloh752:
	ldr	x21, [x8]
	.loc	1 1452 53 is_stmt 0             ; bzip2.c:1452:53
	bl	___error
Ltmp967:
	.loc	1 1452 52                       ; bzip2.c:1452:52
	ldr	w0, [x0]
	.loc	1 1452 42                       ; bzip2.c:1452:42
	bl	_strerror
Ltmp968:
	.loc	1 1451 13 is_stmt 1             ; bzip2.c:1451:13
	stp	x22, x0, [sp, #8]
	str	x21, [sp]
Lloh753:
	adrp	x1, l_.str.70@PAGE
Lloh754:
	add	x1, x1, l_.str.70@PAGEOFF
	mov	x0, x19
	bl	_fprintf
Ltmp969:
	.loc	1 1453 18                       ; bzip2.c:1453:18
	cbz	x20, LBB7_117
Ltmp970:
; %bb.128:
	;DEBUG_VALUE: uncompress:inStr <- $x20
	;DEBUG_VALUE: uncompress:name <- [DW_OP_LLVM_entry_value 1] $x0
	.loc	1 1453 41 is_stmt 0             ; bzip2.c:1453:41
	mov	x0, x20
	bl	_fclose
Ltmp971:
	.loc	1 0 41                          ; bzip2.c:0:41
	b	LBB7_117
Ltmp972:
LBB7_129:
	;DEBUG_VALUE: uncompress:magicNumberOK <- 0
	;DEBUG_VALUE: uncompress:outStr <- $x19
	;DEBUG_VALUE: uncompress:inStr <- $x20
	;DEBUG_VALUE: uncompress:name <- [DW_OP_LLVM_entry_value 1] $x0
	.loc	1 1512 20 is_stmt 1             ; bzip2.c:1512:20
Lloh755:
	adrp	x8, _progName@GOTPAGE
Lloh756:
	ldr	x8, [x8, _progName@GOTPAGEOFF]
Lloh757:
	ldr	x8, [x8]
	.loc	1 1510 10                       ; bzip2.c:1510:10
Lloh758:
	adrp	x9, _inName@GOTPAGE
Lloh759:
	ldr	x9, [x9, _inName@GOTPAGEOFF]
	stp	x8, x9, [sp]
Lloh760:
	adrp	x1, l_.str.88@PAGE
Lloh761:
	add	x1, x1, l_.str.88@PAGEOFF
	mov	x0, x3
	bl	_fprintf
Ltmp973:
	.loc	1 0 10 is_stmt 0                ; bzip2.c:0:10
	b	LBB7_149
Ltmp974:
LBB7_130:                               ; %myfeof.exit.i
	;DEBUG_VALUE: uncompressStream:streamNo <- $w28
	;DEBUG_VALUE: uncompressStream:zStream <- $x20
	;DEBUG_VALUE: uncompressStream:stream <- $x19
	;DEBUG_VALUE: uncompress:outStr <- $x19
	;DEBUG_VALUE: uncompress:inStr <- $x20
	;DEBUG_VALUE: uncompress:name <- [DW_OP_LLVM_entry_value 1] $x0
	;DEBUG_LABEL: uncompressStream:closeok
	.loc	1 483 8 is_stmt 1               ; bzip2.c:483:8
	mov	x0, x20
	bl	_ferror
Ltmp975:
	.loc	1 483 8 is_stmt 0               ; bzip2.c:483:8
	cbnz	w0, LBB7_156
Ltmp976:
; %bb.131:
	;DEBUG_VALUE: uncompressStream:streamNo <- $w28
	;DEBUG_VALUE: uncompressStream:zStream <- $x20
	;DEBUG_VALUE: uncompressStream:stream <- $x19
	;DEBUG_VALUE: uncompress:outStr <- $x19
	;DEBUG_VALUE: uncompress:inStr <- $x20
	;DEBUG_VALUE: uncompress:name <- [DW_OP_LLVM_entry_value 1] $x0
	.loc	1 484 18 is_stmt 1              ; bzip2.c:484:18
Lloh762:
	adrp	x23, ___stdoutp@GOTPAGE
Lloh763:
	ldr	x23, [x23, ___stdoutp@GOTPAGEOFF]
	ldr	x8, [x23]
Ltmp977:
	.loc	1 484 8 is_stmt 0               ; bzip2.c:484:8
	cmp	x8, x19
	b.eq	LBB7_135
Ltmp978:
; %bb.132:
	;DEBUG_VALUE: uncompressStream:streamNo <- $w28
	;DEBUG_VALUE: uncompressStream:zStream <- $x20
	;DEBUG_VALUE: uncompressStream:stream <- $x19
	;DEBUG_VALUE: uncompress:outStr <- $x19
