	.section	__TEXT,__text,regular,pure_instructions
	.build_version macos, 14, 0	sdk_version 14, 2
	.file	1 "/Users/mac/rustmap-clone/c-code/bzip2" "bzlib.c"
	.file	2 "/Users/mac/rustmap-clone/c-code/bzip2" "./bzlib_private.h"
	.file	3 "/Library/Developer/CommandLineTools/SDKs/MacOSX.sdk/usr/include" "_stdio.h"
	.file	4 "/Library/Developer/CommandLineTools/SDKs/MacOSX.sdk/usr/include/arm" "_types.h"
	.file	5 "/Library/Developer/CommandLineTools/SDKs/MacOSX.sdk/usr/include/sys" "_types.h"
	.file	6 "/Users/mac/rustmap-clone/c-code/bzip2" "./bzlib.h"
	.globl	_BZ2_bz__AssertH__fail          ; -- Begin function BZ2_bz__AssertH__fail
	.p2align	2
_BZ2_bz__AssertH__fail:                 ; @BZ2_bz__AssertH__fail
Lfunc_begin0:
	.loc	1 42 0                          ; bzlib.c:42:0
	.cfi_startproc
; %bb.0:
	;DEBUG_VALUE: BZ2_bz__AssertH__fail:errcode <- $w0
	sub	sp, sp, #48
	.cfi_def_cfa_offset 48
	stp	x20, x19, [sp, #16]             ; 16-byte Folded Spill
	stp	x29, x30, [sp, #32]             ; 16-byte Folded Spill
	add	x29, sp, #32
	.cfi_def_cfa w29, 16
	.cfi_offset w30, -8
	.cfi_offset w29, -16
	.cfi_offset w19, -24
	.cfi_offset w20, -32
	mov	x19, x0
Ltmp0:
	;DEBUG_VALUE: BZ2_bz__AssertH__fail:errcode <- $w19
	.loc	1 43 12 prologue_end            ; bzlib.c:43:12
Lloh0:
	adrp	x20, ___stderrp@GOTPAGE
Lloh1:
	ldr	x20, [x20, ___stderrp@GOTPAGEOFF]
	ldr	x0, [x20]
	.loc	1 43 4 is_stmt 0                ; bzlib.c:43:4
Lloh2:
	adrp	x8, l_.str.5@PAGE
Lloh3:
	add	x8, x8, l_.str.5@PAGEOFF
	stp	x19, x8, [sp]
Lloh4:
	adrp	x1, l_.str@PAGE
Lloh5:
	add	x1, x1, l_.str@PAGEOFF
	bl	_fprintf
Ltmp1:
	.loc	1 56 8 is_stmt 1                ; bzlib.c:56:8
	cmp	w19, #1007
	b.ne	LBB0_2
Ltmp2:
; %bb.1:
	;DEBUG_VALUE: BZ2_bz__AssertH__fail:errcode <- $w19
	.loc	1 57 12                         ; bzlib.c:57:12
	ldr	x3, [x20]
	.loc	1 57 4 is_stmt 0                ; bzlib.c:57:4
Lloh6:
	adrp	x0, l_.str.1@PAGE
Lloh7:
	add	x0, x0, l_.str.1@PAGEOFF
	mov	w1, #1056
	mov	w2, #1
	bl	_fwrite
Ltmp3:
LBB0_2:
	;DEBUG_VALUE: BZ2_bz__AssertH__fail:errcode <- $w19
	.loc	1 84 4 is_stmt 1                ; bzlib.c:84:4
	mov	w0, #3
	bl	_exit
Ltmp4:
	.loh AdrpAdd	Lloh4, Lloh5
	.loh AdrpAdd	Lloh2, Lloh3
	.loh AdrpLdrGot	Lloh0, Lloh1
	.loh AdrpAdd	Lloh6, Lloh7
Lfunc_end0:
	.cfi_endproc
                                        ; -- End function
	.globl	_BZ2_bzlibVersion               ; -- Begin function BZ2_bzlibVersion
	.p2align	2
_BZ2_bzlibVersion:                      ; @BZ2_bzlibVersion
Lfunc_begin1:
	.loc	1 1367 0                        ; bzlib.c:1367:0
	.cfi_startproc
; %bb.0:
	.loc	1 1368 4 prologue_end           ; bzlib.c:1368:4
Lloh8:
	adrp	x0, l_.str.5@PAGE
Lloh9:
	add	x0, x0, l_.str.5@PAGEOFF
	ret
Ltmp5:
	.loh AdrpAdd	Lloh8, Lloh9
Lfunc_end1:
	.cfi_endproc
                                        ; -- End function
	.section	__TEXT,__literal8,8byte_literals
	.p2align	3, 0x0                          ; -- Begin function BZ2_bzCompressInit
lCPI2_0:
	.long	256                             ; 0x100
	.long	0                               ; 0x0
	.section	__TEXT,__text,regular,pure_instructions
	.globl	_BZ2_bzCompressInit
	.p2align	2
_BZ2_bzCompressInit:                    ; @BZ2_bzCompressInit
Lfunc_begin2:
	.loc	1 153 0                         ; bzlib.c:153:0
	.cfi_startproc
; %bb.0:
	;DEBUG_VALUE: BZ2_bzCompressInit:strm <- $x0
	;DEBUG_VALUE: BZ2_bzCompressInit:blockSize100k <- $w1
	;DEBUG_VALUE: BZ2_bzCompressInit:verbosity <- $w2
	;DEBUG_VALUE: BZ2_bzCompressInit:workFactor <- $w3
	;DEBUG_VALUE: BZ2_bzCompressInit:verbosity <- $w2
	;DEBUG_VALUE: BZ2_bzCompressInit:blockSize100k <- $w1
	stp	x24, x23, [sp, #-64]!           ; 16-byte Folded Spill
	.cfi_def_cfa_offset 64
	stp	x22, x21, [sp, #16]             ; 16-byte Folded Spill
	stp	x20, x19, [sp, #32]             ; 16-byte Folded Spill
	stp	x29, x30, [sp, #48]             ; 16-byte Folded Spill
	add	x29, sp, #48
	.cfi_def_cfa w29, 16
	.cfi_offset w30, -8
	.cfi_offset w29, -16
	.cfi_offset w19, -24
	.cfi_offset w20, -32
	.cfi_offset w21, -40
	.cfi_offset w22, -48
	.cfi_offset w23, -56
	.cfi_offset w24, -64
	mov	x19, x0
Ltmp6:
	;DEBUG_VALUE: BZ2_bzCompressInit:strm <- $x19
	mov	w0, #-2
Ltmp7:
	.loc	1 159 28 prologue_end           ; bzlib.c:159:28
	cbz	x19, LBB2_19
Ltmp8:
; %bb.1:
	;DEBUG_VALUE: BZ2_bzCompressInit:strm <- $x19
	;DEBUG_VALUE: BZ2_bzCompressInit:workFactor <- $w3
	;DEBUG_VALUE: BZ2_bzCompressInit:verbosity <- $w2
	;DEBUG_VALUE: BZ2_bzCompressInit:blockSize100k <- $w1
	;DEBUG_VALUE: BZ2_bzCompressInit:verbosity <- $w2
	.loc	1 0 28 is_stmt 0                ; bzlib.c:0:28
	mov	x22, x1
Ltmp9:
	;DEBUG_VALUE: BZ2_bzCompressInit:blockSize100k <- $w22
	.loc	1 159 28                        ; bzlib.c:159:28
	sub	w8, w1, #10
	cmn	w8, #9
	b.lo	LBB2_19
Ltmp10:
; %bb.2:
	;DEBUG_VALUE: BZ2_bzCompressInit:blockSize100k <- $w22
	;DEBUG_VALUE: BZ2_bzCompressInit:strm <- $x19
	;DEBUG_VALUE: BZ2_bzCompressInit:workFactor <- $w3
	;DEBUG_VALUE: BZ2_bzCompressInit:verbosity <- $w2
	;DEBUG_VALUE: BZ2_bzCompressInit:verbosity <- $w2
	cmp	w3, #250
	b.hi	LBB2_19
Ltmp11:
; %bb.3:
	;DEBUG_VALUE: BZ2_bzCompressInit:blockSize100k <- $w22
	;DEBUG_VALUE: BZ2_bzCompressInit:strm <- $x19
	;DEBUG_VALUE: BZ2_bzCompressInit:workFactor <- $w3
	;DEBUG_VALUE: BZ2_bzCompressInit:verbosity <- $w2
	.loc	1 0 28                          ; bzlib.c:0:28
	mov	x21, x2
Ltmp12:
	;DEBUG_VALUE: BZ2_bzCompressInit:verbosity <- $w21
	mov	w8, #30
	.loc	1 164 8 is_stmt 1               ; bzlib.c:164:8
	cmp	w3, #0
	csel	w24, w8, w3, eq
Ltmp13:
	;DEBUG_VALUE: BZ2_bzCompressInit:workFactor <- $w24
	.loc	1 165 14                        ; bzlib.c:165:14
	ldr	x8, [x19, #56]
Ltmp14:
	.loc	1 165 8 is_stmt 0               ; bzlib.c:165:8
	cbz	x8, LBB2_11
Ltmp15:
; %bb.4:
	;DEBUG_VALUE: BZ2_bzCompressInit:workFactor <- $w24
	;DEBUG_VALUE: BZ2_bzCompressInit:verbosity <- $w21
	;DEBUG_VALUE: BZ2_bzCompressInit:blockSize100k <- $w22
	;DEBUG_VALUE: BZ2_bzCompressInit:strm <- $x19
	.loc	1 166 14 is_stmt 1              ; bzlib.c:166:14
	ldr	x9, [x19, #64]
Ltmp16:
	.loc	1 166 8 is_stmt 0               ; bzlib.c:166:8
	cbnz	x9, LBB2_6
Ltmp17:
LBB2_5:
	;DEBUG_VALUE: BZ2_bzCompressInit:workFactor <- $w24
	;DEBUG_VALUE: BZ2_bzCompressInit:verbosity <- $w21
	;DEBUG_VALUE: BZ2_bzCompressInit:blockSize100k <- $w22
	;DEBUG_VALUE: BZ2_bzCompressInit:strm <- $x19
	.loc	1 166 50                        ; bzlib.c:166:50
Lloh10:
	adrp	x9, _default_bzfree@PAGE
Lloh11:
	add	x9, x9, _default_bzfree@PAGEOFF
	str	x9, [x19, #64]
Ltmp18:
LBB2_6:
	;DEBUG_VALUE: BZ2_bzCompressInit:workFactor <- $w24
	;DEBUG_VALUE: BZ2_bzCompressInit:verbosity <- $w21
	;DEBUG_VALUE: BZ2_bzCompressInit:blockSize100k <- $w22
	;DEBUG_VALUE: BZ2_bzCompressInit:strm <- $x19
	.loc	1 168 30 is_stmt 1              ; bzlib.c:168:30
	ldr	x0, [x19, #72]
	.loc	1 168 8 is_stmt 0               ; bzlib.c:168:8
	mov	w1, #55768
	mov	w2, #1
	blr	x8
Ltmp19:
	;DEBUG_VALUE: BZ2_bzCompressInit:s <- $x0
	.loc	1 169 8 is_stmt 1               ; bzlib.c:169:8
	cbz	x0, LBB2_18
Ltmp20:
; %bb.7:
	;DEBUG_VALUE: BZ2_bzCompressInit:s <- $x0
	;DEBUG_VALUE: BZ2_bzCompressInit:workFactor <- $w24
	;DEBUG_VALUE: BZ2_bzCompressInit:verbosity <- $w21
	;DEBUG_VALUE: BZ2_bzCompressInit:blockSize100k <- $w22
	;DEBUG_VALUE: BZ2_bzCompressInit:strm <- $x19
	.loc	1 0 0 is_stmt 0                 ; bzlib.c:0:0
	mov	x20, x0
Ltmp21:
	;DEBUG_VALUE: BZ2_bzCompressInit:s <- $x20
	.loc	1 170 12 is_stmt 1              ; bzlib.c:170:12
	str	x19, [x0]
Ltmp22:
	;DEBUG_VALUE: BZ2_bzCompressInit:n <- undef
	.loc	1 173 12                        ; bzlib.c:173:12
	stp	xzr, xzr, [x0, #32]
	str	xzr, [x0, #24]
	mov	w8, #6784
	movk	w8, #6, lsl #16
	.loc	1 177 14                        ; bzlib.c:177:14
	ldr	x9, [x19, #56]
	.loc	1 177 46 is_stmt 0              ; bzlib.c:177:46
	mul	w23, w22, w8
	.loc	1 177 36                        ; bzlib.c:177:36
	ldr	x0, [x19, #72]
	.loc	1 177 14                        ; bzlib.c:177:14
	mov	x1, x23
	mov	w2, #1
	blr	x9
Ltmp23:
	.loc	1 177 12                        ; bzlib.c:177:12
	str	x0, [x20, #24]
	.loc	1 178 14 is_stmt 1              ; bzlib.c:178:14
	ldr	x8, [x19, #56]
	.loc	1 178 36 is_stmt 0              ; bzlib.c:178:36
	ldr	x0, [x19, #72]
	.loc	1 178 66                        ; bzlib.c:178:66
	add	w1, w23, #136
	.loc	1 178 14                        ; bzlib.c:178:14
	mov	w2, #1
	blr	x8
Ltmp24:
	.loc	1 178 12                        ; bzlib.c:178:12
	str	x0, [x20, #32]
	.loc	1 179 14 is_stmt 1              ; bzlib.c:179:14
	ldr	x8, [x19, #56]
	.loc	1 179 36 is_stmt 0              ; bzlib.c:179:36
	ldr	x0, [x19, #72]
	.loc	1 179 14                        ; bzlib.c:179:14
	mov	w1, #262148
	mov	w2, #1
	blr	x8
Ltmp25:
	.loc	1 179 12                        ; bzlib.c:179:12
	str	x0, [x20, #40]
Ltmp26:
	.loc	1 181 11 is_stmt 1              ; bzlib.c:181:11
	ldr	x1, [x20, #24]
	.loc	1 181 31 is_stmt 0              ; bzlib.c:181:31
	cbz	x1, LBB2_13
Ltmp27:
; %bb.8:
	;DEBUG_VALUE: BZ2_bzCompressInit:s <- $x20
	;DEBUG_VALUE: BZ2_bzCompressInit:workFactor <- $w24
	;DEBUG_VALUE: BZ2_bzCompressInit:verbosity <- $w21
	;DEBUG_VALUE: BZ2_bzCompressInit:blockSize100k <- $w22
	;DEBUG_VALUE: BZ2_bzCompressInit:strm <- $x19
	;DEBUG_VALUE: BZ2_bzCompressInit:n <- undef
	.loc	1 181 37                        ; bzlib.c:181:37
	ldr	x8, [x20, #32]
	.loc	1 181 57                        ; bzlib.c:181:57
	cbz	x8, LBB2_12
Ltmp28:
; %bb.9:
	;DEBUG_VALUE: BZ2_bzCompressInit:s <- $x20
	;DEBUG_VALUE: BZ2_bzCompressInit:workFactor <- $w24
	;DEBUG_VALUE: BZ2_bzCompressInit:verbosity <- $w21
	;DEBUG_VALUE: BZ2_bzCompressInit:blockSize100k <- $w22
	;DEBUG_VALUE: BZ2_bzCompressInit:strm <- $x19
	;DEBUG_VALUE: BZ2_bzCompressInit:n <- undef
	cbz	x0, LBB2_12
Ltmp29:
; %bb.10:
	;DEBUG_VALUE: BZ2_bzCompressInit:s <- $x20
	;DEBUG_VALUE: BZ2_bzCompressInit:workFactor <- $w24
	;DEBUG_VALUE: BZ2_bzCompressInit:verbosity <- $w21
	;DEBUG_VALUE: BZ2_bzCompressInit:blockSize100k <- $w22
	;DEBUG_VALUE: BZ2_bzCompressInit:strm <- $x19
	.loc	1 0 57                          ; bzlib.c:0:57
	mov	w0, #0
	.loc	1 193 21 is_stmt 1              ; bzlib.c:193:21
	str	w22, [x20, #664]
	mov	w9, #34464
	movk	w9, #1, lsl #16
	.loc	1 0 0 is_stmt 0                 ; bzlib.c:0:0
	mul	w9, w22, w9
Ltmp30:
	;DEBUG_VALUE: BZ2_bzCompressInit:n <- $w9
	.loc	1 191 12 is_stmt 1              ; bzlib.c:191:12
	movi.2s	v0, #2
	str	d0, [x20, #8]
	.loc	1 194 42                        ; bzlib.c:194:42
	sub	w9, w9, #19
Ltmp31:
	.loc	1 194 17 is_stmt 0              ; bzlib.c:194:17
	str	w9, [x20, #112]
	.loc	1 195 17 is_stmt 1              ; bzlib.c:195:17
	str	w21, [x20, #656]
	.loc	1 196 18                        ; bzlib.c:196:18
	str	w24, [x20, #88]
	.loc	1 199 12                        ; bzlib.c:199:12
	stp	x1, xzr, [x20, #72]
	.loc	1 198 13                        ; bzlib.c:198:13
	stp	x1, x8, [x20, #56]
	.loc	1 203 16                        ; bzlib.c:203:16
	str	x20, [x19, #48]
	.loc	1 204 24                        ; bzlib.c:204:24
	movi.2d	v0, #0000000000000000
	stur	d0, [x19, #12]
	.loc	1 206 25                        ; bzlib.c:206:25
	stur	d0, [x19, #36]
Lloh12:
	adrp	x8, lCPI2_0@PAGE
Ltmp32:
	;DEBUG_VALUE: init_RL:s <- $x20
	.loc	1 133 19                        ; bzlib.c:133:19
Lloh13:
	ldr	d1, [x8, lCPI2_0@PAGEOFF]
	stur	d1, [x20, #92]
Ltmp33:
	;DEBUG_VALUE: prepare_new_block:s <- $x20
	.loc	1 120 14                        ; bzlib.c:120:14
	str	wzr, [x20, #108]
	.loc	1 121 12                        ; bzlib.c:121:12
	stur	d0, [x20, #116]
Ltmp34:
	.loc	1 123 18                        ; bzlib.c:123:18
	movi	d1, #0x000000ffffffff
	str	d1, [x20, #648]
Ltmp35:
	;DEBUG_VALUE: prepare_new_block:i <- 0
	.loc	1 124 42                        ; bzlib.c:124:42
	stp	q0, q0, [x20, #128]
	stp	q0, q0, [x20, #160]
	stp	q0, q0, [x20, #192]
	stp	q0, q0, [x20, #224]
	stp	q0, q0, [x20, #256]
	stp	q0, q0, [x20, #288]
	stp	q0, q0, [x20, #320]
	stp	q0, q0, [x20, #352]
	mov	w8, #1
Ltmp36:
	;DEBUG_VALUE: prepare_new_block:i <- [DW_OP_plus_uconst 1, DW_OP_stack_value] undef
	.loc	1 125 14                        ; bzlib.c:125:14
	str	w8, [x20, #660]
	b	LBB2_19
Ltmp37:
LBB2_11:
	;DEBUG_VALUE: BZ2_bzCompressInit:workFactor <- $w24
	;DEBUG_VALUE: BZ2_bzCompressInit:verbosity <- $w21
	;DEBUG_VALUE: BZ2_bzCompressInit:blockSize100k <- $w22
	;DEBUG_VALUE: BZ2_bzCompressInit:strm <- $x19
	.loc	1 165 52                        ; bzlib.c:165:52
Lloh14:
	adrp	x8, _default_bzalloc@PAGE
Lloh15:
	add	x8, x8, _default_bzalloc@PAGEOFF
	str	x8, [x19, #56]
Ltmp38:
	.loc	1 166 14                        ; bzlib.c:166:14
	ldr	x9, [x19, #64]
	cbnz	x9, LBB2_6
	b	LBB2_5
Ltmp39:
LBB2_12:
	;DEBUG_VALUE: BZ2_bzCompressInit:s <- $x20
	;DEBUG_VALUE: BZ2_bzCompressInit:workFactor <- $w24
	;DEBUG_VALUE: BZ2_bzCompressInit:verbosity <- $w21
	;DEBUG_VALUE: BZ2_bzCompressInit:blockSize100k <- $w22
	;DEBUG_VALUE: BZ2_bzCompressInit:strm <- $x19
	.loc	1 182 35                        ; bzlib.c:182:35
	ldp	x8, x0, [x19, #64]
	blr	x8
Ltmp40:
LBB2_13:                                ; %.thread
	;DEBUG_VALUE: BZ2_bzCompressInit:s <- $x20
	;DEBUG_VALUE: BZ2_bzCompressInit:workFactor <- $w24
	;DEBUG_VALUE: BZ2_bzCompressInit:verbosity <- $w21
	;DEBUG_VALUE: BZ2_bzCompressInit:blockSize100k <- $w22
	;DEBUG_VALUE: BZ2_bzCompressInit:strm <- $x19
	.loc	1 183 14                        ; bzlib.c:183:14
	ldr	x1, [x20, #32]
Ltmp41:
	.loc	1 183 11 is_stmt 0              ; bzlib.c:183:11
	cbz	x1, LBB2_15
Ltmp42:
; %bb.14:
	;DEBUG_VALUE: BZ2_bzCompressInit:s <- $x20
	;DEBUG_VALUE: BZ2_bzCompressInit:workFactor <- $w24
	;DEBUG_VALUE: BZ2_bzCompressInit:verbosity <- $w21
	;DEBUG_VALUE: BZ2_bzCompressInit:blockSize100k <- $w22
	;DEBUG_VALUE: BZ2_bzCompressInit:strm <- $x19
	.loc	1 183 35                        ; bzlib.c:183:35
	ldp	x8, x0, [x19, #64]
	blr	x8
Ltmp43:
LBB2_15:
	;DEBUG_VALUE: BZ2_bzCompressInit:s <- $x20
	;DEBUG_VALUE: BZ2_bzCompressInit:workFactor <- $w24
	;DEBUG_VALUE: BZ2_bzCompressInit:verbosity <- $w21
	;DEBUG_VALUE: BZ2_bzCompressInit:blockSize100k <- $w22
	;DEBUG_VALUE: BZ2_bzCompressInit:strm <- $x19
	.loc	1 184 14 is_stmt 1              ; bzlib.c:184:14
	ldr	x1, [x20, #40]
Ltmp44:
	.loc	1 184 11 is_stmt 0              ; bzlib.c:184:11
	cbz	x1, LBB2_17
Ltmp45:
; %bb.16:
	;DEBUG_VALUE: BZ2_bzCompressInit:s <- $x20
	;DEBUG_VALUE: BZ2_bzCompressInit:workFactor <- $w24
	;DEBUG_VALUE: BZ2_bzCompressInit:verbosity <- $w21
	;DEBUG_VALUE: BZ2_bzCompressInit:blockSize100k <- $w22
	;DEBUG_VALUE: BZ2_bzCompressInit:strm <- $x19
	.loc	1 184 35                        ; bzlib.c:184:35
	ldp	x8, x0, [x19, #64]
	blr	x8
Ltmp46:
LBB2_17:
	;DEBUG_VALUE: BZ2_bzCompressInit:s <- $x20
	;DEBUG_VALUE: BZ2_bzCompressInit:workFactor <- $w24
	;DEBUG_VALUE: BZ2_bzCompressInit:verbosity <- $w21
	;DEBUG_VALUE: BZ2_bzCompressInit:blockSize100k <- $w22
	;DEBUG_VALUE: BZ2_bzCompressInit:strm <- $x19
	.loc	1 185 29 is_stmt 1              ; bzlib.c:185:29
	ldp	x8, x0, [x19, #64]
	mov	x1, x20
	blr	x8
Ltmp47:
LBB2_18:
	;DEBUG_VALUE: BZ2_bzCompressInit:workFactor <- $w24
	;DEBUG_VALUE: BZ2_bzCompressInit:verbosity <- $w21
	;DEBUG_VALUE: BZ2_bzCompressInit:blockSize100k <- $w22
	;DEBUG_VALUE: BZ2_bzCompressInit:strm <- $x19
	.loc	1 0 29 is_stmt 0                ; bzlib.c:0:29
	mov	w0, #-3
Ltmp48:
LBB2_19:
	;DEBUG_VALUE: BZ2_bzCompressInit:strm <- $x19
	.loc	1 211 1 is_stmt 1               ; bzlib.c:211:1
	ldp	x29, x30, [sp, #48]             ; 16-byte Folded Reload
	ldp	x20, x19, [sp, #32]             ; 16-byte Folded Reload
Ltmp49:
	;DEBUG_VALUE: BZ2_bzCompressInit:strm <- [DW_OP_LLVM_entry_value 1] $x0
	ldp	x22, x21, [sp, #16]             ; 16-byte Folded Reload
	ldp	x24, x23, [sp], #64             ; 16-byte Folded Reload
	ret
Ltmp50:
	.loh AdrpAdd	Lloh10, Lloh11
	.loh AdrpLdr	Lloh12, Lloh13
	.loh AdrpAdd	Lloh14, Lloh15
Lfunc_end2:
	.cfi_endproc
                                        ; -- End function
	.p2align	2                               ; -- Begin function default_bzalloc
_default_bzalloc:                       ; @default_bzalloc
Lfunc_begin3:
	.loc	1 103 0                         ; bzlib.c:103:0
	.cfi_startproc
; %bb.0:
	;DEBUG_VALUE: default_bzalloc:items <- $w1
	;DEBUG_VALUE: default_bzalloc:size <- $w2
	;DEBUG_VALUE: default_bzalloc:opaque <- undef
	.loc	1 104 29 prologue_end           ; bzlib.c:104:29
	mul	w8, w2, w1
	.loc	1 104 23 is_stmt 0              ; bzlib.c:104:23
	sxtw	x0, w8
Ltmp51:
	.loc	1 104 14                        ; bzlib.c:104:14
	b	_malloc
Ltmp52:
Lfunc_end3:
	.cfi_endproc
                                        ; -- End function
	.p2align	2                               ; -- Begin function default_bzfree
_default_bzfree:                        ; @default_bzfree
Lfunc_begin4:
	.loc	1 110 0 is_stmt 1               ; bzlib.c:110:0
	.cfi_startproc
; %bb.0:
	;DEBUG_VALUE: default_bzfree:addr <- $x1
	;DEBUG_VALUE: default_bzfree:opaque <- undef
	.loc	1 111 8 prologue_end            ; bzlib.c:111:8
	cbz	x1, LBB4_2
Ltmp53:
; %bb.1:
	;DEBUG_VALUE: default_bzfree:addr <- $x1
	.loc	1 111 29 is_stmt 0              ; bzlib.c:111:29
	mov	x0, x1
Ltmp54:
	b	_free
Ltmp55:
LBB4_2:
	;DEBUG_VALUE: default_bzfree:addr <- $x1
	.loc	1 112 1 is_stmt 1               ; bzlib.c:112:1
	ret
Ltmp56:
Lfunc_end4:
	.cfi_endproc
                                        ; -- End function
	.globl	_BZ2_bzCompress                 ; -- Begin function BZ2_bzCompress
	.p2align	2
_BZ2_bzCompress:                        ; @BZ2_bzCompress
Lfunc_begin5:
	.loc	1 408 0                         ; bzlib.c:408:0
	.cfi_startproc
; %bb.0:
	;DEBUG_VALUE: BZ2_bzCompress:strm <- $x0
	;DEBUG_VALUE: BZ2_bzCompress:action <- $w1
	;DEBUG_VALUE: BZ2_bzCompress:strm <- $x0
	stp	x20, x19, [sp, #-32]!           ; 16-byte Folded Spill
	.cfi_def_cfa_offset 32
	stp	x29, x30, [sp, #16]             ; 16-byte Folded Spill
	add	x29, sp, #16
	.cfi_def_cfa w29, 16
	.cfi_offset w30, -8
	.cfi_offset w29, -16
	.cfi_offset w19, -24
	.cfi_offset w20, -32
Ltmp57:
	.loc	1 411 8 prologue_end            ; bzlib.c:411:8
	cbz	x0, LBB5_3
Ltmp58:
; %bb.1:
	;DEBUG_VALUE: BZ2_bzCompress:action <- $w1
	;DEBUG_VALUE: BZ2_bzCompress:strm <- $x0
	.loc	1 0 8 is_stmt 0                 ; bzlib.c:0:8
	mov	x8, x0
Ltmp59:
	;DEBUG_VALUE: BZ2_bzCompress:strm <- $x8
	.loc	1 412 14 is_stmt 1              ; bzlib.c:412:14
	ldr	x19, [x0, #48]
Ltmp60:
	;DEBUG_VALUE: BZ2_bzCompress:s <- $x19
	.loc	1 413 8                         ; bzlib.c:413:8
	cbz	x19, LBB5_3
Ltmp61:
; %bb.2:
	;DEBUG_VALUE: BZ2_bzCompress:s <- $x19
	;DEBUG_VALUE: BZ2_bzCompress:strm <- $x8
	;DEBUG_VALUE: BZ2_bzCompress:action <- $w1
	.loc	1 414 11                        ; bzlib.c:414:11
	ldr	x9, [x19]
Ltmp62:
	.loc	1 414 8 is_stmt 0               ; bzlib.c:414:8
	cmp	x9, x8
	b.eq	LBB5_5
Ltmp63:
LBB5_3:
	;DEBUG_VALUE: BZ2_bzCompress:action <- $w1
	.loc	1 0 8                           ; bzlib.c:0:8
	mov	w0, #-2
Ltmp64:
LBB5_4:                                 ; %isempty_RL.exit.thread
	.loc	1 464 1 is_stmt 1               ; bzlib.c:464:1
	ldp	x29, x30, [sp, #16]             ; 16-byte Folded Reload
	ldp	x20, x19, [sp], #32             ; 16-byte Folded Reload
	ret
LBB5_5:                                 ; %.preheader
Ltmp65:
	;DEBUG_VALUE: BZ2_bzCompress:s <- $x19
	;DEBUG_VALUE: BZ2_bzCompress:strm <- $x8
	;DEBUG_VALUE: BZ2_bzCompress:action <- $w1
	.loc	1 0 1 is_stmt 0                 ; bzlib.c:0:1
	ldr	w9, [x19, #8]
	mov	w0, #-1
	b	LBB5_8
Ltmp66:
LBB5_6:                                 ;   in Loop: Header=BB5_8 Depth=1
	;DEBUG_VALUE: BZ2_bzCompress:s <- $x19
	;DEBUG_VALUE: BZ2_bzCompress:strm <- $x8
	;DEBUG_VALUE: BZ2_bzCompress:action <- $w1
	mov	w9, #3
Ltmp67:
LBB5_7:                                 ; %.backedge
                                        ;   in Loop: Header=BB5_8 Depth=1
	;DEBUG_VALUE: BZ2_bzCompress:s <- $x19
	;DEBUG_VALUE: BZ2_bzCompress:strm <- $x8
	;DEBUG_VALUE: BZ2_bzCompress:action <- $w1
	ldr	w10, [x8, #8]
	str	w10, [x19, #16]
	str	w9, [x19, #8]
Ltmp68:
LBB5_8:                                 ; =>This Inner Loop Header: Depth=1
	;DEBUG_VALUE: BZ2_bzCompress:s <- $x19
	;DEBUG_VALUE: BZ2_bzCompress:strm <- $x8
	;DEBUG_VALUE: BZ2_bzCompress:action <- $w1
	;DEBUG_LABEL: BZ2_bzCompress:preswitch
	.loc	1 417 4 is_stmt 1               ; bzlib.c:417:4
	cmp	w9, #2
	b.ne	LBB5_12
Ltmp69:
; %bb.9:                                ;   in Loop: Header=BB5_8 Depth=1
	;DEBUG_VALUE: BZ2_bzCompress:s <- $x19
	;DEBUG_VALUE: BZ2_bzCompress:strm <- $x8
	;DEBUG_VALUE: BZ2_bzCompress:action <- $w1
	.loc	1 423 14                        ; bzlib.c:423:14
	cmp	w1, #1
	b.eq	LBB5_6
Ltmp70:
; %bb.10:                               ;   in Loop: Header=BB5_8 Depth=1
	;DEBUG_VALUE: BZ2_bzCompress:s <- $x19
	;DEBUG_VALUE: BZ2_bzCompress:strm <- $x8
	;DEBUG_VALUE: BZ2_bzCompress:action <- $w1
	cmp	w1, #2
	b.ne	LBB5_26
Ltmp71:
; %bb.11:                               ;   in Loop: Header=BB5_8 Depth=1
	;DEBUG_VALUE: BZ2_bzCompress:s <- $x19
	;DEBUG_VALUE: BZ2_bzCompress:strm <- $x8
	;DEBUG_VALUE: BZ2_bzCompress:action <- $w1
	.loc	1 0 14 is_stmt 0                ; bzlib.c:0:14
	mov	w9, #4
	b	LBB5_7
Ltmp72:
LBB5_12:
	;DEBUG_VALUE: BZ2_bzCompress:s <- $x19
	;DEBUG_VALUE: BZ2_bzCompress:strm <- $x8
	;DEBUG_VALUE: BZ2_bzCompress:action <- $w1
	.loc	1 417 4 is_stmt 1               ; bzlib.c:417:4
	cmp	w9, #1
	b.eq	LBB5_4
Ltmp73:
; %bb.13:
	;DEBUG_VALUE: BZ2_bzCompress:s <- $x19
	;DEBUG_VALUE: BZ2_bzCompress:strm <- $x8
	;DEBUG_VALUE: BZ2_bzCompress:action <- $w1
	cmp	w9, #3
	b.eq	LBB5_20
Ltmp74:
; %bb.14:
	;DEBUG_VALUE: BZ2_bzCompress:s <- $x19
	;DEBUG_VALUE: BZ2_bzCompress:strm <- $x8
	;DEBUG_VALUE: BZ2_bzCompress:action <- $w1
	cmp	w9, #4
	b.ne	LBB5_25
Ltmp75:
; %bb.15:
	;DEBUG_VALUE: BZ2_bzCompress:s <- $x19
	;DEBUG_VALUE: BZ2_bzCompress:strm <- $x8
	;DEBUG_VALUE: BZ2_bzCompress:action <- $w1
	.loc	1 453 14                        ; bzlib.c:453:14
	cmp	w1, #2
	b.ne	LBB5_24
Ltmp76:
; %bb.16:
	;DEBUG_VALUE: BZ2_bzCompress:s <- $x19
	;DEBUG_VALUE: BZ2_bzCompress:strm <- $x8
	;DEBUG_VALUE: BZ2_bzCompress:action <- $w1
	.loc	1 454 17                        ; bzlib.c:454:17
	ldr	w9, [x19, #16]
	.loc	1 454 45 is_stmt 0              ; bzlib.c:454:45
	ldr	w10, [x8, #8]
Ltmp77:
	.loc	1 454 14                        ; bzlib.c:454:14
	cmp	w9, w10
	b.ne	LBB5_24
Ltmp78:
; %bb.17:
	;DEBUG_VALUE: BZ2_bzCompress:s <- $x19
	;DEBUG_VALUE: BZ2_bzCompress:strm <- $x8
	;DEBUG_VALUE: BZ2_bzCompress:action <- $w1
	.loc	1 456 21 is_stmt 1              ; bzlib.c:456:21
	mov	x0, x8
	bl	_handle_compress
Ltmp79:
	;DEBUG_VALUE: BZ2_bzCompress:action <- [DW_OP_LLVM_entry_value 1] $w1
	;DEBUG_VALUE: BZ2_bzCompress:progress <- $w0
	.loc	1 457 14                        ; bzlib.c:457:14
	cbz	w0, LBB5_24
Ltmp80:
; %bb.18:
	;DEBUG_VALUE: BZ2_bzCompress:progress <- $w0
	;DEBUG_VALUE: BZ2_bzCompress:action <- [DW_OP_LLVM_entry_value 1] $w1
	;DEBUG_VALUE: BZ2_bzCompress:s <- $x19
	.loc	1 458 17                        ; bzlib.c:458:17
	ldr	w8, [x19, #16]
	.loc	1 458 37 is_stmt 0              ; bzlib.c:458:37
	cbz	w8, LBB5_32
Ltmp81:
LBB5_19:
	;DEBUG_VALUE: BZ2_bzCompress:progress <- $w0
	;DEBUG_VALUE: BZ2_bzCompress:action <- [DW_OP_LLVM_entry_value 1] $w1
	;DEBUG_VALUE: BZ2_bzCompress:s <- $x19
	.loc	1 0 37                          ; bzlib.c:0:37
	mov	w0, #3
Ltmp82:
	b	LBB5_4
Ltmp83:
LBB5_20:
	;DEBUG_VALUE: BZ2_bzCompress:s <- $x19
	;DEBUG_VALUE: BZ2_bzCompress:strm <- $x8
	;DEBUG_VALUE: BZ2_bzCompress:action <- $w1
	.loc	1 443 14 is_stmt 1              ; bzlib.c:443:14
	cmp	w1, #1
	b.ne	LBB5_24
Ltmp84:
; %bb.21:
	;DEBUG_VALUE: BZ2_bzCompress:s <- $x19
	;DEBUG_VALUE: BZ2_bzCompress:strm <- $x8
	;DEBUG_VALUE: BZ2_bzCompress:action <- $w1
	.loc	1 444 17                        ; bzlib.c:444:17
	ldr	w9, [x19, #16]
	.loc	1 444 45 is_stmt 0              ; bzlib.c:444:45
	ldr	w10, [x8, #8]
Ltmp85:
	.loc	1 444 14                        ; bzlib.c:444:14
	cmp	w9, w10
	b.ne	LBB5_24
Ltmp86:
; %bb.22:
	;DEBUG_VALUE: BZ2_bzCompress:s <- $x19
	;DEBUG_VALUE: BZ2_bzCompress:strm <- $x8
	;DEBUG_VALUE: BZ2_bzCompress:action <- $w1
	.loc	1 446 21 is_stmt 1              ; bzlib.c:446:21
	mov	x0, x8
	bl	_handle_compress
Ltmp87:
	;DEBUG_VALUE: BZ2_bzCompress:action <- [DW_OP_LLVM_entry_value 1] $w1
	;DEBUG_VALUE: BZ2_bzCompress:progress <- undef
	.loc	1 447 17                        ; bzlib.c:447:17
	ldr	w8, [x19, #16]
	.loc	1 447 37 is_stmt 0              ; bzlib.c:447:37
	cbz	w8, LBB5_28
Ltmp88:
LBB5_23:
	;DEBUG_VALUE: BZ2_bzCompress:action <- [DW_OP_LLVM_entry_value 1] $w1
	;DEBUG_VALUE: BZ2_bzCompress:s <- $x19
	.loc	1 0 37                          ; bzlib.c:0:37
	mov	w0, #2
	b	LBB5_4
Ltmp89:
LBB5_24:
	;DEBUG_VALUE: BZ2_bzCompress:s <- $x19
	mov	w0, #-1
	b	LBB5_4
Ltmp90:
LBB5_25:                                ; %isempty_RL.exit.thread.loopexit62
	;DEBUG_VALUE: BZ2_bzCompress:s <- $x19
	;DEBUG_VALUE: BZ2_bzCompress:strm <- $x8
	;DEBUG_VALUE: BZ2_bzCompress:action <- $w1
	mov	w0, #0
	b	LBB5_4
Ltmp91:
LBB5_26:
	;DEBUG_VALUE: BZ2_bzCompress:s <- $x19
	;DEBUG_VALUE: BZ2_bzCompress:strm <- $x8
	;DEBUG_VALUE: BZ2_bzCompress:action <- $w1
	mov	w0, #-2
	.loc	1 423 14 is_stmt 1              ; bzlib.c:423:14
	cbnz	w1, LBB5_4
Ltmp92:
; %bb.27:
	;DEBUG_VALUE: BZ2_bzCompress:s <- $x19
	;DEBUG_VALUE: BZ2_bzCompress:strm <- $x8
	;DEBUG_VALUE: BZ2_bzCompress:action <- $w1
	.loc	1 424 24                        ; bzlib.c:424:24
	mov	x0, x8
	bl	_handle_compress
Ltmp93:
	;DEBUG_VALUE: BZ2_bzCompress:action <- [DW_OP_LLVM_entry_value 1] $w1
	;DEBUG_VALUE: BZ2_bzCompress:progress <- $w0
	.loc	1 425 20                        ; bzlib.c:425:20
	cmp	w0, #0
	mov	w8, #-2
	cinv	w0, w8, ne
Ltmp94:
	.loc	1 0 20 is_stmt 0                ; bzlib.c:0:20
	b	LBB5_4
Ltmp95:
LBB5_28:
	;DEBUG_VALUE: BZ2_bzCompress:action <- [DW_OP_LLVM_entry_value 1] $w1
	;DEBUG_VALUE: BZ2_bzCompress:s <- $x19
	;DEBUG_VALUE: isempty_RL:s <- $x19
	.loc	1 141 11 is_stmt 1              ; bzlib.c:141:11
	ldr	w8, [x19, #92]
	.loc	1 141 29 is_stmt 0              ; bzlib.c:141:29
	cmp	w8, #255
	b.hi	LBB5_30
Ltmp96:
; %bb.29:
	;DEBUG_VALUE: isempty_RL:s <- $x19
	;DEBUG_VALUE: BZ2_bzCompress:action <- [DW_OP_LLVM_entry_value 1] $w1
	;DEBUG_VALUE: BZ2_bzCompress:s <- $x19
	.loc	1 141 35                        ; bzlib.c:141:35
	ldr	w8, [x19, #96]
Ltmp97:
	.loc	1 141 8                         ; bzlib.c:141:8
	cmp	w8, #0
	b.gt	LBB5_23
Ltmp98:
LBB5_30:                                ; %isempty_RL.exit
	;DEBUG_VALUE: BZ2_bzCompress:action <- [DW_OP_LLVM_entry_value 1] $w1
	;DEBUG_VALUE: BZ2_bzCompress:s <- $x19
	.loc	1 448 17 is_stmt 1              ; bzlib.c:448:17
	ldp	w9, w8, [x19, #116]
	mov	w0, #2
Ltmp99:
	.loc	1 447 14                        ; bzlib.c:447:14
	cmp	w8, w9
	b.lt	LBB5_4
Ltmp100:
; %bb.31:
	;DEBUG_VALUE: BZ2_bzCompress:action <- [DW_OP_LLVM_entry_value 1] $w1
	;DEBUG_VALUE: BZ2_bzCompress:s <- $x19
	.loc	1 449 18                        ; bzlib.c:449:18
	str	w0, [x19, #8]
	mov	w0, #1
	b	LBB5_4
Ltmp101:
LBB5_32:
	;DEBUG_VALUE: BZ2_bzCompress:progress <- $w0
	;DEBUG_VALUE: BZ2_bzCompress:action <- [DW_OP_LLVM_entry_value 1] $w1
	;DEBUG_VALUE: BZ2_bzCompress:s <- $x19
	;DEBUG_VALUE: isempty_RL:s <- $x19
	.loc	1 141 11                        ; bzlib.c:141:11
	ldr	w8, [x19, #92]
	.loc	1 141 29 is_stmt 0              ; bzlib.c:141:29
	cmp	w8, #255
	b.hi	LBB5_34
Ltmp102:
; %bb.33:
	;DEBUG_VALUE: isempty_RL:s <- $x19
	;DEBUG_VALUE: BZ2_bzCompress:progress <- $w0
	;DEBUG_VALUE: BZ2_bzCompress:action <- [DW_OP_LLVM_entry_value 1] $w1
	;DEBUG_VALUE: BZ2_bzCompress:s <- $x19
	.loc	1 141 35                        ; bzlib.c:141:35
	ldr	w8, [x19, #96]
Ltmp103:
	.loc	1 141 8                         ; bzlib.c:141:8
	cmp	w8, #0
	b.gt	LBB5_19
Ltmp104:
LBB5_34:                                ; %isempty_RL.exit50
	;DEBUG_VALUE: BZ2_bzCompress:progress <- $w0
	;DEBUG_VALUE: BZ2_bzCompress:action <- [DW_OP_LLVM_entry_value 1] $w1
	;DEBUG_VALUE: BZ2_bzCompress:s <- $x19
	.loc	1 459 17 is_stmt 1              ; bzlib.c:459:17
	ldp	w9, w8, [x19, #116]
Ltmp105:
	.loc	1 458 14                        ; bzlib.c:458:14
	cmp	w8, w9
	b.lt	LBB5_19
Ltmp106:
; %bb.35:
	;DEBUG_VALUE: BZ2_bzCompress:progress <- $w0
	;DEBUG_VALUE: BZ2_bzCompress:action <- [DW_OP_LLVM_entry_value 1] $w1
	;DEBUG_VALUE: BZ2_bzCompress:s <- $x19
	.loc	1 0 14 is_stmt 0                ; bzlib.c:0:14
	mov	w8, #1
	.loc	1 460 18 is_stmt 1              ; bzlib.c:460:18
	str	w8, [x19, #8]
	mov	w0, #4
Ltmp107:
	.loc	1 0 18 is_stmt 0                ; bzlib.c:0:18
	b	LBB5_4
Ltmp108:
Lfunc_end5:
	.cfi_endproc
                                        ; -- End function
	.section	__TEXT,__literal8,8byte_literals
	.p2align	3, 0x0                          ; -- Begin function handle_compress
lCPI6_0:
	.long	256                             ; 0x100
	.long	0                               ; 0x0
	.section	__TEXT,__text,regular,pure_instructions
	.p2align	2
_handle_compress:                       ; @handle_compress
Lfunc_begin6:
	.loc	1 362 0 is_stmt 1               ; bzlib.c:362:0
	.cfi_startproc
; %bb.0:
	;DEBUG_VALUE: handle_compress:strm <- $x0
	stp	d9, d8, [sp, #-112]!            ; 16-byte Folded Spill
	.cfi_def_cfa_offset 112
	stp	x28, x27, [sp, #16]             ; 16-byte Folded Spill
	stp	x26, x25, [sp, #32]             ; 16-byte Folded Spill
	stp	x24, x23, [sp, #48]             ; 16-byte Folded Spill
	stp	x22, x21, [sp, #64]             ; 16-byte Folded Spill
	stp	x20, x19, [sp, #80]             ; 16-byte Folded Spill
	stp	x29, x30, [sp, #96]             ; 16-byte Folded Spill
	add	x29, sp, #96
	.cfi_def_cfa w29, 16
	.cfi_offset w30, -8
	.cfi_offset w29, -16
	.cfi_offset w19, -24
	.cfi_offset w20, -32
	.cfi_offset w21, -40
	.cfi_offset w22, -48
	.cfi_offset w23, -56
	.cfi_offset w24, -64
	.cfi_offset w25, -72
	.cfi_offset w26, -80
	.cfi_offset w27, -88
	.cfi_offset w28, -96
	.cfi_offset b8, -104
	.cfi_offset b9, -112
Ltmp109:
	;DEBUG_VALUE: handle_compress:progress_in <- 0
	;DEBUG_VALUE: handle_compress:progress_out <- 0
	mov	w20, #0
	mov	w21, #0
Ltmp110:
	.loc	1 365 22 prologue_end           ; bzlib.c:365:22
	ldr	x19, [x0, #48]
Ltmp111:
	;DEBUG_VALUE: handle_compress:s <- $x19
	.loc	1 0 22 is_stmt 0                ; bzlib.c:0:22
	add	x22, x19, #128
Lloh16:
	adrp	x23, _BZ2_crc32Table@GOTPAGE
Lloh17:
	ldr	x23, [x23, _BZ2_crc32Table@GOTPAGEOFF]
	mov	w24, #1
Lloh18:
	adrp	x8, lCPI6_0@PAGE
Lloh19:
	ldr	d8, [x8, lCPI6_0@PAGEOFF]
	mov	w25, #-1
	mov	w26, #2
	b	LBB6_2
Ltmp112:
LBB6_1:                                 ;   in Loop: Header=BB6_2 Depth=1
	;DEBUG_VALUE: handle_compress:progress_out <- $w20
	;DEBUG_VALUE: handle_compress:progress_in <- $w21
	;DEBUG_VALUE: handle_compress:s <- $x19
	.loc	1 395 17 is_stmt 1              ; bzlib.c:395:17
	ldr	x8, [x19]
	.loc	1 395 23 is_stmt 0              ; bzlib.c:395:23
	ldr	w8, [x8, #8]
Ltmp113:
	.loc	1 395 14                        ; bzlib.c:395:14
	cbz	w8, LBB6_88
Ltmp114:
LBB6_2:                                 ; %.outer
                                        ; =>This Loop Header: Depth=1
                                        ;     Child Loop BB6_3 Depth 2
                                        ;     Child Loop BB6_12 Depth 2
                                        ;     Child Loop BB6_76 Depth 2
                                        ;     Child Loop BB6_56 Depth 2
	;DEBUG_VALUE: handle_compress:s <- $x19
	.loc	1 0 14                          ; bzlib.c:0:14
	ldr	w8, [x19, #12]
Ltmp115:
LBB6_3:                                 ;   Parent Loop BB6_2 Depth=1
                                        ; =>  This Inner Loop Header: Depth=2
	;DEBUG_VALUE: handle_compress:s <- $x19
	;DEBUG_VALUE: handle_compress:progress_in <- $w21
	;DEBUG_VALUE: handle_compress:progress_out <- $w20
	.loc	1 369 11 is_stmt 1              ; bzlib.c:369:11
	cmp	w8, #2
	b.eq	LBB6_25
Ltmp116:
; %bb.4:                                ;   in Loop: Header=BB6_3 Depth=2
	;DEBUG_VALUE: handle_compress:progress_out <- $w20
	;DEBUG_VALUE: handle_compress:progress_in <- $w21
	;DEBUG_VALUE: handle_compress:s <- $x19
	cmp	w8, #1
	b.ne	LBB6_3
Ltmp117:
; %bb.5:                                ;   in Loop: Header=BB6_2 Depth=1
	;DEBUG_VALUE: handle_compress:progress_out <- $w20
	;DEBUG_VALUE: handle_compress:progress_in <- $w21
	;DEBUG_VALUE: handle_compress:s <- $x19
	;DEBUG_VALUE: copy_output_until_stop:s <- $x19
	;DEBUG_VALUE: copy_output_until_stop:progress_out <- 0
	.loc	1 341 14                        ; bzlib.c:341:14
	ldr	x9, [x19]
	.loc	1 341 20 is_stmt 0              ; bzlib.c:341:20
	ldr	w10, [x9, #32]
Ltmp118:
	.loc	1 0 0                           ; bzlib.c:0:0
	ldr	w8, [x19, #120]
	;DEBUG_VALUE: copy_output_until_stop:progress_out <- 0
Ltmp119:
	.loc	1 341 11                        ; bzlib.c:341:11
	cbz	w10, LBB6_15
Ltmp120:
; %bb.6:                                ; %.lr.ph.i
                                        ;   in Loop: Header=BB6_2 Depth=1
	;DEBUG_VALUE: copy_output_until_stop:progress_out <- 0
	;DEBUG_VALUE: copy_output_until_stop:s <- $x19
	;DEBUG_VALUE: handle_compress:progress_out <- $w20
	;DEBUG_VALUE: handle_compress:progress_in <- $w21
	;DEBUG_VALUE: handle_compress:s <- $x19
	;DEBUG_VALUE: copy_output_until_stop:progress_out <- 0
	.loc	1 344 34 is_stmt 1              ; bzlib.c:344:34
	ldr	w10, [x19, #116]
Ltmp121:
	.loc	1 344 11 is_stmt 0              ; bzlib.c:344:11
	cmp	w8, w10
	b.ge	LBB6_15
Ltmp122:
; %bb.7:                                ;   in Loop: Header=BB6_2 Depth=1
	;DEBUG_VALUE: copy_output_until_stop:progress_out <- 0
	;DEBUG_VALUE: copy_output_until_stop:s <- $x19
	;DEBUG_VALUE: handle_compress:progress_out <- $w20
	;DEBUG_VALUE: handle_compress:progress_in <- $w21
	;DEBUG_VALUE: handle_compress:s <- $x19
	.loc	1 0 0                           ; bzlib.c:0:0
	sxtw	x8, w8
Ltmp123:
	;DEBUG_VALUE: copy_output_until_stop:progress_out <- 1
	.loc	1 347 33 is_stmt 1              ; bzlib.c:347:33
	ldr	x10, [x19, #80]
	.loc	1 347 30 is_stmt 0              ; bzlib.c:347:30
	ldrb	w8, [x10, x8]
	.loc	1 347 18                        ; bzlib.c:347:18
	ldr	x9, [x9, #24]
	.loc	1 347 28                        ; bzlib.c:347:28
	strb	w8, [x9]
	.loc	1 348 23 is_stmt 1              ; bzlib.c:348:23
	ldr	w8, [x19, #120]
	add	w8, w8, #1
	str	w8, [x19, #120]
	.loc	1 349 10                        ; bzlib.c:349:10
	ldr	x10, [x19]
	.loc	1 349 25 is_stmt 0              ; bzlib.c:349:25
	ldp	w9, w12, [x10, #32]
	sub	w11, w9, #1
	.loc	1 350 24 is_stmt 1              ; bzlib.c:350:24
	ldr	x9, [x10, #24]
	add	x9, x9, #1
	str	x9, [x10, #24]
	.loc	1 351 30                        ; bzlib.c:351:30
	adds	w12, w12, #1
	.loc	1 349 25                        ; bzlib.c:349:25
	stp	w11, w12, [x10, #32]
	.loc	1 352 11                        ; bzlib.c:352:11
	b.lo	LBB6_9
Ltmp124:
; %bb.8:                                ;   in Loop: Header=BB6_2 Depth=1
	;DEBUG_VALUE: copy_output_until_stop:progress_out <- 1
	;DEBUG_VALUE: copy_output_until_stop:s <- $x19
	;DEBUG_VALUE: handle_compress:progress_out <- $w20
	;DEBUG_VALUE: handle_compress:progress_in <- $w21
	;DEBUG_VALUE: handle_compress:s <- $x19
	.loc	1 352 64 is_stmt 0              ; bzlib.c:352:64
	ldr	w12, [x10, #40]
	add	w12, w12, #1
	str	w12, [x10, #40]
Ltmp125:
LBB6_9:                                 ;   in Loop: Header=BB6_2 Depth=1
	;DEBUG_VALUE: copy_output_until_stop:progress_out <- 1
	;DEBUG_VALUE: copy_output_until_stop:s <- $x19
	;DEBUG_VALUE: handle_compress:progress_out <- $w20
	;DEBUG_VALUE: handle_compress:progress_in <- $w21
	;DEBUG_VALUE: handle_compress:s <- $x19
	;DEBUG_VALUE: copy_output_until_stop:progress_out <- 1
	.loc	1 341 11 is_stmt 1              ; bzlib.c:341:11
	cbnz	w11, LBB6_12
Ltmp126:
LBB6_10:                                ;   in Loop: Header=BB6_2 Depth=1
	;DEBUG_VALUE: copy_output_until_stop:progress_out <- 1
	;DEBUG_VALUE: copy_output_until_stop:s <- $x19
	;DEBUG_VALUE: handle_compress:progress_out <- $w20
	;DEBUG_VALUE: handle_compress:progress_in <- $w21
	;DEBUG_VALUE: handle_compress:s <- $x19
	.loc	1 0 11 is_stmt 0                ; bzlib.c:0:11
	mov	w9, #1
	b	LBB6_16
Ltmp127:
LBB6_11:                                ;   in Loop: Header=BB6_12 Depth=2
	;DEBUG_VALUE: copy_output_until_stop:progress_out <- 1
	;DEBUG_VALUE: copy_output_until_stop:s <- $x19
	;DEBUG_VALUE: handle_compress:progress_out <- $w20
	;DEBUG_VALUE: handle_compress:progress_in <- $w21
	;DEBUG_VALUE: handle_compress:s <- $x19
	;DEBUG_VALUE: copy_output_until_stop:progress_out <- 1
	.loc	1 341 11                        ; bzlib.c:341:11
	cbz	w11, LBB6_10
Ltmp128:
LBB6_12:                                ; %.peel.next.i
                                        ;   Parent Loop BB6_2 Depth=1
                                        ; =>  This Inner Loop Header: Depth=2
	;DEBUG_VALUE: copy_output_until_stop:progress_out <- 1
	;DEBUG_VALUE: copy_output_until_stop:s <- $x19
	;DEBUG_VALUE: handle_compress:progress_out <- $w20
	;DEBUG_VALUE: handle_compress:progress_in <- $w21
	;DEBUG_VALUE: handle_compress:s <- $x19
	;DEBUG_VALUE: copy_output_until_stop:progress_out <- 1
	.loc	1 344 34 is_stmt 1              ; bzlib.c:344:34
	ldr	w10, [x19, #116]
Ltmp129:
	.loc	1 344 11 is_stmt 0              ; bzlib.c:344:11
	cmp	w8, w10
	b.ge	LBB6_10
Ltmp130:
; %bb.13:                               ;   in Loop: Header=BB6_12 Depth=2
	;DEBUG_VALUE: copy_output_until_stop:progress_out <- 1
	;DEBUG_VALUE: copy_output_until_stop:s <- $x19
	;DEBUG_VALUE: handle_compress:progress_out <- $w20
	;DEBUG_VALUE: handle_compress:progress_in <- $w21
	;DEBUG_VALUE: handle_compress:s <- $x19
	;DEBUG_VALUE: copy_output_until_stop:progress_out <- 1
	.loc	1 347 33 is_stmt 1              ; bzlib.c:347:33
	ldr	x10, [x19, #80]
	.loc	1 347 30 is_stmt 0              ; bzlib.c:347:30
	ldrb	w8, [x10, w8, sxtw]
	.loc	1 347 28                        ; bzlib.c:347:28
	strb	w8, [x9]
	.loc	1 348 23 is_stmt 1              ; bzlib.c:348:23
	ldr	w8, [x19, #120]
	add	w8, w8, #1
	str	w8, [x19, #120]
	.loc	1 349 10                        ; bzlib.c:349:10
	ldr	x10, [x19]
	.loc	1 349 25 is_stmt 0              ; bzlib.c:349:25
	ldp	w9, w12, [x10, #32]
	sub	w11, w9, #1
	.loc	1 350 24 is_stmt 1              ; bzlib.c:350:24
	ldr	x9, [x10, #24]
	add	x9, x9, #1
	str	x9, [x10, #24]
	.loc	1 351 30                        ; bzlib.c:351:30
	adds	w12, w12, #1
	.loc	1 349 25                        ; bzlib.c:349:25
	stp	w11, w12, [x10, #32]
	.loc	1 352 11                        ; bzlib.c:352:11
	b.lo	LBB6_11
Ltmp131:
; %bb.14:                               ;   in Loop: Header=BB6_12 Depth=2
	;DEBUG_VALUE: copy_output_until_stop:progress_out <- 1
	;DEBUG_VALUE: copy_output_until_stop:s <- $x19
	;DEBUG_VALUE: handle_compress:progress_out <- $w20
	;DEBUG_VALUE: handle_compress:progress_in <- $w21
	;DEBUG_VALUE: handle_compress:s <- $x19
	.loc	1 352 64 is_stmt 0              ; bzlib.c:352:64
	ldr	w12, [x10, #40]
	add	w12, w12, #1
	str	w12, [x10, #40]
	b	LBB6_11
Ltmp132:
LBB6_15:                                ;   in Loop: Header=BB6_2 Depth=1
	;DEBUG_VALUE: copy_output_until_stop:progress_out <- 0
	;DEBUG_VALUE: copy_output_until_stop:s <- $x19
	;DEBUG_VALUE: handle_compress:progress_out <- $w20
	;DEBUG_VALUE: handle_compress:progress_in <- $w21
	;DEBUG_VALUE: handle_compress:s <- $x19
	.loc	1 0 64                          ; bzlib.c:0:64
	mov	w9, #0
Ltmp133:
LBB6_16:                                ; %copy_output_until_stop.exit
                                        ;   in Loop: Header=BB6_2 Depth=1
	;DEBUG_VALUE: handle_compress:progress_out <- $w20
	;DEBUG_VALUE: handle_compress:progress_in <- $w21
	;DEBUG_VALUE: handle_compress:s <- $x19
	.loc	1 370 23 is_stmt 1              ; bzlib.c:370:23
	orr	w20, w9, w20
Ltmp134:
	;DEBUG_VALUE: handle_compress:progress_out <- $w20
	.loc	1 371 36                        ; bzlib.c:371:36
	ldr	w9, [x19, #116]
Ltmp135:
	.loc	1 371 14 is_stmt 0              ; bzlib.c:371:14
	cmp	w8, w9
	b.lt	LBB6_88
Ltmp136:
; %bb.17:                               ;   in Loop: Header=BB6_2 Depth=1
	;DEBUG_VALUE: handle_compress:progress_out <- $w20
	;DEBUG_VALUE: handle_compress:progress_in <- $w21
	;DEBUG_VALUE: handle_compress:s <- $x19
	.loc	1 372 17 is_stmt 1              ; bzlib.c:372:17
	ldr	w11, [x19, #8]
	.loc	1 372 27 is_stmt 0              ; bzlib.c:372:27
	cmp	w11, #4
	b.ne	LBB6_21
Ltmp137:
; %bb.18:                               ;   in Loop: Header=BB6_2 Depth=1
	;DEBUG_VALUE: handle_compress:progress_out <- $w20
	;DEBUG_VALUE: handle_compress:progress_in <- $w21
	;DEBUG_VALUE: handle_compress:s <- $x19
	.loc	1 373 17 is_stmt 1              ; bzlib.c:373:17
	ldr	w8, [x19, #16]
	.loc	1 373 38 is_stmt 0              ; bzlib.c:373:38
	cbnz	w8, LBB6_21
Ltmp138:
; %bb.19:                               ;   in Loop: Header=BB6_2 Depth=1
	;DEBUG_VALUE: handle_compress:progress_out <- $w20
	;DEBUG_VALUE: handle_compress:progress_in <- $w21
	;DEBUG_VALUE: handle_compress:s <- $x19
	;DEBUG_VALUE: isempty_RL:s <- $x19
	.loc	1 141 11 is_stmt 1              ; bzlib.c:141:11
	ldr	w8, [x19, #92]
	.loc	1 141 29 is_stmt 0              ; bzlib.c:141:29
	cmp	w8, #255
	b.hi	LBB6_88
Ltmp139:
; %bb.20:                               ;   in Loop: Header=BB6_2 Depth=1
	;DEBUG_VALUE: isempty_RL:s <- $x19
	;DEBUG_VALUE: handle_compress:progress_out <- $w20
	;DEBUG_VALUE: handle_compress:progress_in <- $w21
	;DEBUG_VALUE: handle_compress:s <- $x19
	.loc	1 141 35                        ; bzlib.c:141:35
	ldr	w8, [x19, #96]
Ltmp140:
	.loc	1 141 8                         ; bzlib.c:141:8
	cmp	w8, #1
	b.lt	LBB6_88
Ltmp141:
LBB6_21:                                ; %isempty_RL.exit.thread
                                        ;   in Loop: Header=BB6_2 Depth=1
	;DEBUG_VALUE: handle_compress:progress_out <- $w20
	;DEBUG_VALUE: handle_compress:progress_in <- $w21
	;DEBUG_VALUE: handle_compress:s <- $x19
	;DEBUG_VALUE: prepare_new_block:s <- $x19
	.loc	1 120 14 is_stmt 1              ; bzlib.c:120:14
	str	wzr, [x19, #108]
	.loc	1 121 12                        ; bzlib.c:121:12
	stp	wzr, wzr, [x19, #116]
Ltmp142:
	.loc	1 123 18                        ; bzlib.c:123:18
	str	w25, [x19, #648]
Ltmp143:
	;DEBUG_VALUE: prepare_new_block:i <- 0
	.loc	1 0 18 is_stmt 0                ; bzlib.c:0:18
	movi.2d	v0, #0000000000000000
Ltmp144:
	.loc	1 124 42 is_stmt 1              ; bzlib.c:124:42
	stp	q0, q0, [x22]
	stp	q0, q0, [x22, #32]
	stp	q0, q0, [x22, #64]
	stp	q0, q0, [x22, #96]
	stp	q0, q0, [x22, #128]
	stp	q0, q0, [x22, #160]
	stp	q0, q0, [x22, #192]
	stp	q0, q0, [x22, #224]
Ltmp145:
	;DEBUG_VALUE: prepare_new_block:i <- [DW_OP_plus_uconst 1, DW_OP_stack_value] undef
	.loc	1 125 14                        ; bzlib.c:125:14
	ldr	w8, [x19, #660]
	add	w8, w8, #1
	str	w8, [x19, #660]
Ltmp146:
	.loc	1 376 19                        ; bzlib.c:376:19
	str	w26, [x19, #12]
Ltmp147:
	.loc	1 377 27                        ; bzlib.c:377:27
	cmp	w11, #3
	b.ne	LBB6_26
Ltmp148:
; %bb.22:                               ;   in Loop: Header=BB6_2 Depth=1
	;DEBUG_VALUE: handle_compress:progress_out <- $w20
	;DEBUG_VALUE: handle_compress:progress_in <- $w21
	;DEBUG_VALUE: handle_compress:s <- $x19
	.loc	1 378 17                        ; bzlib.c:378:17
	ldr	w8, [x19, #16]
	.loc	1 378 38 is_stmt 0              ; bzlib.c:378:38
	cbnz	w8, LBB6_25
Ltmp149:
; %bb.23:                               ;   in Loop: Header=BB6_2 Depth=1
	;DEBUG_VALUE: handle_compress:progress_out <- $w20
	;DEBUG_VALUE: handle_compress:progress_in <- $w21
	;DEBUG_VALUE: handle_compress:s <- $x19
	;DEBUG_VALUE: isempty_RL:s <- $x19
	.loc	1 141 11 is_stmt 1              ; bzlib.c:141:11
	ldr	w8, [x19, #92]
	.loc	1 141 29 is_stmt 0              ; bzlib.c:141:29
	cmp	w8, #255
	b.hi	LBB6_88
Ltmp150:
; %bb.24:                               ;   in Loop: Header=BB6_2 Depth=1
	;DEBUG_VALUE: isempty_RL:s <- $x19
	;DEBUG_VALUE: handle_compress:progress_out <- $w20
	;DEBUG_VALUE: handle_compress:progress_in <- $w21
	;DEBUG_VALUE: handle_compress:s <- $x19
	.loc	1 141 35                        ; bzlib.c:141:35
	ldr	w8, [x19, #96]
Ltmp151:
	.loc	1 141 8                         ; bzlib.c:141:8
	cmp	w8, #0
	b.le	LBB6_88
Ltmp152:
LBB6_25:                                ; %..thread_crit_edge
                                        ;   in Loop: Header=BB6_2 Depth=1
	;DEBUG_VALUE: handle_compress:progress_out <- $w20
	;DEBUG_VALUE: handle_compress:progress_in <- $w21
	;DEBUG_VALUE: handle_compress:s <- $x19
	.loc	1 293 11 is_stmt 1              ; bzlib.c:293:11
	ldr	w11, [x19, #8]
Ltmp153:
LBB6_26:                                ; %.thread
                                        ;   in Loop: Header=BB6_2 Depth=1
	;DEBUG_VALUE: handle_compress:progress_out <- $w20
	;DEBUG_VALUE: handle_compress:progress_in <- $w21
	;DEBUG_VALUE: handle_compress:s <- $x19
	;DEBUG_VALUE: copy_input_until_stop:s <- $x19
	;DEBUG_VALUE: copy_input_until_stop:progress_in <- 0
	.loc	1 0 0 is_stmt 0                 ; bzlib.c:0:0
	ldp	w8, w9, [x19, #108]
Ltmp154:
	.loc	1 302 296 is_stmt 1             ; bzlib.c:302:296
	sxtw	x10, w8
Ltmp155:
	.loc	1 293 8                         ; bzlib.c:293:8
	cmp	w11, #2
	b.ne	LBB6_32
Ltmp156:
; %bb.27:                               ; %.preheader.i
                                        ;   in Loop: Header=BB6_2 Depth=1
	;DEBUG_VALUE: copy_input_until_stop:progress_in <- 0
	;DEBUG_VALUE: copy_input_until_stop:s <- $x19
	;DEBUG_VALUE: handle_compress:progress_out <- $w20
	;DEBUG_VALUE: handle_compress:progress_in <- $w21
	;DEBUG_VALUE: handle_compress:s <- $x19
	.loc	1 298 14                        ; bzlib.c:298:14
	cmp	w8, w9
	b.ge	LBB6_38
Ltmp157:
; %bb.28:                               ; %.lr.ph93.i
                                        ;   in Loop: Header=BB6_2 Depth=1
	;DEBUG_VALUE: copy_input_until_stop:progress_in <- 0
	;DEBUG_VALUE: copy_input_until_stop:s <- $x19
	;DEBUG_VALUE: handle_compress:progress_out <- $w20
	;DEBUG_VALUE: handle_compress:progress_in <- $w21
	;DEBUG_VALUE: handle_compress:s <- $x19
	;DEBUG_VALUE: copy_input_until_stop:progress_in <- 0
	.loc	1 300 17                        ; bzlib.c:300:17
	ldr	x11, [x19]
	.loc	1 300 23 is_stmt 0              ; bzlib.c:300:23
	ldr	w12, [x11, #8]
Ltmp158:
	.loc	1 300 14                        ; bzlib.c:300:14
	cbz	w12, LBB6_38
Ltmp159:
; %bb.29:                               ;   in Loop: Header=BB6_2 Depth=1
	;DEBUG_VALUE: copy_input_until_stop:progress_in <- 0
	;DEBUG_VALUE: copy_input_until_stop:s <- $x19
	;DEBUG_VALUE: handle_compress:progress_out <- $w20
	;DEBUG_VALUE: handle_compress:progress_in <- $w21
	;DEBUG_VALUE: handle_compress:s <- $x19
	;DEBUG_VALUE: copy_input_until_stop:progress_in <- 1
	.loc	1 302 64 is_stmt 1              ; bzlib.c:302:64
	ldr	x8, [x11]
	.loc	1 302 44 is_stmt 0              ; bzlib.c:302:44
	ldrb	w27, [x8]
Ltmp160:
	;DEBUG_VALUE: zchh <- $w27
	.loc	1 302 92                        ; bzlib.c:302:92
	ldp	w8, w9, [x19, #92]
	.loc	1 302 104                       ; bzlib.c:302:104
	cmp	w8, w27
	b.ne	LBB6_47
Ltmp161:
; %bb.30:                               ;   in Loop: Header=BB6_2 Depth=1
	;DEBUG_VALUE: zchh <- $w27
	;DEBUG_VALUE: copy_input_until_stop:progress_in <- 1
	;DEBUG_VALUE: copy_input_until_stop:s <- $x19
	;DEBUG_VALUE: handle_compress:progress_out <- $w20
	;DEBUG_VALUE: handle_compress:progress_in <- $w21
	;DEBUG_VALUE: handle_compress:s <- $x19
	.loc	1 302 376                       ; bzlib.c:302:376
	cmp	w9, #255
	b.eq	LBB6_49
Ltmp162:
; %bb.31:                               ;   in Loop: Header=BB6_2 Depth=1
	;DEBUG_VALUE: zchh <- $w27
	;DEBUG_VALUE: copy_input_until_stop:progress_in <- 1
	;DEBUG_VALUE: copy_input_until_stop:s <- $x19
	;DEBUG_VALUE: handle_compress:progress_out <- $w20
	;DEBUG_VALUE: handle_compress:progress_in <- $w21
	;DEBUG_VALUE: handle_compress:s <- $x19
	.loc	1 302 547                       ; bzlib.c:302:547
	add	w8, w9, #1
	str	w8, [x19, #96]
	b	LBB6_52
Ltmp163:
LBB6_32:                                ; %.preheader83.i
                                        ;   in Loop: Header=BB6_2 Depth=1
	;DEBUG_VALUE: copy_input_until_stop:progress_in <- 0
	;DEBUG_VALUE: copy_input_until_stop:s <- $x19
	;DEBUG_VALUE: handle_compress:progress_out <- $w20
	;DEBUG_VALUE: handle_compress:progress_in <- $w21
	;DEBUG_VALUE: handle_compress:s <- $x19
	.loc	1 314 14 is_stmt 1              ; bzlib.c:314:14
	cmp	w8, w9
	b.ge	LBB6_38
Ltmp164:
; %bb.33:                               ; %.lr.ph.i37
                                        ;   in Loop: Header=BB6_2 Depth=1
	;DEBUG_VALUE: copy_input_until_stop:progress_in <- 0
	;DEBUG_VALUE: copy_input_until_stop:s <- $x19
	;DEBUG_VALUE: handle_compress:progress_out <- $w20
	;DEBUG_VALUE: handle_compress:progress_in <- $w21
	;DEBUG_VALUE: handle_compress:s <- $x19
	;DEBUG_VALUE: copy_input_until_stop:progress_in <- 0
	.loc	1 316 17                        ; bzlib.c:316:17
	ldr	x11, [x19]
	.loc	1 316 23 is_stmt 0              ; bzlib.c:316:23
	ldr	w12, [x11, #8]
Ltmp165:
	.loc	1 316 14                        ; bzlib.c:316:14
	cbz	w12, LBB6_38
Ltmp166:
; %bb.34:                               ;   in Loop: Header=BB6_2 Depth=1
	;DEBUG_VALUE: copy_input_until_stop:progress_in <- 0
	;DEBUG_VALUE: copy_input_until_stop:s <- $x19
	;DEBUG_VALUE: handle_compress:progress_out <- $w20
	;DEBUG_VALUE: handle_compress:progress_in <- $w21
	;DEBUG_VALUE: handle_compress:s <- $x19
	.loc	1 318 17 is_stmt 1              ; bzlib.c:318:17
	ldr	w12, [x19, #16]
Ltmp167:
	.loc	1 318 14 is_stmt 0              ; bzlib.c:318:14
	cbz	w12, LBB6_38
Ltmp168:
; %bb.35:                               ;   in Loop: Header=BB6_2 Depth=1
	;DEBUG_VALUE: copy_input_until_stop:progress_in <- 0
	;DEBUG_VALUE: copy_input_until_stop:s <- $x19
	;DEBUG_VALUE: handle_compress:progress_out <- $w20
	;DEBUG_VALUE: handle_compress:progress_in <- $w21
	;DEBUG_VALUE: handle_compress:s <- $x19
	;DEBUG_VALUE: copy_input_until_stop:progress_in <- 1
	.loc	1 320 64 is_stmt 1              ; bzlib.c:320:64
	ldr	x8, [x11]
	.loc	1 320 44 is_stmt 0              ; bzlib.c:320:44
	ldrb	w27, [x8]
Ltmp169:
	;DEBUG_VALUE: zchh <- $w27
	.loc	1 320 92                        ; bzlib.c:320:92
	ldp	w8, w9, [x19, #92]
	.loc	1 320 104                       ; bzlib.c:320:104
	cmp	w8, w27
	b.ne	LBB6_66
Ltmp170:
; %bb.36:                               ;   in Loop: Header=BB6_2 Depth=1
	;DEBUG_VALUE: zchh <- $w27
	;DEBUG_VALUE: copy_input_until_stop:progress_in <- 1
	;DEBUG_VALUE: copy_input_until_stop:s <- $x19
	;DEBUG_VALUE: handle_compress:progress_out <- $w20
	;DEBUG_VALUE: handle_compress:progress_in <- $w21
	;DEBUG_VALUE: handle_compress:s <- $x19
	.loc	1 320 376                       ; bzlib.c:320:376
	cmp	w9, #255
	b.eq	LBB6_68
Ltmp171:
; %bb.37:                               ;   in Loop: Header=BB6_2 Depth=1
	;DEBUG_VALUE: zchh <- $w27
	;DEBUG_VALUE: copy_input_until_stop:progress_in <- 1
	;DEBUG_VALUE: copy_input_until_stop:s <- $x19
	;DEBUG_VALUE: handle_compress:progress_out <- $w20
	;DEBUG_VALUE: handle_compress:progress_in <- $w21
	;DEBUG_VALUE: handle_compress:s <- $x19
	.loc	1 320 547                       ; bzlib.c:320:547
	add	w8, w9, #1
	str	w8, [x19, #96]
	b	LBB6_71
Ltmp172:
LBB6_38:                                ;   in Loop: Header=BB6_2 Depth=1
	;DEBUG_VALUE: copy_input_until_stop:progress_in <- 0
	;DEBUG_VALUE: copy_input_until_stop:s <- $x19
	;DEBUG_VALUE: handle_compress:progress_out <- $w20
	;DEBUG_VALUE: handle_compress:progress_in <- $w21
	;DEBUG_VALUE: handle_compress:s <- $x19
	.loc	1 0 547                         ; bzlib.c:0:547
	mov	w10, #0
Ltmp173:
LBB6_39:                                ; %copy_input_until_stop.exit
                                        ;   in Loop: Header=BB6_2 Depth=1
	;DEBUG_VALUE: handle_compress:progress_out <- $w20
	;DEBUG_VALUE: handle_compress:progress_in <- $w21
	;DEBUG_VALUE: handle_compress:s <- $x19
	;DEBUG_VALUE: copy_input_until_stop:progress_in <- $w10
	.loc	1 383 22 is_stmt 1              ; bzlib.c:383:22
	orr	w21, w10, w21
Ltmp174:
	;DEBUG_VALUE: handle_compress:progress_in <- $w21
	.loc	1 384 17                        ; bzlib.c:384:17
	ldr	w10, [x19, #8]
	.loc	1 384 27 is_stmt 0              ; bzlib.c:384:27
	cmp	w10, #2
	b.eq	LBB6_41
Ltmp175:
; %bb.40:                               ;   in Loop: Header=BB6_2 Depth=1
	;DEBUG_VALUE: handle_compress:progress_out <- $w20
	;DEBUG_VALUE: handle_compress:progress_in <- $w21
	;DEBUG_VALUE: handle_compress:s <- $x19
	.loc	1 384 33                        ; bzlib.c:384:33
	ldr	w11, [x19, #16]
Ltmp176:
	.loc	1 384 14                        ; bzlib.c:384:14
	cbz	w11, LBB6_43
Ltmp177:
LBB6_41:                                ;   in Loop: Header=BB6_2 Depth=1
	;DEBUG_VALUE: handle_compress:progress_out <- $w20
	;DEBUG_VALUE: handle_compress:progress_in <- $w21
	;DEBUG_VALUE: handle_compress:s <- $x19
	.loc	1 390 14 is_stmt 1              ; bzlib.c:390:14
	cmp	w8, w9
	b.lt	LBB6_1
Ltmp178:
; %bb.42:                               ;   in Loop: Header=BB6_2 Depth=1
	;DEBUG_VALUE: handle_compress:progress_out <- $w20
	;DEBUG_VALUE: handle_compress:progress_in <- $w21
	;DEBUG_VALUE: handle_compress:s <- $x19
	.loc	1 0 14 is_stmt 0                ; bzlib.c:0:14
	mov	w1, #0
	b	LBB6_46
Ltmp179:
LBB6_43:                                ;   in Loop: Header=BB6_2 Depth=1
	;DEBUG_VALUE: handle_compress:progress_out <- $w20
	;DEBUG_VALUE: handle_compress:progress_in <- $w21
	;DEBUG_VALUE: handle_compress:s <- $x19
	;DEBUG_VALUE: flush_RL:s <- $x19
	.loc	1 254 11 is_stmt 1              ; bzlib.c:254:11
	ldr	w8, [x19, #92]
Ltmp180:
	.loc	1 254 8 is_stmt 0               ; bzlib.c:254:8
	cmp	w8, #255
	b.hi	LBB6_45
Ltmp181:
; %bb.44:                               ;   in Loop: Header=BB6_2 Depth=1
	;DEBUG_VALUE: flush_RL:s <- $x19
	;DEBUG_VALUE: handle_compress:progress_out <- $w20
	;DEBUG_VALUE: handle_compress:progress_in <- $w21
	;DEBUG_VALUE: handle_compress:s <- $x19
	.loc	1 254 30                        ; bzlib.c:254:30
	mov	x0, x19
	bl	_add_pair_to_block
Ltmp182:
	.loc	1 386 46 is_stmt 1              ; bzlib.c:386:46
	ldr	w10, [x19, #8]
Ltmp183:
LBB6_45:                                ; %flush_RL.exit
                                        ;   in Loop: Header=BB6_2 Depth=1
	;DEBUG_VALUE: flush_RL:s <- $x19
	;DEBUG_VALUE: handle_compress:progress_out <- $w20
	;DEBUG_VALUE: handle_compress:progress_in <- $w21
	;DEBUG_VALUE: handle_compress:s <- $x19
	;DEBUG_VALUE: init_RL:s <- $x19
	.loc	1 133 19                        ; bzlib.c:133:19
	stur	d8, [x19, #92]
Ltmp184:
	.loc	1 386 51                        ; bzlib.c:386:51
	cmp	w10, #4
	cset	w1, eq
Ltmp185:
LBB6_46:                                ; %.sink.split
                                        ;   in Loop: Header=BB6_2 Depth=1
	;DEBUG_VALUE: handle_compress:progress_out <- $w20
	;DEBUG_VALUE: handle_compress:progress_in <- $w21
	;DEBUG_VALUE: handle_compress:s <- $x19
	.loc	1 0 0 is_stmt 0                 ; bzlib.c:0:0
	mov	x0, x19
	bl	_BZ2_compressBlock
Ltmp186:
	str	w24, [x19, #12]
	b	LBB6_2
Ltmp187:
LBB6_47:                                ;   in Loop: Header=BB6_2 Depth=1
	;DEBUG_VALUE: zchh <- $w27
	;DEBUG_VALUE: copy_input_until_stop:progress_in <- 1
	;DEBUG_VALUE: copy_input_until_stop:s <- $x19
	;DEBUG_VALUE: handle_compress:progress_out <- $w20
	;DEBUG_VALUE: handle_compress:progress_in <- $w21
	;DEBUG_VALUE: handle_compress:s <- $x19
	.loc	1 302 81 is_stmt 1              ; bzlib.c:302:81
	cmp	w9, #1
	b.ne	LBB6_49
Ltmp188:
; %bb.48:                               ;   in Loop: Header=BB6_2 Depth=1
	;DEBUG_VALUE: zchh <- $w27
	;DEBUG_VALUE: copy_input_until_stop:progress_in <- 1
	;DEBUG_VALUE: copy_input_until_stop:s <- $x19
	;DEBUG_VALUE: handle_compress:progress_out <- $w20
	;DEBUG_VALUE: handle_compress:progress_in <- $w21
	;DEBUG_VALUE: handle_compress:s <- $x19
	;DEBUG_VALUE: ch <- undef
	.loc	1 302 187 is_stmt 0             ; bzlib.c:302:187
	ldr	w9, [x19, #648]
	.loc	1 302 241                       ; bzlib.c:302:241
	and	w11, w8, #0xff
	.loc	1 302 239                       ; bzlib.c:302:239
	eor	w11, w11, w9, lsr #24
	.loc	1 302 204                       ; bzlib.c:302:204
	ldr	w11, [x23, w11, uxtw  #2]
	.loc	1 302 202                       ; bzlib.c:302:202
	eor	w9, w11, w9, lsl #8
	.loc	1 302 181                       ; bzlib.c:302:181
	str	w9, [x19, #648]
Ltmp189:
	.loc	1 302 258                       ; bzlib.c:302:258
	add	x9, x19, x8
	.loc	1 302 283                       ; bzlib.c:302:283
	strb	w24, [x9, #128]
	.loc	1 302 299                       ; bzlib.c:302:299
	ldr	x9, [x19, #64]
	.loc	1 302 316                       ; bzlib.c:302:316
	strb	w8, [x9, x10]
	.loc	1 302 338                       ; bzlib.c:302:338
	ldr	w8, [x19, #108]
	add	w8, w8, #1
	str	w8, [x19, #108]
	.loc	1 302 357                       ; bzlib.c:302:357
	str	w27, [x19, #92]
	b	LBB6_52
Ltmp190:
LBB6_49:                                ;   in Loop: Header=BB6_2 Depth=1
	;DEBUG_VALUE: zchh <- $w27
	;DEBUG_VALUE: copy_input_until_stop:progress_in <- 1
	;DEBUG_VALUE: copy_input_until_stop:s <- $x19
	;DEBUG_VALUE: handle_compress:progress_out <- $w20
	;DEBUG_VALUE: handle_compress:progress_in <- $w21
	;DEBUG_VALUE: handle_compress:s <- $x19
	.loc	1 302 432                       ; bzlib.c:302:432
	cmp	w8, #255
	b.hi	LBB6_51
Ltmp191:
; %bb.50:                               ;   in Loop: Header=BB6_2 Depth=1
	;DEBUG_VALUE: zchh <- $w27
	;DEBUG_VALUE: copy_input_until_stop:progress_in <- 1
	;DEBUG_VALUE: copy_input_until_stop:s <- $x19
	;DEBUG_VALUE: handle_compress:progress_out <- $w20
	;DEBUG_VALUE: handle_compress:progress_in <- $w21
	;DEBUG_VALUE: handle_compress:s <- $x19
	.loc	1 302 454                       ; bzlib.c:302:454
	mov	x0, x19
Ltmp192:
	;DEBUG_VALUE: handle_compress:strm <- [DW_OP_LLVM_entry_value 1] $x0
	bl	_add_pair_to_block
Ltmp193:
LBB6_51:                                ;   in Loop: Header=BB6_2 Depth=1
	;DEBUG_VALUE: zchh <- $w27
	;DEBUG_VALUE: copy_input_until_stop:progress_in <- 1
	;DEBUG_VALUE: copy_input_until_stop:s <- $x19
	;DEBUG_VALUE: handle_compress:progress_out <- $w20
	;DEBUG_VALUE: handle_compress:progress_in <- $w21
	;DEBUG_VALUE: handle_compress:s <- $x19
	.loc	1 302 494                       ; bzlib.c:302:494
	stp	w27, w24, [x19, #92]
Ltmp194:
LBB6_52:                                ;   in Loop: Header=BB6_2 Depth=1
	;DEBUG_VALUE: copy_input_until_stop:progress_in <- 1
	;DEBUG_VALUE: copy_input_until_stop:s <- $x19
	;DEBUG_VALUE: handle_compress:progress_out <- $w20
	;DEBUG_VALUE: handle_compress:progress_in <- $w21
	;DEBUG_VALUE: handle_compress:s <- $x19
	.loc	1 303 13 is_stmt 1              ; bzlib.c:303:13
	ldr	x8, [x19]
	.loc	1 303 26 is_stmt 0              ; bzlib.c:303:26
	ldr	x9, [x8]
	add	x11, x9, #1
	str	x11, [x8]
	.loc	1 304 27 is_stmt 1              ; bzlib.c:304:27
	ldp	w9, w10, [x8, #8]
	sub	w12, w9, #1
	.loc	1 305 32                        ; bzlib.c:305:32
	adds	w9, w10, #1
	.loc	1 304 27                        ; bzlib.c:304:27
	stp	w12, w9, [x8, #8]
	.loc	1 306 14                        ; bzlib.c:306:14
	b.lo	LBB6_54
Ltmp195:
; %bb.53:                               ;   in Loop: Header=BB6_2 Depth=1
	;DEBUG_VALUE: copy_input_until_stop:progress_in <- 1
	;DEBUG_VALUE: copy_input_until_stop:s <- $x19
	;DEBUG_VALUE: handle_compress:progress_out <- $w20
	;DEBUG_VALUE: handle_compress:progress_in <- $w21
	;DEBUG_VALUE: handle_compress:s <- $x19
	.loc	1 306 65 is_stmt 0              ; bzlib.c:306:65
	ldr	w9, [x8, #16]
	add	w9, w9, #1
	str	w9, [x8, #16]
Ltmp196:
LBB6_54:                                ;   in Loop: Header=BB6_2 Depth=1
	;DEBUG_VALUE: copy_input_until_stop:progress_in <- 1
	;DEBUG_VALUE: copy_input_until_stop:s <- $x19
	;DEBUG_VALUE: handle_compress:progress_out <- $w20
	;DEBUG_VALUE: handle_compress:progress_in <- $w21
	;DEBUG_VALUE: handle_compress:s <- $x19
	;DEBUG_VALUE: copy_input_until_stop:progress_in <- 1
	.loc	1 298 17 is_stmt 1              ; bzlib.c:298:17
	ldp	w8, w9, [x19, #108]
	mov	w10, #1
Ltmp197:
	.loc	1 298 14 is_stmt 0              ; bzlib.c:298:14
	cmp	w8, w9
	b.ge	LBB6_39
Ltmp198:
; %bb.55:                               ;   in Loop: Header=BB6_2 Depth=1
	;DEBUG_VALUE: copy_input_until_stop:progress_in <- 1
	;DEBUG_VALUE: copy_input_until_stop:s <- $x19
	;DEBUG_VALUE: handle_compress:progress_out <- $w20
	;DEBUG_VALUE: handle_compress:progress_in <- $w21
	;DEBUG_VALUE: handle_compress:s <- $x19
	cbz	w12, LBB6_39
Ltmp199:
LBB6_56:                                ; %.lr.ph68
                                        ;   Parent Loop BB6_2 Depth=1
                                        ; =>  This Inner Loop Header: Depth=2
	;DEBUG_VALUE: copy_input_until_stop:progress_in <- 1
	;DEBUG_VALUE: copy_input_until_stop:s <- $x19
	;DEBUG_VALUE: handle_compress:progress_out <- $w20
	;DEBUG_VALUE: handle_compress:progress_in <- $w21
	;DEBUG_VALUE: handle_compress:s <- $x19
	;DEBUG_VALUE: copy_input_until_stop:progress_in <- 1
	.loc	1 302 44 is_stmt 1              ; bzlib.c:302:44
	ldrb	w28, [x11]
Ltmp200:
	;DEBUG_VALUE: zchh <- $w28
	.loc	1 0 0 is_stmt 0                 ; bzlib.c:0:0
	ldr	w9, [x19, #96]
	.loc	1 302 104                       ; bzlib.c:302:104
	cmp	w27, w28
	b.ne	LBB6_59
Ltmp201:
; %bb.57:                               ;   in Loop: Header=BB6_56 Depth=2
	;DEBUG_VALUE: zchh <- $w28
	;DEBUG_VALUE: copy_input_until_stop:progress_in <- 1
	;DEBUG_VALUE: copy_input_until_stop:s <- $x19
	;DEBUG_VALUE: handle_compress:progress_out <- $w20
	;DEBUG_VALUE: handle_compress:progress_in <- $w21
	;DEBUG_VALUE: handle_compress:s <- $x19
	.loc	1 302 376                       ; bzlib.c:302:376
	cmp	w9, #255
	b.eq	LBB6_61
Ltmp202:
; %bb.58:                               ;   in Loop: Header=BB6_56 Depth=2
	;DEBUG_VALUE: zchh <- $w28
	;DEBUG_VALUE: copy_input_until_stop:progress_in <- 1
	;DEBUG_VALUE: copy_input_until_stop:s <- $x19
	;DEBUG_VALUE: handle_compress:progress_out <- $w20
	;DEBUG_VALUE: handle_compress:progress_in <- $w21
	;DEBUG_VALUE: handle_compress:s <- $x19
	.loc	1 302 547                       ; bzlib.c:302:547
	add	w8, w9, #1
	str	w8, [x19, #96]
	b	LBB6_62
Ltmp203:
LBB6_59:                                ;   in Loop: Header=BB6_56 Depth=2
	;DEBUG_VALUE: zchh <- $w28
	;DEBUG_VALUE: copy_input_until_stop:progress_in <- 1
	;DEBUG_VALUE: copy_input_until_stop:s <- $x19
	;DEBUG_VALUE: handle_compress:progress_out <- $w20
	;DEBUG_VALUE: handle_compress:progress_in <- $w21
	;DEBUG_VALUE: handle_compress:s <- $x19
	.loc	1 302 81                        ; bzlib.c:302:81
	cmp	w9, #1
	b.ne	LBB6_61
Ltmp204:
; %bb.60:                               ;   in Loop: Header=BB6_56 Depth=2
	;DEBUG_VALUE: zchh <- $w28
	;DEBUG_VALUE: copy_input_until_stop:progress_in <- 1
	;DEBUG_VALUE: copy_input_until_stop:s <- $x19
	;DEBUG_VALUE: handle_compress:progress_out <- $w20
	;DEBUG_VALUE: handle_compress:progress_in <- $w21
	;DEBUG_VALUE: handle_compress:s <- $x19
	;DEBUG_VALUE: ch <- undef
	.loc	1 302 187                       ; bzlib.c:302:187
	ldr	w9, [x19, #648]
	.loc	1 302 239                       ; bzlib.c:302:239
	eor	w10, w27, w9, lsr #24
	.loc	1 302 204                       ; bzlib.c:302:204
	ldr	w10, [x23, w10, uxtw  #2]
	.loc	1 302 202                       ; bzlib.c:302:202
	eor	w9, w10, w9, lsl #8
	.loc	1 302 181                       ; bzlib.c:302:181
	str	w9, [x19, #648]
Ltmp205:
	.loc	1 302 258                       ; bzlib.c:302:258
	add	x9, x19, w27, uxtw
	.loc	1 302 283                       ; bzlib.c:302:283
	strb	w24, [x9, #128]
	.loc	1 302 299                       ; bzlib.c:302:299
	ldr	x9, [x19, #64]
	.loc	1 302 316                       ; bzlib.c:302:316
	strb	w27, [x9, w8, sxtw]
	.loc	1 302 338                       ; bzlib.c:302:338
	ldr	w8, [x19, #108]
	add	w8, w8, #1
	str	w8, [x19, #108]
	.loc	1 302 357                       ; bzlib.c:302:357
	str	w28, [x19, #92]
	b	LBB6_62
Ltmp206:
LBB6_61:                                ;   in Loop: Header=BB6_56 Depth=2
	;DEBUG_VALUE: zchh <- $w28
	;DEBUG_VALUE: copy_input_until_stop:progress_in <- 1
	;DEBUG_VALUE: copy_input_until_stop:s <- $x19
	;DEBUG_VALUE: handle_compress:progress_out <- $w20
	;DEBUG_VALUE: handle_compress:progress_in <- $w21
	;DEBUG_VALUE: handle_compress:s <- $x19
	.loc	1 302 454                       ; bzlib.c:302:454
	mov	x0, x19
	bl	_add_pair_to_block
Ltmp207:
	.loc	1 302 494                       ; bzlib.c:302:494
	stp	w28, w24, [x19, #92]
Ltmp208:
LBB6_62:                                ;   in Loop: Header=BB6_56 Depth=2
	;DEBUG_VALUE: copy_input_until_stop:progress_in <- 1
	;DEBUG_VALUE: copy_input_until_stop:s <- $x19
	;DEBUG_VALUE: handle_compress:progress_out <- $w20
	;DEBUG_VALUE: handle_compress:progress_in <- $w21
	;DEBUG_VALUE: handle_compress:s <- $x19
	.loc	1 303 13 is_stmt 1              ; bzlib.c:303:13
	ldr	x8, [x19]
	.loc	1 303 26 is_stmt 0              ; bzlib.c:303:26
	ldr	x9, [x8]
	add	x11, x9, #1
	str	x11, [x8]
	.loc	1 304 27 is_stmt 1              ; bzlib.c:304:27
	ldp	w9, w10, [x8, #8]
	sub	w12, w9, #1
	.loc	1 305 32                        ; bzlib.c:305:32
	adds	w9, w10, #1
	.loc	1 304 27                        ; bzlib.c:304:27
	stp	w12, w9, [x8, #8]
	.loc	1 306 14                        ; bzlib.c:306:14
	b.lo	LBB6_64
Ltmp209:
; %bb.63:                               ;   in Loop: Header=BB6_56 Depth=2
	;DEBUG_VALUE: copy_input_until_stop:progress_in <- 1
	;DEBUG_VALUE: copy_input_until_stop:s <- $x19
	;DEBUG_VALUE: handle_compress:progress_out <- $w20
	;DEBUG_VALUE: handle_compress:progress_in <- $w21
	;DEBUG_VALUE: handle_compress:s <- $x19
	.loc	1 306 65 is_stmt 0              ; bzlib.c:306:65
	ldr	w9, [x8, #16]
	add	w9, w9, #1
	str	w9, [x8, #16]
Ltmp210:
LBB6_64:                                ;   in Loop: Header=BB6_56 Depth=2
	;DEBUG_VALUE: copy_input_until_stop:progress_in <- 1
	;DEBUG_VALUE: copy_input_until_stop:s <- $x19
	;DEBUG_VALUE: handle_compress:progress_out <- $w20
	;DEBUG_VALUE: handle_compress:progress_in <- $w21
	;DEBUG_VALUE: handle_compress:s <- $x19
	;DEBUG_VALUE: copy_input_until_stop:progress_in <- 1
	.loc	1 298 17 is_stmt 1              ; bzlib.c:298:17
	ldp	w8, w9, [x19, #108]
	mov	w10, #1
Ltmp211:
	.loc	1 298 14 is_stmt 0              ; bzlib.c:298:14
	cmp	w8, w9
	b.ge	LBB6_39
Ltmp212:
; %bb.65:                               ;   in Loop: Header=BB6_56 Depth=2
	;DEBUG_VALUE: copy_input_until_stop:progress_in <- 1
	;DEBUG_VALUE: copy_input_until_stop:s <- $x19
	;DEBUG_VALUE: handle_compress:progress_out <- $w20
	;DEBUG_VALUE: handle_compress:progress_in <- $w21
	;DEBUG_VALUE: handle_compress:s <- $x19
	.loc	1 0 14                          ; bzlib.c:0:14
	mov	x27, x28
	.loc	1 298 14                        ; bzlib.c:298:14
	cbnz	w12, LBB6_56
	b	LBB6_39
Ltmp213:
LBB6_66:                                ;   in Loop: Header=BB6_2 Depth=1
	;DEBUG_VALUE: zchh <- $w27
	;DEBUG_VALUE: copy_input_until_stop:progress_in <- 1
	;DEBUG_VALUE: copy_input_until_stop:s <- $x19
	;DEBUG_VALUE: handle_compress:progress_out <- $w20
	;DEBUG_VALUE: handle_compress:progress_in <- $w21
	;DEBUG_VALUE: handle_compress:s <- $x19
	.loc	1 320 81 is_stmt 1              ; bzlib.c:320:81
	cmp	w9, #1
	b.ne	LBB6_68
Ltmp214:
; %bb.67:                               ;   in Loop: Header=BB6_2 Depth=1
	;DEBUG_VALUE: zchh <- $w27
	;DEBUG_VALUE: copy_input_until_stop:progress_in <- 1
	;DEBUG_VALUE: copy_input_until_stop:s <- $x19
	;DEBUG_VALUE: handle_compress:progress_out <- $w20
	;DEBUG_VALUE: handle_compress:progress_in <- $w21
	;DEBUG_VALUE: handle_compress:s <- $x19
	;DEBUG_VALUE: ch <- undef
	.loc	1 320 187 is_stmt 0             ; bzlib.c:320:187
	ldr	w9, [x19, #648]
	.loc	1 320 241                       ; bzlib.c:320:241
	and	w11, w8, #0xff
	.loc	1 320 239                       ; bzlib.c:320:239
	eor	w11, w11, w9, lsr #24
	.loc	1 320 204                       ; bzlib.c:320:204
	ldr	w11, [x23, w11, uxtw  #2]
	.loc	1 320 202                       ; bzlib.c:320:202
	eor	w9, w11, w9, lsl #8
	.loc	1 320 181                       ; bzlib.c:320:181
	str	w9, [x19, #648]
Ltmp215:
	.loc	1 320 258                       ; bzlib.c:320:258
	add	x9, x19, x8
	.loc	1 320 283                       ; bzlib.c:320:283
	strb	w24, [x9, #128]
	.loc	1 320 299                       ; bzlib.c:320:299
	ldr	x9, [x19, #64]
	.loc	1 320 316                       ; bzlib.c:320:316
	strb	w8, [x9, x10]
	.loc	1 320 338                       ; bzlib.c:320:338
	ldr	w8, [x19, #108]
	add	w8, w8, #1
	str	w8, [x19, #108]
	.loc	1 320 357                       ; bzlib.c:320:357
	str	w27, [x19, #92]
	b	LBB6_71
Ltmp216:
LBB6_68:                                ;   in Loop: Header=BB6_2 Depth=1
	;DEBUG_VALUE: zchh <- $w27
	;DEBUG_VALUE: copy_input_until_stop:progress_in <- 1
	;DEBUG_VALUE: copy_input_until_stop:s <- $x19
	;DEBUG_VALUE: handle_compress:progress_out <- $w20
	;DEBUG_VALUE: handle_compress:progress_in <- $w21
	;DEBUG_VALUE: handle_compress:s <- $x19
	.loc	1 320 432                       ; bzlib.c:320:432
	cmp	w8, #255
	b.hi	LBB6_70
Ltmp217:
; %bb.69:                               ;   in Loop: Header=BB6_2 Depth=1
	;DEBUG_VALUE: zchh <- $w27
	;DEBUG_VALUE: copy_input_until_stop:progress_in <- 1
	;DEBUG_VALUE: copy_input_until_stop:s <- $x19
	;DEBUG_VALUE: handle_compress:progress_out <- $w20
	;DEBUG_VALUE: handle_compress:progress_in <- $w21
	;DEBUG_VALUE: handle_compress:s <- $x19
	.loc	1 320 454                       ; bzlib.c:320:454
	mov	x0, x19
Ltmp218:
	;DEBUG_VALUE: handle_compress:strm <- [DW_OP_LLVM_entry_value 1] $x0
	bl	_add_pair_to_block
Ltmp219:
LBB6_70:                                ;   in Loop: Header=BB6_2 Depth=1
	;DEBUG_VALUE: zchh <- $w27
	;DEBUG_VALUE: copy_input_until_stop:progress_in <- 1
	;DEBUG_VALUE: copy_input_until_stop:s <- $x19
	;DEBUG_VALUE: handle_compress:progress_out <- $w20
	;DEBUG_VALUE: handle_compress:progress_in <- $w21
	;DEBUG_VALUE: handle_compress:s <- $x19
	.loc	1 320 494                       ; bzlib.c:320:494
	stp	w27, w24, [x19, #92]
Ltmp220:
LBB6_71:                                ;   in Loop: Header=BB6_2 Depth=1
	;DEBUG_VALUE: copy_input_until_stop:progress_in <- 1
	;DEBUG_VALUE: copy_input_until_stop:s <- $x19
	;DEBUG_VALUE: handle_compress:progress_out <- $w20
	;DEBUG_VALUE: handle_compress:progress_in <- $w21
	;DEBUG_VALUE: handle_compress:s <- $x19
	.loc	1 321 13 is_stmt 1              ; bzlib.c:321:13
	ldr	x8, [x19]
	.loc	1 321 26 is_stmt 0              ; bzlib.c:321:26
	ldr	x9, [x8]
	add	x11, x9, #1
	str	x11, [x8]
	.loc	1 322 27 is_stmt 1              ; bzlib.c:322:27
	ldp	w9, w10, [x8, #8]
	sub	w12, w9, #1
	.loc	1 323 32                        ; bzlib.c:323:32
	adds	w9, w10, #1
	.loc	1 322 27                        ; bzlib.c:322:27
	stp	w12, w9, [x8, #8]
	.loc	1 324 14                        ; bzlib.c:324:14
	b.lo	LBB6_73
Ltmp221:
; %bb.72:                               ;   in Loop: Header=BB6_2 Depth=1
	;DEBUG_VALUE: copy_input_until_stop:progress_in <- 1
	;DEBUG_VALUE: copy_input_until_stop:s <- $x19
	;DEBUG_VALUE: handle_compress:progress_out <- $w20
	;DEBUG_VALUE: handle_compress:progress_in <- $w21
	;DEBUG_VALUE: handle_compress:s <- $x19
	.loc	1 324 65 is_stmt 0              ; bzlib.c:324:65
	ldr	w9, [x8, #16]
	add	w9, w9, #1
	str	w9, [x8, #16]
Ltmp222:
LBB6_73:                                ;   in Loop: Header=BB6_2 Depth=1
	;DEBUG_VALUE: copy_input_until_stop:progress_in <- 1
	;DEBUG_VALUE: copy_input_until_stop:s <- $x19
	;DEBUG_VALUE: handle_compress:progress_out <- $w20
	;DEBUG_VALUE: handle_compress:progress_in <- $w21
	;DEBUG_VALUE: handle_compress:s <- $x19
	.loc	1 325 28 is_stmt 1              ; bzlib.c:325:28
	ldr	w8, [x19, #16]
	sub	w13, w8, #1
	str	w13, [x19, #16]
	;DEBUG_VALUE: copy_input_until_stop:progress_in <- 1
Ltmp223:
	.loc	1 314 17                        ; bzlib.c:314:17
	ldp	w8, w9, [x19, #108]
Ltmp224:
	.loc	1 314 14 is_stmt 0              ; bzlib.c:314:14
	cmp	w8, w9
	b.ge	LBB6_87
Ltmp225:
; %bb.74:                               ; %.peel.next.i39.preheader
                                        ;   in Loop: Header=BB6_2 Depth=1
	;DEBUG_VALUE: copy_input_until_stop:progress_in <- 1
	;DEBUG_VALUE: copy_input_until_stop:s <- $x19
	;DEBUG_VALUE: handle_compress:progress_out <- $w20
	;DEBUG_VALUE: handle_compress:progress_in <- $w21
	;DEBUG_VALUE: handle_compress:s <- $x19
	;DEBUG_VALUE: copy_input_until_stop:progress_in <- 1
	.loc	1 0 14                          ; bzlib.c:0:14
	mov	w10, #1
	.loc	1 316 14 is_stmt 1              ; bzlib.c:316:14
	cbz	w12, LBB6_39
Ltmp226:
; %bb.75:                               ; %.peel.next.i39.preheader
                                        ;   in Loop: Header=BB6_2 Depth=1
	;DEBUG_VALUE: copy_input_until_stop:progress_in <- 1
	;DEBUG_VALUE: copy_input_until_stop:s <- $x19
	;DEBUG_VALUE: handle_compress:progress_out <- $w20
	;DEBUG_VALUE: handle_compress:progress_in <- $w21
	;DEBUG_VALUE: handle_compress:s <- $x19
	cbz	w13, LBB6_39
Ltmp227:
LBB6_76:                                ; %.lr.ph
                                        ;   Parent Loop BB6_2 Depth=1
                                        ; =>  This Inner Loop Header: Depth=2
	;DEBUG_VALUE: copy_input_until_stop:progress_in <- 1
	;DEBUG_VALUE: copy_input_until_stop:s <- $x19
	;DEBUG_VALUE: handle_compress:progress_out <- $w20
	;DEBUG_VALUE: handle_compress:progress_in <- $w21
	;DEBUG_VALUE: handle_compress:s <- $x19
	;DEBUG_VALUE: copy_input_until_stop:progress_in <- 1
	.loc	1 320 44                        ; bzlib.c:320:44
	ldrb	w28, [x11]
Ltmp228:
	;DEBUG_VALUE: zchh <- $w28
	.loc	1 0 0 is_stmt 0                 ; bzlib.c:0:0
	ldr	w9, [x19, #96]
	.loc	1 320 104                       ; bzlib.c:320:104
	cmp	w27, w28
	b.ne	LBB6_79
Ltmp229:
; %bb.77:                               ;   in Loop: Header=BB6_76 Depth=2
	;DEBUG_VALUE: zchh <- $w28
	;DEBUG_VALUE: copy_input_until_stop:progress_in <- 1
	;DEBUG_VALUE: copy_input_until_stop:s <- $x19
	;DEBUG_VALUE: handle_compress:progress_out <- $w20
	;DEBUG_VALUE: handle_compress:progress_in <- $w21
	;DEBUG_VALUE: handle_compress:s <- $x19
	.loc	1 320 376                       ; bzlib.c:320:376
	cmp	w9, #255
	b.eq	LBB6_81
Ltmp230:
; %bb.78:                               ;   in Loop: Header=BB6_76 Depth=2
	;DEBUG_VALUE: zchh <- $w28
	;DEBUG_VALUE: copy_input_until_stop:progress_in <- 1
	;DEBUG_VALUE: copy_input_until_stop:s <- $x19
	;DEBUG_VALUE: handle_compress:progress_out <- $w20
	;DEBUG_VALUE: handle_compress:progress_in <- $w21
	;DEBUG_VALUE: handle_compress:s <- $x19
	.loc	1 320 547                       ; bzlib.c:320:547
	add	w8, w9, #1
	str	w8, [x19, #96]
	b	LBB6_82
Ltmp231:
LBB6_79:                                ;   in Loop: Header=BB6_76 Depth=2
	;DEBUG_VALUE: zchh <- $w28
	;DEBUG_VALUE: copy_input_until_stop:progress_in <- 1
	;DEBUG_VALUE: copy_input_until_stop:s <- $x19
	;DEBUG_VALUE: handle_compress:progress_out <- $w20
	;DEBUG_VALUE: handle_compress:progress_in <- $w21
	;DEBUG_VALUE: handle_compress:s <- $x19
	.loc	1 320 81                        ; bzlib.c:320:81
	cmp	w9, #1
	b.ne	LBB6_81
Ltmp232:
; %bb.80:                               ;   in Loop: Header=BB6_76 Depth=2
	;DEBUG_VALUE: zchh <- $w28
	;DEBUG_VALUE: copy_input_until_stop:progress_in <- 1
	;DEBUG_VALUE: copy_input_until_stop:s <- $x19
	;DEBUG_VALUE: handle_compress:progress_out <- $w20
	;DEBUG_VALUE: handle_compress:progress_in <- $w21
	;DEBUG_VALUE: handle_compress:s <- $x19
	;DEBUG_VALUE: ch <- undef
	.loc	1 320 187                       ; bzlib.c:320:187
	ldr	w9, [x19, #648]
	.loc	1 320 239                       ; bzlib.c:320:239
	eor	w10, w27, w9, lsr #24
	.loc	1 320 204                       ; bzlib.c:320:204
	ldr	w10, [x23, w10, uxtw  #2]
	.loc	1 320 202                       ; bzlib.c:320:202
	eor	w9, w10, w9, lsl #8
	.loc	1 320 181                       ; bzlib.c:320:181
	str	w9, [x19, #648]
Ltmp233:
	.loc	1 320 258                       ; bzlib.c:320:258
	add	x9, x19, w27, uxtw
	.loc	1 320 283                       ; bzlib.c:320:283
	strb	w24, [x9, #128]
	.loc	1 320 299                       ; bzlib.c:320:299
	ldr	x9, [x19, #64]
	.loc	1 320 316                       ; bzlib.c:320:316
	strb	w27, [x9, w8, sxtw]
	.loc	1 320 338                       ; bzlib.c:320:338
	ldr	w8, [x19, #108]
	add	w8, w8, #1
	str	w8, [x19, #108]
	.loc	1 320 357                       ; bzlib.c:320:357
	str	w28, [x19, #92]
	b	LBB6_82
Ltmp234:
LBB6_81:                                ;   in Loop: Header=BB6_76 Depth=2
	;DEBUG_VALUE: zchh <- $w28
	;DEBUG_VALUE: copy_input_until_stop:progress_in <- 1
	;DEBUG_VALUE: copy_input_until_stop:s <- $x19
	;DEBUG_VALUE: handle_compress:progress_out <- $w20
	;DEBUG_VALUE: handle_compress:progress_in <- $w21
	;DEBUG_VALUE: handle_compress:s <- $x19
	.loc	1 320 454                       ; bzlib.c:320:454
	mov	x0, x19
	bl	_add_pair_to_block
Ltmp235:
	.loc	1 320 494                       ; bzlib.c:320:494
	stp	w28, w24, [x19, #92]
Ltmp236:
LBB6_82:                                ;   in Loop: Header=BB6_76 Depth=2
	;DEBUG_VALUE: copy_input_until_stop:progress_in <- 1
	;DEBUG_VALUE: copy_input_until_stop:s <- $x19
	;DEBUG_VALUE: handle_compress:progress_out <- $w20
	;DEBUG_VALUE: handle_compress:progress_in <- $w21
	;DEBUG_VALUE: handle_compress:s <- $x19
	.loc	1 321 13 is_stmt 1              ; bzlib.c:321:13
	ldr	x8, [x19]
	.loc	1 321 26 is_stmt 0              ; bzlib.c:321:26
	ldr	x9, [x8]
	add	x11, x9, #1
	str	x11, [x8]
	.loc	1 322 27 is_stmt 1              ; bzlib.c:322:27
	ldp	w9, w10, [x8, #8]
	sub	w12, w9, #1
	.loc	1 323 32                        ; bzlib.c:323:32
	adds	w9, w10, #1
	.loc	1 322 27                        ; bzlib.c:322:27
	stp	w12, w9, [x8, #8]
	.loc	1 324 14                        ; bzlib.c:324:14
	b.lo	LBB6_84
Ltmp237:
; %bb.83:                               ;   in Loop: Header=BB6_76 Depth=2
	;DEBUG_VALUE: copy_input_until_stop:progress_in <- 1
	;DEBUG_VALUE: copy_input_until_stop:s <- $x19
	;DEBUG_VALUE: handle_compress:progress_out <- $w20
	;DEBUG_VALUE: handle_compress:progress_in <- $w21
	;DEBUG_VALUE: handle_compress:s <- $x19
	.loc	1 324 65 is_stmt 0              ; bzlib.c:324:65
	ldr	w9, [x8, #16]
	add	w9, w9, #1
	str	w9, [x8, #16]
Ltmp238:
LBB6_84:                                ;   in Loop: Header=BB6_76 Depth=2
	;DEBUG_VALUE: copy_input_until_stop:progress_in <- 1
	;DEBUG_VALUE: copy_input_until_stop:s <- $x19
	;DEBUG_VALUE: handle_compress:progress_out <- $w20
	;DEBUG_VALUE: handle_compress:progress_in <- $w21
	;DEBUG_VALUE: handle_compress:s <- $x19
	.loc	1 325 28 is_stmt 1              ; bzlib.c:325:28
	ldr	w8, [x19, #16]
	sub	w13, w8, #1
	str	w13, [x19, #16]
	;DEBUG_VALUE: copy_input_until_stop:progress_in <- 1
Ltmp239:
	.loc	1 314 17                        ; bzlib.c:314:17
	ldp	w8, w9, [x19, #108]
Ltmp240:
	.loc	1 314 14 is_stmt 0              ; bzlib.c:314:14
	cmp	w8, w9
	b.ge	LBB6_87
Ltmp241:
; %bb.85:                               ; %.peel.next.i39
                                        ;   in Loop: Header=BB6_76 Depth=2
	;DEBUG_VALUE: copy_input_until_stop:progress_in <- 1
	;DEBUG_VALUE: copy_input_until_stop:s <- $x19
	;DEBUG_VALUE: handle_compress:progress_out <- $w20
	;DEBUG_VALUE: handle_compress:progress_in <- $w21
	;DEBUG_VALUE: handle_compress:s <- $x19
	;DEBUG_VALUE: copy_input_until_stop:progress_in <- 1
	.loc	1 0 14                          ; bzlib.c:0:14
	mov	w10, #1
	.loc	1 316 14 is_stmt 1              ; bzlib.c:316:14
	cbz	w12, LBB6_39
Ltmp242:
; %bb.86:                               ; %.peel.next.i39
                                        ;   in Loop: Header=BB6_76 Depth=2
	;DEBUG_VALUE: copy_input_until_stop:progress_in <- 1
	;DEBUG_VALUE: copy_input_until_stop:s <- $x19
	;DEBUG_VALUE: handle_compress:progress_out <- $w20
	;DEBUG_VALUE: handle_compress:progress_in <- $w21
	;DEBUG_VALUE: handle_compress:s <- $x19
	.loc	1 0 14 is_stmt 0                ; bzlib.c:0:14
	mov	x27, x28
	cbnz	w13, LBB6_76
	b	LBB6_39
Ltmp243:
LBB6_87:                                ;   in Loop: Header=BB6_2 Depth=1
	;DEBUG_VALUE: copy_input_until_stop:progress_in <- 1
	;DEBUG_VALUE: copy_input_until_stop:s <- $x19
	;DEBUG_VALUE: handle_compress:progress_out <- $w20
	;DEBUG_VALUE: handle_compress:progress_in <- $w21
	;DEBUG_VALUE: handle_compress:s <- $x19
	mov	w10, #1
	b	LBB6_39
Ltmp244:
LBB6_88:                                ; %isempty_RL.exit
	;DEBUG_VALUE: handle_compress:progress_out <- $w20
	;DEBUG_VALUE: handle_compress:progress_in <- $w21
	;DEBUG_VALUE: handle_compress:s <- $x19
	;DEBUG_VALUE: handle_compress:progress_in <- $w21
	;DEBUG_VALUE: handle_compress:progress_out <- $w20
	.loc	1 402 11 is_stmt 1              ; bzlib.c:402:11
	orr	w8, w21, w20
	.loc	1 402 23 is_stmt 0              ; bzlib.c:402:23
	cmp	w8, #0
	cset	w0, ne
	.loc	1 402 4                         ; bzlib.c:402:4
	ldp	x29, x30, [sp, #96]             ; 16-byte Folded Reload
	ldp	x20, x19, [sp, #80]             ; 16-byte Folded Reload
Ltmp245:
	ldp	x22, x21, [sp, #64]             ; 16-byte Folded Reload
Ltmp246:
	ldp	x24, x23, [sp, #48]             ; 16-byte Folded Reload
	ldp	x26, x25, [sp, #32]             ; 16-byte Folded Reload
	ldp	x28, x27, [sp, #16]             ; 16-byte Folded Reload
	ldp	d9, d8, [sp], #112              ; 16-byte Folded Reload
	ret
Ltmp247:
	.loh AdrpLdr	Lloh18, Lloh19
	.loh AdrpLdrGot	Lloh16, Lloh17
Lfunc_end6:
	.cfi_endproc
                                        ; -- End function
	.globl	_BZ2_bzCompressEnd              ; -- Begin function BZ2_bzCompressEnd
	.p2align	2
_BZ2_bzCompressEnd:                     ; @BZ2_bzCompressEnd
Lfunc_begin7:
	.loc	1 469 0 is_stmt 1               ; bzlib.c:469:0
	.cfi_startproc
; %bb.0:
	;DEBUG_VALUE: BZ2_bzCompressEnd:strm <- $x0
	;DEBUG_VALUE: BZ2_bzCompressEnd:strm <- $x0
	stp	x20, x19, [sp, #-32]!           ; 16-byte Folded Spill
	.cfi_def_cfa_offset 32
	stp	x29, x30, [sp, #16]             ; 16-byte Folded Spill
	add	x29, sp, #16
	.cfi_def_cfa w29, 16
	.cfi_offset w30, -8
	.cfi_offset w29, -16
	.cfi_offset w19, -24
	.cfi_offset w20, -32
Ltmp248:
	.loc	1 471 8 prologue_end            ; bzlib.c:471:8
	cbz	x0, LBB7_3
Ltmp249:
; %bb.1:
	;DEBUG_VALUE: BZ2_bzCompressEnd:strm <- $x0
	.loc	1 0 8 is_stmt 0                 ; bzlib.c:0:8
	mov	x19, x0
Ltmp250:
	;DEBUG_VALUE: BZ2_bzCompressEnd:strm <- $x19
	.loc	1 472 14 is_stmt 1              ; bzlib.c:472:14
	ldr	x20, [x0, #48]
Ltmp251:
	;DEBUG_VALUE: BZ2_bzCompressEnd:s <- $x20
	.loc	1 473 8                         ; bzlib.c:473:8
	cbz	x20, LBB7_3
Ltmp252:
; %bb.2:
	;DEBUG_VALUE: BZ2_bzCompressEnd:s <- $x20
	;DEBUG_VALUE: BZ2_bzCompressEnd:strm <- $x19
	.loc	1 474 11                        ; bzlib.c:474:11
	ldr	x8, [x20]
Ltmp253:
	.loc	1 474 8 is_stmt 0               ; bzlib.c:474:8
	cmp	x8, x19
	b.eq	LBB7_5
Ltmp254:
LBB7_3:
	.loc	1 0 8                           ; bzlib.c:0:8
	mov	w0, #-2
LBB7_4:
	.loc	1 484 1 is_stmt 1               ; bzlib.c:484:1
	ldp	x29, x30, [sp, #16]             ; 16-byte Folded Reload
	ldp	x20, x19, [sp], #32             ; 16-byte Folded Reload
	ret
LBB7_5:
Ltmp255:
	;DEBUG_VALUE: BZ2_bzCompressEnd:s <- $x20
	;DEBUG_VALUE: BZ2_bzCompressEnd:strm <- $x19
	.loc	1 476 11                        ; bzlib.c:476:11
	ldr	x1, [x20, #24]
Ltmp256:
	.loc	1 476 8 is_stmt 0               ; bzlib.c:476:8
	cbz	x1, LBB7_7
Ltmp257:
; %bb.6:
	;DEBUG_VALUE: BZ2_bzCompressEnd:s <- $x20
	;DEBUG_VALUE: BZ2_bzCompressEnd:strm <- $x19
	.loc	1 476 32                        ; bzlib.c:476:32
	ldp	x8, x0, [x19, #64]
	blr	x8
Ltmp258:
LBB7_7:
	;DEBUG_VALUE: BZ2_bzCompressEnd:s <- $x20
	;DEBUG_VALUE: BZ2_bzCompressEnd:strm <- $x19
	.loc	1 477 11 is_stmt 1              ; bzlib.c:477:11
	ldr	x1, [x20, #32]
Ltmp259:
	.loc	1 477 8 is_stmt 0               ; bzlib.c:477:8
	cbz	x1, LBB7_9
Ltmp260:
; %bb.8:
	;DEBUG_VALUE: BZ2_bzCompressEnd:s <- $x20
	;DEBUG_VALUE: BZ2_bzCompressEnd:strm <- $x19
	.loc	1 477 32                        ; bzlib.c:477:32
	ldp	x8, x0, [x19, #64]
	blr	x8
Ltmp261:
LBB7_9:
	;DEBUG_VALUE: BZ2_bzCompressEnd:s <- $x20
	;DEBUG_VALUE: BZ2_bzCompressEnd:strm <- $x19
	.loc	1 478 11 is_stmt 1              ; bzlib.c:478:11
	ldr	x1, [x20, #40]
Ltmp262:
	.loc	1 478 8 is_stmt 0               ; bzlib.c:478:8
	cbz	x1, LBB7_11
Ltmp263:
; %bb.10:
	;DEBUG_VALUE: BZ2_bzCompressEnd:s <- $x20
	;DEBUG_VALUE: BZ2_bzCompressEnd:strm <- $x19
	.loc	1 478 32                        ; bzlib.c:478:32
	ldp	x8, x0, [x19, #64]
	blr	x8
Ltmp264:
LBB7_11:
	;DEBUG_VALUE: BZ2_bzCompressEnd:s <- $x20
	;DEBUG_VALUE: BZ2_bzCompressEnd:strm <- $x19
	.loc	1 479 4 is_stmt 1               ; bzlib.c:479:4
	ldp	x8, x0, [x19, #64]
	.loc	1 479 39 is_stmt 0              ; bzlib.c:479:39
	ldr	x1, [x19, #48]
	.loc	1 479 4                         ; bzlib.c:479:4
	blr	x8
Ltmp265:
	.loc	1 0 4                           ; bzlib.c:0:4
	mov	w0, #0
	.loc	1 481 16 is_stmt 1              ; bzlib.c:481:16
	str	xzr, [x19, #48]
	b	LBB7_4
Ltmp266:
Lfunc_end7:
	.cfi_endproc
                                        ; -- End function
	.globl	_BZ2_bzDecompressInit           ; -- Begin function BZ2_bzDecompressInit
	.p2align	2
_BZ2_bzDecompressInit:                  ; @BZ2_bzDecompressInit
Lfunc_begin8:
	.loc	1 496 0                         ; bzlib.c:496:0
	.cfi_startproc
; %bb.0:
	;DEBUG_VALUE: BZ2_bzDecompressInit:strm <- $x0
	;DEBUG_VALUE: BZ2_bzDecompressInit:verbosity <- $w1
	;DEBUG_VALUE: BZ2_bzDecompressInit:small <- $w2
	;DEBUG_VALUE: BZ2_bzDecompressInit:small <- $w2
	;DEBUG_VALUE: BZ2_bzDecompressInit:verbosity <- $w1
	stp	x22, x21, [sp, #-48]!           ; 16-byte Folded Spill
	.cfi_def_cfa_offset 48
	stp	x20, x19, [sp, #16]             ; 16-byte Folded Spill
	stp	x29, x30, [sp, #32]             ; 16-byte Folded Spill
	add	x29, sp, #32
	.cfi_def_cfa w29, 16
	.cfi_offset w30, -8
	.cfi_offset w29, -16
	.cfi_offset w19, -24
	.cfi_offset w20, -32
	.cfi_offset w21, -40
	.cfi_offset w22, -48
	mov	x21, x0
Ltmp267:
	;DEBUG_VALUE: BZ2_bzDecompressInit:strm <- $x21
	mov	w0, #-2
Ltmp268:
	.loc	1 501 8 prologue_end            ; bzlib.c:501:8
	cmp	w1, #4
	b.hi	LBB8_10
Ltmp269:
; %bb.1:
	;DEBUG_VALUE: BZ2_bzDecompressInit:strm <- $x21
	;DEBUG_VALUE: BZ2_bzDecompressInit:small <- $w2
	;DEBUG_VALUE: BZ2_bzDecompressInit:verbosity <- $w1
	;DEBUG_VALUE: BZ2_bzDecompressInit:small <- $w2
	;DEBUG_VALUE: BZ2_bzDecompressInit:verbosity <- $w1
	cbz	x21, LBB8_10
Ltmp270:
; %bb.2:
	;DEBUG_VALUE: BZ2_bzDecompressInit:strm <- $x21
	;DEBUG_VALUE: BZ2_bzDecompressInit:small <- $w2
	;DEBUG_VALUE: BZ2_bzDecompressInit:verbosity <- $w1
	.loc	1 0 8 is_stmt 0                 ; bzlib.c:0:8
	mov	x20, x2
Ltmp271:
	;DEBUG_VALUE: BZ2_bzDecompressInit:small <- $w20
	;DEBUG_VALUE: BZ2_bzDecompressInit:verbosity <- $w1
	.loc	1 501 8                         ; bzlib.c:501:8
	cmp	w2, #1
	b.hi	LBB8_10
Ltmp272:
; %bb.3:
	;DEBUG_VALUE: BZ2_bzDecompressInit:small <- $w20
	;DEBUG_VALUE: BZ2_bzDecompressInit:strm <- $x21
	;DEBUG_VALUE: BZ2_bzDecompressInit:verbosity <- $w1
	.loc	1 0 8                           ; bzlib.c:0:8
	mov	x19, x1
Ltmp273:
	;DEBUG_VALUE: BZ2_bzDecompressInit:verbosity <- $w19
	.loc	1 505 14 is_stmt 1              ; bzlib.c:505:14
	ldr	x8, [x21, #56]
Ltmp274:
	.loc	1 505 8 is_stmt 0               ; bzlib.c:505:8
	cbz	x8, LBB8_7
Ltmp275:
; %bb.4:
	;DEBUG_VALUE: BZ2_bzDecompressInit:verbosity <- $w19
	;DEBUG_VALUE: BZ2_bzDecompressInit:small <- $w20
	;DEBUG_VALUE: BZ2_bzDecompressInit:strm <- $x21
	.loc	1 506 14 is_stmt 1              ; bzlib.c:506:14
	ldr	x9, [x21, #64]
Ltmp276:
	.loc	1 506 8 is_stmt 0               ; bzlib.c:506:8
	cbz	x9, LBB8_8
Ltmp277:
LBB8_5:
	;DEBUG_VALUE: BZ2_bzDecompressInit:verbosity <- $w19
	;DEBUG_VALUE: BZ2_bzDecompressInit:small <- $w20
	;DEBUG_VALUE: BZ2_bzDecompressInit:strm <- $x21
	.loc	1 508 30 is_stmt 1              ; bzlib.c:508:30
	ldr	x0, [x21, #72]
	.loc	1 508 8 is_stmt 0               ; bzlib.c:508:8
	mov	w1, #64144
	mov	w2, #1
	blr	x8
Ltmp278:
	;DEBUG_VALUE: BZ2_bzDecompressInit:s <- $x0
	.loc	1 509 8 is_stmt 1               ; bzlib.c:509:8
	cbz	x0, LBB8_9
Ltmp279:
; %bb.6:
	;DEBUG_VALUE: BZ2_bzDecompressInit:s <- $x0
	;DEBUG_VALUE: BZ2_bzDecompressInit:verbosity <- $w19
	;DEBUG_VALUE: BZ2_bzDecompressInit:small <- $w20
	;DEBUG_VALUE: BZ2_bzDecompressInit:strm <- $x21
	.loc	1 0 8 is_stmt 0                 ; bzlib.c:0:8
	mov	x8, x0
Ltmp280:
	;DEBUG_VALUE: BZ2_bzDecompressInit:s <- $x8
	mov	w0, #0
	mov	w9, #10
	.loc	1 512 13 is_stmt 1              ; bzlib.c:512:13
	str	w9, [x8, #8]
	.loc	1 510 12                        ; bzlib.c:510:12
	str	x21, [x8]
	.loc	1 511 16                        ; bzlib.c:511:16
	str	x8, [x21, #48]
	.loc	1 514 14                        ; bzlib.c:514:14
	movi.2d	v0, #0000000000000000
	str	d0, [x8, #32]
	.loc	1 515 29                        ; bzlib.c:515:29
	str	wzr, [x8, #3188]
	.loc	1 516 24                        ; bzlib.c:516:24
	stur	d0, [x21, #12]
	.loc	1 518 25                        ; bzlib.c:518:25
	stur	d0, [x21, #36]
	.loc	1 520 23                        ; bzlib.c:520:23
	strb	w20, [x8, #44]
	.loc	1 522 12                        ; bzlib.c:522:12
	str	xzr, [x8, #3152]
	str	xzr, [x8, #3168]
	str	xzr, [x8, #3160]
	.loc	1 524 19                        ; bzlib.c:524:19
	stp	wzr, w19, [x8, #48]
	b	LBB8_10
Ltmp281:
LBB8_7:
	;DEBUG_VALUE: BZ2_bzDecompressInit:verbosity <- $w19
	;DEBUG_VALUE: BZ2_bzDecompressInit:small <- $w20
	;DEBUG_VALUE: BZ2_bzDecompressInit:strm <- $x21
	.loc	1 505 52                        ; bzlib.c:505:52
Lloh20:
	adrp	x8, _default_bzalloc@PAGE
Lloh21:
	add	x8, x8, _default_bzalloc@PAGEOFF
	str	x8, [x21, #56]
Ltmp282:
	.loc	1 506 14                        ; bzlib.c:506:14
	ldr	x9, [x21, #64]
Ltmp283:
	.loc	1 506 8 is_stmt 0               ; bzlib.c:506:8
	cbnz	x9, LBB8_5
Ltmp284:
LBB8_8:
	;DEBUG_VALUE: BZ2_bzDecompressInit:verbosity <- $w19
	;DEBUG_VALUE: BZ2_bzDecompressInit:small <- $w20
	;DEBUG_VALUE: BZ2_bzDecompressInit:strm <- $x21
	.loc	1 506 50                        ; bzlib.c:506:50
Lloh22:
	adrp	x9, _default_bzfree@PAGE
Lloh23:
	add	x9, x9, _default_bzfree@PAGEOFF
	str	x9, [x21, #64]
	b	LBB8_5
Ltmp285:
LBB8_9:
	;DEBUG_VALUE: BZ2_bzDecompressInit:s <- $x0
	;DEBUG_VALUE: BZ2_bzDecompressInit:verbosity <- $w19
	;DEBUG_VALUE: BZ2_bzDecompressInit:small <- $w20
	;DEBUG_VALUE: BZ2_bzDecompressInit:strm <- $x21
	.loc	1 0 50                          ; bzlib.c:0:50
	mov	w0, #-3
Ltmp286:
LBB8_10:
	;DEBUG_VALUE: BZ2_bzDecompressInit:strm <- $x21
	.loc	1 528 1 is_stmt 1               ; bzlib.c:528:1
	ldp	x29, x30, [sp, #32]             ; 16-byte Folded Reload
	ldp	x20, x19, [sp, #16]             ; 16-byte Folded Reload
	ldp	x22, x21, [sp], #48             ; 16-byte Folded Reload
Ltmp287:
	;DEBUG_VALUE: BZ2_bzDecompressInit:strm <- [DW_OP_LLVM_entry_value 1] $x0
	ret
Ltmp288:
	.loh AdrpAdd	Lloh20, Lloh21
	.loh AdrpAdd	Lloh22, Lloh23
Lfunc_end8:
	.cfi_endproc
                                        ; -- End function
	.globl	_BZ2_indexIntoF                 ; -- Begin function BZ2_indexIntoF
	.p2align	2
_BZ2_indexIntoF:                        ; @BZ2_indexIntoF
Lfunc_begin9:
	.loc	1 688 0                         ; bzlib.c:688:0
	.cfi_startproc
; %bb.0:
	;DEBUG_VALUE: BZ2_indexIntoF:indx <- $w0
	;DEBUG_VALUE: BZ2_indexIntoF:cftab <- $x1
	mov	x8, x0
Ltmp289:
	;DEBUG_VALUE: BZ2_indexIntoF:indx <- $w8
	mov	w0, #0
	mov	w9, #256
Ltmp290:
	;DEBUG_VALUE: BZ2_indexIntoF:na <- 256
	;DEBUG_VALUE: BZ2_indexIntoF:nb <- 0
LBB9_1:                                 ; =>This Inner Loop Header: Depth=1
	;DEBUG_VALUE: BZ2_indexIntoF:indx <- $w8
	;DEBUG_VALUE: BZ2_indexIntoF:cftab <- $x1
	;DEBUG_VALUE: BZ2_indexIntoF:nb <- $w0
	;DEBUG_VALUE: BZ2_indexIntoF:na <- $w9
	.loc	1 693 17 prologue_end           ; bzlib.c:693:17
	add	w10, w0, w9
	.loc	1 693 23 is_stmt 0              ; bzlib.c:693:23
	asr	w10, w10, #1
Ltmp291:
	;DEBUG_VALUE: BZ2_indexIntoF:mid <- $w10
	.loc	1 694 19 is_stmt 1              ; bzlib.c:694:19
	ldr	w11, [x1, w10, sxtw  #2]
	cmp	w11, w8
	csel	w9, w10, w9, gt
Ltmp292:
	.loc	1 0 19 is_stmt 0                ; bzlib.c:0:19
	csel	w0, w0, w10, gt
Ltmp293:
	;DEBUG_VALUE: BZ2_indexIntoF:na <- $w9
	;DEBUG_VALUE: BZ2_indexIntoF:nb <- $w0
	.loc	1 696 14 is_stmt 1              ; bzlib.c:696:14
	sub	w10, w9, w0
Ltmp294:
	.loc	1 695 4                         ; bzlib.c:695:4
	cmp	w10, #1
	b.ne	LBB9_1
Ltmp295:
; %bb.2:
	;DEBUG_VALUE: BZ2_indexIntoF:na <- $w9
	;DEBUG_VALUE: BZ2_indexIntoF:nb <- $w0
	;DEBUG_VALUE: BZ2_indexIntoF:indx <- $w8
	;DEBUG_VALUE: BZ2_indexIntoF:cftab <- $x1
	.loc	1 697 4                         ; bzlib.c:697:4
	ret
Ltmp296:
Lfunc_end9:
	.cfi_endproc
                                        ; -- End function
	.globl	_BZ2_bzDecompress               ; -- Begin function BZ2_bzDecompress
	.p2align	2
_BZ2_bzDecompress:                      ; @BZ2_bzDecompress
Lfunc_begin10:
	.loc	1 809 0                         ; bzlib.c:809:0
	.cfi_startproc
; %bb.0:
	;DEBUG_VALUE: BZ2_bzDecompress:strm <- $x0
	sub	sp, sp, #112
	.cfi_def_cfa_offset 112
	stp	x28, x27, [sp, #16]             ; 16-byte Folded Spill
	stp	x26, x25, [sp, #32]             ; 16-byte Folded Spill
	stp	x24, x23, [sp, #48]             ; 16-byte Folded Spill
	stp	x22, x21, [sp, #64]             ; 16-byte Folded Spill
	stp	x20, x19, [sp, #80]             ; 16-byte Folded Spill
	stp	x29, x30, [sp, #96]             ; 16-byte Folded Spill
	add	x29, sp, #96
	.cfi_def_cfa w29, 16
	.cfi_offset w30, -8
	.cfi_offset w29, -16
	.cfi_offset w19, -24
	.cfi_offset w20, -32
	.cfi_offset w21, -40
	.cfi_offset w22, -48
	.cfi_offset w23, -56
	.cfi_offset w24, -64
	.cfi_offset w25, -72
	.cfi_offset w26, -80
	.cfi_offset w27, -88
	.cfi_offset w28, -96
Ltmp297:
	.loc	1 812 8 prologue_end            ; bzlib.c:812:8
	cbz	x0, LBB10_3
Ltmp298:
; %bb.1:
	;DEBUG_VALUE: BZ2_bzDecompress:strm <- $x0
	.loc	1 813 14                        ; bzlib.c:813:14
	ldr	x19, [x0, #48]
Ltmp299:
	;DEBUG_VALUE: BZ2_bzDecompress:s <- $x19
	.loc	1 814 8                         ; bzlib.c:814:8
	cbz	x19, LBB10_3
Ltmp300:
; %bb.2:
	;DEBUG_VALUE: BZ2_bzDecompress:s <- $x19
	;DEBUG_VALUE: BZ2_bzDecompress:strm <- $x0
	.loc	1 815 11                        ; bzlib.c:815:11
	ldr	x8, [x19]
Ltmp301:
	.loc	1 815 8 is_stmt 0               ; bzlib.c:815:8
	cmp	x8, x0
	b.eq	LBB10_5
Ltmp302:
LBB10_3:
	;DEBUG_VALUE: BZ2_bzDecompress:strm <- $x0
	.loc	1 0 8                           ; bzlib.c:0:8
	mov	w0, #-2
Ltmp303:
	;DEBUG_VALUE: BZ2_bzDecompress:strm <- [DW_OP_LLVM_entry_value 1] $x0
LBB10_4:                                ; %unRLE_obuf_to_output_SMALL.exit.thread
	.loc	1 858 1 is_stmt 1               ; bzlib.c:858:1
	ldp	x29, x30, [sp, #96]             ; 16-byte Folded Reload
	ldp	x20, x19, [sp, #80]             ; 16-byte Folded Reload
	ldp	x22, x21, [sp, #64]             ; 16-byte Folded Reload
	ldp	x24, x23, [sp, #48]             ; 16-byte Folded Reload
	ldp	x26, x25, [sp, #32]             ; 16-byte Folded Reload
	ldp	x28, x27, [sp, #16]             ; 16-byte Folded Reload
	add	sp, sp, #112
	ret
LBB10_5:                                ; %.preheader
Ltmp304:
	;DEBUG_VALUE: BZ2_bzDecompress:s <- $x19
	;DEBUG_VALUE: BZ2_bzDecompress:strm <- $x0
	.loc	1 0 1 is_stmt 0                 ; bzlib.c:0:1
	mov	w8, #64080
	add	x21, x19, x8
	add	x22, x19, #1096
Ltmp305:
	.loc	1 818 14 is_stmt 1              ; bzlib.c:818:14
	ldr	w8, [x19, #8]
	mov	w24, #34464
	movk	w24, #1, lsl #16
Lloh24:
	adrp	x25, _BZ2_crc32Table@GOTPAGE
Lloh25:
	ldr	x25, [x25, _BZ2_crc32Table@GOTPAGEOFF]
	mov	w26, #1
Lloh26:
	adrp	x27, _BZ2_rNums@GOTPAGE
Lloh27:
	ldr	x27, [x27, _BZ2_rNums@GOTPAGEOFF]
	mov	w28, #2
Lloh28:
	adrp	x23, ___stderrp@GOTPAGE
Lloh29:
	ldr	x23, [x23, ___stderrp@GOTPAGEOFF]
	mov	w20, #14
Ltmp306:
LBB10_6:                                ; =>This Loop Header: Depth=1
                                        ;     Child Loop BB10_16 Depth 2
                                        ;       Child Loop BB10_21 Depth 3
                                        ;       Child Loop BB10_28 Depth 3
                                        ;       Child Loop BB10_36 Depth 3
                                        ;       Child Loop BB10_48 Depth 3
                                        ;       Child Loop BB10_53 Depth 3
                                        ;     Child Loop BB10_101 Depth 2
                                        ;       Child Loop BB10_106 Depth 3
                                        ;       Child Loop BB10_111 Depth 3
                                        ;       Child Loop BB10_117 Depth 3
                                        ;       Child Loop BB10_127 Depth 3
                                        ;       Child Loop BB10_130 Depth 3
                                        ;     Child Loop BB10_64 Depth 2
                                        ;     Child Loop BB10_134 Depth 2
                                        ;       Child Loop BB10_137 Depth 3
	;DEBUG_VALUE: BZ2_bzDecompress:s <- $x19
	.loc	1 818 11 is_stmt 0              ; bzlib.c:818:11
	cmp	w8, #1
	b.eq	LBB10_174
Ltmp307:
; %bb.7:                                ;   in Loop: Header=BB10_6 Depth=1
	;DEBUG_VALUE: BZ2_bzDecompress:s <- $x19
	cmp	w8, #2
	b.eq	LBB10_9
Ltmp308:
; %bb.8:                                ;   in Loop: Header=BB10_6 Depth=1
	;DEBUG_VALUE: BZ2_bzDecompress:s <- $x19
	.loc	1 841 11 is_stmt 1              ; bzlib.c:841:11
	cmp	w8, #10
	b.lt	LBB10_6
	b	LBB10_170
Ltmp309:
LBB10_9:                                ;   in Loop: Header=BB10_6 Depth=1
	;DEBUG_VALUE: BZ2_bzDecompress:s <- $x19
	.loc	1 820 17                        ; bzlib.c:820:17
	ldrb	w8, [x19, #44]
	.loc	1 0 0 is_stmt 0                 ; bzlib.c:0:0
	ldrb	w9, [x19, #20]
Ltmp310:
	.loc	1 820 14                        ; bzlib.c:820:14
	cbz	w8, LBB10_58
Ltmp311:
; %bb.10:                               ;   in Loop: Header=BB10_6 Depth=1
	;DEBUG_VALUE: BZ2_bzDecompress:s <- $x19
	;DEBUG_VALUE: unRLE_obuf_to_output_SMALL:s <- $x19
	.loc	1 0 0                           ; bzlib.c:0:0
	ldr	x8, [x19]
	ldr	w10, [x8, #32]
Ltmp312:
	.loc	1 710 8 is_stmt 1               ; bzlib.c:710:8
	cbz	w9, LBB10_96
Ltmp313:
; %bb.11:                               ; %.preheader360.i
                                        ;   in Loop: Header=BB10_6 Depth=1
	;DEBUG_VALUE: unRLE_obuf_to_output_SMALL:s <- $x19
	;DEBUG_VALUE: BZ2_bzDecompress:s <- $x19
	.loc	1 715 17                        ; bzlib.c:715:17
	cbz	w10, LBB10_162
Ltmp314:
; %bb.12:                               ; %.lr.ph.lr.ph.i
                                        ;   in Loop: Header=BB10_6 Depth=1
	;DEBUG_VALUE: unRLE_obuf_to_output_SMALL:s <- $x19
	;DEBUG_VALUE: BZ2_bzDecompress:s <- $x19
	.loc	1 716 20                        ; bzlib.c:716:20
	ldr	w13, [x19, #16]
	b	LBB10_16
Ltmp315:
LBB10_13:                               ;   in Loop: Header=BB10_16 Depth=2
	;DEBUG_VALUE: unRLE_obuf_to_output_SMALL:s <- $x19
	;DEBUG_VALUE: BZ2_bzDecompress:s <- $x19
	.loc	1 738 35                        ; bzlib.c:738:35
	str	w16, [x19, #64]
Ltmp316:
LBB10_14:                               ; %.backedge363.i
                                        ;   in Loop: Header=BB10_16 Depth=2
	;DEBUG_VALUE: unRLE_obuf_to_output_SMALL:s <- $x19
	;DEBUG_VALUE: BZ2_bzDecompress:s <- $x19
	.loc	1 0 35 is_stmt 0                ; bzlib.c:0:35
	mov	w13, #1
Ltmp317:
LBB10_15:                               ; %.backedge363.i
                                        ;   in Loop: Header=BB10_16 Depth=2
	;DEBUG_VALUE: unRLE_obuf_to_output_SMALL:s <- $x19
	;DEBUG_VALUE: BZ2_bzDecompress:s <- $x19
	.loc	1 715 26 is_stmt 1              ; bzlib.c:715:26
	ldr	w9, [x8, #32]
Ltmp318:
	.loc	1 715 17 is_stmt 0              ; bzlib.c:715:17
	cbz	w9, LBB10_162
Ltmp319:
LBB10_16:                               ; %.lr.ph.i
                                        ;   Parent Loop BB10_6 Depth=1
                                        ; =>  This Loop Header: Depth=2
                                        ;       Child Loop BB10_21 Depth 3
                                        ;       Child Loop BB10_28 Depth 3
                                        ;       Child Loop BB10_36 Depth 3
                                        ;       Child Loop BB10_48 Depth 3
                                        ;       Child Loop BB10_53 Depth 3
	;DEBUG_VALUE: unRLE_obuf_to_output_SMALL:s <- $x19
	;DEBUG_VALUE: BZ2_bzDecompress:s <- $x19
	.loc	1 716 17 is_stmt 1              ; bzlib.c:716:17
	cbnz	w13, LBB10_42
Ltmp320:
; %bb.17:                               ;   in Loop: Header=BB10_16 Depth=2
	;DEBUG_VALUE: unRLE_obuf_to_output_SMALL:s <- $x19
	;DEBUG_VALUE: BZ2_bzDecompress:s <- $x19
	.loc	1 727 17                        ; bzlib.c:727:17
	ldr	w9, [x19, #1092]
	.loc	1 727 35 is_stmt 0              ; bzlib.c:727:35
	ldr	w13, [x21]
	.loc	1 727 46                        ; bzlib.c:727:46
	add	w10, w13, #1
Ltmp321:
	.loc	1 727 14                        ; bzlib.c:727:14
	cmp	w9, w10
	b.eq	LBB10_162
Ltmp322:
; %bb.18:                               ;   in Loop: Header=BB10_16 Depth=2
	;DEBUG_VALUE: unRLE_obuf_to_output_SMALL:s <- $x19
	;DEBUG_VALUE: BZ2_bzDecompress:s <- $x19
	.loc	1 730 14 is_stmt 1              ; bzlib.c:730:14
	b.gt	LBB10_175
Ltmp323:
; %bb.19:                               ;   in Loop: Header=BB10_16 Depth=2
	;DEBUG_VALUE: unRLE_obuf_to_output_SMALL:s <- $x19
	;DEBUG_VALUE: BZ2_bzDecompress:s <- $x19
	.loc	1 733 27                        ; bzlib.c:733:27
	str	w26, [x19, #16]
	.loc	1 734 31                        ; bzlib.c:734:31
	ldp	w17, w14, [x19, #60]
	.loc	1 734 26 is_stmt 0              ; bzlib.c:734:26
	strb	w14, [x19, #12]
Ltmp324:
	.loc	1 735 53 is_stmt 1              ; bzlib.c:735:53
	ldr	w10, [x19, #40]
	.loc	1 735 40 is_stmt 0              ; bzlib.c:735:40
	mul	w12, w10, w24
Ltmp325:
	.loc	1 735 14                        ; bzlib.c:735:14
	cmp	w17, w12
	b.hs	LBB10_175
Ltmp326:
; %bb.20:                               ; %.preheader370.i.preheader
                                        ;   in Loop: Header=BB10_16 Depth=2
	;DEBUG_VALUE: unRLE_obuf_to_output_SMALL:s <- $x19
	;DEBUG_VALUE: BZ2_bzDecompress:s <- $x19
	.loc	1 0 14                          ; bzlib.c:0:14
	mov	w16, #0
	mov	w10, #256
Ltmp327:
LBB10_21:                               ; %.preheader370.i
                                        ;   Parent Loop BB10_6 Depth=1
                                        ;     Parent Loop BB10_16 Depth=2
                                        ; =>    This Inner Loop Header: Depth=3
	;DEBUG_VALUE: unRLE_obuf_to_output_SMALL:s <- $x19
	;DEBUG_VALUE: BZ2_bzDecompress:s <- $x19
	;DEBUG_VALUE: BZ2_indexIntoF:nb <- $w16
	;DEBUG_VALUE: BZ2_indexIntoF:na <- $w10
	.loc	1 693 17 is_stmt 1              ; bzlib.c:693:17
	add	w11, w16, w10
	.loc	1 693 23 is_stmt 0              ; bzlib.c:693:23
	asr	w11, w11, #1
Ltmp328:
	;DEBUG_VALUE: BZ2_indexIntoF:mid <- $w11
	.loc	1 694 19 is_stmt 1              ; bzlib.c:694:19
	ldr	w15, [x22, w11, sxtw  #2]
	cmp	w15, w17
	csel	w10, w11, w10, gt
Ltmp329:
	.loc	1 0 19 is_stmt 0                ; bzlib.c:0:19
	csel	w16, w16, w11, gt
Ltmp330:
	;DEBUG_VALUE: BZ2_indexIntoF:na <- $w10
	;DEBUG_VALUE: BZ2_indexIntoF:nb <- $w16
	.loc	1 696 14 is_stmt 1              ; bzlib.c:696:14
	sub	w11, w10, w16
Ltmp331:
	.loc	1 695 4                         ; bzlib.c:695:4
	cmp	w11, #1
	b.ne	LBB10_21
Ltmp332:
; %bb.22:                               ; %BZ2_indexIntoF.exit.i
                                        ;   in Loop: Header=BB10_16 Depth=2
	;DEBUG_VALUE: unRLE_obuf_to_output_SMALL:s <- $x19
	;DEBUG_VALUE: BZ2_bzDecompress:s <- $x19
	;DEBUG_VALUE: unRLE_obuf_to_output_SMALL:k1 <- [DW_OP_LLVM_convert 32 7, DW_OP_LLVM_convert 8 7, DW_OP_stack_value] undef
	.loc	1 735 152                       ; bzlib.c:735:152
	ldr	x11, [x19, #3160]
	.loc	1 735 149 is_stmt 0             ; bzlib.c:735:149
	ldrh	w15, [x11, x17, lsl  #1]
	.loc	1 735 185                       ; bzlib.c:735:185
	ldr	x10, [x19, #3168]
	.loc	1 735 199                       ; bzlib.c:735:199
	lsr	x0, x17, #1
Ltmp333:
	;DEBUG_VALUE: BZ2_bzDecompress:strm <- [DW_OP_LLVM_entry_value 1] $x0
	.loc	1 735 182                       ; bzlib.c:735:182
	ldrb	w0, [x10, x0]
	.loc	1 735 222                       ; bzlib.c:735:222
	lsl	w17, w17, #2
	.loc	1 735 228                       ; bzlib.c:735:228
	and	x17, x17, #0x4
	.loc	1 735 207                       ; bzlib.c:735:207
	lsr	x17, x0, x17
	.loc	1 735 243                       ; bzlib.c:735:243
	lsl	w17, w17, #16
	and	x17, x17, #0xf0000
	.loc	1 735 167                       ; bzlib.c:735:167
	orr	x1, x17, x15
	.loc	1 735 137                       ; bzlib.c:735:137
	str	w1, [x19, #60]
Ltmp334:
	.loc	1 735 260                       ; bzlib.c:735:260
	ldr	w17, [x19, #24]
Ltmp335:
	.loc	1 735 257                       ; bzlib.c:735:257
	cbnz	w17, LBB10_24
Ltmp336:
; %bb.23:                               ;   in Loop: Header=BB10_16 Depth=2
	;DEBUG_VALUE: unRLE_obuf_to_output_SMALL:s <- $x19
	;DEBUG_VALUE: BZ2_bzDecompress:s <- $x19
	.loc	1 735 300                       ; bzlib.c:735:300
	ldrsw	x0, [x19, #28]
	.loc	1 735 287                       ; bzlib.c:735:287
	ldr	w17, [x27, x0, lsl  #2]
	.loc	1 735 316                       ; bzlib.c:735:316
	add	w2, w0, #1
	.loc	1 735 324                       ; bzlib.c:735:324
	cmp	w2, #512
	csinc	w0, wzr, w0, eq
	.loc	1 0 0                           ; bzlib.c:0:0
	str	w0, [x19, #28]
Ltmp337:
LBB10_24:                               ;   in Loop: Header=BB10_16 Depth=2
	;DEBUG_VALUE: unRLE_obuf_to_output_SMALL:s <- $x19
	;DEBUG_VALUE: BZ2_bzDecompress:s <- $x19
	.loc	1 735 366                       ; bzlib.c:735:366
	sub	w0, w17, #1
	str	w0, [x19, #24]
Ltmp338:
	;DEBUG_VALUE: unRLE_obuf_to_output_SMALL:k1 <- [DW_OP_LLVM_arg 0, DW_OP_LLVM_arg 0, DW_OP_LLVM_convert 1 7, DW_OP_LLVM_convert 32 7, DW_OP_xor, DW_OP_LLVM_convert 32 7, DW_OP_LLVM_convert 8 7, DW_OP_stack_value] undef
	.loc	1 736 58 is_stmt 1              ; bzlib.c:736:58
	add	w17, w9, #1
	str	w17, [x19, #1092]
	.loc	1 737 14                        ; bzlib.c:737:14
	cmp	w9, w13
	b.eq	LBB10_14
Ltmp339:
; %bb.25:                               ;   in Loop: Header=BB10_16 Depth=2
	;DEBUG_VALUE: unRLE_obuf_to_output_SMALL:s <- $x19
	;DEBUG_VALUE: BZ2_bzDecompress:s <- $x19
	.loc	1 736 28                        ; bzlib.c:736:28
	cmp	w0, #1
	cset	w2, eq
Ltmp340:
	;DEBUG_VALUE: unRLE_obuf_to_output_SMALL:k1 <- [DW_OP_LLVM_arg 0, DW_OP_LLVM_arg 0, DW_OP_xor, DW_OP_stack_value] undef
	.loc	1 738 14                        ; bzlib.c:738:14
	and	w16, w16, #0xff
	eor	w16, w16, w2
Ltmp341:
	.loc	1 738 14 is_stmt 0              ; bzlib.c:738:14
	cmp	w16, w14
	b.ne	LBB10_13
Ltmp342:
; %bb.26:                               ;   in Loop: Header=BB10_16 Depth=2
	;DEBUG_VALUE: unRLE_obuf_to_output_SMALL:s <- $x19
	;DEBUG_VALUE: BZ2_bzDecompress:s <- $x19
	.loc	1 740 27 is_stmt 1              ; bzlib.c:740:27
	str	w28, [x19, #16]
	.loc	1 741 14                        ; bzlib.c:741:14
	cmp	w1, w12
	b.hs	LBB10_175
Ltmp343:
; %bb.27:                               ; %.preheader358.i.preheader
                                        ;   in Loop: Header=BB10_16 Depth=2
	;DEBUG_VALUE: unRLE_obuf_to_output_SMALL:s <- $x19
	;DEBUG_VALUE: BZ2_bzDecompress:s <- $x19
	.loc	1 0 14 is_stmt 0                ; bzlib.c:0:14
	mov	w2, #0
	mov	w16, #256
Ltmp344:
LBB10_28:                               ; %.preheader358.i
                                        ;   Parent Loop BB10_6 Depth=1
                                        ;     Parent Loop BB10_16 Depth=2
                                        ; =>    This Inner Loop Header: Depth=3
	;DEBUG_VALUE: unRLE_obuf_to_output_SMALL:s <- $x19
	;DEBUG_VALUE: BZ2_bzDecompress:s <- $x19
	;DEBUG_VALUE: BZ2_indexIntoF:nb <- $w2
	;DEBUG_VALUE: BZ2_indexIntoF:na <- $w16
	.loc	1 693 17 is_stmt 1              ; bzlib.c:693:17
	add	w3, w2, w16
	.loc	1 693 23 is_stmt 0              ; bzlib.c:693:23
	asr	w3, w3, #1
Ltmp345:
	;DEBUG_VALUE: BZ2_indexIntoF:mid <- $w3
	.loc	1 694 19 is_stmt 1              ; bzlib.c:694:19
	ldr	w4, [x22, w3, sxtw  #2]
	cmp	w4, w1
	csel	w16, w3, w16, gt
Ltmp346:
	.loc	1 0 19 is_stmt 0                ; bzlib.c:0:19
	csel	w2, w2, w3, gt
Ltmp347:
	;DEBUG_VALUE: BZ2_indexIntoF:na <- $w16
	;DEBUG_VALUE: BZ2_indexIntoF:nb <- $w2
	.loc	1 696 14 is_stmt 1              ; bzlib.c:696:14
	sub	w3, w16, w2
Ltmp348:
	.loc	1 695 4                         ; bzlib.c:695:4
	cmp	w3, #1
	b.ne	LBB10_28
Ltmp349:
; %bb.29:                               ; %BZ2_indexIntoF.exit293.i
                                        ;   in Loop: Header=BB10_16 Depth=2
	;DEBUG_VALUE: unRLE_obuf_to_output_SMALL:s <- $x19
	;DEBUG_VALUE: BZ2_bzDecompress:s <- $x19
	;DEBUG_VALUE: unRLE_obuf_to_output_SMALL:k1 <- [DW_OP_LLVM_convert 32 7, DW_OP_LLVM_convert 8 7, DW_OP_stack_value] undef
	.loc	1 741 149                       ; bzlib.c:741:149
	ldrh	w16, [x11, x1, lsl  #1]
	.loc	1 741 182 is_stmt 0             ; bzlib.c:741:182
	mov	w1, w1
	.loc	1 741 199                       ; bzlib.c:741:199
	lsr	x1, x1, #1
	.loc	1 741 182                       ; bzlib.c:741:182
	ldrb	w1, [x10, x1]
	.loc	1 741 222                       ; bzlib.c:741:222
	lsl	w15, w15, #2
	.loc	1 741 228                       ; bzlib.c:741:228
	and	x15, x15, #0x4
	.loc	1 741 207                       ; bzlib.c:741:207
	lsr	x15, x1, x15
	.loc	1 741 243                       ; bzlib.c:741:243
	lsl	w15, w15, #16
	and	x15, x15, #0xf0000
	.loc	1 741 167                       ; bzlib.c:741:167
	orr	x3, x15, x16
	.loc	1 741 137                       ; bzlib.c:741:137
	str	w3, [x19, #60]
	.loc	1 741 257                       ; bzlib.c:741:257
	cbnz	w0, LBB10_31
Ltmp350:
; %bb.30:                               ;   in Loop: Header=BB10_16 Depth=2
	;DEBUG_VALUE: unRLE_obuf_to_output_SMALL:s <- $x19
	;DEBUG_VALUE: BZ2_bzDecompress:s <- $x19
	.loc	1 741 300                       ; bzlib.c:741:300
	ldrsw	x15, [x19, #28]
	.loc	1 741 287                       ; bzlib.c:741:287
	ldr	w0, [x27, x15, lsl  #2]
	.loc	1 741 316                       ; bzlib.c:741:316
	add	w1, w15, #1
	.loc	1 741 324                       ; bzlib.c:741:324
	cmp	w1, #512
	csinc	w15, wzr, w15, eq
	.loc	1 0 0                           ; bzlib.c:0:0
	str	w15, [x19, #28]
Ltmp351:
LBB10_31:                               ;   in Loop: Header=BB10_16 Depth=2
	;DEBUG_VALUE: unRLE_obuf_to_output_SMALL:s <- $x19
	;DEBUG_VALUE: BZ2_bzDecompress:s <- $x19
	.loc	1 741 366                       ; bzlib.c:741:366
	sub	w1, w0, #1
	str	w1, [x19, #24]
Ltmp352:
	;DEBUG_VALUE: unRLE_obuf_to_output_SMALL:k1 <- [DW_OP_LLVM_arg 0, DW_OP_LLVM_arg 0, DW_OP_LLVM_convert 1 7, DW_OP_LLVM_convert 32 7, DW_OP_xor, DW_OP_LLVM_convert 32 7, DW_OP_LLVM_convert 8 7, DW_OP_stack_value] undef
	.loc	1 742 58 is_stmt 1              ; bzlib.c:742:58
	add	w0, w9, #2
	str	w0, [x19, #1092]
	.loc	1 743 14                        ; bzlib.c:743:14
	cmp	w17, w13
	b.ne	LBB10_33
Ltmp353:
; %bb.32:                               ;   in Loop: Header=BB10_16 Depth=2
	;DEBUG_VALUE: unRLE_obuf_to_output_SMALL:s <- $x19
	;DEBUG_VALUE: BZ2_bzDecompress:s <- $x19
	.loc	1 0 14 is_stmt 0                ; bzlib.c:0:14
	mov	w13, #2
	b	LBB10_15
Ltmp354:
LBB10_33:                               ;   in Loop: Header=BB10_16 Depth=2
	;DEBUG_VALUE: unRLE_obuf_to_output_SMALL:s <- $x19
	;DEBUG_VALUE: BZ2_bzDecompress:s <- $x19
	.loc	1 742 28 is_stmt 1              ; bzlib.c:742:28
	cmp	w1, #1
	cset	w15, eq
Ltmp355:
	;DEBUG_VALUE: unRLE_obuf_to_output_SMALL:k1 <- [DW_OP_LLVM_arg 0, DW_OP_LLVM_arg 0, DW_OP_xor, DW_OP_stack_value] undef
	.loc	1 744 14                        ; bzlib.c:744:14
	and	w17, w2, #0xff
	eor	w15, w17, w15
Ltmp356:
	.loc	1 744 14 is_stmt 0              ; bzlib.c:744:14
	cmp	w15, w14
	b.ne	LBB10_41
Ltmp357:
; %bb.34:                               ;   in Loop: Header=BB10_16 Depth=2
	;DEBUG_VALUE: unRLE_obuf_to_output_SMALL:s <- $x19
	;DEBUG_VALUE: BZ2_bzDecompress:s <- $x19
	.loc	1 746 27 is_stmt 1              ; bzlib.c:746:27
	mov	w15, #3
	str	w15, [x19, #16]
	.loc	1 747 14                        ; bzlib.c:747:14
	cmp	w3, w12
	b.hs	LBB10_175
Ltmp358:
; %bb.35:                               ; %.preheader357.i.preheader
                                        ;   in Loop: Header=BB10_16 Depth=2
	;DEBUG_VALUE: unRLE_obuf_to_output_SMALL:s <- $x19
	;DEBUG_VALUE: BZ2_bzDecompress:s <- $x19
	.loc	1 0 14 is_stmt 0                ; bzlib.c:0:14
	mov	w17, #0
	mov	w15, #256
Ltmp359:
LBB10_36:                               ; %.preheader357.i
                                        ;   Parent Loop BB10_6 Depth=1
                                        ;     Parent Loop BB10_16 Depth=2
                                        ; =>    This Inner Loop Header: Depth=3
	;DEBUG_VALUE: unRLE_obuf_to_output_SMALL:s <- $x19
	;DEBUG_VALUE: BZ2_bzDecompress:s <- $x19
	;DEBUG_VALUE: BZ2_indexIntoF:nb <- $w17
	;DEBUG_VALUE: BZ2_indexIntoF:na <- $w15
	.loc	1 693 17 is_stmt 1              ; bzlib.c:693:17
	add	w2, w17, w15
	.loc	1 693 23 is_stmt 0              ; bzlib.c:693:23
	asr	w2, w2, #1
Ltmp360:
	;DEBUG_VALUE: BZ2_indexIntoF:mid <- $w2
	.loc	1 694 19 is_stmt 1              ; bzlib.c:694:19
	ldr	w4, [x22, w2, sxtw  #2]
	cmp	w4, w3
	csel	w15, w2, w15, gt
Ltmp361:
	.loc	1 0 19 is_stmt 0                ; bzlib.c:0:19
	csel	w17, w17, w2, gt
Ltmp362:
	;DEBUG_VALUE: BZ2_indexIntoF:na <- $w15
	;DEBUG_VALUE: BZ2_indexIntoF:nb <- $w17
	.loc	1 696 14 is_stmt 1              ; bzlib.c:696:14
	sub	w2, w15, w17
Ltmp363:
	.loc	1 695 4                         ; bzlib.c:695:4
	cmp	w2, #1
	b.ne	LBB10_36
Ltmp364:
; %bb.37:                               ; %BZ2_indexIntoF.exit300.i
                                        ;   in Loop: Header=BB10_16 Depth=2
	;DEBUG_VALUE: unRLE_obuf_to_output_SMALL:s <- $x19
	;DEBUG_VALUE: BZ2_bzDecompress:s <- $x19
	;DEBUG_VALUE: unRLE_obuf_to_output_SMALL:k1 <- [DW_OP_LLVM_convert 32 7, DW_OP_LLVM_convert 8 7, DW_OP_stack_value] undef
	.loc	1 747 149                       ; bzlib.c:747:149
	ldrh	w15, [x11, x3, lsl  #1]
	.loc	1 747 182 is_stmt 0             ; bzlib.c:747:182
	mov	w2, w3
	.loc	1 747 199                       ; bzlib.c:747:199
	lsr	x2, x2, #1
	.loc	1 747 182                       ; bzlib.c:747:182
	ldrb	w2, [x10, x2]
	.loc	1 747 222                       ; bzlib.c:747:222
	lsl	w16, w16, #2
	.loc	1 747 228                       ; bzlib.c:747:228
	and	x16, x16, #0x4
	.loc	1 747 207                       ; bzlib.c:747:207
	lsr	x16, x2, x16
	.loc	1 747 243                       ; bzlib.c:747:243
	lsl	w16, w16, #16
	and	x16, x16, #0xf0000
	.loc	1 747 167                       ; bzlib.c:747:167
	orr	x2, x16, x15
	.loc	1 747 137                       ; bzlib.c:747:137
	str	w2, [x19, #60]
	.loc	1 747 257                       ; bzlib.c:747:257
	cbnz	w1, LBB10_39
Ltmp365:
; %bb.38:                               ;   in Loop: Header=BB10_16 Depth=2
	;DEBUG_VALUE: unRLE_obuf_to_output_SMALL:s <- $x19
	;DEBUG_VALUE: BZ2_bzDecompress:s <- $x19
	.loc	1 747 300                       ; bzlib.c:747:300
	ldrsw	x16, [x19, #28]
	.loc	1 747 287                       ; bzlib.c:747:287
	ldr	w1, [x27, x16, lsl  #2]
	.loc	1 747 316                       ; bzlib.c:747:316
	add	w3, w16, #1
	.loc	1 747 324                       ; bzlib.c:747:324
	cmp	w3, #512
	csinc	w16, wzr, w16, eq
	.loc	1 0 0                           ; bzlib.c:0:0
	str	w16, [x19, #28]
Ltmp366:
LBB10_39:                               ;   in Loop: Header=BB10_16 Depth=2
	;DEBUG_VALUE: unRLE_obuf_to_output_SMALL:s <- $x19
	;DEBUG_VALUE: BZ2_bzDecompress:s <- $x19
	.loc	1 747 366                       ; bzlib.c:747:366
	sub	w16, w1, #1
	str	w16, [x19, #24]
Ltmp367:
	;DEBUG_VALUE: unRLE_obuf_to_output_SMALL:k1 <- [DW_OP_LLVM_arg 0, DW_OP_LLVM_arg 0, DW_OP_LLVM_convert 1 7, DW_OP_LLVM_convert 32 7, DW_OP_xor, DW_OP_LLVM_convert 32 7, DW_OP_LLVM_convert 8 7, DW_OP_stack_value] undef
	.loc	1 748 58 is_stmt 1              ; bzlib.c:748:58
	add	w1, w9, #3
	str	w1, [x19, #1092]
	.loc	1 749 14                        ; bzlib.c:749:14
	cmp	w0, w13
	b.ne	LBB10_45
Ltmp368:
; %bb.40:                               ;   in Loop: Header=BB10_16 Depth=2
	;DEBUG_VALUE: unRLE_obuf_to_output_SMALL:s <- $x19
	;DEBUG_VALUE: BZ2_bzDecompress:s <- $x19
	.loc	1 0 14 is_stmt 0                ; bzlib.c:0:14
	mov	w13, #3
	b	LBB10_15
Ltmp369:
LBB10_41:                               ;   in Loop: Header=BB10_16 Depth=2
	;DEBUG_VALUE: unRLE_obuf_to_output_SMALL:s <- $x19
	;DEBUG_VALUE: BZ2_bzDecompress:s <- $x19
	.loc	1 744 35 is_stmt 1              ; bzlib.c:744:35
	str	w15, [x19, #64]
	mov	w13, #2
	b	LBB10_15
Ltmp370:
LBB10_42:                               ;   in Loop: Header=BB10_16 Depth=2
	;DEBUG_VALUE: unRLE_obuf_to_output_SMALL:s <- $x19
	;DEBUG_VALUE: BZ2_bzDecompress:s <- $x19
	.loc	1 717 51                        ; bzlib.c:717:51
	ldrb	w9, [x19, #12]
	.loc	1 717 34 is_stmt 0              ; bzlib.c:717:34
	ldr	x8, [x8, #24]
	.loc	1 717 46                        ; bzlib.c:717:46
	strb	w9, [x8]
Ltmp371:
	.loc	1 718 43 is_stmt 1              ; bzlib.c:718:43
	ldr	w8, [x19, #3184]
	.loc	1 718 128 is_stmt 0             ; bzlib.c:718:128
	ldrb	w9, [x19, #12]
	.loc	1 718 115                       ; bzlib.c:718:115
	eor	w9, w9, w8, lsr #24
	.loc	1 718 70                        ; bzlib.c:718:70
	ldr	w9, [x25, w9, uxtw  #2]
	.loc	1 718 68                        ; bzlib.c:718:68
	eor	w8, w9, w8, lsl #8
	.loc	1 718 37                        ; bzlib.c:718:37
	str	w8, [x19, #3184]
Ltmp372:
	.loc	1 719 29 is_stmt 1              ; bzlib.c:719:29
	ldr	w8, [x19, #16]
	sub	w13, w8, #1
	str	w13, [x19, #16]
	.loc	1 720 16                        ; bzlib.c:720:16
	ldr	x8, [x19]
	.loc	1 720 30 is_stmt 0              ; bzlib.c:720:30
	ldr	x9, [x8, #24]
	add	x9, x9, #1
	str	x9, [x8, #24]
	.loc	1 721 31 is_stmt 1              ; bzlib.c:721:31
	ldp	w9, w10, [x8, #32]
	sub	w9, w9, #1
	.loc	1 722 36                        ; bzlib.c:722:36
	adds	w10, w10, #1
	.loc	1 721 31                        ; bzlib.c:721:31
	stp	w9, w10, [x8, #32]
	.loc	1 723 17                        ; bzlib.c:723:17
	b.lo	LBB10_44
Ltmp373:
; %bb.43:                               ;   in Loop: Header=BB10_16 Depth=2
	;DEBUG_VALUE: unRLE_obuf_to_output_SMALL:s <- $x19
	;DEBUG_VALUE: BZ2_bzDecompress:s <- $x19
	.loc	1 723 70 is_stmt 0              ; bzlib.c:723:70
	ldr	w10, [x8, #40]
	add	w10, w10, #1
	str	w10, [x8, #40]
Ltmp374:
LBB10_44:                               ;   in Loop: Header=BB10_16 Depth=2
	;DEBUG_VALUE: unRLE_obuf_to_output_SMALL:s <- $x19
	;DEBUG_VALUE: BZ2_bzDecompress:s <- $x19
	.loc	1 715 17 is_stmt 1              ; bzlib.c:715:17
	cbnz	w9, LBB10_16
	b	LBB10_162
Ltmp375:
LBB10_45:                               ;   in Loop: Header=BB10_16 Depth=2
	;DEBUG_VALUE: unRLE_obuf_to_output_SMALL:s <- $x19
	;DEBUG_VALUE: BZ2_bzDecompress:s <- $x19
	.loc	1 748 28                        ; bzlib.c:748:28
	cmp	w16, #1
	cset	w13, eq
Ltmp376:
	;DEBUG_VALUE: unRLE_obuf_to_output_SMALL:k1 <- [DW_OP_LLVM_arg 0, DW_OP_LLVM_arg 0, DW_OP_xor, DW_OP_stack_value] undef
	.loc	1 750 14                        ; bzlib.c:750:14
	and	w17, w17, #0xff
	eor	w13, w17, w13
Ltmp377:
	.loc	1 750 14 is_stmt 0              ; bzlib.c:750:14
	cmp	w13, w14
	b.ne	LBB10_57
Ltmp378:
; %bb.46:                               ;   in Loop: Header=BB10_16 Depth=2
	;DEBUG_VALUE: unRLE_obuf_to_output_SMALL:s <- $x19
	;DEBUG_VALUE: BZ2_bzDecompress:s <- $x19
	.loc	1 752 14 is_stmt 1              ; bzlib.c:752:14
	cmp	w2, w12
	b.hs	LBB10_175
Ltmp379:
; %bb.47:                               ; %.preheader356.i.preheader
                                        ;   in Loop: Header=BB10_16 Depth=2
	;DEBUG_VALUE: unRLE_obuf_to_output_SMALL:s <- $x19
	;DEBUG_VALUE: BZ2_bzDecompress:s <- $x19
	.loc	1 0 14 is_stmt 0                ; bzlib.c:0:14
	mov	w13, #0
	mov	w14, #256
Ltmp380:
LBB10_48:                               ; %.preheader356.i
                                        ;   Parent Loop BB10_6 Depth=1
                                        ;     Parent Loop BB10_16 Depth=2
                                        ; =>    This Inner Loop Header: Depth=3
	;DEBUG_VALUE: unRLE_obuf_to_output_SMALL:s <- $x19
	;DEBUG_VALUE: BZ2_bzDecompress:s <- $x19
	;DEBUG_VALUE: BZ2_indexIntoF:nb <- $w13
	;DEBUG_VALUE: BZ2_indexIntoF:na <- $w14
	.loc	1 693 17 is_stmt 1              ; bzlib.c:693:17
	add	w17, w13, w14
	.loc	1 693 23 is_stmt 0              ; bzlib.c:693:23
	asr	w17, w17, #1
Ltmp381:
	;DEBUG_VALUE: BZ2_indexIntoF:mid <- $w17
	.loc	1 694 19 is_stmt 1              ; bzlib.c:694:19
	ldr	w0, [x22, w17, sxtw  #2]
	cmp	w0, w2
	csel	w14, w17, w14, gt
Ltmp382:
	.loc	1 0 19 is_stmt 0                ; bzlib.c:0:19
	csel	w13, w13, w17, gt
Ltmp383:
	;DEBUG_VALUE: BZ2_indexIntoF:na <- $w14
	;DEBUG_VALUE: BZ2_indexIntoF:nb <- $w13
	.loc	1 696 14 is_stmt 1              ; bzlib.c:696:14
	sub	w17, w14, w13
Ltmp384:
	.loc	1 695 4                         ; bzlib.c:695:4
	cmp	w17, #1
	b.ne	LBB10_48
Ltmp385:
; %bb.49:                               ; %BZ2_indexIntoF.exit307.i
                                        ;   in Loop: Header=BB10_16 Depth=2
	;DEBUG_VALUE: unRLE_obuf_to_output_SMALL:s <- $x19
	;DEBUG_VALUE: BZ2_bzDecompress:s <- $x19
	;DEBUG_VALUE: unRLE_obuf_to_output_SMALL:k1 <- [DW_OP_LLVM_convert 32 7, DW_OP_LLVM_convert 8 7, DW_OP_stack_value] undef
	.loc	1 752 149                       ; bzlib.c:752:149
	ldrh	w14, [x11, x2, lsl  #1]
	.loc	1 752 182 is_stmt 0             ; bzlib.c:752:182
	mov	w17, w2
	.loc	1 752 199                       ; bzlib.c:752:199
	lsr	x17, x17, #1
	.loc	1 752 182                       ; bzlib.c:752:182
	ldrb	w17, [x10, x17]
	.loc	1 752 222                       ; bzlib.c:752:222
	lsl	w15, w15, #2
	.loc	1 752 228                       ; bzlib.c:752:228
	and	x15, x15, #0x4
	.loc	1 752 207                       ; bzlib.c:752:207
	lsr	x15, x17, x15
	.loc	1 752 243                       ; bzlib.c:752:243
	lsl	w15, w15, #16
	and	x15, x15, #0xf0000
	.loc	1 752 167                       ; bzlib.c:752:167
	orr	x17, x15, x14
	.loc	1 752 137                       ; bzlib.c:752:137
	str	w17, [x19, #60]
	.loc	1 752 257                       ; bzlib.c:752:257
	cbnz	w16, LBB10_51
Ltmp386:
; %bb.50:                               ;   in Loop: Header=BB10_16 Depth=2
	;DEBUG_VALUE: unRLE_obuf_to_output_SMALL:s <- $x19
	;DEBUG_VALUE: BZ2_bzDecompress:s <- $x19
	.loc	1 752 300                       ; bzlib.c:752:300
	ldrsw	x15, [x19, #28]
	.loc	1 752 287                       ; bzlib.c:752:287
	ldr	w16, [x27, x15, lsl  #2]
	.loc	1 752 316                       ; bzlib.c:752:316
	add	w0, w15, #1
	.loc	1 752 324                       ; bzlib.c:752:324
	cmp	w0, #512
	csinc	w15, wzr, w15, eq
	.loc	1 0 0                           ; bzlib.c:0:0
	str	w15, [x19, #28]
Ltmp387:
LBB10_51:                               ;   in Loop: Header=BB10_16 Depth=2
	;DEBUG_VALUE: unRLE_obuf_to_output_SMALL:s <- $x19
	;DEBUG_VALUE: BZ2_bzDecompress:s <- $x19
	.loc	1 752 366                       ; bzlib.c:752:366
	sub	w15, w16, #1
	str	w15, [x19, #24]
	.loc	1 753 28 is_stmt 1              ; bzlib.c:753:28
	cmp	w15, #1
	cset	w16, eq
Ltmp388:
	;DEBUG_VALUE: unRLE_obuf_to_output_SMALL:k1 <- [DW_OP_LLVM_arg 0, DW_OP_LLVM_arg 0, DW_OP_xor, DW_OP_LLVM_convert 32 7, DW_OP_LLVM_convert 8 7, DW_OP_stack_value] undef
	.loc	1 753 58 is_stmt 0              ; bzlib.c:753:58
	add	w0, w9, #4
	str	w0, [x19, #1092]
	.loc	1 754 30 is_stmt 1              ; bzlib.c:754:30
	and	w13, w13, #0xff
	eor	w13, w13, w16
	.loc	1 754 41 is_stmt 0              ; bzlib.c:754:41
	add	w13, w13, #4
	.loc	1 754 27                        ; bzlib.c:754:27
	str	w13, [x19, #16]
	.loc	1 755 14 is_stmt 1              ; bzlib.c:755:14
	cmp	w17, w12
	b.hs	LBB10_175
Ltmp389:
; %bb.52:                               ; %.preheader355.i.preheader
                                        ;   in Loop: Header=BB10_16 Depth=2
	;DEBUG_VALUE: unRLE_obuf_to_output_SMALL:s <- $x19
	;DEBUG_VALUE: BZ2_bzDecompress:s <- $x19
	.loc	1 0 14 is_stmt 0                ; bzlib.c:0:14
	mov	w12, #0
	mov	w16, #256
Ltmp390:
LBB10_53:                               ; %.preheader355.i
                                        ;   Parent Loop BB10_6 Depth=1
                                        ;     Parent Loop BB10_16 Depth=2
                                        ; =>    This Inner Loop Header: Depth=3
	;DEBUG_VALUE: unRLE_obuf_to_output_SMALL:s <- $x19
	;DEBUG_VALUE: BZ2_bzDecompress:s <- $x19
	;DEBUG_VALUE: BZ2_indexIntoF:nb <- $w12
	;DEBUG_VALUE: BZ2_indexIntoF:na <- $w16
	.loc	1 693 17 is_stmt 1              ; bzlib.c:693:17
	add	w0, w12, w16
	.loc	1 693 23 is_stmt 0              ; bzlib.c:693:23
	asr	w0, w0, #1
Ltmp391:
	;DEBUG_VALUE: BZ2_indexIntoF:mid <- $w0
	.loc	1 694 19 is_stmt 1              ; bzlib.c:694:19
	ldr	w1, [x22, w0, sxtw  #2]
	cmp	w1, w17
	csel	w16, w0, w16, gt
Ltmp392:
	.loc	1 0 19 is_stmt 0                ; bzlib.c:0:19
	csel	w12, w12, w0, gt
Ltmp393:
	;DEBUG_VALUE: BZ2_indexIntoF:na <- $w16
	;DEBUG_VALUE: BZ2_indexIntoF:nb <- $w12
	.loc	1 696 14 is_stmt 1              ; bzlib.c:696:14
	sub	w0, w16, w12
Ltmp394:
	.loc	1 695 4                         ; bzlib.c:695:4
	cmp	w0, #1
	b.ne	LBB10_53
Ltmp395:
; %bb.54:                               ; %BZ2_indexIntoF.exit314.i
                                        ;   in Loop: Header=BB10_16 Depth=2
	;DEBUG_VALUE: unRLE_obuf_to_output_SMALL:s <- $x19
	;DEBUG_VALUE: BZ2_bzDecompress:s <- $x19
	.loc	1 755 92                        ; bzlib.c:755:92
	str	w12, [x19, #64]
	.loc	1 755 152 is_stmt 0             ; bzlib.c:755:152
	ldrh	w11, [x11, x17, lsl  #1]
	.loc	1 755 185                       ; bzlib.c:755:185
	mov	w16, w17
	.loc	1 755 202                       ; bzlib.c:755:202
	lsr	x16, x16, #1
	.loc	1 755 185                       ; bzlib.c:755:185
	ldrb	w10, [x10, x16]
	.loc	1 755 231                       ; bzlib.c:755:231
	ubfiz	w14, w14, #2, #1
	.loc	1 755 210                       ; bzlib.c:755:210
	lsr	w10, w10, w14
	.loc	1 755 170                       ; bzlib.c:755:170
	bfi	w11, w10, #16, #4
	.loc	1 755 140                       ; bzlib.c:755:140
	str	w11, [x19, #60]
	.loc	1 755 260                       ; bzlib.c:755:260
	cbnz	w15, LBB10_56
Ltmp396:
; %bb.55:                               ;   in Loop: Header=BB10_16 Depth=2
	;DEBUG_VALUE: unRLE_obuf_to_output_SMALL:s <- $x19
	;DEBUG_VALUE: BZ2_bzDecompress:s <- $x19
	.loc	1 755 303                       ; bzlib.c:755:303
	ldrsw	x10, [x19, #28]
	.loc	1 755 290                       ; bzlib.c:755:290
	ldr	w15, [x27, x10, lsl  #2]
	.loc	1 755 319                       ; bzlib.c:755:319
	add	w11, w10, #1
	.loc	1 755 327                       ; bzlib.c:755:327
	cmp	w11, #512
	csinc	w10, wzr, w10, eq
	.loc	1 0 0                           ; bzlib.c:0:0
	str	w10, [x19, #28]
Ltmp397:
LBB10_56:                               ;   in Loop: Header=BB10_16 Depth=2
	;DEBUG_VALUE: unRLE_obuf_to_output_SMALL:s <- $x19
	;DEBUG_VALUE: BZ2_bzDecompress:s <- $x19
	.loc	1 755 369                       ; bzlib.c:755:369
	sub	w10, w15, #1
	str	w10, [x19, #24]
	.loc	1 756 31 is_stmt 1              ; bzlib.c:756:31
	cmp	w10, #1
	cset	w10, eq
	.loc	1 756 16 is_stmt 0              ; bzlib.c:756:16
	eor	w10, w12, w10
	str	w10, [x19, #64]
	.loc	1 756 61                        ; bzlib.c:756:61
	add	w9, w9, #5
	str	w9, [x19, #1092]
	b	LBB10_15
Ltmp398:
LBB10_57:                               ;   in Loop: Header=BB10_16 Depth=2
	;DEBUG_VALUE: unRLE_obuf_to_output_SMALL:s <- $x19
	;DEBUG_VALUE: BZ2_bzDecompress:s <- $x19
	.loc	1 750 35 is_stmt 1              ; bzlib.c:750:35
	str	w13, [x19, #64]
	mov	w13, #3
	b	LBB10_15
Ltmp399:
LBB10_58:                               ;   in Loop: Header=BB10_6 Depth=1
	;DEBUG_VALUE: BZ2_bzDecompress:s <- $x19
	;DEBUG_VALUE: unRLE_obuf_to_output_FAST:s <- $x19
	.loc	1 540 8                         ; bzlib.c:540:8
	cbz	w9, LBB10_133
Ltmp400:
; %bb.59:                               ; %.preheader326.i
                                        ;   in Loop: Header=BB10_6 Depth=1
	;DEBUG_VALUE: unRLE_obuf_to_output_FAST:s <- $x19
	;DEBUG_VALUE: BZ2_bzDecompress:s <- $x19
	.loc	1 545 20                        ; bzlib.c:545:20
	ldr	x8, [x19]
	.loc	1 545 26 is_stmt 0              ; bzlib.c:545:26
	ldr	w9, [x8, #32]
Ltmp401:
	.loc	1 545 17                        ; bzlib.c:545:17
	cbz	w9, LBB10_162
Ltmp402:
; %bb.60:                               ; %.lr.ph.lr.ph.i55
                                        ;   in Loop: Header=BB10_6 Depth=1
	;DEBUG_VALUE: unRLE_obuf_to_output_FAST:s <- $x19
	;DEBUG_VALUE: BZ2_bzDecompress:s <- $x19
	.loc	1 546 20 is_stmt 1              ; bzlib.c:546:20
	ldr	w12, [x19, #16]
	b	LBB10_64
Ltmp403:
LBB10_61:                               ;   in Loop: Header=BB10_64 Depth=2
	;DEBUG_VALUE: unRLE_obuf_to_output_FAST:s <- $x19
	;DEBUG_VALUE: BZ2_bzDecompress:s <- $x19
	.loc	1 568 35                        ; bzlib.c:568:35
	str	w16, [x19, #64]
Ltmp404:
LBB10_62:                               ; %.backedge328.i
                                        ;   in Loop: Header=BB10_64 Depth=2
	;DEBUG_VALUE: unRLE_obuf_to_output_FAST:s <- $x19
	;DEBUG_VALUE: BZ2_bzDecompress:s <- $x19
	.loc	1 0 35 is_stmt 0                ; bzlib.c:0:35
	mov	w12, #1
Ltmp405:
LBB10_63:                               ; %.backedge328.i
                                        ;   in Loop: Header=BB10_64 Depth=2
	;DEBUG_VALUE: unRLE_obuf_to_output_FAST:s <- $x19
	;DEBUG_VALUE: BZ2_bzDecompress:s <- $x19
	.loc	1 545 26 is_stmt 1              ; bzlib.c:545:26
	ldr	w9, [x8, #32]
Ltmp406:
	.loc	1 545 17 is_stmt 0              ; bzlib.c:545:17
	cbz	w9, LBB10_162
Ltmp407:
LBB10_64:                               ; %.lr.ph.i57
                                        ;   Parent Loop BB10_6 Depth=1
                                        ; =>  This Inner Loop Header: Depth=2
	;DEBUG_VALUE: unRLE_obuf_to_output_FAST:s <- $x19
	;DEBUG_VALUE: BZ2_bzDecompress:s <- $x19
	.loc	1 546 17 is_stmt 1              ; bzlib.c:546:17
	cbnz	w12, LBB10_84
Ltmp408:
; %bb.65:                               ;   in Loop: Header=BB10_64 Depth=2
	;DEBUG_VALUE: unRLE_obuf_to_output_FAST:s <- $x19
	;DEBUG_VALUE: BZ2_bzDecompress:s <- $x19
	.loc	1 557 17                        ; bzlib.c:557:17
	ldr	w9, [x19, #1092]
	.loc	1 557 35 is_stmt 0              ; bzlib.c:557:35
	ldr	w12, [x21]
	.loc	1 557 46                        ; bzlib.c:557:46
	add	w10, w12, #1
Ltmp409:
	.loc	1 557 14                        ; bzlib.c:557:14
	cmp	w9, w10
	b.eq	LBB10_162
Ltmp410:
; %bb.66:                               ;   in Loop: Header=BB10_64 Depth=2
	;DEBUG_VALUE: unRLE_obuf_to_output_FAST:s <- $x19
	;DEBUG_VALUE: BZ2_bzDecompress:s <- $x19
	.loc	1 560 14 is_stmt 1              ; bzlib.c:560:14
	b.gt	LBB10_175
Ltmp411:
; %bb.67:                               ;   in Loop: Header=BB10_64 Depth=2
	;DEBUG_VALUE: unRLE_obuf_to_output_FAST:s <- $x19
	;DEBUG_VALUE: BZ2_bzDecompress:s <- $x19
	.loc	1 563 27                        ; bzlib.c:563:27
	str	w26, [x19, #16]
	.loc	1 564 31                        ; bzlib.c:564:31
	ldp	w14, w13, [x19, #60]
	.loc	1 564 26 is_stmt 0              ; bzlib.c:564:26
	strb	w13, [x19, #12]
Ltmp412:
	.loc	1 565 53 is_stmt 1              ; bzlib.c:565:53
	ldr	w10, [x19, #40]
	.loc	1 565 40 is_stmt 0              ; bzlib.c:565:40
	mul	w11, w10, w24
Ltmp413:
	.loc	1 565 14                        ; bzlib.c:565:14
	cmp	w14, w11
	b.hs	LBB10_175
Ltmp414:
; %bb.68:                               ;   in Loop: Header=BB10_64 Depth=2
	;DEBUG_VALUE: unRLE_obuf_to_output_FAST:s <- $x19
	;DEBUG_VALUE: BZ2_bzDecompress:s <- $x19
	.loc	1 565 99                        ; bzlib.c:565:99
	ldr	x10, [x19, #3152]
	.loc	1 565 96                        ; bzlib.c:565:96
	ldr	w16, [x10, x14, lsl  #2]
Ltmp415:
	;DEBUG_VALUE: unRLE_obuf_to_output_FAST:k1 <- [DW_OP_LLVM_convert 32 7, DW_OP_LLVM_convert 8 7, DW_OP_stack_value] undef
	.loc	1 565 150                       ; bzlib.c:565:150
	lsr	x15, x16, #8
	str	w15, [x19, #60]
Ltmp416:
	.loc	1 565 165                       ; bzlib.c:565:165
	ldr	w14, [x19, #24]
Ltmp417:
	.loc	1 565 162                       ; bzlib.c:565:162
	cbnz	w14, LBB10_70
Ltmp418:
; %bb.69:                               ;   in Loop: Header=BB10_64 Depth=2
	;DEBUG_VALUE: unRLE_obuf_to_output_FAST:s <- $x19
	;DEBUG_VALUE: BZ2_bzDecompress:s <- $x19
	.loc	1 565 205                       ; bzlib.c:565:205
	ldrsw	x17, [x19, #28]
	.loc	1 565 192                       ; bzlib.c:565:192
	ldr	w14, [x27, x17, lsl  #2]
	.loc	1 565 221                       ; bzlib.c:565:221
	add	w0, w17, #1
Ltmp419:
	;DEBUG_VALUE: BZ2_bzDecompress:strm <- [DW_OP_LLVM_entry_value 1] $x0
	.loc	1 565 229                       ; bzlib.c:565:229
	cmp	w0, #512
	csinc	w17, wzr, w17, eq
	.loc	1 0 0                           ; bzlib.c:0:0
	str	w17, [x19, #28]
Ltmp420:
LBB10_70:                               ;   in Loop: Header=BB10_64 Depth=2
	;DEBUG_VALUE: unRLE_obuf_to_output_FAST:s <- $x19
	;DEBUG_VALUE: BZ2_bzDecompress:s <- $x19
	;DEBUG_VALUE: unRLE_obuf_to_output_FAST:k1 <- [DW_OP_LLVM_convert 32 7, DW_OP_LLVM_convert 8 7, DW_OP_stack_value] undef
	.loc	1 565 271                       ; bzlib.c:565:271
	sub	w17, w14, #1
	str	w17, [x19, #24]
Ltmp421:
	;DEBUG_VALUE: unRLE_obuf_to_output_FAST:k1 <- [DW_OP_LLVM_arg 0, DW_OP_LLVM_arg 0, DW_OP_LLVM_convert 1 7, DW_OP_LLVM_convert 32 7, DW_OP_xor, DW_OP_LLVM_convert 32 7, DW_OP_LLVM_convert 8 7, DW_OP_stack_value] undef
	.loc	1 566 58 is_stmt 1              ; bzlib.c:566:58
	add	w14, w9, #1
	str	w14, [x19, #1092]
	.loc	1 567 14                        ; bzlib.c:567:14
	cmp	w9, w12
	b.eq	LBB10_62
Ltmp422:
; %bb.71:                               ;   in Loop: Header=BB10_64 Depth=2
	;DEBUG_VALUE: unRLE_obuf_to_output_FAST:s <- $x19
	;DEBUG_VALUE: BZ2_bzDecompress:s <- $x19
	;DEBUG_VALUE: unRLE_obuf_to_output_FAST:k1 <- [DW_OP_LLVM_arg 0, DW_OP_LLVM_arg 1, DW_OP_LLVM_convert 1 7, DW_OP_LLVM_convert 32 7, DW_OP_xor, DW_OP_LLVM_convert 32 7, DW_OP_LLVM_convert 8 7, DW_OP_stack_value] undef, undef
	.loc	1 566 28                        ; bzlib.c:566:28
	cmp	w17, #1
	cset	w0, eq
Ltmp423:
	;DEBUG_VALUE: unRLE_obuf_to_output_FAST:k1 <- [DW_OP_LLVM_arg 0, DW_OP_LLVM_arg 1, DW_OP_xor, DW_OP_stack_value] $w16, $w0
	.loc	1 568 14                        ; bzlib.c:568:14
	and	w16, w16, #0xff
Ltmp424:
	eor	w16, w16, w0
Ltmp425:
	.loc	1 568 14 is_stmt 0              ; bzlib.c:568:14
	cmp	w16, w13
	b.ne	LBB10_61
Ltmp426:
; %bb.72:                               ;   in Loop: Header=BB10_64 Depth=2
	;DEBUG_VALUE: unRLE_obuf_to_output_FAST:s <- $x19
	;DEBUG_VALUE: BZ2_bzDecompress:s <- $x19
	.loc	1 570 27 is_stmt 1              ; bzlib.c:570:27
	str	w28, [x19, #16]
	.loc	1 571 14                        ; bzlib.c:571:14
	cmp	w15, w11
	b.hs	LBB10_175
Ltmp427:
; %bb.73:                               ;   in Loop: Header=BB10_64 Depth=2
	;DEBUG_VALUE: unRLE_obuf_to_output_FAST:s <- $x19
	;DEBUG_VALUE: BZ2_bzDecompress:s <- $x19
	.loc	1 571 96 is_stmt 0              ; bzlib.c:571:96
	ldr	w0, [x10, x15, lsl  #2]
Ltmp428:
	;DEBUG_VALUE: unRLE_obuf_to_output_FAST:k1 <- [DW_OP_LLVM_convert 32 7, DW_OP_LLVM_convert 8 7, DW_OP_stack_value] undef
	.loc	1 571 150                       ; bzlib.c:571:150
	lsr	x16, x0, #8
	str	w16, [x19, #60]
	.loc	1 571 162                       ; bzlib.c:571:162
	cbnz	w17, LBB10_75
Ltmp429:
; %bb.74:                               ;   in Loop: Header=BB10_64 Depth=2
	;DEBUG_VALUE: unRLE_obuf_to_output_FAST:s <- $x19
	;DEBUG_VALUE: BZ2_bzDecompress:s <- $x19
	.loc	1 571 205                       ; bzlib.c:571:205
	ldrsw	x15, [x19, #28]
	.loc	1 571 192                       ; bzlib.c:571:192
	ldr	w17, [x27, x15, lsl  #2]
	.loc	1 571 221                       ; bzlib.c:571:221
	add	w1, w15, #1
	.loc	1 571 229                       ; bzlib.c:571:229
	cmp	w1, #512
	csinc	w15, wzr, w15, eq
	.loc	1 0 0                           ; bzlib.c:0:0
	str	w15, [x19, #28]
Ltmp430:
LBB10_75:                               ;   in Loop: Header=BB10_64 Depth=2
	;DEBUG_VALUE: unRLE_obuf_to_output_FAST:s <- $x19
	;DEBUG_VALUE: BZ2_bzDecompress:s <- $x19
	;DEBUG_VALUE: unRLE_obuf_to_output_FAST:k1 <- [DW_OP_LLVM_convert 32 7, DW_OP_LLVM_convert 8 7, DW_OP_stack_value] undef
	.loc	1 571 271                       ; bzlib.c:571:271
	sub	w17, w17, #1
	str	w17, [x19, #24]
Ltmp431:
	;DEBUG_VALUE: unRLE_obuf_to_output_FAST:k1 <- [DW_OP_LLVM_arg 0, DW_OP_LLVM_arg 0, DW_OP_LLVM_convert 1 7, DW_OP_LLVM_convert 32 7, DW_OP_xor, DW_OP_LLVM_convert 32 7, DW_OP_LLVM_convert 8 7, DW_OP_stack_value] undef
	.loc	1 572 58 is_stmt 1              ; bzlib.c:572:58
	add	w15, w9, #2
	str	w15, [x19, #1092]
	.loc	1 573 14                        ; bzlib.c:573:14
	cmp	w14, w12
	b.ne	LBB10_77
Ltmp432:
; %bb.76:                               ;   in Loop: Header=BB10_64 Depth=2
	;DEBUG_VALUE: unRLE_obuf_to_output_FAST:s <- $x19
	;DEBUG_VALUE: BZ2_bzDecompress:s <- $x19
	.loc	1 0 14 is_stmt 0                ; bzlib.c:0:14
	mov	w12, #2
	b	LBB10_63
Ltmp433:
LBB10_77:                               ;   in Loop: Header=BB10_64 Depth=2
	;DEBUG_VALUE: unRLE_obuf_to_output_FAST:s <- $x19
	;DEBUG_VALUE: BZ2_bzDecompress:s <- $x19
	;DEBUG_VALUE: unRLE_obuf_to_output_FAST:k1 <- [DW_OP_LLVM_arg 0, DW_OP_LLVM_arg 1, DW_OP_LLVM_convert 1 7, DW_OP_LLVM_convert 32 7, DW_OP_xor, DW_OP_LLVM_convert 32 7, DW_OP_LLVM_convert 8 7, DW_OP_stack_value] undef, undef
	.loc	1 572 28 is_stmt 1              ; bzlib.c:572:28
	cmp	w17, #1
	cset	w14, eq
Ltmp434:
	;DEBUG_VALUE: unRLE_obuf_to_output_FAST:k1 <- [DW_OP_LLVM_arg 0, DW_OP_LLVM_arg 1, DW_OP_xor, DW_OP_stack_value] $w0, $w14
	.loc	1 574 14                        ; bzlib.c:574:14
	and	w0, w0, #0xff
Ltmp435:
	eor	w14, w0, w14
Ltmp436:
	.loc	1 574 14 is_stmt 0              ; bzlib.c:574:14
	cmp	w14, w13
	b.ne	LBB10_83
Ltmp437:
; %bb.78:                               ;   in Loop: Header=BB10_64 Depth=2
	;DEBUG_VALUE: unRLE_obuf_to_output_FAST:s <- $x19
	;DEBUG_VALUE: BZ2_bzDecompress:s <- $x19
	.loc	1 576 27 is_stmt 1              ; bzlib.c:576:27
	mov	w14, #3
	str	w14, [x19, #16]
	.loc	1 577 14                        ; bzlib.c:577:14
	cmp	w16, w11
	b.hs	LBB10_175
Ltmp438:
; %bb.79:                               ;   in Loop: Header=BB10_64 Depth=2
	;DEBUG_VALUE: unRLE_obuf_to_output_FAST:s <- $x19
	;DEBUG_VALUE: BZ2_bzDecompress:s <- $x19
	.loc	1 577 96 is_stmt 0              ; bzlib.c:577:96
	ldr	w0, [x10, x16, lsl  #2]
Ltmp439:
	;DEBUG_VALUE: unRLE_obuf_to_output_FAST:k1 <- [DW_OP_LLVM_convert 32 7, DW_OP_LLVM_convert 8 7, DW_OP_stack_value] undef
	.loc	1 577 150                       ; bzlib.c:577:150
	lsr	x14, x0, #8
	str	w14, [x19, #60]
	.loc	1 577 162                       ; bzlib.c:577:162
	cbnz	w17, LBB10_81
Ltmp440:
; %bb.80:                               ;   in Loop: Header=BB10_64 Depth=2
	;DEBUG_VALUE: unRLE_obuf_to_output_FAST:s <- $x19
	;DEBUG_VALUE: BZ2_bzDecompress:s <- $x19
	.loc	1 577 205                       ; bzlib.c:577:205
	ldrsw	x16, [x19, #28]
	.loc	1 577 192                       ; bzlib.c:577:192
	ldr	w17, [x27, x16, lsl  #2]
	.loc	1 577 221                       ; bzlib.c:577:221
	add	w1, w16, #1
	.loc	1 577 229                       ; bzlib.c:577:229
	cmp	w1, #512
	csinc	w16, wzr, w16, eq
	.loc	1 0 0                           ; bzlib.c:0:0
	str	w16, [x19, #28]
Ltmp441:
LBB10_81:                               ;   in Loop: Header=BB10_64 Depth=2
	;DEBUG_VALUE: unRLE_obuf_to_output_FAST:s <- $x19
	;DEBUG_VALUE: BZ2_bzDecompress:s <- $x19
	;DEBUG_VALUE: unRLE_obuf_to_output_FAST:k1 <- [DW_OP_LLVM_convert 32 7, DW_OP_LLVM_convert 8 7, DW_OP_stack_value] undef
	.loc	1 577 271                       ; bzlib.c:577:271
	sub	w16, w17, #1
	str	w16, [x19, #24]
Ltmp442:
	;DEBUG_VALUE: unRLE_obuf_to_output_FAST:k1 <- [DW_OP_LLVM_arg 0, DW_OP_LLVM_arg 0, DW_OP_LLVM_convert 1 7, DW_OP_LLVM_convert 32 7, DW_OP_xor, DW_OP_LLVM_convert 32 7, DW_OP_LLVM_convert 8 7, DW_OP_stack_value] undef
	.loc	1 578 58 is_stmt 1              ; bzlib.c:578:58
	add	w17, w9, #3
	str	w17, [x19, #1092]
	.loc	1 579 14                        ; bzlib.c:579:14
	cmp	w15, w12
	b.ne	LBB10_87
Ltmp443:
; %bb.82:                               ;   in Loop: Header=BB10_64 Depth=2
	;DEBUG_VALUE: unRLE_obuf_to_output_FAST:s <- $x19
	;DEBUG_VALUE: BZ2_bzDecompress:s <- $x19
	.loc	1 0 14 is_stmt 0                ; bzlib.c:0:14
	mov	w12, #3
	b	LBB10_63
Ltmp444:
LBB10_83:                               ;   in Loop: Header=BB10_64 Depth=2
	;DEBUG_VALUE: unRLE_obuf_to_output_FAST:s <- $x19
	;DEBUG_VALUE: BZ2_bzDecompress:s <- $x19
	.loc	1 574 35 is_stmt 1              ; bzlib.c:574:35
	str	w14, [x19, #64]
	mov	w12, #2
	b	LBB10_63
Ltmp445:
LBB10_84:                               ;   in Loop: Header=BB10_64 Depth=2
	;DEBUG_VALUE: unRLE_obuf_to_output_FAST:s <- $x19
	;DEBUG_VALUE: BZ2_bzDecompress:s <- $x19
	.loc	1 547 51                        ; bzlib.c:547:51
	ldrb	w9, [x19, #12]
	.loc	1 547 34 is_stmt 0              ; bzlib.c:547:34
	ldr	x8, [x8, #24]
	.loc	1 547 46                        ; bzlib.c:547:46
	strb	w9, [x8]
Ltmp446:
	.loc	1 548 43 is_stmt 1              ; bzlib.c:548:43
	ldr	w8, [x19, #3184]
	.loc	1 548 128 is_stmt 0             ; bzlib.c:548:128
	ldrb	w9, [x19, #12]
	.loc	1 548 115                       ; bzlib.c:548:115
	eor	w9, w9, w8, lsr #24
	.loc	1 548 70                        ; bzlib.c:548:70
	ldr	w9, [x25, w9, uxtw  #2]
	.loc	1 548 68                        ; bzlib.c:548:68
	eor	w8, w9, w8, lsl #8
	.loc	1 548 37                        ; bzlib.c:548:37
	str	w8, [x19, #3184]
Ltmp447:
	.loc	1 549 29 is_stmt 1              ; bzlib.c:549:29
	ldr	w8, [x19, #16]
	sub	w12, w8, #1
	str	w12, [x19, #16]
	.loc	1 550 16                        ; bzlib.c:550:16
	ldr	x8, [x19]
	.loc	1 550 30 is_stmt 0              ; bzlib.c:550:30
	ldr	x9, [x8, #24]
	add	x9, x9, #1
	str	x9, [x8, #24]
	.loc	1 551 31 is_stmt 1              ; bzlib.c:551:31
	ldp	w9, w10, [x8, #32]
	sub	w9, w9, #1
	.loc	1 552 36                        ; bzlib.c:552:36
	adds	w10, w10, #1
	.loc	1 551 31                        ; bzlib.c:551:31
	stp	w9, w10, [x8, #32]
	.loc	1 553 17                        ; bzlib.c:553:17
	b.lo	LBB10_86
Ltmp448:
; %bb.85:                               ;   in Loop: Header=BB10_64 Depth=2
	;DEBUG_VALUE: unRLE_obuf_to_output_FAST:s <- $x19
	;DEBUG_VALUE: BZ2_bzDecompress:s <- $x19
	.loc	1 553 70 is_stmt 0              ; bzlib.c:553:70
	ldr	w10, [x8, #40]
	add	w10, w10, #1
	str	w10, [x8, #40]
Ltmp449:
LBB10_86:                               ;   in Loop: Header=BB10_64 Depth=2
	;DEBUG_VALUE: unRLE_obuf_to_output_FAST:s <- $x19
	;DEBUG_VALUE: BZ2_bzDecompress:s <- $x19
	.loc	1 0 70                          ; bzlib.c:0:70
	cbnz	w9, LBB10_64
	b	LBB10_162
Ltmp450:
LBB10_87:                               ;   in Loop: Header=BB10_64 Depth=2
	;DEBUG_VALUE: unRLE_obuf_to_output_FAST:s <- $x19
	;DEBUG_VALUE: BZ2_bzDecompress:s <- $x19
	;DEBUG_VALUE: unRLE_obuf_to_output_FAST:k1 <- [DW_OP_LLVM_arg 0, DW_OP_LLVM_arg 1, DW_OP_LLVM_convert 1 7, DW_OP_LLVM_convert 32 7, DW_OP_xor, DW_OP_LLVM_convert 32 7, DW_OP_LLVM_convert 8 7, DW_OP_stack_value] undef, undef
	.loc	1 578 28 is_stmt 1              ; bzlib.c:578:28
	cmp	w16, #1
	cset	w12, eq
Ltmp451:
	;DEBUG_VALUE: unRLE_obuf_to_output_FAST:k1 <- [DW_OP_LLVM_arg 0, DW_OP_LLVM_arg 1, DW_OP_xor, DW_OP_stack_value] $w0, $w12
	.loc	1 580 14                        ; bzlib.c:580:14
	and	w15, w0, #0xff
	eor	w12, w15, w12
Ltmp452:
	.loc	1 580 14 is_stmt 0              ; bzlib.c:580:14
	cmp	w12, w13
	b.ne	LBB10_95
Ltmp453:
; %bb.88:                               ;   in Loop: Header=BB10_64 Depth=2
	;DEBUG_VALUE: unRLE_obuf_to_output_FAST:s <- $x19
	;DEBUG_VALUE: BZ2_bzDecompress:s <- $x19
	.loc	1 582 14 is_stmt 1              ; bzlib.c:582:14
	cmp	w14, w11
	b.hs	LBB10_175
Ltmp454:
; %bb.89:                               ;   in Loop: Header=BB10_64 Depth=2
	;DEBUG_VALUE: unRLE_obuf_to_output_FAST:s <- $x19
	;DEBUG_VALUE: BZ2_bzDecompress:s <- $x19
	.loc	1 582 96 is_stmt 0              ; bzlib.c:582:96
	ldr	w12, [x10, x14, lsl  #2]
Ltmp455:
	;DEBUG_VALUE: unRLE_obuf_to_output_FAST:k1 <- [DW_OP_LLVM_convert 32 7, DW_OP_LLVM_convert 8 7, DW_OP_stack_value] undef
	.loc	1 582 150                       ; bzlib.c:582:150
	lsr	x13, x12, #8
	str	w13, [x19, #60]
	.loc	1 582 162                       ; bzlib.c:582:162
	cbnz	w16, LBB10_91
Ltmp456:
; %bb.90:                               ;   in Loop: Header=BB10_64 Depth=2
	;DEBUG_VALUE: unRLE_obuf_to_output_FAST:s <- $x19
	;DEBUG_VALUE: BZ2_bzDecompress:s <- $x19
	.loc	1 582 205                       ; bzlib.c:582:205
	ldrsw	x14, [x19, #28]
	.loc	1 582 192                       ; bzlib.c:582:192
	ldr	w16, [x27, x14, lsl  #2]
	.loc	1 582 221                       ; bzlib.c:582:221
	add	w15, w14, #1
	.loc	1 582 229                       ; bzlib.c:582:229
	cmp	w15, #512
	csinc	w14, wzr, w14, eq
	.loc	1 0 0                           ; bzlib.c:0:0
	str	w14, [x19, #28]
Ltmp457:
LBB10_91:                               ;   in Loop: Header=BB10_64 Depth=2
	;DEBUG_VALUE: unRLE_obuf_to_output_FAST:s <- $x19
	;DEBUG_VALUE: BZ2_bzDecompress:s <- $x19
	;DEBUG_VALUE: unRLE_obuf_to_output_FAST:k1 <- [DW_OP_LLVM_convert 32 7, DW_OP_LLVM_convert 8 7, DW_OP_stack_value] $w12
	.loc	1 582 271                       ; bzlib.c:582:271
	sub	w14, w16, #1
	str	w14, [x19, #24]
	.loc	1 583 28 is_stmt 1              ; bzlib.c:583:28
	cmp	w14, #1
	cset	w15, eq
Ltmp458:
	;DEBUG_VALUE: unRLE_obuf_to_output_FAST:k1 <- [DW_OP_LLVM_arg 0, DW_OP_LLVM_arg 1, DW_OP_xor, DW_OP_LLVM_convert 32 7, DW_OP_LLVM_convert 8 7, DW_OP_stack_value] $w12, $w15
	.loc	1 583 58 is_stmt 0              ; bzlib.c:583:58
	add	w16, w9, #4
	str	w16, [x19, #1092]
	.loc	1 584 30 is_stmt 1              ; bzlib.c:584:30
	and	w12, w12, #0xff
Ltmp459:
	eor	w12, w12, w15
	.loc	1 584 41 is_stmt 0              ; bzlib.c:584:41
	add	w12, w12, #4
	.loc	1 584 27                        ; bzlib.c:584:27
	str	w12, [x19, #16]
	.loc	1 585 14 is_stmt 1              ; bzlib.c:585:14
	cmp	w13, w11
	b.hs	LBB10_175
Ltmp460:
; %bb.92:                               ;   in Loop: Header=BB10_64 Depth=2
	;DEBUG_VALUE: unRLE_obuf_to_output_FAST:s <- $x19
	;DEBUG_VALUE: BZ2_bzDecompress:s <- $x19
	.loc	1 585 96 is_stmt 0              ; bzlib.c:585:96
	ldr	w11, [x10, x13, lsl  #2]
	.loc	1 585 120                       ; bzlib.c:585:120
	and	w10, w11, #0xff
	.loc	1 585 153                       ; bzlib.c:585:153
	lsr	w11, w11, #8
	.loc	1 585 118                       ; bzlib.c:585:118
	stp	w11, w10, [x19, #60]
	.loc	1 585 165                       ; bzlib.c:585:165
	cbnz	w14, LBB10_94
Ltmp461:
; %bb.93:                               ;   in Loop: Header=BB10_64 Depth=2
	;DEBUG_VALUE: unRLE_obuf_to_output_FAST:s <- $x19
	;DEBUG_VALUE: BZ2_bzDecompress:s <- $x19
	.loc	1 585 208                       ; bzlib.c:585:208
	ldrsw	x11, [x19, #28]
	.loc	1 585 195                       ; bzlib.c:585:195
	ldr	w14, [x27, x11, lsl  #2]
	.loc	1 585 224                       ; bzlib.c:585:224
	add	w13, w11, #1
	.loc	1 585 232                       ; bzlib.c:585:232
	cmp	w13, #512
	csinc	w11, wzr, w11, eq
	.loc	1 0 0                           ; bzlib.c:0:0
	str	w11, [x19, #28]
Ltmp462:
LBB10_94:                               ;   in Loop: Header=BB10_64 Depth=2
	;DEBUG_VALUE: unRLE_obuf_to_output_FAST:s <- $x19
	;DEBUG_VALUE: BZ2_bzDecompress:s <- $x19
	.loc	1 585 274                       ; bzlib.c:585:274
	sub	w11, w14, #1
	str	w11, [x19, #24]
	.loc	1 586 31 is_stmt 1              ; bzlib.c:586:31
	cmp	w11, #1
	cset	w11, eq
	.loc	1 586 16 is_stmt 0              ; bzlib.c:586:16
	eor	w10, w10, w11
	str	w10, [x19, #64]
	.loc	1 586 61                        ; bzlib.c:586:61
	add	w9, w9, #5
	str	w9, [x19, #1092]
	b	LBB10_63
Ltmp463:
LBB10_95:                               ;   in Loop: Header=BB10_64 Depth=2
	;DEBUG_VALUE: unRLE_obuf_to_output_FAST:s <- $x19
	;DEBUG_VALUE: BZ2_bzDecompress:s <- $x19
	.loc	1 580 35 is_stmt 1              ; bzlib.c:580:35
	str	w12, [x19, #64]
	mov	w12, #3
	b	LBB10_63
Ltmp464:
LBB10_96:                               ; %.preheader353.i
                                        ;   in Loop: Header=BB10_6 Depth=1
	;DEBUG_VALUE: unRLE_obuf_to_output_SMALL:s <- $x19
	;DEBUG_VALUE: BZ2_bzDecompress:s <- $x19
	.loc	1 764 17                        ; bzlib.c:764:17
	cbz	w10, LBB10_162
Ltmp465:
; %bb.97:                               ; %.lr.ph366.lr.ph.i
                                        ;   in Loop: Header=BB10_6 Depth=1
	;DEBUG_VALUE: unRLE_obuf_to_output_SMALL:s <- $x19
	;DEBUG_VALUE: BZ2_bzDecompress:s <- $x19
	.loc	1 765 20                        ; bzlib.c:765:20
	ldr	w13, [x19, #16]
	b	LBB10_101
Ltmp466:
LBB10_98:                               ;   in Loop: Header=BB10_101 Depth=2
	;DEBUG_VALUE: unRLE_obuf_to_output_SMALL:s <- $x19
	;DEBUG_VALUE: BZ2_bzDecompress:s <- $x19
	.loc	1 786 35                        ; bzlib.c:786:35
	str	w16, [x19, #64]
Ltmp467:
LBB10_99:                               ; %.backedge.i
                                        ;   in Loop: Header=BB10_101 Depth=2
	;DEBUG_VALUE: unRLE_obuf_to_output_SMALL:s <- $x19
	;DEBUG_VALUE: BZ2_bzDecompress:s <- $x19
	.loc	1 0 35 is_stmt 0                ; bzlib.c:0:35
	mov	w13, #1
Ltmp468:
LBB10_100:                              ; %.backedge.i
                                        ;   in Loop: Header=BB10_101 Depth=2
	;DEBUG_VALUE: unRLE_obuf_to_output_SMALL:s <- $x19
	;DEBUG_VALUE: BZ2_bzDecompress:s <- $x19
	.loc	1 764 26 is_stmt 1              ; bzlib.c:764:26
	ldr	w9, [x8, #32]
Ltmp469:
	.loc	1 764 17 is_stmt 0              ; bzlib.c:764:17
	cbz	w9, LBB10_162
Ltmp470:
LBB10_101:                              ; %.lr.ph366.i
                                        ;   Parent Loop BB10_6 Depth=1
                                        ; =>  This Loop Header: Depth=2
                                        ;       Child Loop BB10_106 Depth 3
                                        ;       Child Loop BB10_111 Depth 3
                                        ;       Child Loop BB10_117 Depth 3
                                        ;       Child Loop BB10_127 Depth 3
                                        ;       Child Loop BB10_130 Depth 3
	;DEBUG_VALUE: unRLE_obuf_to_output_SMALL:s <- $x19
	;DEBUG_VALUE: BZ2_bzDecompress:s <- $x19
	.loc	1 765 17 is_stmt 1              ; bzlib.c:765:17
	cbnz	w13, LBB10_121
Ltmp471:
; %bb.102:                              ;   in Loop: Header=BB10_101 Depth=2
	;DEBUG_VALUE: unRLE_obuf_to_output_SMALL:s <- $x19
	;DEBUG_VALUE: BZ2_bzDecompress:s <- $x19
	.loc	1 776 17                        ; bzlib.c:776:17
	ldr	w9, [x19, #1092]
	.loc	1 776 35 is_stmt 0              ; bzlib.c:776:35
	ldr	w13, [x21]
	.loc	1 776 46                        ; bzlib.c:776:46
	add	w10, w13, #1
Ltmp472:
	.loc	1 776 14                        ; bzlib.c:776:14
	cmp	w9, w10
	b.eq	LBB10_162
Ltmp473:
; %bb.103:                              ;   in Loop: Header=BB10_101 Depth=2
	;DEBUG_VALUE: unRLE_obuf_to_output_SMALL:s <- $x19
	;DEBUG_VALUE: BZ2_bzDecompress:s <- $x19
	.loc	1 779 14 is_stmt 1              ; bzlib.c:779:14
	b.gt	LBB10_175
Ltmp474:
; %bb.104:                              ;   in Loop: Header=BB10_101 Depth=2
	;DEBUG_VALUE: unRLE_obuf_to_output_SMALL:s <- $x19
	;DEBUG_VALUE: BZ2_bzDecompress:s <- $x19
	.loc	1 782 27                        ; bzlib.c:782:27
	str	w26, [x19, #16]
	.loc	1 783 31                        ; bzlib.c:783:31
	ldp	w17, w14, [x19, #60]
	.loc	1 783 26 is_stmt 0              ; bzlib.c:783:26
	strb	w14, [x19, #12]
Ltmp475:
	.loc	1 784 53 is_stmt 1              ; bzlib.c:784:53
	ldr	w10, [x19, #40]
	.loc	1 784 40 is_stmt 0              ; bzlib.c:784:40
	mul	w12, w10, w24
Ltmp476:
	.loc	1 784 14                        ; bzlib.c:784:14
	cmp	w17, w12
	b.hs	LBB10_175
Ltmp477:
; %bb.105:                              ; %.preheader368.i.preheader
                                        ;   in Loop: Header=BB10_101 Depth=2
	;DEBUG_VALUE: unRLE_obuf_to_output_SMALL:s <- $x19
	;DEBUG_VALUE: BZ2_bzDecompress:s <- $x19
	.loc	1 0 14                          ; bzlib.c:0:14
	mov	w16, #0
	mov	w10, #256
Ltmp478:
LBB10_106:                              ; %.preheader368.i
                                        ;   Parent Loop BB10_6 Depth=1
                                        ;     Parent Loop BB10_101 Depth=2
                                        ; =>    This Inner Loop Header: Depth=3
	;DEBUG_VALUE: unRLE_obuf_to_output_SMALL:s <- $x19
	;DEBUG_VALUE: BZ2_bzDecompress:s <- $x19
	;DEBUG_VALUE: BZ2_indexIntoF:nb <- $w16
	;DEBUG_VALUE: BZ2_indexIntoF:na <- $w10
	.loc	1 693 17 is_stmt 1              ; bzlib.c:693:17
	add	w11, w16, w10
	.loc	1 693 23 is_stmt 0              ; bzlib.c:693:23
	asr	w11, w11, #1
Ltmp479:
	;DEBUG_VALUE: BZ2_indexIntoF:mid <- $w11
	.loc	1 694 19 is_stmt 1              ; bzlib.c:694:19
	ldr	w15, [x22, w11, sxtw  #2]
	cmp	w15, w17
	csel	w10, w11, w10, gt
Ltmp480:
	.loc	1 0 19 is_stmt 0                ; bzlib.c:0:19
	csel	w16, w16, w11, gt
Ltmp481:
	;DEBUG_VALUE: BZ2_indexIntoF:na <- $w10
	;DEBUG_VALUE: BZ2_indexIntoF:nb <- $w16
	.loc	1 696 14 is_stmt 1              ; bzlib.c:696:14
	sub	w11, w10, w16
Ltmp482:
	.loc	1 695 4                         ; bzlib.c:695:4
	cmp	w11, #1
	b.ne	LBB10_106
Ltmp483:
; %bb.107:                              ; %BZ2_indexIntoF.exit321.i
                                        ;   in Loop: Header=BB10_101 Depth=2
	;DEBUG_VALUE: unRLE_obuf_to_output_SMALL:s <- $x19
	;DEBUG_VALUE: BZ2_bzDecompress:s <- $x19
	;DEBUG_VALUE: unRLE_obuf_to_output_SMALL:k1 <- [DW_OP_LLVM_convert 32 7, DW_OP_LLVM_convert 8 7, DW_OP_stack_value] undef
	.loc	1 784 152                       ; bzlib.c:784:152
	ldr	x11, [x19, #3160]
	.loc	1 784 149 is_stmt 0             ; bzlib.c:784:149
	ldrh	w15, [x11, x17, lsl  #1]
	.loc	1 784 185                       ; bzlib.c:784:185
	ldr	x10, [x19, #3168]
	.loc	1 784 199                       ; bzlib.c:784:199
	lsr	x0, x17, #1
Ltmp484:
	;DEBUG_VALUE: BZ2_bzDecompress:strm <- [DW_OP_LLVM_entry_value 1] $x0
	.loc	1 784 182                       ; bzlib.c:784:182
	ldrb	w0, [x10, x0]
	.loc	1 784 222                       ; bzlib.c:784:222
	lsl	w17, w17, #2
	.loc	1 784 228                       ; bzlib.c:784:228
	and	x17, x17, #0x4
	.loc	1 784 207                       ; bzlib.c:784:207
	lsr	x17, x0, x17
	.loc	1 784 243                       ; bzlib.c:784:243
	lsl	w17, w17, #16
	and	x17, x17, #0xf0000
	.loc	1 784 167                       ; bzlib.c:784:167
	orr	x0, x17, x15
	.loc	1 784 137                       ; bzlib.c:784:137
	str	w0, [x19, #60]
	.loc	1 784 267                       ; bzlib.c:784:267
	add	w17, w9, #1
	str	w17, [x19, #1092]
	.loc	1 785 14 is_stmt 1              ; bzlib.c:785:14
	cmp	w9, w13
	b.eq	LBB10_99
Ltmp485:
; %bb.108:                              ;   in Loop: Header=BB10_101 Depth=2
	;DEBUG_VALUE: unRLE_obuf_to_output_SMALL:s <- $x19
	;DEBUG_VALUE: BZ2_bzDecompress:s <- $x19
	.loc	1 786 14                        ; bzlib.c:786:14
	and	w16, w16, #0xff
Ltmp486:
	;DEBUG_VALUE: unRLE_obuf_to_output_SMALL:k1 <- undef
	.loc	1 786 14 is_stmt 0              ; bzlib.c:786:14
	cmp	w16, w14
	b.ne	LBB10_98
Ltmp487:
; %bb.109:                              ;   in Loop: Header=BB10_101 Depth=2
	;DEBUG_VALUE: unRLE_obuf_to_output_SMALL:s <- $x19
	;DEBUG_VALUE: BZ2_bzDecompress:s <- $x19
	.loc	1 788 27 is_stmt 1              ; bzlib.c:788:27
	str	w28, [x19, #16]
	.loc	1 789 14                        ; bzlib.c:789:14
	cmp	w0, w12
	b.hs	LBB10_175
Ltmp488:
; %bb.110:                              ; %.preheader352.i.preheader
                                        ;   in Loop: Header=BB10_101 Depth=2
	;DEBUG_VALUE: unRLE_obuf_to_output_SMALL:s <- $x19
	;DEBUG_VALUE: BZ2_bzDecompress:s <- $x19
	.loc	1 0 14 is_stmt 0                ; bzlib.c:0:14
	mov	w1, #0
	mov	w16, #256
Ltmp489:
LBB10_111:                              ; %.preheader352.i
                                        ;   Parent Loop BB10_6 Depth=1
                                        ;     Parent Loop BB10_101 Depth=2
                                        ; =>    This Inner Loop Header: Depth=3
	;DEBUG_VALUE: unRLE_obuf_to_output_SMALL:s <- $x19
	;DEBUG_VALUE: BZ2_bzDecompress:s <- $x19
	;DEBUG_VALUE: BZ2_indexIntoF:nb <- $w1
	;DEBUG_VALUE: BZ2_indexIntoF:na <- $w16
	.loc	1 693 17 is_stmt 1              ; bzlib.c:693:17
	add	w2, w1, w16
	.loc	1 693 23 is_stmt 0              ; bzlib.c:693:23
	asr	w2, w2, #1
Ltmp490:
	;DEBUG_VALUE: BZ2_indexIntoF:mid <- $w2
	.loc	1 694 19 is_stmt 1              ; bzlib.c:694:19
	ldr	w3, [x22, w2, sxtw  #2]
	cmp	w3, w0
	csel	w16, w2, w16, gt
Ltmp491:
	.loc	1 0 19 is_stmt 0                ; bzlib.c:0:19
	csel	w1, w1, w2, gt
Ltmp492:
	;DEBUG_VALUE: BZ2_indexIntoF:na <- $w16
	;DEBUG_VALUE: BZ2_indexIntoF:nb <- $w1
	.loc	1 696 14 is_stmt 1              ; bzlib.c:696:14
	sub	w2, w16, w1
Ltmp493:
	.loc	1 695 4                         ; bzlib.c:695:4
	cmp	w2, #1
	b.ne	LBB10_111
Ltmp494:
; %bb.112:                              ; %BZ2_indexIntoF.exit328.i
                                        ;   in Loop: Header=BB10_101 Depth=2
	;DEBUG_VALUE: unRLE_obuf_to_output_SMALL:s <- $x19
	;DEBUG_VALUE: BZ2_bzDecompress:s <- $x19
	;DEBUG_VALUE: unRLE_obuf_to_output_SMALL:k1 <- [DW_OP_LLVM_convert 32 7, DW_OP_LLVM_convert 8 7, DW_OP_stack_value] undef
	.loc	1 789 149                       ; bzlib.c:789:149
	ldrh	w16, [x11, x0, lsl  #1]
	.loc	1 789 182 is_stmt 0             ; bzlib.c:789:182
	mov	w0, w0
	.loc	1 789 199                       ; bzlib.c:789:199
	lsr	x0, x0, #1
	.loc	1 789 182                       ; bzlib.c:789:182
	ldrb	w0, [x10, x0]
	.loc	1 789 222                       ; bzlib.c:789:222
	lsl	w15, w15, #2
	.loc	1 789 228                       ; bzlib.c:789:228
	and	x15, x15, #0x4
	.loc	1 789 207                       ; bzlib.c:789:207
	lsr	x15, x0, x15
	.loc	1 789 243                       ; bzlib.c:789:243
	lsl	w15, w15, #16
	and	x15, x15, #0xf0000
	.loc	1 789 167                       ; bzlib.c:789:167
	orr	x2, x15, x16
	.loc	1 789 137                       ; bzlib.c:789:137
	str	w2, [x19, #60]
	.loc	1 789 267                       ; bzlib.c:789:267
	add	w0, w9, #2
	str	w0, [x19, #1092]
	.loc	1 790 14 is_stmt 1              ; bzlib.c:790:14
	cmp	w17, w13
	b.ne	LBB10_114
Ltmp495:
; %bb.113:                              ;   in Loop: Header=BB10_101 Depth=2
	;DEBUG_VALUE: unRLE_obuf_to_output_SMALL:s <- $x19
	;DEBUG_VALUE: BZ2_bzDecompress:s <- $x19
	.loc	1 0 14 is_stmt 0                ; bzlib.c:0:14
	mov	w13, #2
	b	LBB10_100
Ltmp496:
LBB10_114:                              ;   in Loop: Header=BB10_101 Depth=2
	;DEBUG_VALUE: unRLE_obuf_to_output_SMALL:s <- $x19
	;DEBUG_VALUE: BZ2_bzDecompress:s <- $x19
	.loc	1 791 14 is_stmt 1              ; bzlib.c:791:14
	and	w15, w1, #0xff
Ltmp497:
	;DEBUG_VALUE: unRLE_obuf_to_output_SMALL:k1 <- undef
	.loc	1 791 14 is_stmt 0              ; bzlib.c:791:14
	cmp	w15, w14
	b.ne	LBB10_120
Ltmp498:
; %bb.115:                              ;   in Loop: Header=BB10_101 Depth=2
	;DEBUG_VALUE: unRLE_obuf_to_output_SMALL:s <- $x19
	;DEBUG_VALUE: BZ2_bzDecompress:s <- $x19
	.loc	1 793 27 is_stmt 1              ; bzlib.c:793:27
	mov	w15, #3
	str	w15, [x19, #16]
	.loc	1 794 14                        ; bzlib.c:794:14
	cmp	w2, w12
	b.hs	LBB10_175
Ltmp499:
; %bb.116:                              ; %.preheader351.i.preheader
                                        ;   in Loop: Header=BB10_101 Depth=2
	;DEBUG_VALUE: unRLE_obuf_to_output_SMALL:s <- $x19
	;DEBUG_VALUE: BZ2_bzDecompress:s <- $x19
	.loc	1 0 14 is_stmt 0                ; bzlib.c:0:14
	mov	w17, #0
	mov	w15, #256
Ltmp500:
LBB10_117:                              ; %.preheader351.i
                                        ;   Parent Loop BB10_6 Depth=1
                                        ;     Parent Loop BB10_101 Depth=2
                                        ; =>    This Inner Loop Header: Depth=3
	;DEBUG_VALUE: unRLE_obuf_to_output_SMALL:s <- $x19
	;DEBUG_VALUE: BZ2_bzDecompress:s <- $x19
	;DEBUG_VALUE: BZ2_indexIntoF:nb <- $w17
	;DEBUG_VALUE: BZ2_indexIntoF:na <- $w15
	.loc	1 693 17 is_stmt 1              ; bzlib.c:693:17
	add	w1, w17, w15
	.loc	1 693 23 is_stmt 0              ; bzlib.c:693:23
	asr	w1, w1, #1
Ltmp501:
	;DEBUG_VALUE: BZ2_indexIntoF:mid <- $w1
	.loc	1 694 19 is_stmt 1              ; bzlib.c:694:19
	ldr	w3, [x22, w1, sxtw  #2]
	cmp	w3, w2
	csel	w15, w1, w15, gt
Ltmp502:
	.loc	1 0 19 is_stmt 0                ; bzlib.c:0:19
	csel	w17, w17, w1, gt
Ltmp503:
	;DEBUG_VALUE: BZ2_indexIntoF:na <- $w15
	;DEBUG_VALUE: BZ2_indexIntoF:nb <- $w17
	.loc	1 696 14 is_stmt 1              ; bzlib.c:696:14
	sub	w1, w15, w17
Ltmp504:
	.loc	1 695 4                         ; bzlib.c:695:4
	cmp	w1, #1
	b.ne	LBB10_117
Ltmp505:
; %bb.118:                              ; %BZ2_indexIntoF.exit335.i
                                        ;   in Loop: Header=BB10_101 Depth=2
	;DEBUG_VALUE: unRLE_obuf_to_output_SMALL:s <- $x19
	;DEBUG_VALUE: BZ2_bzDecompress:s <- $x19
	;DEBUG_VALUE: unRLE_obuf_to_output_SMALL:k1 <- [DW_OP_LLVM_convert 32 7, DW_OP_LLVM_convert 8 7, DW_OP_stack_value] undef
	.loc	1 794 149                       ; bzlib.c:794:149
	ldrh	w15, [x11, x2, lsl  #1]
	.loc	1 794 182 is_stmt 0             ; bzlib.c:794:182
	mov	w1, w2
	.loc	1 794 199                       ; bzlib.c:794:199
	lsr	x1, x1, #1
	.loc	1 794 182                       ; bzlib.c:794:182
	ldrb	w1, [x10, x1]
	.loc	1 794 222                       ; bzlib.c:794:222
	lsl	w16, w16, #2
	.loc	1 794 228                       ; bzlib.c:794:228
	and	x16, x16, #0x4
	.loc	1 794 207                       ; bzlib.c:794:207
	lsr	x16, x1, x16
	.loc	1 794 243                       ; bzlib.c:794:243
	lsl	w16, w16, #16
	and	x16, x16, #0xf0000
	.loc	1 794 167                       ; bzlib.c:794:167
	orr	x16, x16, x15
	.loc	1 794 137                       ; bzlib.c:794:137
	str	w16, [x19, #60]
	.loc	1 794 267                       ; bzlib.c:794:267
	add	w1, w9, #3
	str	w1, [x19, #1092]
	.loc	1 795 14 is_stmt 1              ; bzlib.c:795:14
	cmp	w0, w13
	b.ne	LBB10_124
Ltmp506:
; %bb.119:                              ;   in Loop: Header=BB10_101 Depth=2
	;DEBUG_VALUE: unRLE_obuf_to_output_SMALL:s <- $x19
	;DEBUG_VALUE: BZ2_bzDecompress:s <- $x19
	.loc	1 0 14 is_stmt 0                ; bzlib.c:0:14
	mov	w13, #3
	b	LBB10_100
Ltmp507:
LBB10_120:                              ;   in Loop: Header=BB10_101 Depth=2
	;DEBUG_VALUE: unRLE_obuf_to_output_SMALL:s <- $x19
	;DEBUG_VALUE: BZ2_bzDecompress:s <- $x19
	.loc	1 791 35 is_stmt 1              ; bzlib.c:791:35
	str	w15, [x19, #64]
	mov	w13, #2
	b	LBB10_100
Ltmp508:
LBB10_121:                              ;   in Loop: Header=BB10_101 Depth=2
	;DEBUG_VALUE: unRLE_obuf_to_output_SMALL:s <- $x19
	;DEBUG_VALUE: BZ2_bzDecompress:s <- $x19
	.loc	1 766 51                        ; bzlib.c:766:51
	ldrb	w9, [x19, #12]
	.loc	1 766 34 is_stmt 0              ; bzlib.c:766:34
	ldr	x8, [x8, #24]
	.loc	1 766 46                        ; bzlib.c:766:46
	strb	w9, [x8]
Ltmp509:
	.loc	1 767 43 is_stmt 1              ; bzlib.c:767:43
	ldr	w8, [x19, #3184]
	.loc	1 767 128 is_stmt 0             ; bzlib.c:767:128
	ldrb	w9, [x19, #12]
	.loc	1 767 115                       ; bzlib.c:767:115
	eor	w9, w9, w8, lsr #24
	.loc	1 767 70                        ; bzlib.c:767:70
	ldr	w9, [x25, w9, uxtw  #2]
	.loc	1 767 68                        ; bzlib.c:767:68
	eor	w8, w9, w8, lsl #8
	.loc	1 767 37                        ; bzlib.c:767:37
	str	w8, [x19, #3184]
Ltmp510:
	.loc	1 768 29 is_stmt 1              ; bzlib.c:768:29
	ldr	w8, [x19, #16]
	sub	w13, w8, #1
	str	w13, [x19, #16]
	.loc	1 769 16                        ; bzlib.c:769:16
	ldr	x8, [x19]
	.loc	1 769 30 is_stmt 0              ; bzlib.c:769:30
	ldr	x9, [x8, #24]
	add	x9, x9, #1
	str	x9, [x8, #24]
	.loc	1 770 31 is_stmt 1              ; bzlib.c:770:31
	ldp	w9, w10, [x8, #32]
	sub	w9, w9, #1
	.loc	1 771 36                        ; bzlib.c:771:36
	adds	w10, w10, #1
	.loc	1 770 31                        ; bzlib.c:770:31
	stp	w9, w10, [x8, #32]
	.loc	1 772 17                        ; bzlib.c:772:17
	b.lo	LBB10_123
Ltmp511:
; %bb.122:                              ;   in Loop: Header=BB10_101 Depth=2
	;DEBUG_VALUE: unRLE_obuf_to_output_SMALL:s <- $x19
	;DEBUG_VALUE: BZ2_bzDecompress:s <- $x19
	.loc	1 772 70 is_stmt 0              ; bzlib.c:772:70
	ldr	w10, [x8, #40]
	add	w10, w10, #1
	str	w10, [x8, #40]
Ltmp512:
LBB10_123:                              ;   in Loop: Header=BB10_101 Depth=2
	;DEBUG_VALUE: unRLE_obuf_to_output_SMALL:s <- $x19
	;DEBUG_VALUE: BZ2_bzDecompress:s <- $x19
	.loc	1 0 70                          ; bzlib.c:0:70
	cbnz	w9, LBB10_101
	b	LBB10_162
Ltmp513:
LBB10_124:                              ;   in Loop: Header=BB10_101 Depth=2
	;DEBUG_VALUE: unRLE_obuf_to_output_SMALL:s <- $x19
	;DEBUG_VALUE: BZ2_bzDecompress:s <- $x19
	.loc	1 796 14 is_stmt 1              ; bzlib.c:796:14
	and	w13, w17, #0xff
Ltmp514:
	;DEBUG_VALUE: unRLE_obuf_to_output_SMALL:k1 <- undef
	.loc	1 796 14 is_stmt 0              ; bzlib.c:796:14
	cmp	w13, w14
	b.ne	LBB10_132
Ltmp515:
; %bb.125:                              ;   in Loop: Header=BB10_101 Depth=2
	;DEBUG_VALUE: unRLE_obuf_to_output_SMALL:s <- $x19
	;DEBUG_VALUE: BZ2_bzDecompress:s <- $x19
	.loc	1 798 14 is_stmt 1              ; bzlib.c:798:14
	cmp	w16, w12
	b.hs	LBB10_175
Ltmp516:
; %bb.126:                              ; %.preheader350.i.preheader
                                        ;   in Loop: Header=BB10_101 Depth=2
	;DEBUG_VALUE: unRLE_obuf_to_output_SMALL:s <- $x19
	;DEBUG_VALUE: BZ2_bzDecompress:s <- $x19
	.loc	1 0 14 is_stmt 0                ; bzlib.c:0:14
	mov	w13, #0
	mov	w14, #256
Ltmp517:
LBB10_127:                              ; %.preheader350.i
                                        ;   Parent Loop BB10_6 Depth=1
                                        ;     Parent Loop BB10_101 Depth=2
                                        ; =>    This Inner Loop Header: Depth=3
	;DEBUG_VALUE: unRLE_obuf_to_output_SMALL:s <- $x19
	;DEBUG_VALUE: BZ2_bzDecompress:s <- $x19
	;DEBUG_VALUE: BZ2_indexIntoF:nb <- $w13
	;DEBUG_VALUE: BZ2_indexIntoF:na <- $w14
	.loc	1 693 17 is_stmt 1              ; bzlib.c:693:17
	add	w17, w13, w14
	.loc	1 693 23 is_stmt 0              ; bzlib.c:693:23
	asr	w17, w17, #1
Ltmp518:
	;DEBUG_VALUE: BZ2_indexIntoF:mid <- $w17
	.loc	1 694 19 is_stmt 1              ; bzlib.c:694:19
	ldr	w0, [x22, w17, sxtw  #2]
	cmp	w0, w16
	csel	w14, w17, w14, gt
Ltmp519:
	.loc	1 0 19 is_stmt 0                ; bzlib.c:0:19
	csel	w13, w13, w17, gt
Ltmp520:
	;DEBUG_VALUE: BZ2_indexIntoF:na <- $w14
	;DEBUG_VALUE: BZ2_indexIntoF:nb <- $w13
	.loc	1 696 14 is_stmt 1              ; bzlib.c:696:14
	sub	w17, w14, w13
Ltmp521:
	.loc	1 695 4                         ; bzlib.c:695:4
	cmp	w17, #1
	b.ne	LBB10_127
Ltmp522:
; %bb.128:                              ; %BZ2_indexIntoF.exit342.i
                                        ;   in Loop: Header=BB10_101 Depth=2
	;DEBUG_VALUE: unRLE_obuf_to_output_SMALL:s <- $x19
	;DEBUG_VALUE: BZ2_bzDecompress:s <- $x19
	;DEBUG_VALUE: unRLE_obuf_to_output_SMALL:k1 <- [DW_OP_LLVM_convert 32 7, DW_OP_LLVM_convert 8 7, DW_OP_stack_value] undef
	.loc	1 798 149                       ; bzlib.c:798:149
	ldrh	w14, [x11, x16, lsl  #1]
	.loc	1 798 182 is_stmt 0             ; bzlib.c:798:182
	mov	w16, w16
	.loc	1 798 199                       ; bzlib.c:798:199
	lsr	x16, x16, #1
	.loc	1 798 182                       ; bzlib.c:798:182
	ldrb	w16, [x10, x16]
	.loc	1 798 222                       ; bzlib.c:798:222
	lsl	w15, w15, #2
	.loc	1 798 228                       ; bzlib.c:798:228
	and	x15, x15, #0x4
	.loc	1 798 207                       ; bzlib.c:798:207
	lsr	x15, x16, x15
	.loc	1 798 243                       ; bzlib.c:798:243
	lsl	w15, w15, #16
	and	x15, x15, #0xf0000
	.loc	1 798 167                       ; bzlib.c:798:167
	orr	x15, x15, x14
	.loc	1 798 137                       ; bzlib.c:798:137
	str	w15, [x19, #60]
	.loc	1 798 267                       ; bzlib.c:798:267
	add	w16, w9, #4
	str	w16, [x19, #1092]
	.loc	1 799 30 is_stmt 1              ; bzlib.c:799:30
	and	w13, w13, #0xff
	.loc	1 799 41 is_stmt 0              ; bzlib.c:799:41
	add	w13, w13, #4
	.loc	1 799 27                        ; bzlib.c:799:27
	str	w13, [x19, #16]
	.loc	1 800 14 is_stmt 1              ; bzlib.c:800:14
	cmp	w15, w12
	b.hs	LBB10_175
Ltmp523:
; %bb.129:                              ; %.preheader.i.preheader
                                        ;   in Loop: Header=BB10_101 Depth=2
	;DEBUG_VALUE: unRLE_obuf_to_output_SMALL:s <- $x19
	;DEBUG_VALUE: BZ2_bzDecompress:s <- $x19
	.loc	1 0 14 is_stmt 0                ; bzlib.c:0:14
	mov	w12, #0
	mov	w16, #256
Ltmp524:
LBB10_130:                              ; %.preheader.i
                                        ;   Parent Loop BB10_6 Depth=1
                                        ;     Parent Loop BB10_101 Depth=2
                                        ; =>    This Inner Loop Header: Depth=3
	;DEBUG_VALUE: unRLE_obuf_to_output_SMALL:s <- $x19
	;DEBUG_VALUE: BZ2_bzDecompress:s <- $x19
	;DEBUG_VALUE: BZ2_indexIntoF:nb <- $w12
	;DEBUG_VALUE: BZ2_indexIntoF:na <- $w16
	.loc	1 693 17 is_stmt 1              ; bzlib.c:693:17
	add	w17, w12, w16
	.loc	1 693 23 is_stmt 0              ; bzlib.c:693:23
	asr	w17, w17, #1
Ltmp525:
	;DEBUG_VALUE: BZ2_indexIntoF:mid <- $w17
	.loc	1 694 19 is_stmt 1              ; bzlib.c:694:19
	ldr	w0, [x22, w17, sxtw  #2]
	cmp	w0, w15
	csel	w16, w17, w16, gt
Ltmp526:
	.loc	1 0 19 is_stmt 0                ; bzlib.c:0:19
	csel	w12, w12, w17, gt
Ltmp527:
	;DEBUG_VALUE: BZ2_indexIntoF:na <- $w16
	;DEBUG_VALUE: BZ2_indexIntoF:nb <- $w12
	.loc	1 696 14 is_stmt 1              ; bzlib.c:696:14
	sub	w17, w16, w12
Ltmp528:
	.loc	1 695 4                         ; bzlib.c:695:4
	cmp	w17, #1
	b.ne	LBB10_130
Ltmp529:
; %bb.131:                              ; %BZ2_indexIntoF.exit349.i
                                        ;   in Loop: Header=BB10_101 Depth=2
	;DEBUG_VALUE: unRLE_obuf_to_output_SMALL:s <- $x19
	;DEBUG_VALUE: BZ2_bzDecompress:s <- $x19
	.loc	1 800 92                        ; bzlib.c:800:92
	str	w12, [x19, #64]
	.loc	1 800 152 is_stmt 0             ; bzlib.c:800:152
	ldrh	w11, [x11, x15, lsl  #1]
	.loc	1 800 185                       ; bzlib.c:800:185
	mov	w12, w15
	.loc	1 800 202                       ; bzlib.c:800:202
	lsr	x12, x12, #1
	.loc	1 800 185                       ; bzlib.c:800:185
	ldrb	w10, [x10, x12]
	.loc	1 800 231                       ; bzlib.c:800:231
	ubfiz	w12, w14, #2, #1
	.loc	1 800 210                       ; bzlib.c:800:210
	lsr	w10, w10, w12
	.loc	1 800 170                       ; bzlib.c:800:170
	bfi	w11, w10, #16, #4
	.loc	1 800 140                       ; bzlib.c:800:140
	str	w11, [x19, #60]
	.loc	1 800 270                       ; bzlib.c:800:270
	add	w9, w9, #5
	str	w9, [x19, #1092]
	b	LBB10_100
Ltmp530:
LBB10_132:                              ;   in Loop: Header=BB10_101 Depth=2
	;DEBUG_VALUE: unRLE_obuf_to_output_SMALL:s <- $x19
	;DEBUG_VALUE: BZ2_bzDecompress:s <- $x19
	.loc	1 796 35 is_stmt 1              ; bzlib.c:796:35
	str	w13, [x19, #64]
	mov	w13, #3
	b	LBB10_100
Ltmp531:
LBB10_133:                              ;   in Loop: Header=BB10_6 Depth=1
	;DEBUG_VALUE: unRLE_obuf_to_output_FAST:s <- $x19
	;DEBUG_VALUE: BZ2_bzDecompress:s <- $x19
	.loc	1 592 40                        ; bzlib.c:592:40
	ldr	w8, [x19, #3184]
Ltmp532:
	;DEBUG_VALUE: c_calculatedBlockCRC <- $w8
	.loc	1 593 33                        ; bzlib.c:593:33
	ldrb	w10, [x19, #12]
Ltmp533:
	;DEBUG_VALUE: c_state_out_ch <- undef
	.loc	1 594 34                        ; bzlib.c:594:34
	ldr	w2, [x19, #16]
Ltmp534:
	;DEBUG_VALUE: c_state_out_len <- $w2
	.loc	1 595 32                        ; bzlib.c:595:32
	ldr	w1, [x19, #1092]
Ltmp535:
	;DEBUG_VALUE: c_nblock_used <- $w1
	.loc	1 597 25                        ; bzlib.c:597:25
	ldr	x9, [x19, #3152]
Ltmp536:
	;DEBUG_VALUE: c_tt <- $x9
	.loc	1 596 23                        ; bzlib.c:596:23
	ldp	w14, w0, [x19, #60]
Ltmp537:
	;DEBUG_VALUE: BZ2_bzDecompress:strm <- [DW_OP_LLVM_entry_value 1] $x0
	;DEBUG_VALUE: c_k0 <- $w0
	;DEBUG_VALUE: c_tPos <- $w14
	.loc	1 599 30                        ; bzlib.c:599:30
	ldr	x12, [x19]
	.loc	1 599 36 is_stmt 0              ; bzlib.c:599:36
	ldr	x11, [x12, #24]
Ltmp538:
	;DEBUG_VALUE: cs_next_out <- $x11
	.loc	1 600 44 is_stmt 1              ; bzlib.c:600:44
	ldr	w12, [x12, #32]
Ltmp539:
	;DEBUG_VALUE: cs_avail_out <- $w12
	.loc	1 601 35                        ; bzlib.c:601:35
	ldr	w13, [x19, #40]
Ltmp540:
	;DEBUG_VALUE: avail_out_INIT <- $w12
	;DEBUG_VALUE: ro_blockSize100k <- $w13
	.loc	1 605 34                        ; bzlib.c:605:34
	ldr	w16, [x21]
	.loc	1 605 45 is_stmt 0              ; bzlib.c:605:45
	add	w15, w16, #1
Ltmp541:
	;DEBUG_VALUE: s_save_nblockPP <- $w15
	.loc	1 0 45                          ; bzlib.c:0:45
	mul	w17, w13, w24
	mov	x13, x12
Ltmp542:
LBB10_134:                              ; %.backedge.i61
                                        ;   Parent Loop BB10_6 Depth=1
                                        ; =>  This Loop Header: Depth=2
                                        ;       Child Loop BB10_137 Depth 3
	;DEBUG_VALUE: s_save_nblockPP <- $w15
	;DEBUG_VALUE: avail_out_INIT <- $w12
	;DEBUG_VALUE: cs_next_out <- $x11
	;DEBUG_VALUE: c_tt <- $x9
	;DEBUG_VALUE: c_calculatedBlockCRC <- $w8
	;DEBUG_VALUE: unRLE_obuf_to_output_FAST:s <- $x19
	;DEBUG_VALUE: BZ2_bzDecompress:s <- $x19
	;DEBUG_VALUE: c_calculatedBlockCRC <- $w8
	;DEBUG_VALUE: c_state_out_ch <- $w10
	;DEBUG_VALUE: c_state_out_len <- $w2
	;DEBUG_VALUE: c_nblock_used <- $w1
	;DEBUG_VALUE: c_k0 <- $w0
	;DEBUG_VALUE: c_tPos <- $w14
	;DEBUG_VALUE: cs_next_out <- $x11
	;DEBUG_VALUE: cs_avail_out <- $w13
	.loc	1 611 14 is_stmt 1              ; bzlib.c:611:14
	cmp	w2, #1
	b.lt	LBB10_142
Ltmp543:
; %bb.135:                              ; %.preheader.i60
                                        ;   in Loop: Header=BB10_134 Depth=2
	;DEBUG_VALUE: cs_avail_out <- $w13
	;DEBUG_VALUE: c_state_out_ch <- $w10
	;DEBUG_VALUE: s_save_nblockPP <- $w15
	;DEBUG_VALUE: avail_out_INIT <- $w12
	;DEBUG_VALUE: cs_next_out <- $x11
	;DEBUG_VALUE: c_tPos <- $w14
	;DEBUG_VALUE: c_k0 <- $w0
	;DEBUG_VALUE: c_tt <- $x9
	;DEBUG_VALUE: c_nblock_used <- $w1
	;DEBUG_VALUE: c_state_out_len <- $w2
	;DEBUG_VALUE: c_calculatedBlockCRC <- $w8
	;DEBUG_VALUE: unRLE_obuf_to_output_FAST:s <- $x19
	;DEBUG_VALUE: BZ2_bzDecompress:s <- $x19
	;DEBUG_VALUE: c_calculatedBlockCRC <- $w8
	;DEBUG_VALUE: c_state_out_len <- $w2
	;DEBUG_VALUE: cs_next_out <- $x11
	;DEBUG_VALUE: cs_avail_out <- $w13
	.loc	1 613 20                        ; bzlib.c:613:20
	cbz	w13, LBB10_159
Ltmp544:
; %bb.136:                              ; %.lr.ph346.i
                                        ;   in Loop: Header=BB10_134 Depth=2
	;DEBUG_VALUE: cs_avail_out <- $w13
	;DEBUG_VALUE: c_state_out_ch <- $w10
	;DEBUG_VALUE: s_save_nblockPP <- $w15
	;DEBUG_VALUE: avail_out_INIT <- $w12
	;DEBUG_VALUE: cs_next_out <- $x11
	;DEBUG_VALUE: c_tPos <- $w14
	;DEBUG_VALUE: c_k0 <- $w0
	;DEBUG_VALUE: c_tt <- $x9
	;DEBUG_VALUE: c_nblock_used <- $w1
	;DEBUG_VALUE: c_state_out_len <- $w2
	;DEBUG_VALUE: c_calculatedBlockCRC <- $w8
	;DEBUG_VALUE: unRLE_obuf_to_output_FAST:s <- $x19
	;DEBUG_VALUE: BZ2_bzDecompress:s <- $x19
	.loc	1 0 20 is_stmt 0                ; bzlib.c:0:20
	mov	x3, #0
	.loc	1 613 20                        ; bzlib.c:613:20
	mov	w4, w13
	mov	w5, w2
	sub	x5, x5, #1
Ltmp545:
LBB10_137:                              ;   Parent Loop BB10_6 Depth=1
                                        ;     Parent Loop BB10_134 Depth=2
                                        ; =>    This Inner Loop Header: Depth=3
	;DEBUG_VALUE: c_state_out_ch <- $w10
	;DEBUG_VALUE: s_save_nblockPP <- $w15
	;DEBUG_VALUE: avail_out_INIT <- $w12
	;DEBUG_VALUE: c_tPos <- $w14
	;DEBUG_VALUE: c_k0 <- $w0
	;DEBUG_VALUE: c_tt <- $x9
	;DEBUG_VALUE: c_nblock_used <- $w1
	;DEBUG_VALUE: c_calculatedBlockCRC <- $w8
	;DEBUG_VALUE: unRLE_obuf_to_output_FAST:s <- $x19
	;DEBUG_VALUE: BZ2_bzDecompress:s <- $x19
	;DEBUG_VALUE: c_calculatedBlockCRC <- $w8
	;DEBUG_VALUE: c_state_out_len <- [DW_OP_LLVM_arg 0, DW_OP_consts 18446744073709551615, DW_OP_mul, DW_OP_LLVM_arg 1, DW_OP_plus, DW_OP_stack_value] $x3, $w2
	;DEBUG_VALUE: cs_next_out <- [DW_OP_LLVM_arg 0, DW_OP_LLVM_arg 1, DW_OP_plus, DW_OP_stack_value] $x3, $x11
	;DEBUG_VALUE: cs_avail_out <- [DW_OP_LLVM_arg 0, DW_OP_consts 18446744073709551615, DW_OP_mul, DW_OP_LLVM_arg 1, DW_OP_plus, DW_OP_stack_value] $x3, $w13
	.loc	1 614 20 is_stmt 1              ; bzlib.c:614:20
	cmp	w5, w3
	b.eq	LBB10_139
Ltmp546:
; %bb.138:                              ;   in Loop: Header=BB10_137 Depth=3
	;DEBUG_VALUE: cs_avail_out <- [DW_OP_LLVM_arg 0, DW_OP_consts 18446744073709551615, DW_OP_mul, DW_OP_LLVM_arg 1, DW_OP_plus, DW_OP_stack_value] $x3, $w13
	;DEBUG_VALUE: cs_next_out <- [DW_OP_LLVM_arg 0, DW_OP_LLVM_arg 1, DW_OP_plus, DW_OP_stack_value] $x3, $x11
	;DEBUG_VALUE: c_state_out_len <- [DW_OP_LLVM_arg 0, DW_OP_consts 18446744073709551615, DW_OP_mul, DW_OP_LLVM_arg 1, DW_OP_plus, DW_OP_stack_value] $x3, $w2
	;DEBUG_VALUE: c_state_out_ch <- $w10
	;DEBUG_VALUE: s_save_nblockPP <- $w15
	;DEBUG_VALUE: avail_out_INIT <- $w12
	;DEBUG_VALUE: c_tPos <- $w14
	;DEBUG_VALUE: c_k0 <- $w0
	;DEBUG_VALUE: c_tt <- $x9
	;DEBUG_VALUE: c_nblock_used <- $w1
	;DEBUG_VALUE: c_calculatedBlockCRC <- $w8
	;DEBUG_VALUE: unRLE_obuf_to_output_FAST:s <- $x19
	;DEBUG_VALUE: BZ2_bzDecompress:s <- $x19
	.loc	1 615 43                        ; bzlib.c:615:43
	strb	w10, [x11, x3]
Ltmp547:
	.loc	1 616 115                       ; bzlib.c:616:115
	eor	w6, w10, w8, lsr #24
	.loc	1 616 71 is_stmt 0              ; bzlib.c:616:71
	ldr	w6, [x25, w6, uxtw  #2]
	.loc	1 616 69                        ; bzlib.c:616:69
	eor	w8, w6, w8, lsl #8
Ltmp548:
	;DEBUG_VALUE: cs_avail_out <- [DW_OP_LLVM_arg 0, DW_OP_consts 18446744073709551615, DW_OP_mul, DW_OP_consts 18446744073709551615, DW_OP_LLVM_arg 1, DW_OP_plus, DW_OP_plus, DW_OP_stack_value] $x3, $w13
	;DEBUG_VALUE: cs_next_out <- [DW_OP_LLVM_arg 0, DW_OP_consts 1, DW_OP_LLVM_arg 1, DW_OP_plus, DW_OP_plus, DW_OP_stack_value] $x3, $x11
	;DEBUG_VALUE: c_state_out_len <- [DW_OP_LLVM_arg 0, DW_OP_consts 18446744073709551615, DW_OP_mul, DW_OP_consts 18446744073709551615, DW_OP_LLVM_arg 1, DW_OP_plus, DW_OP_plus, DW_OP_stack_value] $x3, $w2
	;DEBUG_VALUE: c_calculatedBlockCRC <- $w8
	.loc	1 613 33 is_stmt 1              ; bzlib.c:613:33
	add	x3, x3, #1
Ltmp549:
	.loc	1 613 20 is_stmt 0              ; bzlib.c:613:20
	cmp	w4, w3
	b.ne	LBB10_137
	b	LBB10_158
Ltmp550:
LBB10_139:                              ; %.loopexit323.i.loopexit
                                        ;   in Loop: Header=BB10_134 Depth=2
	;DEBUG_VALUE: cs_avail_out <- [DW_OP_LLVM_arg 0, DW_OP_consts 18446744073709551615, DW_OP_mul, DW_OP_LLVM_arg 1, DW_OP_plus, DW_OP_stack_value] $x3, $w13
	;DEBUG_VALUE: cs_next_out <- [DW_OP_LLVM_arg 0, DW_OP_LLVM_arg 1, DW_OP_plus, DW_OP_stack_value] $x3, $x11
	;DEBUG_VALUE: c_state_out_len <- [DW_OP_LLVM_arg 0, DW_OP_consts 18446744073709551615, DW_OP_mul, DW_OP_LLVM_arg 1, DW_OP_plus, DW_OP_stack_value] $x3, $w2
	;DEBUG_VALUE: c_state_out_ch <- $w10
	;DEBUG_VALUE: s_save_nblockPP <- $w15
	;DEBUG_VALUE: avail_out_INIT <- $w12
	;DEBUG_VALUE: c_tPos <- $w14
	;DEBUG_VALUE: c_k0 <- $w0
	;DEBUG_VALUE: c_tt <- $x9
	;DEBUG_VALUE: c_nblock_used <- $w1
	;DEBUG_VALUE: c_calculatedBlockCRC <- $w8
	;DEBUG_VALUE: unRLE_obuf_to_output_FAST:s <- $x19
	;DEBUG_VALUE: BZ2_bzDecompress:s <- $x19
	.loc	1 623 33 is_stmt 1              ; bzlib.c:623:33
	sub	w13, w13, w3
Ltmp551:
	add	x11, x11, x3
Ltmp552:
LBB10_140:                              ; %.loopexit323.i
                                        ;   in Loop: Header=BB10_134 Depth=2
	;DEBUG_VALUE: c_state_out_ch <- $w10
	;DEBUG_VALUE: s_save_nblockPP <- $w15
	;DEBUG_VALUE: avail_out_INIT <- $w12
	;DEBUG_VALUE: c_tPos <- $w14
	;DEBUG_VALUE: c_tt <- $x9
	;DEBUG_VALUE: c_nblock_used <- $w1
	;DEBUG_VALUE: c_calculatedBlockCRC <- $w8
	;DEBUG_VALUE: unRLE_obuf_to_output_FAST:s <- $x19
	;DEBUG_VALUE: BZ2_bzDecompress:s <- $x19
	;DEBUG_VALUE: c_calculatedBlockCRC <- $w8
	;DEBUG_VALUE: c_state_out_ch <- $w10
	;DEBUG_VALUE: c_nblock_used <- $w1
	;DEBUG_VALUE: c_k0 <- $w0
	;DEBUG_VALUE: c_tPos <- $w14
	;DEBUG_VALUE: cs_next_out <- $x11
	;DEBUG_VALUE: cs_avail_out <- $w13
	;DEBUG_LABEL: s_state_out_len_eq_one
	.loc	1 623 20 is_stmt 0              ; bzlib.c:623:20
	cbz	w13, LBB10_172
Ltmp553:
; %bb.141:                              ;   in Loop: Header=BB10_134 Depth=2
	;DEBUG_VALUE: cs_avail_out <- $w13
	;DEBUG_VALUE: c_state_out_ch <- $w10
	;DEBUG_VALUE: s_save_nblockPP <- $w15
	;DEBUG_VALUE: avail_out_INIT <- $w12
	;DEBUG_VALUE: cs_next_out <- $x11
	;DEBUG_VALUE: c_tPos <- $w14
	;DEBUG_VALUE: c_k0 <- $w0
	;DEBUG_VALUE: c_tt <- $x9
	;DEBUG_VALUE: c_nblock_used <- $w1
	;DEBUG_VALUE: c_calculatedBlockCRC <- $w8
	;DEBUG_VALUE: unRLE_obuf_to_output_FAST:s <- $x19
	;DEBUG_VALUE: BZ2_bzDecompress:s <- $x19
	.loc	1 626 43 is_stmt 1              ; bzlib.c:626:43
	strb	w10, [x11], #1
Ltmp554:
	.loc	1 627 115                       ; bzlib.c:627:115
	eor	w2, w10, w8, lsr #24
	.loc	1 627 71 is_stmt 0              ; bzlib.c:627:71
	ldr	w2, [x25, w2, uxtw  #2]
	.loc	1 627 69                        ; bzlib.c:627:69
	eor	w8, w2, w8, lsl #8
Ltmp555:
	;DEBUG_VALUE: cs_next_out <- $x11
	;DEBUG_VALUE: c_calculatedBlockCRC <- $w8
	.loc	1 629 28 is_stmt 1              ; bzlib.c:629:28
	sub	w13, w13, #1
Ltmp556:
	;DEBUG_VALUE: cs_avail_out <- $w13
LBB10_142:                              ;   in Loop: Header=BB10_134 Depth=2
	;DEBUG_VALUE: cs_avail_out <- $w13
	;DEBUG_VALUE: c_state_out_ch <- $w10
	;DEBUG_VALUE: s_save_nblockPP <- $w15
	;DEBUG_VALUE: avail_out_INIT <- $w12
	;DEBUG_VALUE: cs_next_out <- $x11
	;DEBUG_VALUE: c_tPos <- $w14
	;DEBUG_VALUE: c_k0 <- $w0
	;DEBUG_VALUE: c_tt <- $x9
	;DEBUG_VALUE: c_nblock_used <- $w1
	;DEBUG_VALUE: c_calculatedBlockCRC <- $w8
	;DEBUG_VALUE: unRLE_obuf_to_output_FAST:s <- $x19
	;DEBUG_VALUE: BZ2_bzDecompress:s <- $x19
	.loc	1 0 28 is_stmt 0                ; bzlib.c:0:28
	mov	x3, x1
	mov	x4, x0
	;DEBUG_VALUE: c_calculatedBlockCRC <- $w8
	;DEBUG_VALUE: c_state_out_ch <- $w10
Ltmp557:
	;DEBUG_VALUE: c_nblock_used <- $w3
	;DEBUG_VALUE: c_k0 <- $w4
	;DEBUG_VALUE: c_tPos <- $w14
	;DEBUG_VALUE: cs_next_out <- $x11
	;DEBUG_VALUE: cs_avail_out <- $w13
	.loc	1 633 14 is_stmt 1              ; bzlib.c:633:14
	cmp	w1, w15
	b.gt	LBB10_175
Ltmp558:
; %bb.143:                              ;   in Loop: Header=BB10_134 Depth=2
	;DEBUG_VALUE: c_k0 <- $w4
	;DEBUG_VALUE: c_nblock_used <- $w3
	;DEBUG_VALUE: cs_avail_out <- $w13
	;DEBUG_VALUE: c_state_out_ch <- $w10
	;DEBUG_VALUE: s_save_nblockPP <- $w15
	;DEBUG_VALUE: avail_out_INIT <- $w12
	;DEBUG_VALUE: cs_next_out <- $x11
	;DEBUG_VALUE: c_tPos <- $w14
	;DEBUG_VALUE: c_tt <- $x9
	;DEBUG_VALUE: c_calculatedBlockCRC <- $w8
	;DEBUG_VALUE: unRLE_obuf_to_output_FAST:s <- $x19
	;DEBUG_VALUE: BZ2_bzDecompress:s <- $x19
	.loc	1 637 14                        ; bzlib.c:637:14
	b.eq	LBB10_173
Ltmp559:
; %bb.144:                              ;   in Loop: Header=BB10_134 Depth=2
	;DEBUG_VALUE: c_k0 <- $w4
	;DEBUG_VALUE: c_nblock_used <- $w3
	;DEBUG_VALUE: cs_avail_out <- $w13
	;DEBUG_VALUE: c_state_out_ch <- $w10
	;DEBUG_VALUE: s_save_nblockPP <- $w15
	;DEBUG_VALUE: avail_out_INIT <- $w12
	;DEBUG_VALUE: cs_next_out <- $x11
	;DEBUG_VALUE: c_tPos <- $w14
	;DEBUG_VALUE: c_tt <- $x9
	;DEBUG_VALUE: c_calculatedBlockCRC <- $w8
	;DEBUG_VALUE: unRLE_obuf_to_output_FAST:s <- $x19
	;DEBUG_VALUE: BZ2_bzDecompress:s <- $x19
	;DEBUG_VALUE: c_state_out_ch <- undef
	.loc	1 641 14                        ; bzlib.c:641:14
	cmp	w14, w17
	b.hs	LBB10_175
Ltmp560:
; %bb.145:                              ;   in Loop: Header=BB10_134 Depth=2
	;DEBUG_VALUE: c_k0 <- $w4
	;DEBUG_VALUE: c_nblock_used <- $w3
	;DEBUG_VALUE: cs_avail_out <- $w13
	;DEBUG_VALUE: s_save_nblockPP <- $w15
	;DEBUG_VALUE: avail_out_INIT <- $w12
	;DEBUG_VALUE: cs_next_out <- $x11
	;DEBUG_VALUE: c_tPos <- $w14
	;DEBUG_VALUE: c_tt <- $x9
	;DEBUG_VALUE: c_calculatedBlockCRC <- $w8
	;DEBUG_VALUE: unRLE_obuf_to_output_FAST:s <- $x19
	;DEBUG_VALUE: BZ2_bzDecompress:s <- $x19
	.loc	1 0 0 is_stmt 0                 ; bzlib.c:0:0
	and	w10, w4, #0xff
Ltmp561:
	;DEBUG_VALUE: c_state_out_ch <- $w10
	.loc	1 641 94                        ; bzlib.c:641:94
	ldr	w0, [x9, w14, uxtw  #2]
Ltmp562:
	;DEBUG_VALUE: c_tPos <- $w0
	;DEBUG_VALUE: unRLE_obuf_to_output_FAST:k1 <- [DW_OP_LLVM_convert 32 7, DW_OP_LLVM_convert 8 7, DW_OP_stack_value] $w0
	.loc	1 641 144                       ; bzlib.c:641:144
	lsr	x14, x0, #8
Ltmp563:
	;DEBUG_VALUE: c_tPos <- $w14
	.loc	1 641 165                       ; bzlib.c:641:165
	add	w1, w3, #1
Ltmp564:
	;DEBUG_VALUE: c_nblock_used <- $w1
	.loc	1 642 14 is_stmt 1              ; bzlib.c:642:14
	and	w0, w0, #0xff
Ltmp565:
	.loc	1 642 14 is_stmt 0              ; bzlib.c:642:14
	cmp	w0, w4
	b.ne	LBB10_148
Ltmp566:
; %bb.146:                              ;   in Loop: Header=BB10_134 Depth=2
	;DEBUG_VALUE: c_k0 <- $w4
	;DEBUG_VALUE: cs_avail_out <- $w13
	;DEBUG_VALUE: c_state_out_ch <- $w10
	;DEBUG_VALUE: s_save_nblockPP <- $w15
	;DEBUG_VALUE: avail_out_INIT <- $w12
	;DEBUG_VALUE: cs_next_out <- $x11
	;DEBUG_VALUE: c_tPos <- $w14
	;DEBUG_VALUE: c_tt <- $x9
	;DEBUG_VALUE: c_nblock_used <- $w1
	;DEBUG_VALUE: c_calculatedBlockCRC <- $w8
	;DEBUG_VALUE: unRLE_obuf_to_output_FAST:s <- $x19
	;DEBUG_VALUE: BZ2_bzDecompress:s <- $x19
	.loc	1 645 14 is_stmt 1              ; bzlib.c:645:14
	cmp	w3, w16
	b.ne	LBB10_149
Ltmp567:
; %bb.147:                              ;   in Loop: Header=BB10_134 Depth=2
	;DEBUG_VALUE: c_k0 <- $w4
	;DEBUG_VALUE: cs_avail_out <- $w13
	;DEBUG_VALUE: c_state_out_ch <- $w10
	;DEBUG_VALUE: s_save_nblockPP <- $w15
	;DEBUG_VALUE: avail_out_INIT <- $w12
	;DEBUG_VALUE: cs_next_out <- $x11
	;DEBUG_VALUE: c_tPos <- $w14
	;DEBUG_VALUE: c_tt <- $x9
	;DEBUG_VALUE: c_nblock_used <- $w1
	;DEBUG_VALUE: c_calculatedBlockCRC <- $w8
	;DEBUG_VALUE: unRLE_obuf_to_output_FAST:s <- $x19
	;DEBUG_VALUE: BZ2_bzDecompress:s <- $x19
	.loc	1 0 14 is_stmt 0                ; bzlib.c:0:14
	mov	x0, x4
Ltmp568:
LBB10_148:                              ;   in Loop: Header=BB10_134 Depth=2
	;DEBUG_VALUE: c_k0 <- $w4
	;DEBUG_VALUE: cs_avail_out <- $w13
	;DEBUG_VALUE: c_state_out_ch <- $w10
	;DEBUG_VALUE: s_save_nblockPP <- $w15
	;DEBUG_VALUE: avail_out_INIT <- $w12
	;DEBUG_VALUE: cs_next_out <- $x11
	;DEBUG_VALUE: c_tPos <- $w14
	;DEBUG_VALUE: c_tt <- $x9
	;DEBUG_VALUE: c_nblock_used <- $w1
	;DEBUG_VALUE: c_calculatedBlockCRC <- $w8
	;DEBUG_VALUE: unRLE_obuf_to_output_FAST:s <- $x19
	;DEBUG_VALUE: BZ2_bzDecompress:s <- $x19
                                        ; kill: def $w14 killed $w14 killed $x14 def $x14
	b	LBB10_140
Ltmp569:
LBB10_149:                              ;   in Loop: Header=BB10_134 Depth=2
	;DEBUG_VALUE: c_k0 <- $w4
	;DEBUG_VALUE: cs_avail_out <- $w13
	;DEBUG_VALUE: c_state_out_ch <- $w10
	;DEBUG_VALUE: s_save_nblockPP <- $w15
	;DEBUG_VALUE: avail_out_INIT <- $w12
	;DEBUG_VALUE: cs_next_out <- $x11
	;DEBUG_VALUE: c_tPos <- $w14
	;DEBUG_VALUE: c_tt <- $x9
	;DEBUG_VALUE: c_nblock_used <- $w1
	;DEBUG_VALUE: c_calculatedBlockCRC <- $w8
	;DEBUG_VALUE: unRLE_obuf_to_output_FAST:s <- $x19
	;DEBUG_VALUE: BZ2_bzDecompress:s <- $x19
	;DEBUG_VALUE: c_state_out_len <- 2
	.loc	1 649 14 is_stmt 1              ; bzlib.c:649:14
	cmp	w14, w17
	b.hs	LBB10_175
Ltmp570:
; %bb.150:                              ;   in Loop: Header=BB10_134 Depth=2
	;DEBUG_VALUE: c_state_out_len <- 2
	;DEBUG_VALUE: c_k0 <- $w4
	;DEBUG_VALUE: cs_avail_out <- $w13
	;DEBUG_VALUE: c_state_out_ch <- $w10
	;DEBUG_VALUE: s_save_nblockPP <- $w15
	;DEBUG_VALUE: avail_out_INIT <- $w12
	;DEBUG_VALUE: cs_next_out <- $x11
	;DEBUG_VALUE: c_tPos <- $w14
	;DEBUG_VALUE: c_tt <- $x9
	;DEBUG_VALUE: c_nblock_used <- $w1
	;DEBUG_VALUE: c_calculatedBlockCRC <- $w8
	;DEBUG_VALUE: unRLE_obuf_to_output_FAST:s <- $x19
	;DEBUG_VALUE: BZ2_bzDecompress:s <- $x19
	.loc	1 649 94 is_stmt 0              ; bzlib.c:649:94
	ldr	w6, [x9, x14, lsl  #2]
Ltmp571:
	;DEBUG_VALUE: c_tPos <- undef
	;DEBUG_VALUE: unRLE_obuf_to_output_FAST:k1 <- [DW_OP_constu 255, DW_OP_and, DW_OP_LLVM_convert 32 7, DW_OP_LLVM_convert 8 7, DW_OP_stack_value] undef
	.loc	1 649 144                       ; bzlib.c:649:144
	lsr	x14, x6, #8
Ltmp572:
	;DEBUG_VALUE: c_tPos <- $w14
	.loc	1 649 165                       ; bzlib.c:649:165
	add	w5, w3, #2
Ltmp573:
	;DEBUG_VALUE: c_nblock_used <- $w5
	.loc	1 0 165                         ; bzlib.c:0:165
	mov	w2, #2
	mov	x1, x15
	mov	x0, x4
	.loc	1 650 14 is_stmt 1              ; bzlib.c:650:14
	cmp	w5, w15
	b.eq	LBB10_134
Ltmp574:
; %bb.151:                              ;   in Loop: Header=BB10_134 Depth=2
	;DEBUG_VALUE: c_nblock_used <- $w5
	;DEBUG_VALUE: c_state_out_len <- 2
	;DEBUG_VALUE: c_k0 <- $w4
	;DEBUG_VALUE: cs_avail_out <- $w13
	;DEBUG_VALUE: c_state_out_ch <- $w10
	;DEBUG_VALUE: s_save_nblockPP <- $w15
	;DEBUG_VALUE: avail_out_INIT <- $w12
	;DEBUG_VALUE: cs_next_out <- $x11
	;DEBUG_VALUE: c_tPos <- $w14
	;DEBUG_VALUE: c_tt <- $x9
	;DEBUG_VALUE: c_calculatedBlockCRC <- $w8
	;DEBUG_VALUE: unRLE_obuf_to_output_FAST:s <- $x19
	;DEBUG_VALUE: BZ2_bzDecompress:s <- $x19
	;DEBUG_VALUE: unRLE_obuf_to_output_FAST:k1 <- [DW_OP_constu 255, DW_OP_and, DW_OP_LLVM_convert 32 7, DW_OP_LLVM_convert 8 7, DW_OP_stack_value] $w6
	.loc	1 651 14                        ; bzlib.c:651:14
	and	w0, w6, #0xff
	mov	w2, #2
Ltmp575:
	;DEBUG_VALUE: unRLE_obuf_to_output_FAST:k1 <- undef
	.loc	1 0 14 is_stmt 0                ; bzlib.c:0:14
	mov	x1, x5
Ltmp576:
	.loc	1 651 14                        ; bzlib.c:651:14
	cmp	w0, w4
	b.ne	LBB10_134
Ltmp577:
; %bb.152:                              ;   in Loop: Header=BB10_134 Depth=2
	;DEBUG_VALUE: c_nblock_used <- $w5
	;DEBUG_VALUE: c_state_out_len <- 2
	;DEBUG_VALUE: c_k0 <- $w4
	;DEBUG_VALUE: cs_avail_out <- $w13
	;DEBUG_VALUE: c_state_out_ch <- $w10
	;DEBUG_VALUE: s_save_nblockPP <- $w15
	;DEBUG_VALUE: avail_out_INIT <- $w12
	;DEBUG_VALUE: cs_next_out <- $x11
	;DEBUG_VALUE: c_tPos <- $w14
	;DEBUG_VALUE: c_tt <- $x9
	;DEBUG_VALUE: c_calculatedBlockCRC <- $w8
	;DEBUG_VALUE: unRLE_obuf_to_output_FAST:s <- $x19
	;DEBUG_VALUE: BZ2_bzDecompress:s <- $x19
	;DEBUG_VALUE: c_state_out_len <- 3
	.loc	1 654 14 is_stmt 1              ; bzlib.c:654:14
	cmp	w14, w17
	b.hs	LBB10_175
Ltmp578:
; %bb.153:                              ;   in Loop: Header=BB10_134 Depth=2
	;DEBUG_VALUE: c_state_out_len <- 3
	;DEBUG_VALUE: c_nblock_used <- $w5
	;DEBUG_VALUE: c_k0 <- $w4
	;DEBUG_VALUE: cs_avail_out <- $w13
	;DEBUG_VALUE: c_state_out_ch <- $w10
	;DEBUG_VALUE: s_save_nblockPP <- $w15
	;DEBUG_VALUE: avail_out_INIT <- $w12
	;DEBUG_VALUE: cs_next_out <- $x11
	;DEBUG_VALUE: c_tPos <- $w14
	;DEBUG_VALUE: c_tt <- $x9
	;DEBUG_VALUE: c_calculatedBlockCRC <- $w8
	;DEBUG_VALUE: unRLE_obuf_to_output_FAST:s <- $x19
	;DEBUG_VALUE: BZ2_bzDecompress:s <- $x19
	.loc	1 654 94 is_stmt 0              ; bzlib.c:654:94
	ldr	w7, [x9, x14, lsl  #2]
Ltmp579:
	;DEBUG_VALUE: c_tPos <- undef
	;DEBUG_VALUE: unRLE_obuf_to_output_FAST:k1 <- [DW_OP_constu 255, DW_OP_and, DW_OP_LLVM_convert 32 7, DW_OP_LLVM_convert 8 7, DW_OP_stack_value] undef
	.loc	1 654 144                       ; bzlib.c:654:144
	lsr	x5, x7, #8
Ltmp580:
	;DEBUG_VALUE: c_tPos <- $w5
	.loc	1 654 165                       ; bzlib.c:654:165
	add	w6, w3, #3
Ltmp581:
	;DEBUG_VALUE: c_nblock_used <- $w6
	.loc	1 0 165                         ; bzlib.c:0:165
	mov	w2, #3
	mov	x1, x15
	mov	x0, x4
	mov	x14, x5
	.loc	1 655 14 is_stmt 1              ; bzlib.c:655:14
	cmp	w6, w15
	b.eq	LBB10_134
Ltmp582:
; %bb.154:                              ;   in Loop: Header=BB10_134 Depth=2
	;DEBUG_VALUE: c_nblock_used <- $w6
	;DEBUG_VALUE: c_tPos <- $w5
	;DEBUG_VALUE: c_state_out_len <- 3
	;DEBUG_VALUE: c_k0 <- $w4
	;DEBUG_VALUE: cs_avail_out <- $w13
	;DEBUG_VALUE: c_state_out_ch <- $w10
	;DEBUG_VALUE: s_save_nblockPP <- $w15
	;DEBUG_VALUE: avail_out_INIT <- $w12
	;DEBUG_VALUE: cs_next_out <- $x11
	;DEBUG_VALUE: c_tt <- $x9
	;DEBUG_VALUE: c_calculatedBlockCRC <- $w8
	;DEBUG_VALUE: unRLE_obuf_to_output_FAST:s <- $x19
	;DEBUG_VALUE: BZ2_bzDecompress:s <- $x19
	;DEBUG_VALUE: unRLE_obuf_to_output_FAST:k1 <- [DW_OP_constu 255, DW_OP_and, DW_OP_LLVM_convert 32 7, DW_OP_LLVM_convert 8 7, DW_OP_stack_value] $w7
	.loc	1 656 14                        ; bzlib.c:656:14
	and	w0, w7, #0xff
	mov	w2, #3
Ltmp583:
	;DEBUG_VALUE: unRLE_obuf_to_output_FAST:k1 <- undef
	.loc	1 0 14 is_stmt 0                ; bzlib.c:0:14
	mov	x1, x6
	mov	x14, x5
Ltmp584:
	.loc	1 656 14                        ; bzlib.c:656:14
	cmp	w0, w4
	b.ne	LBB10_134
Ltmp585:
; %bb.155:                              ;   in Loop: Header=BB10_134 Depth=2
	;DEBUG_VALUE: c_nblock_used <- $w6
	;DEBUG_VALUE: c_tPos <- $w5
	;DEBUG_VALUE: c_state_out_len <- 3
	;DEBUG_VALUE: c_k0 <- $w4
	;DEBUG_VALUE: cs_avail_out <- $w13
	;DEBUG_VALUE: c_state_out_ch <- $w10
	;DEBUG_VALUE: s_save_nblockPP <- $w15
	;DEBUG_VALUE: avail_out_INIT <- $w12
	;DEBUG_VALUE: cs_next_out <- $x11
	;DEBUG_VALUE: c_tt <- $x9
	;DEBUG_VALUE: c_calculatedBlockCRC <- $w8
	;DEBUG_VALUE: unRLE_obuf_to_output_FAST:s <- $x19
	;DEBUG_VALUE: BZ2_bzDecompress:s <- $x19
	.loc	1 658 14 is_stmt 1              ; bzlib.c:658:14
	cmp	w5, w17
	b.hs	LBB10_175
Ltmp586:
; %bb.156:                              ;   in Loop: Header=BB10_134 Depth=2
	;DEBUG_VALUE: c_nblock_used <- $w6
	;DEBUG_VALUE: c_tPos <- $w5
	;DEBUG_VALUE: c_state_out_len <- 3
	;DEBUG_VALUE: c_k0 <- $w4
	;DEBUG_VALUE: cs_avail_out <- $w13
	;DEBUG_VALUE: c_state_out_ch <- $w10
	;DEBUG_VALUE: s_save_nblockPP <- $w15
	;DEBUG_VALUE: avail_out_INIT <- $w12
	;DEBUG_VALUE: cs_next_out <- $x11
	;DEBUG_VALUE: c_tt <- $x9
	;DEBUG_VALUE: c_calculatedBlockCRC <- $w8
	;DEBUG_VALUE: unRLE_obuf_to_output_FAST:s <- $x19
	;DEBUG_VALUE: BZ2_bzDecompress:s <- $x19
	.loc	1 658 94 is_stmt 0              ; bzlib.c:658:94
	ldr	w0, [x9, x5, lsl  #2]
Ltmp587:
	;DEBUG_VALUE: c_tPos <- undef
	;DEBUG_VALUE: c_state_out_len <- [DW_OP_constu 255, DW_OP_and, DW_OP_plus_uconst 4, DW_OP_stack_value] undef
	;DEBUG_VALUE: unRLE_obuf_to_output_FAST:k1 <- [DW_OP_LLVM_convert 32 7, DW_OP_LLVM_convert 8 7, DW_OP_stack_value] undef
	.loc	1 658 144                       ; bzlib.c:658:144
	lsr	x14, x0, #8
Ltmp588:
	;DEBUG_VALUE: c_tPos <- $w14
	;DEBUG_VALUE: c_nblock_used <- [DW_OP_plus_uconst 1, DW_OP_stack_value] undef
	.loc	1 660 14 is_stmt 1              ; bzlib.c:660:14
	cmp	w14, w17
	b.hs	LBB10_175
Ltmp589:
; %bb.157:                              ;   in Loop: Header=BB10_134 Depth=2
	;DEBUG_VALUE: c_k0 <- $w4
	;DEBUG_VALUE: cs_avail_out <- $w13
	;DEBUG_VALUE: c_state_out_ch <- $w10
	;DEBUG_VALUE: s_save_nblockPP <- $w15
	;DEBUG_VALUE: avail_out_INIT <- $w12
	;DEBUG_VALUE: cs_next_out <- $x11
	;DEBUG_VALUE: c_tPos <- $w14
	;DEBUG_VALUE: c_tt <- $x9
	;DEBUG_VALUE: c_calculatedBlockCRC <- $w8
	;DEBUG_VALUE: unRLE_obuf_to_output_FAST:s <- $x19
	;DEBUG_VALUE: BZ2_bzDecompress:s <- $x19
	;DEBUG_VALUE: unRLE_obuf_to_output_FAST:k1 <- [DW_OP_LLVM_convert 32 7, DW_OP_LLVM_convert 8 7, DW_OP_stack_value] $w0
	;DEBUG_VALUE: c_state_out_len <- [DW_OP_constu 255, DW_OP_and, DW_OP_plus_uconst 4, DW_OP_stack_value] $w0
	.loc	1 659 29                        ; bzlib.c:659:29
	and	w0, w0, #0xff
Ltmp590:
	;DEBUG_VALUE: c_state_out_len <- [DW_OP_plus_uconst 4, DW_OP_stack_value] $w0
	.loc	1 659 40 is_stmt 0              ; bzlib.c:659:40
	add	w2, w0, #4
Ltmp591:
	;DEBUG_VALUE: c_nblock_used <- [DW_OP_plus_uconst 4, DW_OP_stack_value] $w3
	;DEBUG_VALUE: c_state_out_len <- $w2
	.loc	1 660 94 is_stmt 1              ; bzlib.c:660:94
	ldr	w14, [x9, x14, lsl  #2]
Ltmp592:
	;DEBUG_VALUE: c_tPos <- $w14
	.loc	1 660 115 is_stmt 0             ; bzlib.c:660:115
	and	w0, w14, #0xff
Ltmp593:
	;DEBUG_VALUE: c_k0 <- $w0
	.loc	1 660 146                       ; bzlib.c:660:146
	lsr	w14, w14, #8
Ltmp594:
	;DEBUG_VALUE: c_tPos <- $w14
	.loc	1 660 167                       ; bzlib.c:660:167
	add	w1, w3, #5
Ltmp595:
	;DEBUG_VALUE: c_nblock_used <- $w1
	.loc	1 0 167                         ; bzlib.c:0:167
	b	LBB10_134
Ltmp596:
LBB10_158:                              ; %.loopexit.i.loopexit
                                        ;   in Loop: Header=BB10_6 Depth=1
	;DEBUG_VALUE: c_state_out_ch <- $w10
	;DEBUG_VALUE: s_save_nblockPP <- $w15
	;DEBUG_VALUE: avail_out_INIT <- $w12
	;DEBUG_VALUE: c_tPos <- $w14
	;DEBUG_VALUE: c_k0 <- $w0
	;DEBUG_VALUE: c_tt <- $x9
	;DEBUG_VALUE: c_nblock_used <- $w1
	;DEBUG_VALUE: c_calculatedBlockCRC <- $w8
	;DEBUG_VALUE: unRLE_obuf_to_output_FAST:s <- $x19
	;DEBUG_VALUE: BZ2_bzDecompress:s <- $x19
	mov	w13, #0
	.loc	1 664 31 is_stmt 1              ; bzlib.c:664:31
	add	x11, x11, x3
	sub	w2, w2, w3
Ltmp597:
LBB10_159:                              ; %.loopexit.i
                                        ;   in Loop: Header=BB10_6 Depth=1
	;DEBUG_VALUE: c_state_out_ch <- $w10
	;DEBUG_VALUE: s_save_nblockPP <- $w15
	;DEBUG_VALUE: avail_out_INIT <- $w12
	;DEBUG_VALUE: c_tPos <- $w14
	;DEBUG_VALUE: c_tt <- $x9
	;DEBUG_VALUE: c_calculatedBlockCRC <- $w8
	;DEBUG_VALUE: unRLE_obuf_to_output_FAST:s <- $x19
	;DEBUG_VALUE: BZ2_bzDecompress:s <- $x19
	;DEBUG_VALUE: c_calculatedBlockCRC <- $w8
	;DEBUG_VALUE: c_state_out_ch <- $w10
	;DEBUG_VALUE: c_state_out_len <- $w2
	;DEBUG_VALUE: c_nblock_used <- $w1
	;DEBUG_VALUE: c_k0 <- $w0
	;DEBUG_VALUE: c_tPos <- $w14
	;DEBUG_VALUE: cs_next_out <- $x11
	;DEBUG_VALUE: cs_avail_out <- $w13
	;DEBUG_LABEL: return_notr
	ldr	x15, [x19]
Ltmp598:
	.loc	1 664 37 is_stmt 0              ; bzlib.c:664:37
	ldr	w16, [x15, #36]
Ltmp599:
	;DEBUG_VALUE: total_out_lo32_old <- $w16
	.loc	1 665 50 is_stmt 1              ; bzlib.c:665:50
	sub	w12, w12, w13
Ltmp600:
	.loc	1 665 31 is_stmt 0              ; bzlib.c:665:31
	adds	w12, w16, w12
	str	w12, [x15, #36]
	.loc	1 666 11 is_stmt 1              ; bzlib.c:666:11
	b.lo	LBB10_161
Ltmp601:
; %bb.160:                              ;   in Loop: Header=BB10_6 Depth=1
	;DEBUG_VALUE: total_out_lo32_old <- $w16
	;DEBUG_VALUE: cs_avail_out <- $w13
	;DEBUG_VALUE: c_state_out_ch <- $w10
	;DEBUG_VALUE: cs_next_out <- $x11
	;DEBUG_VALUE: c_tPos <- $w14
	;DEBUG_VALUE: c_k0 <- $w0
	;DEBUG_VALUE: c_tt <- $x9
	;DEBUG_VALUE: c_nblock_used <- $w1
	;DEBUG_VALUE: c_state_out_len <- $w2
	;DEBUG_VALUE: c_calculatedBlockCRC <- $w8
	;DEBUG_VALUE: unRLE_obuf_to_output_FAST:s <- $x19
	;DEBUG_VALUE: BZ2_bzDecompress:s <- $x19
	.loc	1 667 33                        ; bzlib.c:667:33
	ldr	w12, [x15, #40]
	add	w12, w12, #1
	str	w12, [x15, #40]
Ltmp602:
LBB10_161:                              ;   in Loop: Header=BB10_6 Depth=1
	;DEBUG_VALUE: total_out_lo32_old <- $w16
	;DEBUG_VALUE: cs_avail_out <- $w13
	;DEBUG_VALUE: c_state_out_ch <- $w10
	;DEBUG_VALUE: cs_next_out <- $x11
	;DEBUG_VALUE: c_tPos <- $w14
	;DEBUG_VALUE: c_k0 <- $w0
	;DEBUG_VALUE: c_tt <- $x9
	;DEBUG_VALUE: c_nblock_used <- $w1
	;DEBUG_VALUE: c_state_out_len <- $w2
	;DEBUG_VALUE: c_calculatedBlockCRC <- $w8
	;DEBUG_VALUE: unRLE_obuf_to_output_FAST:s <- $x19
	;DEBUG_VALUE: BZ2_bzDecompress:s <- $x19
	.loc	1 670 29                        ; bzlib.c:670:29
	str	w8, [x19, #3184]
	.loc	1 671 23                        ; bzlib.c:671:23
	strb	w10, [x19, #12]
	.loc	1 672 24                        ; bzlib.c:672:24
	str	w2, [x19, #16]
	.loc	1 673 22                        ; bzlib.c:673:22
	str	w1, [x19, #1092]
	.loc	1 675 13                        ; bzlib.c:675:13
	str	x9, [x19, #3152]
	.loc	1 674 13                        ; bzlib.c:674:13
	stp	w14, w0, [x19, #60]
	.loc	1 677 25                        ; bzlib.c:677:25
	str	x11, [x15, #24]
	.loc	1 678 26                        ; bzlib.c:678:26
	str	w13, [x15, #32]
Ltmp603:
LBB10_162:                              ; %unRLE_obuf_to_output_SMALL.exit
                                        ;   in Loop: Header=BB10_6 Depth=1
	;DEBUG_VALUE: BZ2_bzDecompress:s <- $x19
	;DEBUG_VALUE: BZ2_bzDecompress:corrupt <- 0
	.loc	1 824 17                        ; bzlib.c:824:17
	ldr	w8, [x19, #1092]
	.loc	1 824 35 is_stmt 0              ; bzlib.c:824:35
	ldr	w9, [x21]
	.loc	1 824 46                        ; bzlib.c:824:46
	add	w9, w9, #1
	.loc	1 824 49                        ; bzlib.c:824:49
	cmp	w8, w9
	b.ne	LBB10_179
Ltmp604:
; %bb.163:                              ;   in Loop: Header=BB10_6 Depth=1
	;DEBUG_VALUE: BZ2_bzDecompress:corrupt <- 0
	;DEBUG_VALUE: BZ2_bzDecompress:s <- $x19
	.loc	1 824 55                        ; bzlib.c:824:55
	ldr	w8, [x19, #16]
Ltmp605:
	.loc	1 824 14                        ; bzlib.c:824:14
	cbnz	w8, LBB10_179
Ltmp606:
; %bb.164:                              ;   in Loop: Header=BB10_6 Depth=1
	;DEBUG_VALUE: BZ2_bzDecompress:corrupt <- 0
	;DEBUG_VALUE: BZ2_bzDecompress:s <- $x19
	.loc	1 825 44 is_stmt 1              ; bzlib.c:825:44
	ldr	w8, [x19, #3184]
	.loc	1 825 39 is_stmt 0              ; bzlib.c:825:39
	mvn	w8, w8
	.loc	1 825 37                        ; bzlib.c:825:37
	str	w8, [x19, #3184]
Ltmp607:
	.loc	1 826 20 is_stmt 1              ; bzlib.c:826:20
	ldr	w9, [x19, #52]
Ltmp608:
	.loc	1 826 17 is_stmt 0              ; bzlib.c:826:17
	cmp	w9, #2
	b.le	LBB10_166
Ltmp609:
; %bb.165:                              ;   in Loop: Header=BB10_6 Depth=1
	;DEBUG_VALUE: BZ2_bzDecompress:corrupt <- 0
	;DEBUG_VALUE: BZ2_bzDecompress:s <- $x19
	.loc	1 827 24 is_stmt 1              ; bzlib.c:827:24
	ldr	x0, [x23]
	.loc	1 827 16 is_stmt 0              ; bzlib.c:827:16
	ldr	w9, [x19, #3176]
	stp	x9, x8, [sp]
Lloh30:
	adrp	x1, l_.str.2@PAGE
Lloh31:
	add	x1, x1, l_.str.2@PAGEOFF
	bl	_fprintf
Ltmp610:
	.loc	1 829 20 is_stmt 1              ; bzlib.c:829:20
	ldr	w9, [x19, #52]
Ltmp611:
LBB10_166:                              ;   in Loop: Header=BB10_6 Depth=1
	;DEBUG_VALUE: BZ2_bzDecompress:corrupt <- 0
	;DEBUG_VALUE: BZ2_bzDecompress:s <- $x19
	.loc	1 829 17 is_stmt 0              ; bzlib.c:829:17
	cmp	w9, #2
	b.lt	LBB10_168
Ltmp612:
; %bb.167:                              ;   in Loop: Header=BB10_6 Depth=1
	;DEBUG_VALUE: BZ2_bzDecompress:corrupt <- 0
	;DEBUG_VALUE: BZ2_bzDecompress:s <- $x19
	.loc	1 829 44                        ; bzlib.c:829:44
	ldr	x1, [x23]
	.loc	1 829 36                        ; bzlib.c:829:36
	mov	w0, #93
	bl	_fputc
Ltmp613:
LBB10_168:                              ;   in Loop: Header=BB10_6 Depth=1
	;DEBUG_VALUE: BZ2_bzDecompress:corrupt <- 0
	;DEBUG_VALUE: BZ2_bzDecompress:s <- $x19
	.loc	1 830 20 is_stmt 1              ; bzlib.c:830:20
	ldr	w8, [x19, #3184]
	.loc	1 830 45 is_stmt 0              ; bzlib.c:830:45
	ldr	w9, [x19, #3176]
Ltmp614:
	.loc	1 830 17                        ; bzlib.c:830:17
	cmp	w8, w9
	b.ne	LBB10_175
Ltmp615:
; %bb.169:                              ; %.thread
                                        ;   in Loop: Header=BB10_6 Depth=1
	;DEBUG_VALUE: BZ2_bzDecompress:corrupt <- 0
	;DEBUG_VALUE: BZ2_bzDecompress:s <- $x19
	.loc	1 833 22 is_stmt 1              ; bzlib.c:833:22
	ldr	w9, [x19, #3188]
	.loc	1 835 38                        ; bzlib.c:835:38
	eor	w8, w8, w9, ror #31
	str	w8, [x19, #3188]
	.loc	1 836 22                        ; bzlib.c:836:22
	str	w20, [x19, #8]
Ltmp616:
LBB10_170:                              ; %.loopexit
                                        ;   in Loop: Header=BB10_6 Depth=1
	;DEBUG_VALUE: BZ2_bzDecompress:s <- $x19
	.loc	1 842 20                        ; bzlib.c:842:20
	mov	x0, x19
	bl	_BZ2_decompress
Ltmp617:
	;DEBUG_VALUE: r <- $w0
	.loc	1 843 14                        ; bzlib.c:843:14
	cmp	w0, #4
	b.eq	LBB10_176
Ltmp618:
; %bb.171:                              ;   in Loop: Header=BB10_6 Depth=1
	;DEBUG_VALUE: r <- $w0
	;DEBUG_VALUE: BZ2_bzDecompress:s <- $x19
	.loc	1 851 17                        ; bzlib.c:851:17
	ldr	w9, [x19, #8]
	mov	w8, #2
	cmp	w9, #2
	b.eq	LBB10_6
	b	LBB10_4
Ltmp619:
LBB10_172:                              ;   in Loop: Header=BB10_6 Depth=1
	;DEBUG_VALUE: cs_avail_out <- $w13
	;DEBUG_VALUE: c_state_out_ch <- $w10
	;DEBUG_VALUE: s_save_nblockPP <- $w15
	;DEBUG_VALUE: avail_out_INIT <- $w12
	;DEBUG_VALUE: cs_next_out <- $x11
	;DEBUG_VALUE: c_tPos <- $w14
	;DEBUG_VALUE: c_k0 <- $w0
	;DEBUG_VALUE: c_tt <- $x9
	;DEBUG_VALUE: c_nblock_used <- $w1
	;DEBUG_VALUE: c_calculatedBlockCRC <- $w8
	;DEBUG_VALUE: unRLE_obuf_to_output_FAST:s <- $x19
	;DEBUG_VALUE: BZ2_bzDecompress:s <- $x19
	.loc	1 0 17 is_stmt 0                ; bzlib.c:0:17
	mov	w2, #1
	b	LBB10_159
Ltmp620:
LBB10_173:                              ;   in Loop: Header=BB10_6 Depth=1
	;DEBUG_VALUE: c_k0 <- $w4
	;DEBUG_VALUE: c_nblock_used <- $w3
	;DEBUG_VALUE: cs_avail_out <- $w13
	;DEBUG_VALUE: c_state_out_ch <- $w10
	;DEBUG_VALUE: s_save_nblockPP <- $w15
	;DEBUG_VALUE: avail_out_INIT <- $w12
	;DEBUG_VALUE: cs_next_out <- $x11
	;DEBUG_VALUE: c_tPos <- $w14
	;DEBUG_VALUE: c_tt <- $x9
	;DEBUG_VALUE: c_calculatedBlockCRC <- $w8
	;DEBUG_VALUE: unRLE_obuf_to_output_FAST:s <- $x19
	;DEBUG_VALUE: BZ2_bzDecompress:s <- $x19
	mov	w2, #0
	mov	x1, x15
	mov	x0, x4
	b	LBB10_159
Ltmp621:
LBB10_174:                              ; %unRLE_obuf_to_output_SMALL.exit.thread.loopexit235
	;DEBUG_VALUE: BZ2_bzDecompress:s <- $x19
	mov	w0, #-1
Ltmp622:
	;DEBUG_VALUE: BZ2_bzDecompress:strm <- [DW_OP_LLVM_entry_value 1] $x0
	b	LBB10_4
Ltmp623:
LBB10_175:
	;DEBUG_VALUE: BZ2_bzDecompress:s <- $x19
	mov	w0, #-4
	b	LBB10_4
Ltmp624:
LBB10_176:
	;DEBUG_VALUE: r <- $w0
	;DEBUG_VALUE: BZ2_bzDecompress:s <- $x19
	.loc	1 844 20 is_stmt 1              ; bzlib.c:844:20
	ldr	w8, [x19, #52]
Ltmp625:
	.loc	1 844 17 is_stmt 0              ; bzlib.c:844:17
	cmp	w8, #3
	b.lt	LBB10_178
Ltmp626:
; %bb.177:
	;DEBUG_VALUE: r <- $w0
	;DEBUG_VALUE: BZ2_bzDecompress:s <- $x19
	.loc	1 845 24 is_stmt 1              ; bzlib.c:845:24
	ldr	x0, [x23]
Ltmp627:
	.loc	1 845 16 is_stmt 0              ; bzlib.c:845:16
	ldr	w8, [x19, #3180]
	ldr	w9, [x19, #3188]
	stp	x8, x9, [sp]
Lloh32:
	adrp	x1, l_.str.4@PAGE
Lloh33:
	add	x1, x1, l_.str.4@PAGEOFF
	bl	_fprintf
Ltmp628:
LBB10_178:                              ; %.thread64
	;DEBUG_VALUE: BZ2_bzDecompress:s <- $x19
	.loc	1 847 20 is_stmt 1              ; bzlib.c:847:20
	ldr	w8, [x19, #3188]
	.loc	1 847 48 is_stmt 0              ; bzlib.c:847:48
	ldr	w9, [x19, #3180]
Ltmp629:
	.loc	1 0 0                           ; bzlib.c:0:0
	cmp	w8, w9
	mov	w8, #4
	cneg	w0, w8, ne
	b	LBB10_4
Ltmp630:
LBB10_179:
	;DEBUG_VALUE: BZ2_bzDecompress:corrupt <- 0
	;DEBUG_VALUE: BZ2_bzDecompress:s <- $x19
	mov	w0, #0
	b	LBB10_4
	.loh AdrpLdrGot	Lloh28, Lloh29
	.loh AdrpLdrGot	Lloh26, Lloh27
	.loh AdrpLdrGot	Lloh24, Lloh25
	.loh AdrpAdd	Lloh30, Lloh31
	.loh AdrpAdd	Lloh32, Lloh33
Lfunc_end10:
	.cfi_endproc
                                        ; -- End function
	.globl	_BZ2_bzDecompressEnd            ; -- Begin function BZ2_bzDecompressEnd
	.p2align	2
_BZ2_bzDecompressEnd:                   ; @BZ2_bzDecompressEnd
Lfunc_begin11:
	.loc	1 863 0 is_stmt 1               ; bzlib.c:863:0
	.cfi_startproc
; %bb.0:
	;DEBUG_VALUE: BZ2_bzDecompressEnd:strm <- $x0
	;DEBUG_VALUE: BZ2_bzDecompressEnd:strm <- $x0
	stp	x20, x19, [sp, #-32]!           ; 16-byte Folded Spill
	.cfi_def_cfa_offset 32
	stp	x29, x30, [sp, #16]             ; 16-byte Folded Spill
	add	x29, sp, #16
	.cfi_def_cfa w29, 16
	.cfi_offset w30, -8
	.cfi_offset w29, -16
	.cfi_offset w19, -24
	.cfi_offset w20, -32
Ltmp631:
	.loc	1 865 8 prologue_end            ; bzlib.c:865:8
	cbz	x0, LBB11_3
Ltmp632:
; %bb.1:
	;DEBUG_VALUE: BZ2_bzDecompressEnd:strm <- $x0
	.loc	1 0 8 is_stmt 0                 ; bzlib.c:0:8
	mov	x19, x0
Ltmp633:
	;DEBUG_VALUE: BZ2_bzDecompressEnd:strm <- $x19
	.loc	1 866 14 is_stmt 1              ; bzlib.c:866:14
	ldr	x20, [x0, #48]
Ltmp634:
	;DEBUG_VALUE: BZ2_bzDecompressEnd:s <- $x20
	.loc	1 867 8                         ; bzlib.c:867:8
	cbz	x20, LBB11_3
Ltmp635:
; %bb.2:
	;DEBUG_VALUE: BZ2_bzDecompressEnd:s <- $x20
	;DEBUG_VALUE: BZ2_bzDecompressEnd:strm <- $x19
	.loc	1 868 11                        ; bzlib.c:868:11
	ldr	x8, [x20]
Ltmp636:
	.loc	1 868 8 is_stmt 0               ; bzlib.c:868:8
	cmp	x8, x19
	b.eq	LBB11_5
Ltmp637:
LBB11_3:
	.loc	1 0 8                           ; bzlib.c:0:8
	mov	w0, #-2
LBB11_4:
	.loc	1 878 1 is_stmt 1               ; bzlib.c:878:1
	ldp	x29, x30, [sp, #16]             ; 16-byte Folded Reload
	ldp	x20, x19, [sp], #32             ; 16-byte Folded Reload
	ret
LBB11_5:
Ltmp638:
	;DEBUG_VALUE: BZ2_bzDecompressEnd:s <- $x20
	;DEBUG_VALUE: BZ2_bzDecompressEnd:strm <- $x19
	.loc	1 870 11                        ; bzlib.c:870:11
	ldr	x1, [x20, #3152]
Ltmp639:
	.loc	1 870 8 is_stmt 0               ; bzlib.c:870:8
	cbz	x1, LBB11_7
Ltmp640:
; %bb.6:
	;DEBUG_VALUE: BZ2_bzDecompressEnd:s <- $x20
	;DEBUG_VALUE: BZ2_bzDecompressEnd:strm <- $x19
	.loc	1 870 30                        ; bzlib.c:870:30
	ldp	x8, x0, [x19, #64]
	blr	x8
Ltmp641:
LBB11_7:
	;DEBUG_VALUE: BZ2_bzDecompressEnd:s <- $x20
	;DEBUG_VALUE: BZ2_bzDecompressEnd:strm <- $x19
	.loc	1 871 11 is_stmt 1              ; bzlib.c:871:11
	ldr	x1, [x20, #3160]
Ltmp642:
	.loc	1 871 8 is_stmt 0               ; bzlib.c:871:8
	cbz	x1, LBB11_9
Ltmp643:
; %bb.8:
	;DEBUG_VALUE: BZ2_bzDecompressEnd:s <- $x20
	;DEBUG_VALUE: BZ2_bzDecompressEnd:strm <- $x19
	.loc	1 871 32                        ; bzlib.c:871:32
	ldp	x8, x0, [x19, #64]
	blr	x8
Ltmp644:
LBB11_9:
	;DEBUG_VALUE: BZ2_bzDecompressEnd:s <- $x20
	;DEBUG_VALUE: BZ2_bzDecompressEnd:strm <- $x19
	.loc	1 872 11 is_stmt 1              ; bzlib.c:872:11
	ldr	x1, [x20, #3168]
Ltmp645:
	.loc	1 872 8 is_stmt 0               ; bzlib.c:872:8
	cbz	x1, LBB11_11
Ltmp646:
; %bb.10:
	;DEBUG_VALUE: BZ2_bzDecompressEnd:s <- $x20
	;DEBUG_VALUE: BZ2_bzDecompressEnd:strm <- $x19
	.loc	1 872 31                        ; bzlib.c:872:31
	ldp	x8, x0, [x19, #64]
	blr	x8
Ltmp647:
LBB11_11:
	;DEBUG_VALUE: BZ2_bzDecompressEnd:s <- $x20
	;DEBUG_VALUE: BZ2_bzDecompressEnd:strm <- $x19
	.loc	1 874 4 is_stmt 1               ; bzlib.c:874:4
	ldp	x8, x0, [x19, #64]
	.loc	1 874 39 is_stmt 0              ; bzlib.c:874:39
	ldr	x1, [x19, #48]
	.loc	1 874 4                         ; bzlib.c:874:4
	blr	x8
Ltmp648:
	.loc	1 0 4                           ; bzlib.c:0:4
	mov	w0, #0
	.loc	1 875 16 is_stmt 1              ; bzlib.c:875:16
	str	xzr, [x19, #48]
	b	LBB11_4
Ltmp649:
Lfunc_end11:
	.cfi_endproc
                                        ; -- End function
	.globl	_BZ2_bzWriteOpen                ; -- Begin function BZ2_bzWriteOpen
	.p2align	2
_BZ2_bzWriteOpen:                       ; @BZ2_bzWriteOpen
Lfunc_begin12:
	.loc	1 922 0                         ; bzlib.c:922:0
	.cfi_startproc
; %bb.0:
	;DEBUG_VALUE: BZ2_bzWriteOpen:bzerror <- $x0
	;DEBUG_VALUE: BZ2_bzWriteOpen:f <- $x1
	;DEBUG_VALUE: BZ2_bzWriteOpen:blockSize100k <- $w2
	;DEBUG_VALUE: BZ2_bzWriteOpen:verbosity <- $w3
	;DEBUG_VALUE: BZ2_bzWriteOpen:workFactor <- $w4
	stp	x26, x25, [sp, #-80]!           ; 16-byte Folded Spill
	.cfi_def_cfa_offset 80
	stp	x24, x23, [sp, #16]             ; 16-byte Folded Spill
	stp	x22, x21, [sp, #32]             ; 16-byte Folded Spill
	stp	x20, x19, [sp, #48]             ; 16-byte Folded Spill
	stp	x29, x30, [sp, #64]             ; 16-byte Folded Spill
	add	x29, sp, #64
	.cfi_def_cfa w29, 16
	.cfi_offset w30, -8
	.cfi_offset w29, -16
	.cfi_offset w19, -24
	.cfi_offset w20, -32
	.cfi_offset w21, -40
	.cfi_offset w22, -48
	.cfi_offset w23, -56
	.cfi_offset w24, -64
	.cfi_offset w25, -72
	.cfi_offset w26, -80
	mov	x23, x4
Ltmp650:
	;DEBUG_VALUE: BZ2_bzWriteOpen:workFactor <- $w23
	mov	x21, x3
Ltmp651:
	;DEBUG_VALUE: BZ2_bzWriteOpen:verbosity <- $w21
	mov	x22, x2
Ltmp652:
	;DEBUG_VALUE: BZ2_bzWriteOpen:blockSize100k <- $w22
	mov	x24, x1
Ltmp653:
	;DEBUG_VALUE: BZ2_bzWriteOpen:f <- $x24
	mov	x19, x0
Ltmp654:
	;DEBUG_VALUE: BZ2_bzWriteOpen:bzf <- 0
	;DEBUG_VALUE: BZ2_bzWriteOpen:bzerror <- $x19
	.loc	1 926 10 prologue_end           ; bzlib.c:926:10
	cbz	x0, LBB12_2
Ltmp655:
; %bb.1:
	;DEBUG_VALUE: BZ2_bzWriteOpen:bzerror <- $x19
	;DEBUG_VALUE: BZ2_bzWriteOpen:bzf <- 0
	;DEBUG_VALUE: BZ2_bzWriteOpen:f <- $x24
	;DEBUG_VALUE: BZ2_bzWriteOpen:blockSize100k <- $w22
	;DEBUG_VALUE: BZ2_bzWriteOpen:verbosity <- $w21
	;DEBUG_VALUE: BZ2_bzWriteOpen:workFactor <- $w23
	.loc	1 926 43 is_stmt 0              ; bzlib.c:926:43
	str	wzr, [x19]
Ltmp656:
LBB12_2:
	;DEBUG_VALUE: BZ2_bzWriteOpen:bzerror <- $x19
	;DEBUG_VALUE: BZ2_bzWriteOpen:bzf <- 0
	;DEBUG_VALUE: BZ2_bzWriteOpen:f <- $x24
	;DEBUG_VALUE: BZ2_bzWriteOpen:blockSize100k <- $w22
	;DEBUG_VALUE: BZ2_bzWriteOpen:verbosity <- $w21
	;DEBUG_VALUE: BZ2_bzWriteOpen:workFactor <- $w23
	.loc	1 928 25 is_stmt 1              ; bzlib.c:928:25
	cmp	w21, #4
	b.hi	LBB12_9
Ltmp657:
; %bb.3:
	;DEBUG_VALUE: BZ2_bzWriteOpen:bzerror <- $x19
	;DEBUG_VALUE: BZ2_bzWriteOpen:bzf <- 0
	;DEBUG_VALUE: BZ2_bzWriteOpen:f <- $x24
	;DEBUG_VALUE: BZ2_bzWriteOpen:blockSize100k <- $w22
	;DEBUG_VALUE: BZ2_bzWriteOpen:verbosity <- $w21
	;DEBUG_VALUE: BZ2_bzWriteOpen:workFactor <- $w23
	cbz	x24, LBB12_9
Ltmp658:
; %bb.4:
	;DEBUG_VALUE: BZ2_bzWriteOpen:bzerror <- $x19
	;DEBUG_VALUE: BZ2_bzWriteOpen:bzf <- 0
	;DEBUG_VALUE: BZ2_bzWriteOpen:f <- $x24
	;DEBUG_VALUE: BZ2_bzWriteOpen:blockSize100k <- $w22
	;DEBUG_VALUE: BZ2_bzWriteOpen:verbosity <- $w21
	;DEBUG_VALUE: BZ2_bzWriteOpen:workFactor <- $w23
	sub	w8, w22, #10
	cmn	w8, #9
	b.lo	LBB12_9
Ltmp659:
; %bb.5:
	;DEBUG_VALUE: BZ2_bzWriteOpen:bzerror <- $x19
	;DEBUG_VALUE: BZ2_bzWriteOpen:bzf <- 0
	;DEBUG_VALUE: BZ2_bzWriteOpen:f <- $x24
	;DEBUG_VALUE: BZ2_bzWriteOpen:blockSize100k <- $w22
	;DEBUG_VALUE: BZ2_bzWriteOpen:verbosity <- $w21
	;DEBUG_VALUE: BZ2_bzWriteOpen:workFactor <- $w23
	cmp	w23, #251
	b.hs	LBB12_9
Ltmp660:
; %bb.6:
	;DEBUG_VALUE: BZ2_bzWriteOpen:bzerror <- $x19
	;DEBUG_VALUE: BZ2_bzWriteOpen:bzf <- 0
	;DEBUG_VALUE: BZ2_bzWriteOpen:f <- $x24
	;DEBUG_VALUE: BZ2_bzWriteOpen:blockSize100k <- $w22
	;DEBUG_VALUE: BZ2_bzWriteOpen:verbosity <- $w21
	;DEBUG_VALUE: BZ2_bzWriteOpen:workFactor <- $w23
	.loc	1 934 8                         ; bzlib.c:934:8
	mov	x0, x24
	bl	_ferror
Ltmp661:
	.loc	1 934 8 is_stmt 0               ; bzlib.c:934:8
	cbz	w0, LBB12_13
Ltmp662:
; %bb.7:
	;DEBUG_VALUE: BZ2_bzWriteOpen:bzerror <- $x19
	;DEBUG_VALUE: BZ2_bzWriteOpen:bzf <- 0
	;DEBUG_VALUE: BZ2_bzWriteOpen:f <- $x24
	;DEBUG_VALUE: BZ2_bzWriteOpen:blockSize100k <- $w22
	;DEBUG_VALUE: BZ2_bzWriteOpen:verbosity <- $w21
	;DEBUG_VALUE: BZ2_bzWriteOpen:workFactor <- $w23
	.loc	1 0 8                           ; bzlib.c:0:8
	mov	x20, #0
Ltmp663:
	.loc	1 935 15 is_stmt 1              ; bzlib.c:935:15
	cbz	x19, LBB12_12
Ltmp664:
; %bb.8:
	;DEBUG_VALUE: BZ2_bzWriteOpen:bzerror <- $x19
	;DEBUG_VALUE: BZ2_bzWriteOpen:bzf <- 0
	;DEBUG_VALUE: BZ2_bzWriteOpen:f <- $x24
	;DEBUG_VALUE: BZ2_bzWriteOpen:blockSize100k <- $w22
	;DEBUG_VALUE: BZ2_bzWriteOpen:verbosity <- $w21
	;DEBUG_VALUE: BZ2_bzWriteOpen:workFactor <- $w23
	.loc	1 0 15 is_stmt 0                ; bzlib.c:0:15
	mov	w8, #-6
	b	LBB12_11
Ltmp665:
LBB12_9:
	;DEBUG_VALUE: BZ2_bzWriteOpen:bzerror <- $x19
	;DEBUG_VALUE: BZ2_bzWriteOpen:bzf <- 0
	;DEBUG_VALUE: BZ2_bzWriteOpen:f <- $x24
	;DEBUG_VALUE: BZ2_bzWriteOpen:blockSize100k <- $w22
	;DEBUG_VALUE: BZ2_bzWriteOpen:verbosity <- $w21
	;DEBUG_VALUE: BZ2_bzWriteOpen:workFactor <- $w23
	mov	x20, #0
Ltmp666:
	.loc	1 932 15 is_stmt 1              ; bzlib.c:932:15
	cbz	x19, LBB12_12
Ltmp667:
; %bb.10:
	;DEBUG_VALUE: BZ2_bzWriteOpen:bzerror <- $x19
	;DEBUG_VALUE: BZ2_bzWriteOpen:bzf <- 0
	;DEBUG_VALUE: BZ2_bzWriteOpen:f <- $x24
	;DEBUG_VALUE: BZ2_bzWriteOpen:blockSize100k <- $w22
	;DEBUG_VALUE: BZ2_bzWriteOpen:verbosity <- $w21
	;DEBUG_VALUE: BZ2_bzWriteOpen:workFactor <- $w23
	.loc	1 0 15 is_stmt 0                ; bzlib.c:0:15
	mov	w8, #-2
Ltmp668:
LBB12_11:
	;DEBUG_VALUE: BZ2_bzWriteOpen:bzerror <- $x19
	;DEBUG_VALUE: BZ2_bzWriteOpen:f <- $x24
	;DEBUG_VALUE: BZ2_bzWriteOpen:blockSize100k <- $w22
	;DEBUG_VALUE: BZ2_bzWriteOpen:verbosity <- $w21
	;DEBUG_VALUE: BZ2_bzWriteOpen:workFactor <- $w23
	str	w8, [x19]
Ltmp669:
LBB12_12:
	;DEBUG_VALUE: BZ2_bzWriteOpen:bzerror <- $x19
	;DEBUG_VALUE: BZ2_bzWriteOpen:blockSize100k <- $w22
	;DEBUG_VALUE: BZ2_bzWriteOpen:verbosity <- $w21
	.loc	1 959 1 is_stmt 1               ; bzlib.c:959:1
	mov	x0, x20
	ldp	x29, x30, [sp, #64]             ; 16-byte Folded Reload
	ldp	x20, x19, [sp, #48]             ; 16-byte Folded Reload
Ltmp670:
	;DEBUG_VALUE: BZ2_bzWriteOpen:bzerror <- [DW_OP_LLVM_entry_value 1] $x0
	ldp	x22, x21, [sp, #32]             ; 16-byte Folded Reload
Ltmp671:
	ldp	x24, x23, [sp, #16]             ; 16-byte Folded Reload
	ldp	x26, x25, [sp], #80             ; 16-byte Folded Reload
	ret
Ltmp672:
LBB12_13:
	;DEBUG_VALUE: BZ2_bzWriteOpen:bzerror <- $x19
	;DEBUG_VALUE: BZ2_bzWriteOpen:bzf <- 0
	;DEBUG_VALUE: BZ2_bzWriteOpen:f <- $x24
	;DEBUG_VALUE: BZ2_bzWriteOpen:blockSize100k <- $w22
	;DEBUG_VALUE: BZ2_bzWriteOpen:verbosity <- $w21
	;DEBUG_VALUE: BZ2_bzWriteOpen:workFactor <- $w23
	.loc	1 937 10                        ; bzlib.c:937:10
	mov	w0, #5104
	bl	_malloc
Ltmp673:
	;DEBUG_VALUE: BZ2_bzWriteOpen:bzf <- $x0
	.loc	1 938 8                         ; bzlib.c:938:8
	cbz	x0, LBB12_20
Ltmp674:
; %bb.14:
	;DEBUG_VALUE: BZ2_bzWriteOpen:bzf <- $x0
	;DEBUG_VALUE: BZ2_bzWriteOpen:bzerror <- $x19
	;DEBUG_VALUE: BZ2_bzWriteOpen:f <- $x24
	;DEBUG_VALUE: BZ2_bzWriteOpen:blockSize100k <- $w22
	;DEBUG_VALUE: BZ2_bzWriteOpen:verbosity <- $w21
	;DEBUG_VALUE: BZ2_bzWriteOpen:workFactor <- $w23
	.loc	1 0 8 is_stmt 0                 ; bzlib.c:0:8
	mov	x20, x0
Ltmp675:
	;DEBUG_VALUE: BZ2_bzWriteOpen:bzf <- $x20
	mov	w8, #5012
	add	x25, x0, x8
Ltmp676:
	.loc	1 941 10 is_stmt 1              ; bzlib.c:941:10
	cbz	x19, LBB12_16
Ltmp677:
; %bb.15:
	;DEBUG_VALUE: BZ2_bzWriteOpen:bzf <- $x20
	;DEBUG_VALUE: BZ2_bzWriteOpen:bzerror <- $x19
	;DEBUG_VALUE: BZ2_bzWriteOpen:f <- $x24
	;DEBUG_VALUE: BZ2_bzWriteOpen:blockSize100k <- $w22
	;DEBUG_VALUE: BZ2_bzWriteOpen:verbosity <- $w21
	;DEBUG_VALUE: BZ2_bzWriteOpen:workFactor <- $w23
	.loc	1 941 43 is_stmt 0              ; bzlib.c:941:43
	str	wzr, [x19]
Ltmp678:
LBB12_16:
	;DEBUG_VALUE: BZ2_bzWriteOpen:bzf <- $x20
	;DEBUG_VALUE: BZ2_bzWriteOpen:bzerror <- $x19
	;DEBUG_VALUE: BZ2_bzWriteOpen:f <- $x24
	;DEBUG_VALUE: BZ2_bzWriteOpen:blockSize100k <- $w22
	;DEBUG_VALUE: BZ2_bzWriteOpen:verbosity <- $w21
	;DEBUG_VALUE: BZ2_bzWriteOpen:workFactor <- $w23
	.loc	1 941 85                        ; bzlib.c:941:85
	str	wzr, [x20, #5096]
Ltmp679:
	.loc	1 942 23 is_stmt 1              ; bzlib.c:942:23
	strb	wzr, [x25, #88]
	.loc	1 943 14                        ; bzlib.c:943:14
	str	wzr, [x20, #5008]
	.loc	1 944 16                        ; bzlib.c:944:16
	str	x24, [x20]
	mov	w24, #1
Ltmp680:
	;DEBUG_VALUE: BZ2_bzWriteOpen:f <- [DW_OP_LLVM_entry_value 1] $x1
	.loc	1 945 17                        ; bzlib.c:945:17
	strb	w24, [x25]
	mov	w8, #5016
	.loc	1 946 9                         ; bzlib.c:946:9
	add	x0, x20, x8
	mov	w8, #30
	.loc	1 950 8                         ; bzlib.c:950:8
	cmp	w23, #0
	csel	w3, w8, w23, eq
Ltmp681:
	;DEBUG_VALUE: BZ2_bzWriteOpen:workFactor <- $w3
	.loc	1 947 21                        ; bzlib.c:947:21
	str	xzr, [x20, #5072]
	str	xzr, [x20, #5088]
	str	xzr, [x20, #5080]
	.loc	1 951 10                        ; bzlib.c:951:10
	mov	x1, x22
	mov	x2, x21
	bl	_BZ2_bzCompressInit
Ltmp682:
	;DEBUG_VALUE: BZ2_bzWriteOpen:ret <- $w0
	.loc	1 953 8                         ; bzlib.c:953:8
	cbz	w0, LBB12_22
Ltmp683:
; %bb.17:
	;DEBUG_VALUE: BZ2_bzWriteOpen:ret <- $w0
	;DEBUG_VALUE: BZ2_bzWriteOpen:f <- [DW_OP_LLVM_entry_value 1] $x1
	;DEBUG_VALUE: BZ2_bzWriteOpen:bzf <- $x20
	;DEBUG_VALUE: BZ2_bzWriteOpen:bzerror <- $x19
	;DEBUG_VALUE: BZ2_bzWriteOpen:blockSize100k <- $w22
	;DEBUG_VALUE: BZ2_bzWriteOpen:verbosity <- $w21
	.loc	1 954 15                        ; bzlib.c:954:15
	cbz	x19, LBB12_19
Ltmp684:
; %bb.18:
	;DEBUG_VALUE: BZ2_bzWriteOpen:ret <- $w0
	;DEBUG_VALUE: BZ2_bzWriteOpen:f <- [DW_OP_LLVM_entry_value 1] $x1
	;DEBUG_VALUE: BZ2_bzWriteOpen:bzf <- $x20
	;DEBUG_VALUE: BZ2_bzWriteOpen:bzerror <- $x19
	;DEBUG_VALUE: BZ2_bzWriteOpen:blockSize100k <- $w22
	;DEBUG_VALUE: BZ2_bzWriteOpen:verbosity <- $w21
	.loc	1 954 48 is_stmt 0              ; bzlib.c:954:48
	str	w0, [x19]
Ltmp685:
LBB12_19:
	;DEBUG_VALUE: BZ2_bzWriteOpen:ret <- $w0
	;DEBUG_VALUE: BZ2_bzWriteOpen:f <- [DW_OP_LLVM_entry_value 1] $x1
	;DEBUG_VALUE: BZ2_bzWriteOpen:bzf <- $x20
	;DEBUG_VALUE: BZ2_bzWriteOpen:bzerror <- $x19
	;DEBUG_VALUE: BZ2_bzWriteOpen:blockSize100k <- $w22
	;DEBUG_VALUE: BZ2_bzWriteOpen:verbosity <- $w21
	.loc	1 954 102                       ; bzlib.c:954:102
	mov	x0, x20
Ltmp686:
	bl	_free
Ltmp687:
	.loc	1 0 102                         ; bzlib.c:0:102
	mov	x20, #0
Ltmp688:
	b	LBB12_12
Ltmp689:
LBB12_20:
	;DEBUG_VALUE: BZ2_bzWriteOpen:bzf <- $x0
	;DEBUG_VALUE: BZ2_bzWriteOpen:bzerror <- $x19
	;DEBUG_VALUE: BZ2_bzWriteOpen:f <- $x24
	;DEBUG_VALUE: BZ2_bzWriteOpen:blockSize100k <- $w22
	;DEBUG_VALUE: BZ2_bzWriteOpen:verbosity <- $w21
	;DEBUG_VALUE: BZ2_bzWriteOpen:workFactor <- $w23
	mov	x20, #0
Ltmp690:
	.loc	1 939 15 is_stmt 1              ; bzlib.c:939:15
	cbz	x19, LBB12_12
Ltmp691:
; %bb.21:
	;DEBUG_VALUE: BZ2_bzWriteOpen:bzf <- $x0
	;DEBUG_VALUE: BZ2_bzWriteOpen:bzerror <- $x19
	;DEBUG_VALUE: BZ2_bzWriteOpen:f <- $x24
	;DEBUG_VALUE: BZ2_bzWriteOpen:blockSize100k <- $w22
	;DEBUG_VALUE: BZ2_bzWriteOpen:verbosity <- $w21
	;DEBUG_VALUE: BZ2_bzWriteOpen:workFactor <- $w23
	.loc	1 0 15 is_stmt 0                ; bzlib.c:0:15
	mov	w8, #-3
	b	LBB12_11
Ltmp692:
LBB12_22:
	;DEBUG_VALUE: BZ2_bzWriteOpen:ret <- $w0
	;DEBUG_VALUE: BZ2_bzWriteOpen:f <- [DW_OP_LLVM_entry_value 1] $x1
	;DEBUG_VALUE: BZ2_bzWriteOpen:bzf <- $x20
	;DEBUG_VALUE: BZ2_bzWriteOpen:bzerror <- $x19
	;DEBUG_VALUE: BZ2_bzWriteOpen:blockSize100k <- $w22
	;DEBUG_VALUE: BZ2_bzWriteOpen:verbosity <- $w21
	.loc	1 956 23 is_stmt 1              ; bzlib.c:956:23
	str	wzr, [x20, #5024]
	.loc	1 957 23                        ; bzlib.c:957:23
	strb	w24, [x25, #88]
	b	LBB12_12
Ltmp693:
Lfunc_end12:
	.cfi_endproc
	.file	7 "/Library/Developer/CommandLineTools/SDKs/MacOSX.sdk/usr/include" "stdio.h"
                                        ; -- End function
	.globl	_BZ2_bzWrite                    ; -- Begin function BZ2_bzWrite
	.p2align	2
_BZ2_bzWrite:                           ; @BZ2_bzWrite
Lfunc_begin13:
	.loc	1 969 0                         ; bzlib.c:969:0
	.cfi_startproc
; %bb.0:
	;DEBUG_VALUE: BZ2_bzWrite:bzerror <- $x0
	;DEBUG_VALUE: BZ2_bzWrite:b <- $x1
	;DEBUG_VALUE: BZ2_bzWrite:buf <- $x2
	;DEBUG_VALUE: BZ2_bzWrite:len <- $w3
	stp	x24, x23, [sp, #-64]!           ; 16-byte Folded Spill
	.cfi_def_cfa_offset 64
	stp	x22, x21, [sp, #16]             ; 16-byte Folded Spill
	stp	x20, x19, [sp, #32]             ; 16-byte Folded Spill
	stp	x29, x30, [sp, #48]             ; 16-byte Folded Spill
	add	x29, sp, #48
	.cfi_def_cfa w29, 16
	.cfi_offset w30, -8
	.cfi_offset w29, -16
	.cfi_offset w19, -24
	.cfi_offset w20, -32
	.cfi_offset w21, -40
	.cfi_offset w22, -48
	.cfi_offset w23, -56
	.cfi_offset w24, -64
Ltmp694:
	;DEBUG_VALUE: BZ2_bzWrite:bzf <- $x1
	mov	x23, x3
Ltmp695:
	;DEBUG_VALUE: BZ2_bzWrite:len <- $w23
	mov	x22, x2
Ltmp696:
	;DEBUG_VALUE: BZ2_bzWrite:buf <- $x22
	mov	x19, x1
Ltmp697:
	;DEBUG_VALUE: BZ2_bzWrite:bzf <- $x19
	;DEBUG_VALUE: BZ2_bzWrite:b <- $x19
	mov	x20, x0
Ltmp698:
	;DEBUG_VALUE: BZ2_bzWrite:bzerror <- $x20
	.loc	1 973 10 prologue_end           ; bzlib.c:973:10
	cbz	x0, LBB13_2
Ltmp699:
; %bb.1:
	;DEBUG_VALUE: BZ2_bzWrite:bzerror <- $x20
	;DEBUG_VALUE: BZ2_bzWrite:b <- $x19
	;DEBUG_VALUE: BZ2_bzWrite:bzf <- $x19
	;DEBUG_VALUE: BZ2_bzWrite:buf <- $x22
	;DEBUG_VALUE: BZ2_bzWrite:len <- $w23
	.loc	1 973 43 is_stmt 0              ; bzlib.c:973:43
	str	wzr, [x20]
Ltmp700:
LBB13_2:
	;DEBUG_VALUE: BZ2_bzWrite:bzerror <- $x20
	;DEBUG_VALUE: BZ2_bzWrite:b <- $x19
	;DEBUG_VALUE: BZ2_bzWrite:bzf <- $x19
	;DEBUG_VALUE: BZ2_bzWrite:buf <- $x22
	;DEBUG_VALUE: BZ2_bzWrite:len <- $w23
	.loc	1 973 52                        ; bzlib.c:973:52
	cbz	x19, LBB13_10
Ltmp701:
; %bb.3:
	;DEBUG_VALUE: BZ2_bzWrite:bzerror <- $x20
	;DEBUG_VALUE: BZ2_bzWrite:b <- $x19
	;DEBUG_VALUE: BZ2_bzWrite:bzf <- $x19
	;DEBUG_VALUE: BZ2_bzWrite:buf <- $x22
	;DEBUG_VALUE: BZ2_bzWrite:len <- $w23
	.loc	1 973 85                        ; bzlib.c:973:85
	str	wzr, [x19, #5096]
Ltmp702:
	.loc	1 974 27 is_stmt 1              ; bzlib.c:974:27
	cbz	x22, LBB13_10
Ltmp703:
; %bb.4:
	;DEBUG_VALUE: BZ2_bzWrite:bzerror <- $x20
	;DEBUG_VALUE: BZ2_bzWrite:b <- $x19
	;DEBUG_VALUE: BZ2_bzWrite:bzf <- $x19
	;DEBUG_VALUE: BZ2_bzWrite:buf <- $x22
	;DEBUG_VALUE: BZ2_bzWrite:len <- $w23
	tbnz	w23, #31, LBB13_10
Ltmp704:
; %bb.5:
	;DEBUG_VALUE: BZ2_bzWrite:bzerror <- $x20
	;DEBUG_VALUE: BZ2_bzWrite:b <- $x19
	;DEBUG_VALUE: BZ2_bzWrite:bzf <- $x19
	;DEBUG_VALUE: BZ2_bzWrite:buf <- $x22
	;DEBUG_VALUE: BZ2_bzWrite:len <- $w23
	.loc	1 0 27 is_stmt 0                ; bzlib.c:0:27
	mov	w8, #5012
Ltmp705:
	.loc	1 976 15 is_stmt 1              ; bzlib.c:976:15
	ldrb	w8, [x19, x8]
Ltmp706:
	.loc	1 976 8 is_stmt 0               ; bzlib.c:976:8
	cbz	w8, LBB13_14
Ltmp707:
; %bb.6:
	;DEBUG_VALUE: BZ2_bzWrite:bzerror <- $x20
	;DEBUG_VALUE: BZ2_bzWrite:b <- $x19
	;DEBUG_VALUE: BZ2_bzWrite:bzf <- $x19
	;DEBUG_VALUE: BZ2_bzWrite:buf <- $x22
	;DEBUG_VALUE: BZ2_bzWrite:len <- $w23
	.loc	1 978 20 is_stmt 1              ; bzlib.c:978:20
	ldr	x0, [x19]
	.loc	1 978 8 is_stmt 0               ; bzlib.c:978:8
	bl	_ferror
Ltmp708:
	.loc	1 978 8                         ; bzlib.c:978:8
	cbz	w0, LBB13_19
Ltmp709:
LBB13_7:
	;DEBUG_VALUE: BZ2_bzWrite:bzerror <- $x20
	;DEBUG_VALUE: BZ2_bzWrite:b <- $x19
	;DEBUG_VALUE: BZ2_bzWrite:bzf <- $x19
	.loc	1 0 0                           ; bzlib.c:0:0
	cbz	x20, LBB13_9
Ltmp710:
; %bb.8:
	;DEBUG_VALUE: BZ2_bzWrite:bzerror <- $x20
	;DEBUG_VALUE: BZ2_bzWrite:b <- $x19
	;DEBUG_VALUE: BZ2_bzWrite:bzf <- $x19
	mov	w8, #-6
	str	w8, [x20]
Ltmp711:
LBB13_9:
	;DEBUG_VALUE: BZ2_bzWrite:bzerror <- $x20
	;DEBUG_VALUE: BZ2_bzWrite:b <- $x19
	;DEBUG_VALUE: BZ2_bzWrite:bzf <- $x19
	mov	w8, #-6
	b	LBB13_17
Ltmp712:
LBB13_10:                               ; %.thread
	;DEBUG_VALUE: BZ2_bzWrite:bzerror <- $x20
	;DEBUG_VALUE: BZ2_bzWrite:b <- $x19
	;DEBUG_VALUE: BZ2_bzWrite:bzf <- $x19
	;DEBUG_VALUE: BZ2_bzWrite:buf <- $x22
	;DEBUG_VALUE: BZ2_bzWrite:len <- $w23
	.loc	1 975 15 is_stmt 1              ; bzlib.c:975:15
	cbz	x20, LBB13_12
Ltmp713:
; %bb.11:
	;DEBUG_VALUE: BZ2_bzWrite:bzerror <- $x20
	;DEBUG_VALUE: BZ2_bzWrite:b <- $x19
	;DEBUG_VALUE: BZ2_bzWrite:bzf <- $x19
	;DEBUG_VALUE: BZ2_bzWrite:buf <- $x22
	;DEBUG_VALUE: BZ2_bzWrite:len <- $w23
	.loc	1 0 15 is_stmt 0                ; bzlib.c:0:15
	mov	w8, #-2
Ltmp714:
	.loc	1 975 48                        ; bzlib.c:975:48
	str	w8, [x20]
Ltmp715:
LBB13_12:
	;DEBUG_VALUE: BZ2_bzWrite:bzerror <- $x20
	;DEBUG_VALUE: BZ2_bzWrite:b <- $x19
	;DEBUG_VALUE: BZ2_bzWrite:bzf <- $x19
	;DEBUG_VALUE: BZ2_bzWrite:buf <- $x22
	;DEBUG_VALUE: BZ2_bzWrite:len <- $w23
	.loc	1 975 60                        ; bzlib.c:975:60
	cbz	x19, LBB13_18
Ltmp716:
; %bb.13:
	;DEBUG_VALUE: BZ2_bzWrite:bzerror <- $x20
	;DEBUG_VALUE: BZ2_bzWrite:b <- $x19
	;DEBUG_VALUE: BZ2_bzWrite:bzf <- $x19
	;DEBUG_VALUE: BZ2_bzWrite:buf <- $x22
	;DEBUG_VALUE: BZ2_bzWrite:len <- $w23
	.loc	1 0 60                          ; bzlib.c:0:60
	mov	w8, #-2
	b	LBB13_17
Ltmp717:
LBB13_14:
	;DEBUG_VALUE: BZ2_bzWrite:bzerror <- $x20
	;DEBUG_VALUE: BZ2_bzWrite:b <- $x19
	;DEBUG_VALUE: BZ2_bzWrite:bzf <- $x19
	;DEBUG_VALUE: BZ2_bzWrite:buf <- $x22
	;DEBUG_VALUE: BZ2_bzWrite:len <- $w23
	.loc	1 977 15 is_stmt 1              ; bzlib.c:977:15
	cbz	x20, LBB13_16
Ltmp718:
; %bb.15:
	;DEBUG_VALUE: BZ2_bzWrite:bzerror <- $x20
	;DEBUG_VALUE: BZ2_bzWrite:b <- $x19
	;DEBUG_VALUE: BZ2_bzWrite:bzf <- $x19
	;DEBUG_VALUE: BZ2_bzWrite:buf <- $x22
	;DEBUG_VALUE: BZ2_bzWrite:len <- $w23
	.loc	1 0 15 is_stmt 0                ; bzlib.c:0:15
	mov	w8, #-1
Ltmp719:
	.loc	1 977 48                        ; bzlib.c:977:48
	str	w8, [x20]
Ltmp720:
LBB13_16:
	;DEBUG_VALUE: BZ2_bzWrite:bzerror <- $x20
	;DEBUG_VALUE: BZ2_bzWrite:b <- $x19
	;DEBUG_VALUE: BZ2_bzWrite:bzf <- $x19
	;DEBUG_VALUE: BZ2_bzWrite:buf <- $x22
	;DEBUG_VALUE: BZ2_bzWrite:len <- $w23
	.loc	1 0 48                          ; bzlib.c:0:48
	mov	w8, #-1
Ltmp721:
LBB13_17:
	;DEBUG_VALUE: BZ2_bzWrite:bzerror <- $x20
	;DEBUG_VALUE: BZ2_bzWrite:b <- $x19
	;DEBUG_VALUE: BZ2_bzWrite:bzf <- $x19
	str	w8, [x19, #5096]
Ltmp722:
LBB13_18:
	;DEBUG_VALUE: BZ2_bzWrite:bzerror <- $x20
	;DEBUG_VALUE: BZ2_bzWrite:b <- $x19
	;DEBUG_VALUE: BZ2_bzWrite:bzf <- $x19
	.loc	1 1005 1 is_stmt 1              ; bzlib.c:1005:1
	ldp	x29, x30, [sp, #48]             ; 16-byte Folded Reload
	ldp	x20, x19, [sp, #32]             ; 16-byte Folded Reload
Ltmp723:
	;DEBUG_VALUE: BZ2_bzWrite:bzerror <- [DW_OP_LLVM_entry_value 1] $x0
	;DEBUG_VALUE: BZ2_bzWrite:b <- [DW_OP_LLVM_entry_value 1] $x1
	ldp	x22, x21, [sp, #16]             ; 16-byte Folded Reload
	ldp	x24, x23, [sp], #64             ; 16-byte Folded Reload
	ret
Ltmp724:
LBB13_19:
	;DEBUG_VALUE: BZ2_bzWrite:bzerror <- $x20
	;DEBUG_VALUE: BZ2_bzWrite:b <- $x19
	;DEBUG_VALUE: BZ2_bzWrite:bzf <- $x19
	;DEBUG_VALUE: BZ2_bzWrite:buf <- $x22
	;DEBUG_VALUE: BZ2_bzWrite:len <- $w23
	.loc	1 981 8                         ; bzlib.c:981:8
	cbz	w23, LBB13_29
Ltmp725:
; %bb.20:
	;DEBUG_VALUE: BZ2_bzWrite:bzerror <- $x20
	;DEBUG_VALUE: BZ2_bzWrite:b <- $x19
	;DEBUG_VALUE: BZ2_bzWrite:bzf <- $x19
	;DEBUG_VALUE: BZ2_bzWrite:buf <- $x22
	;DEBUG_VALUE: BZ2_bzWrite:len <- $w23
	.loc	1 0 8 is_stmt 0                 ; bzlib.c:0:8
	mov	w8, #5016
	.loc	1 984 9 is_stmt 1               ; bzlib.c:984:9
	add	x21, x19, x8
	.loc	1 984 23 is_stmt 0              ; bzlib.c:984:23
	str	w23, [x19, #5024]
	.loc	1 985 22 is_stmt 1              ; bzlib.c:985:22
	str	x22, [x19, #5016]
	add	x22, x19, #8
Ltmp726:
	;DEBUG_VALUE: BZ2_bzWrite:buf <- [DW_OP_LLVM_entry_value 1] $x2
	.loc	1 0 22 is_stmt 0                ; bzlib.c:0:22
	mov	w24, #5000
	b	LBB13_22
Ltmp727:
LBB13_21:                               ;   in Loop: Header=BB13_22 Depth=1
	;DEBUG_VALUE: BZ2_bzWrite:ret <- 1
	;DEBUG_VALUE: BZ2_bzWrite:buf <- [DW_OP_LLVM_entry_value 1] $x2
	;DEBUG_VALUE: BZ2_bzWrite:bzerror <- $x20
	;DEBUG_VALUE: BZ2_bzWrite:b <- $x19
	;DEBUG_VALUE: BZ2_bzWrite:bzf <- $x19
	.loc	1 1002 21 is_stmt 1             ; bzlib.c:1002:21
	ldr	w8, [x19, #5024]
Ltmp728:
	.loc	1 1002 11 is_stmt 0             ; bzlib.c:1002:11
	cbz	w8, LBB13_29
Ltmp729:
LBB13_22:                               ; =>This Inner Loop Header: Depth=1
	;DEBUG_VALUE: BZ2_bzWrite:buf <- [DW_OP_LLVM_entry_value 1] $x2
	;DEBUG_VALUE: BZ2_bzWrite:bzerror <- $x20
	;DEBUG_VALUE: BZ2_bzWrite:b <- $x19
	;DEBUG_VALUE: BZ2_bzWrite:bzf <- $x19
	.loc	1 988 27 is_stmt 1              ; bzlib.c:988:27
	str	w24, [x19, #5048]
	.loc	1 989 26                        ; bzlib.c:989:26
	str	x22, [x19, #5040]
Ltmp730:
	;DEBUG_VALUE: BZ2_bzCompress:action <- 0
	;DEBUG_VALUE: BZ2_bzCompress:strm <- $x21
	.loc	1 412 14                        ; bzlib.c:412:14
	ldr	x8, [x19, #5064]
Ltmp731:
	;DEBUG_VALUE: BZ2_bzCompress:s <- $x8
	.loc	1 413 8                         ; bzlib.c:413:8
	cbz	x8, LBB13_34
Ltmp732:
; %bb.23:                               ;   in Loop: Header=BB13_22 Depth=1
	;DEBUG_VALUE: BZ2_bzCompress:s <- $x8
	;DEBUG_VALUE: BZ2_bzCompress:strm <- $x21
	;DEBUG_VALUE: BZ2_bzCompress:action <- 0
	;DEBUG_VALUE: BZ2_bzWrite:buf <- [DW_OP_LLVM_entry_value 1] $x2
	;DEBUG_VALUE: BZ2_bzWrite:bzerror <- $x20
	;DEBUG_VALUE: BZ2_bzWrite:b <- $x19
	;DEBUG_VALUE: BZ2_bzWrite:bzf <- $x19
	.loc	1 414 11                        ; bzlib.c:414:11
	ldr	x9, [x8]
Ltmp733:
	.loc	1 414 8 is_stmt 0               ; bzlib.c:414:8
	cmp	x9, x21
	b.ne	LBB13_34
Ltmp734:
; %bb.24:                               ; %.preheader.i
                                        ;   in Loop: Header=BB13_22 Depth=1
	;DEBUG_VALUE: BZ2_bzCompress:s <- $x8
	;DEBUG_VALUE: BZ2_bzCompress:strm <- $x21
	;DEBUG_VALUE: BZ2_bzCompress:action <- 0
	;DEBUG_VALUE: BZ2_bzWrite:buf <- [DW_OP_LLVM_entry_value 1] $x2
	;DEBUG_VALUE: BZ2_bzWrite:bzerror <- $x20
	;DEBUG_VALUE: BZ2_bzWrite:b <- $x19
	;DEBUG_VALUE: BZ2_bzWrite:bzf <- $x19
	.loc	1 0 8                           ; bzlib.c:0:8
	ldr	w8, [x8, #8]
Ltmp735:
	;DEBUG_LABEL: BZ2_bzCompress:preswitch
	.loc	1 417 4 is_stmt 1               ; bzlib.c:417:4
	cmp	w8, #2
	b.ne	LBB13_32
Ltmp736:
; %bb.25:                               ;   in Loop: Header=BB13_22 Depth=1
	;DEBUG_VALUE: BZ2_bzCompress:strm <- $x21
	;DEBUG_VALUE: BZ2_bzCompress:action <- 0
	;DEBUG_VALUE: BZ2_bzWrite:buf <- [DW_OP_LLVM_entry_value 1] $x2
	;DEBUG_VALUE: BZ2_bzWrite:bzerror <- $x20
	;DEBUG_VALUE: BZ2_bzWrite:b <- $x19
	;DEBUG_VALUE: BZ2_bzWrite:bzf <- $x19
	.loc	1 424 24                        ; bzlib.c:424:24
	mov	x0, x21
	bl	_handle_compress
Ltmp737:
	;DEBUG_VALUE: BZ2_bzCompress:progress <- $w0
	.loc	1 0 0 is_stmt 0                 ; bzlib.c:0:0
	cbz	w0, LBB13_34
Ltmp738:
; %bb.26:                               ; %BZ2_bzCompress.exit
                                        ;   in Loop: Header=BB13_22 Depth=1
	;DEBUG_VALUE: BZ2_bzWrite:buf <- [DW_OP_LLVM_entry_value 1] $x2
	;DEBUG_VALUE: BZ2_bzWrite:bzerror <- $x20
	;DEBUG_VALUE: BZ2_bzWrite:b <- $x19
	;DEBUG_VALUE: BZ2_bzWrite:bzf <- $x19
	;DEBUG_VALUE: BZ2_bzWrite:ret <- 1
	.loc	1 994 21 is_stmt 1              ; bzlib.c:994:21
	ldr	w8, [x19, #5048]
Ltmp739:
	.loc	1 994 11 is_stmt 0              ; bzlib.c:994:11
	ubfx	x9, x8, #3, #29
	cmp	w9, #624
	b.hi	LBB13_21
Ltmp740:
; %bb.27:                               ;   in Loop: Header=BB13_22 Depth=1
	;DEBUG_VALUE: BZ2_bzWrite:ret <- 1
	;DEBUG_VALUE: BZ2_bzWrite:buf <- [DW_OP_LLVM_entry_value 1] $x2
	;DEBUG_VALUE: BZ2_bzWrite:bzerror <- $x20
	;DEBUG_VALUE: BZ2_bzWrite:b <- $x19
	;DEBUG_VALUE: BZ2_bzWrite:bzf <- $x19
	.loc	1 995 19 is_stmt 1              ; bzlib.c:995:19
	sub	x23, x24, x8
Ltmp741:
	;DEBUG_VALUE: BZ2_bzWrite:n <- $w23
	.loc	1 997 32                        ; bzlib.c:997:32
	ldr	x3, [x19]
	.loc	1 996 15                        ; bzlib.c:996:15
	mov	x0, x22
	mov	w1, #1
	mov	x2, x23
	bl	_fwrite
Ltmp742:
	;DEBUG_VALUE: BZ2_bzWrite:n2 <- $w0
	.loc	1 998 22                        ; bzlib.c:998:22
	cmp	w23, w0
	b.ne	LBB13_7
Ltmp743:
; %bb.28:                               ;   in Loop: Header=BB13_22 Depth=1
	;DEBUG_VALUE: BZ2_bzWrite:n2 <- $w0
	;DEBUG_VALUE: BZ2_bzWrite:n <- $w23
	;DEBUG_VALUE: BZ2_bzWrite:ret <- 1
	;DEBUG_VALUE: BZ2_bzWrite:buf <- [DW_OP_LLVM_entry_value 1] $x2
	;DEBUG_VALUE: BZ2_bzWrite:bzerror <- $x20
	;DEBUG_VALUE: BZ2_bzWrite:b <- $x19
	;DEBUG_VALUE: BZ2_bzWrite:bzf <- $x19
	.loc	1 998 37 is_stmt 0              ; bzlib.c:998:37
	ldr	x0, [x19]
Ltmp744:
	.loc	1 998 25                        ; bzlib.c:998:25
	bl	_ferror
Ltmp745:
	.loc	1 0 25                          ; bzlib.c:0:25
	cbz	w0, LBB13_21
	b	LBB13_7
Ltmp746:
LBB13_29:
	;DEBUG_VALUE: BZ2_bzWrite:bzerror <- $x20
	;DEBUG_VALUE: BZ2_bzWrite:b <- $x19
	;DEBUG_VALUE: BZ2_bzWrite:bzf <- $x19
	cbz	x20, LBB13_31
Ltmp747:
; %bb.30:
	;DEBUG_VALUE: BZ2_bzWrite:bzerror <- $x20
	;DEBUG_VALUE: BZ2_bzWrite:b <- $x19
	;DEBUG_VALUE: BZ2_bzWrite:bzf <- $x19
	str	wzr, [x20]
Ltmp748:
LBB13_31:
	;DEBUG_VALUE: BZ2_bzWrite:bzerror <- $x20
	;DEBUG_VALUE: BZ2_bzWrite:b <- $x19
	;DEBUG_VALUE: BZ2_bzWrite:bzf <- $x19
	str	wzr, [x19, #5096]
	b	LBB13_18
Ltmp749:
LBB13_32:                               ; %.preheader.i
	;DEBUG_VALUE: BZ2_bzCompress:strm <- $x21
	;DEBUG_VALUE: BZ2_bzCompress:action <- 0
	;DEBUG_VALUE: BZ2_bzWrite:buf <- [DW_OP_LLVM_entry_value 1] $x2
	;DEBUG_VALUE: BZ2_bzWrite:bzerror <- $x20
	;DEBUG_VALUE: BZ2_bzWrite:b <- $x19
	;DEBUG_VALUE: BZ2_bzWrite:bzf <- $x19
	cmp	w8, #4
	mov	w9, #1
	lsl	w8, w9, w8
	mov	w9, #26
	and	w8, w8, w9
	ccmp	w8, #0, #4, ls
	b.eq	LBB13_35
Ltmp750:
; %bb.33:                               ; %select.unfold.loopexit81
	;DEBUG_VALUE: BZ2_bzCompress:strm <- $x21
	;DEBUG_VALUE: BZ2_bzCompress:action <- 0
	;DEBUG_VALUE: BZ2_bzWrite:buf <- [DW_OP_LLVM_entry_value 1] $x2
	;DEBUG_VALUE: BZ2_bzWrite:bzerror <- $x20
	;DEBUG_VALUE: BZ2_bzWrite:b <- $x19
	;DEBUG_VALUE: BZ2_bzWrite:bzf <- $x19
	mov	w8, #-1
	b	LBB13_36
Ltmp751:
LBB13_34:
	;DEBUG_VALUE: BZ2_bzCompress:strm <- $x21
	;DEBUG_VALUE: BZ2_bzCompress:action <- 0
	;DEBUG_VALUE: BZ2_bzWrite:buf <- [DW_OP_LLVM_entry_value 1] $x2
	;DEBUG_VALUE: BZ2_bzWrite:bzerror <- $x20
	;DEBUG_VALUE: BZ2_bzWrite:b <- $x19
	;DEBUG_VALUE: BZ2_bzWrite:bzf <- $x19
	mov	w8, #-2
	b	LBB13_36
Ltmp752:
LBB13_35:
	;DEBUG_VALUE: BZ2_bzCompress:strm <- $x21
	;DEBUG_VALUE: BZ2_bzCompress:action <- 0
	;DEBUG_VALUE: BZ2_bzWrite:buf <- [DW_OP_LLVM_entry_value 1] $x2
	;DEBUG_VALUE: BZ2_bzWrite:bzerror <- $x20
	;DEBUG_VALUE: BZ2_bzWrite:b <- $x19
	;DEBUG_VALUE: BZ2_bzWrite:bzf <- $x19
	mov	w8, #0
Ltmp753:
LBB13_36:                               ; %select.unfold
	;DEBUG_VALUE: BZ2_bzWrite:buf <- [DW_OP_LLVM_entry_value 1] $x2
	;DEBUG_VALUE: BZ2_bzWrite:bzerror <- $x20
	;DEBUG_VALUE: BZ2_bzWrite:b <- $x19
	;DEBUG_VALUE: BZ2_bzWrite:bzf <- $x19
	;DEBUG_VALUE: BZ2_bzWrite:ret <- 1
	.loc	1 992 18 is_stmt 1              ; bzlib.c:992:18
	cbz	x20, LBB13_17
Ltmp754:
; %bb.37:
	;DEBUG_VALUE: BZ2_bzWrite:ret <- 1
	;DEBUG_VALUE: BZ2_bzWrite:buf <- [DW_OP_LLVM_entry_value 1] $x2
	;DEBUG_VALUE: BZ2_bzWrite:bzerror <- $x20
	;DEBUG_VALUE: BZ2_bzWrite:b <- $x19
	;DEBUG_VALUE: BZ2_bzWrite:bzf <- $x19
	.loc	1 992 51 is_stmt 0              ; bzlib.c:992:51
	str	w8, [x20]
	b	LBB13_17
Ltmp755:
Lfunc_end13:
	.cfi_endproc
                                        ; -- End function
	.globl	_BZ2_bzWriteClose               ; -- Begin function BZ2_bzWriteClose
	.p2align	2
_BZ2_bzWriteClose:                      ; @BZ2_bzWriteClose
Lfunc_begin14:
	.loc	1 1015 0 is_stmt 1              ; bzlib.c:1015:0
	.cfi_startproc
; %bb.0:
	;DEBUG_VALUE: BZ2_bzWriteClose:bzerror <- $x0
	;DEBUG_VALUE: BZ2_bzWriteClose:b <- $x1
	;DEBUG_VALUE: BZ2_bzWriteClose:abandon <- $w2
	;DEBUG_VALUE: BZ2_bzWriteClose:nbytes_in <- $x3
	;DEBUG_VALUE: BZ2_bzWriteClose:nbytes_out <- $x4
	mov	x5, x4
Ltmp756:
	;DEBUG_VALUE: BZ2_bzWriteClose:nbytes_out <- $x5
	.loc	1 1016 4 prologue_end           ; bzlib.c:1016:4
	mov	x4, #0
	mov	x6, #0
Ltmp757:
	b	_BZ2_bzWriteClose64
Ltmp758:
Lfunc_end14:
	.cfi_endproc
                                        ; -- End function
	.globl	_BZ2_bzWriteClose64             ; -- Begin function BZ2_bzWriteClose64
	.p2align	2
_BZ2_bzWriteClose64:                    ; @BZ2_bzWriteClose64
Lfunc_begin15:
	.loc	1 1029 0                        ; bzlib.c:1029:0
	.cfi_startproc
; %bb.0:
	;DEBUG_VALUE: BZ2_bzWriteClose64:bzerror <- $x0
	;DEBUG_VALUE: BZ2_bzWriteClose64:b <- $x1
	;DEBUG_VALUE: BZ2_bzWriteClose64:abandon <- $w2
	;DEBUG_VALUE: BZ2_bzWriteClose64:nbytes_in_lo32 <- $x3
	;DEBUG_VALUE: BZ2_bzWriteClose64:nbytes_in_hi32 <- $x4
	;DEBUG_VALUE: BZ2_bzWriteClose64:nbytes_out_lo32 <- $x5
	;DEBUG_VALUE: BZ2_bzWriteClose64:nbytes_out_hi32 <- $x6
	;DEBUG_VALUE: BZ2_bzWriteClose64:nbytes_out_hi32 <- $x6
	;DEBUG_VALUE: BZ2_bzWriteClose64:nbytes_out_lo32 <- $x5
	;DEBUG_VALUE: BZ2_bzWriteClose64:nbytes_in_hi32 <- $x4
	;DEBUG_VALUE: BZ2_bzWriteClose64:nbytes_in_lo32 <- $x3
	;DEBUG_VALUE: BZ2_bzWriteClose64:abandon <- $w2
	;DEBUG_VALUE: BZ2_bzWriteClose64:b <- $x1
	stp	x28, x27, [sp, #-96]!           ; 16-byte Folded Spill
	.cfi_def_cfa_offset 96
	stp	x26, x25, [sp, #16]             ; 16-byte Folded Spill
	stp	x24, x23, [sp, #32]             ; 16-byte Folded Spill
	stp	x22, x21, [sp, #48]             ; 16-byte Folded Spill
	stp	x20, x19, [sp, #64]             ; 16-byte Folded Spill
	stp	x29, x30, [sp, #80]             ; 16-byte Folded Spill
	add	x29, sp, #80
	.cfi_def_cfa w29, 16
	.cfi_offset w30, -8
	.cfi_offset w29, -16
	.cfi_offset w19, -24
	.cfi_offset w20, -32
	.cfi_offset w21, -40
	.cfi_offset w22, -48
	.cfi_offset w23, -56
	.cfi_offset w24, -64
	.cfi_offset w25, -72
	.cfi_offset w26, -80
	.cfi_offset w27, -88
	.cfi_offset w28, -96
Ltmp759:
	;DEBUG_VALUE: BZ2_bzWriteClose64:bzf <- $x1
	;DEBUG_VALUE: BZ2_bzWriteClose64:bzf <- $x1
	mov	x20, x0
Ltmp760:
	;DEBUG_VALUE: BZ2_bzWriteClose64:bzerror <- $x20
	.loc	1 1033 8 prologue_end           ; bzlib.c:1033:8
	cbz	x1, LBB15_6
Ltmp761:
; %bb.1:
	;DEBUG_VALUE: BZ2_bzWriteClose64:bzerror <- $x20
	;DEBUG_VALUE: BZ2_bzWriteClose64:bzf <- $x1
	;DEBUG_VALUE: BZ2_bzWriteClose64:nbytes_out_hi32 <- $x6
	;DEBUG_VALUE: BZ2_bzWriteClose64:nbytes_out_lo32 <- $x5
	;DEBUG_VALUE: BZ2_bzWriteClose64:nbytes_in_hi32 <- $x4
	;DEBUG_VALUE: BZ2_bzWriteClose64:nbytes_in_lo32 <- $x3
	;DEBUG_VALUE: BZ2_bzWriteClose64:abandon <- $w2
	;DEBUG_VALUE: BZ2_bzWriteClose64:b <- $x1
	;DEBUG_VALUE: BZ2_bzWriteClose64:nbytes_out_hi32 <- $x6
	;DEBUG_VALUE: BZ2_bzWriteClose64:nbytes_out_lo32 <- $x5
	;DEBUG_VALUE: BZ2_bzWriteClose64:nbytes_in_hi32 <- $x4
	;DEBUG_VALUE: BZ2_bzWriteClose64:nbytes_in_lo32 <- $x3
	;DEBUG_VALUE: BZ2_bzWriteClose64:abandon <- $w2
	.loc	1 0 8 is_stmt 0                 ; bzlib.c:0:8
	mov	x19, x1
Ltmp762:
	;DEBUG_VALUE: BZ2_bzWriteClose64:b <- $x19
	;DEBUG_VALUE: BZ2_bzWriteClose64:bzf <- $x19
	mov	w8, #5012
Ltmp763:
	.loc	1 1035 15 is_stmt 1             ; bzlib.c:1035:15
	ldrb	w8, [x1, x8]
Ltmp764:
	.loc	1 1035 8 is_stmt 0              ; bzlib.c:1035:8
	cbz	w8, LBB15_8
Ltmp765:
; %bb.2:
	;DEBUG_VALUE: BZ2_bzWriteClose64:bzf <- $x19
	;DEBUG_VALUE: BZ2_bzWriteClose64:b <- $x19
	;DEBUG_VALUE: BZ2_bzWriteClose64:bzerror <- $x20
	;DEBUG_VALUE: BZ2_bzWriteClose64:nbytes_out_hi32 <- $x6
	;DEBUG_VALUE: BZ2_bzWriteClose64:nbytes_out_lo32 <- $x5
	;DEBUG_VALUE: BZ2_bzWriteClose64:nbytes_in_hi32 <- $x4
	;DEBUG_VALUE: BZ2_bzWriteClose64:nbytes_in_lo32 <- $x3
	;DEBUG_VALUE: BZ2_bzWriteClose64:abandon <- $w2
	.loc	1 0 8                           ; bzlib.c:0:8
	mov	x21, x6
Ltmp766:
	;DEBUG_VALUE: BZ2_bzWriteClose64:nbytes_out_hi32 <- $x21
	mov	x22, x5
Ltmp767:
	;DEBUG_VALUE: BZ2_bzWriteClose64:nbytes_out_lo32 <- $x22
	mov	x23, x4
Ltmp768:
	;DEBUG_VALUE: BZ2_bzWriteClose64:nbytes_in_hi32 <- $x23
	mov	x24, x3
Ltmp769:
	;DEBUG_VALUE: BZ2_bzWriteClose64:nbytes_in_lo32 <- $x24
	mov	x26, x2
Ltmp770:
	;DEBUG_VALUE: BZ2_bzWriteClose64:abandon <- $w26
	.loc	1 1037 20 is_stmt 1             ; bzlib.c:1037:20
	ldr	x25, [x19]
	.loc	1 1037 8 is_stmt 0              ; bzlib.c:1037:8
	mov	x0, x25
	bl	_ferror
Ltmp771:
	.loc	1 1037 8                        ; bzlib.c:1037:8
	cbz	w0, LBB15_13
Ltmp772:
LBB15_3:
	;DEBUG_VALUE: BZ2_bzWriteClose64:nbytes_in_lo32 <- $x24
	;DEBUG_VALUE: BZ2_bzWriteClose64:nbytes_in_hi32 <- $x23
	;DEBUG_VALUE: BZ2_bzWriteClose64:nbytes_out_lo32 <- $x22
	;DEBUG_VALUE: BZ2_bzWriteClose64:nbytes_out_hi32 <- $x21
	;DEBUG_VALUE: BZ2_bzWriteClose64:bzf <- $x19
	;DEBUG_VALUE: BZ2_bzWriteClose64:b <- $x19
	;DEBUG_VALUE: BZ2_bzWriteClose64:bzerror <- $x20
	.loc	1 0 0                           ; bzlib.c:0:0
	cbz	x20, LBB15_5
Ltmp773:
; %bb.4:
	;DEBUG_VALUE: BZ2_bzWriteClose64:nbytes_in_lo32 <- $x24
	;DEBUG_VALUE: BZ2_bzWriteClose64:nbytes_in_hi32 <- $x23
	;DEBUG_VALUE: BZ2_bzWriteClose64:nbytes_out_lo32 <- $x22
	;DEBUG_VALUE: BZ2_bzWriteClose64:nbytes_out_hi32 <- $x21
	;DEBUG_VALUE: BZ2_bzWriteClose64:bzf <- $x19
	;DEBUG_VALUE: BZ2_bzWriteClose64:b <- $x19
	;DEBUG_VALUE: BZ2_bzWriteClose64:bzerror <- $x20
	mov	w8, #-6
	str	w8, [x20]
Ltmp774:
LBB15_5:
	;DEBUG_VALUE: BZ2_bzWriteClose64:nbytes_in_lo32 <- $x24
	;DEBUG_VALUE: BZ2_bzWriteClose64:nbytes_in_hi32 <- $x23
	;DEBUG_VALUE: BZ2_bzWriteClose64:nbytes_out_lo32 <- $x22
	;DEBUG_VALUE: BZ2_bzWriteClose64:nbytes_out_hi32 <- $x21
	;DEBUG_VALUE: BZ2_bzWriteClose64:bzf <- $x19
	;DEBUG_VALUE: BZ2_bzWriteClose64:b <- $x19
	;DEBUG_VALUE: BZ2_bzWriteClose64:bzerror <- $x20
	mov	w8, #-6
	b	LBB15_11
Ltmp775:
LBB15_6:
	;DEBUG_VALUE: BZ2_bzWriteClose64:bzerror <- $x20
	;DEBUG_VALUE: BZ2_bzWriteClose64:bzf <- $x1
	;DEBUG_VALUE: BZ2_bzWriteClose64:nbytes_out_hi32 <- $x6
	;DEBUG_VALUE: BZ2_bzWriteClose64:nbytes_out_lo32 <- $x5
	;DEBUG_VALUE: BZ2_bzWriteClose64:nbytes_in_hi32 <- $x4
	;DEBUG_VALUE: BZ2_bzWriteClose64:nbytes_in_lo32 <- $x3
	;DEBUG_VALUE: BZ2_bzWriteClose64:abandon <- $w2
	;DEBUG_VALUE: BZ2_bzWriteClose64:b <- $x1
	.loc	1 1034 15 is_stmt 1             ; bzlib.c:1034:15
	cbz	x20, LBB15_12
Ltmp776:
; %bb.7:
	;DEBUG_VALUE: BZ2_bzWriteClose64:bzerror <- $x20
	;DEBUG_VALUE: BZ2_bzWriteClose64:bzf <- $x1
	;DEBUG_VALUE: BZ2_bzWriteClose64:nbytes_out_hi32 <- $x6
	;DEBUG_VALUE: BZ2_bzWriteClose64:nbytes_out_lo32 <- $x5
	;DEBUG_VALUE: BZ2_bzWriteClose64:nbytes_in_hi32 <- $x4
	;DEBUG_VALUE: BZ2_bzWriteClose64:nbytes_in_lo32 <- $x3
	;DEBUG_VALUE: BZ2_bzWriteClose64:abandon <- $w2
	;DEBUG_VALUE: BZ2_bzWriteClose64:b <- $x1
	.loc	1 1034 48 is_stmt 0             ; bzlib.c:1034:48
	str	wzr, [x20]
	b	LBB15_12
Ltmp777:
LBB15_8:
	;DEBUG_VALUE: BZ2_bzWriteClose64:bzf <- $x19
	;DEBUG_VALUE: BZ2_bzWriteClose64:b <- $x19
	;DEBUG_VALUE: BZ2_bzWriteClose64:bzerror <- $x20
	;DEBUG_VALUE: BZ2_bzWriteClose64:nbytes_out_hi32 <- $x6
	;DEBUG_VALUE: BZ2_bzWriteClose64:nbytes_out_lo32 <- $x5
	;DEBUG_VALUE: BZ2_bzWriteClose64:nbytes_in_hi32 <- $x4
	;DEBUG_VALUE: BZ2_bzWriteClose64:nbytes_in_lo32 <- $x3
	;DEBUG_VALUE: BZ2_bzWriteClose64:abandon <- $w2
	.loc	1 1036 15 is_stmt 1             ; bzlib.c:1036:15
	cbz	x20, LBB15_10
Ltmp778:
; %bb.9:
	;DEBUG_VALUE: BZ2_bzWriteClose64:bzf <- $x19
	;DEBUG_VALUE: BZ2_bzWriteClose64:b <- $x19
	;DEBUG_VALUE: BZ2_bzWriteClose64:bzerror <- $x20
	;DEBUG_VALUE: BZ2_bzWriteClose64:nbytes_out_hi32 <- $x6
	;DEBUG_VALUE: BZ2_bzWriteClose64:nbytes_out_lo32 <- $x5
	;DEBUG_VALUE: BZ2_bzWriteClose64:nbytes_in_hi32 <- $x4
	;DEBUG_VALUE: BZ2_bzWriteClose64:nbytes_in_lo32 <- $x3
	;DEBUG_VALUE: BZ2_bzWriteClose64:abandon <- $w2
	.loc	1 0 15 is_stmt 0                ; bzlib.c:0:15
	mov	w8, #-1
Ltmp779:
	.loc	1 1036 48                       ; bzlib.c:1036:48
	str	w8, [x20]
Ltmp780:
LBB15_10:
	;DEBUG_VALUE: BZ2_bzWriteClose64:bzf <- $x19
	;DEBUG_VALUE: BZ2_bzWriteClose64:b <- $x19
	;DEBUG_VALUE: BZ2_bzWriteClose64:bzerror <- $x20
	;DEBUG_VALUE: BZ2_bzWriteClose64:nbytes_out_hi32 <- $x6
	;DEBUG_VALUE: BZ2_bzWriteClose64:nbytes_out_lo32 <- $x5
	;DEBUG_VALUE: BZ2_bzWriteClose64:nbytes_in_hi32 <- $x4
	;DEBUG_VALUE: BZ2_bzWriteClose64:nbytes_in_lo32 <- $x3
	;DEBUG_VALUE: BZ2_bzWriteClose64:abandon <- $w2
	.loc	1 0 48                          ; bzlib.c:0:48
	mov	w8, #-1
Ltmp781:
LBB15_11:
	;DEBUG_VALUE: BZ2_bzWriteClose64:bzf <- $x19
	;DEBUG_VALUE: BZ2_bzWriteClose64:b <- $x19
	;DEBUG_VALUE: BZ2_bzWriteClose64:bzerror <- $x20
	str	w8, [x19, #5096]
Ltmp782:
LBB15_12:
	;DEBUG_VALUE: BZ2_bzWriteClose64:bzerror <- $x20
	.loc	1 1083 1 is_stmt 1              ; bzlib.c:1083:1
	ldp	x29, x30, [sp, #80]             ; 16-byte Folded Reload
	ldp	x20, x19, [sp, #64]             ; 16-byte Folded Reload
Ltmp783:
	;DEBUG_VALUE: BZ2_bzWriteClose64:bzerror <- [DW_OP_LLVM_entry_value 1] $x0
	ldp	x22, x21, [sp, #48]             ; 16-byte Folded Reload
	ldp	x24, x23, [sp, #32]             ; 16-byte Folded Reload
	ldp	x26, x25, [sp, #16]             ; 16-byte Folded Reload
	ldp	x28, x27, [sp], #96             ; 16-byte Folded Reload
	ret
Ltmp784:
LBB15_13:
	;DEBUG_VALUE: BZ2_bzWriteClose64:abandon <- $w26
	;DEBUG_VALUE: BZ2_bzWriteClose64:nbytes_in_lo32 <- $x24
	;DEBUG_VALUE: BZ2_bzWriteClose64:nbytes_in_hi32 <- $x23
	;DEBUG_VALUE: BZ2_bzWriteClose64:nbytes_out_lo32 <- $x22
	;DEBUG_VALUE: BZ2_bzWriteClose64:nbytes_out_hi32 <- $x21
	;DEBUG_VALUE: BZ2_bzWriteClose64:bzf <- $x19
	;DEBUG_VALUE: BZ2_bzWriteClose64:b <- $x19
	;DEBUG_VALUE: BZ2_bzWriteClose64:bzerror <- $x20
	.loc	1 1040 8                        ; bzlib.c:1040:8
	cbz	x24, LBB15_15
Ltmp785:
; %bb.14:
	;DEBUG_VALUE: BZ2_bzWriteClose64:abandon <- $w26
	;DEBUG_VALUE: BZ2_bzWriteClose64:nbytes_in_lo32 <- $x24
	;DEBUG_VALUE: BZ2_bzWriteClose64:nbytes_in_hi32 <- $x23
	;DEBUG_VALUE: BZ2_bzWriteClose64:nbytes_out_lo32 <- $x22
	;DEBUG_VALUE: BZ2_bzWriteClose64:nbytes_out_hi32 <- $x21
	;DEBUG_VALUE: BZ2_bzWriteClose64:bzf <- $x19
	;DEBUG_VALUE: BZ2_bzWriteClose64:b <- $x19
	;DEBUG_VALUE: BZ2_bzWriteClose64:bzerror <- $x20
	.loc	1 1040 55 is_stmt 0             ; bzlib.c:1040:55
	str	wzr, [x24]
Ltmp786:
LBB15_15:
	;DEBUG_VALUE: BZ2_bzWriteClose64:abandon <- $w26
	;DEBUG_VALUE: BZ2_bzWriteClose64:nbytes_in_lo32 <- $x24
	;DEBUG_VALUE: BZ2_bzWriteClose64:nbytes_in_hi32 <- $x23
	;DEBUG_VALUE: BZ2_bzWriteClose64:nbytes_out_lo32 <- $x22
	;DEBUG_VALUE: BZ2_bzWriteClose64:nbytes_out_hi32 <- $x21
	;DEBUG_VALUE: BZ2_bzWriteClose64:bzf <- $x19
	;DEBUG_VALUE: BZ2_bzWriteClose64:b <- $x19
	;DEBUG_VALUE: BZ2_bzWriteClose64:bzerror <- $x20
	.loc	1 1041 8 is_stmt 1              ; bzlib.c:1041:8
	cbz	x23, LBB15_17
Ltmp787:
; %bb.16:
	;DEBUG_VALUE: BZ2_bzWriteClose64:abandon <- $w26
	;DEBUG_VALUE: BZ2_bzWriteClose64:nbytes_in_lo32 <- $x24
	;DEBUG_VALUE: BZ2_bzWriteClose64:nbytes_in_hi32 <- $x23
	;DEBUG_VALUE: BZ2_bzWriteClose64:nbytes_out_lo32 <- $x22
	;DEBUG_VALUE: BZ2_bzWriteClose64:nbytes_out_hi32 <- $x21
	;DEBUG_VALUE: BZ2_bzWriteClose64:bzf <- $x19
	;DEBUG_VALUE: BZ2_bzWriteClose64:b <- $x19
	;DEBUG_VALUE: BZ2_bzWriteClose64:bzerror <- $x20
	.loc	1 1041 55 is_stmt 0             ; bzlib.c:1041:55
	str	wzr, [x23]
Ltmp788:
LBB15_17:
	;DEBUG_VALUE: BZ2_bzWriteClose64:abandon <- $w26
	;DEBUG_VALUE: BZ2_bzWriteClose64:nbytes_in_lo32 <- $x24
	;DEBUG_VALUE: BZ2_bzWriteClose64:nbytes_in_hi32 <- $x23
	;DEBUG_VALUE: BZ2_bzWriteClose64:nbytes_out_lo32 <- $x22
	;DEBUG_VALUE: BZ2_bzWriteClose64:nbytes_out_hi32 <- $x21
	;DEBUG_VALUE: BZ2_bzWriteClose64:bzf <- $x19
	;DEBUG_VALUE: BZ2_bzWriteClose64:b <- $x19
	;DEBUG_VALUE: BZ2_bzWriteClose64:bzerror <- $x20
	.loc	1 1042 8 is_stmt 1              ; bzlib.c:1042:8
	cbz	x22, LBB15_19
Ltmp789:
; %bb.18:
	;DEBUG_VALUE: BZ2_bzWriteClose64:abandon <- $w26
	;DEBUG_VALUE: BZ2_bzWriteClose64:nbytes_in_lo32 <- $x24
	;DEBUG_VALUE: BZ2_bzWriteClose64:nbytes_in_hi32 <- $x23
	;DEBUG_VALUE: BZ2_bzWriteClose64:nbytes_out_lo32 <- $x22
	;DEBUG_VALUE: BZ2_bzWriteClose64:nbytes_out_hi32 <- $x21
	;DEBUG_VALUE: BZ2_bzWriteClose64:bzf <- $x19
	;DEBUG_VALUE: BZ2_bzWriteClose64:b <- $x19
	;DEBUG_VALUE: BZ2_bzWriteClose64:bzerror <- $x20
	.loc	1 1042 57 is_stmt 0             ; bzlib.c:1042:57
	str	wzr, [x22]
Ltmp790:
LBB15_19:
	;DEBUG_VALUE: BZ2_bzWriteClose64:abandon <- $w26
	;DEBUG_VALUE: BZ2_bzWriteClose64:nbytes_in_lo32 <- $x24
	;DEBUG_VALUE: BZ2_bzWriteClose64:nbytes_in_hi32 <- $x23
	;DEBUG_VALUE: BZ2_bzWriteClose64:nbytes_out_lo32 <- $x22
	;DEBUG_VALUE: BZ2_bzWriteClose64:nbytes_out_hi32 <- $x21
	;DEBUG_VALUE: BZ2_bzWriteClose64:bzf <- $x19
	;DEBUG_VALUE: BZ2_bzWriteClose64:b <- $x19
	;DEBUG_VALUE: BZ2_bzWriteClose64:bzerror <- $x20
	.loc	1 1043 8 is_stmt 1              ; bzlib.c:1043:8
	cbz	x21, LBB15_21
Ltmp791:
; %bb.20:
	;DEBUG_VALUE: BZ2_bzWriteClose64:abandon <- $w26
	;DEBUG_VALUE: BZ2_bzWriteClose64:nbytes_in_lo32 <- $x24
	;DEBUG_VALUE: BZ2_bzWriteClose64:nbytes_in_hi32 <- $x23
	;DEBUG_VALUE: BZ2_bzWriteClose64:nbytes_out_lo32 <- $x22
	;DEBUG_VALUE: BZ2_bzWriteClose64:nbytes_out_hi32 <- $x21
	;DEBUG_VALUE: BZ2_bzWriteClose64:bzf <- $x19
	;DEBUG_VALUE: BZ2_bzWriteClose64:b <- $x19
	;DEBUG_VALUE: BZ2_bzWriteClose64:bzerror <- $x20
	.loc	1 1043 57 is_stmt 0             ; bzlib.c:1043:57
