	.section	__TEXT,__text,regular,pure_instructions
	.build_version macos, 14, 0	sdk_version 14, 2
	.file	1 "/Users/mac/rustmap-clone/c-code/bzip2" "compress.c"
	.file	2 "/Users/mac/rustmap-clone/c-code/bzip2" "./bzlib_private.h"
	.globl	_BZ2_bsInitWrite                ; -- Begin function BZ2_bsInitWrite
	.p2align	2
_BZ2_bsInitWrite:                       ; @BZ2_bsInitWrite
Lfunc_begin0:
	.loc	1 38 0                          ; compress.c:38:0
	.cfi_startproc
; %bb.0:
	;DEBUG_VALUE: BZ2_bsInitWrite:s <- $x0
	.loc	1 40 14 prologue_end            ; compress.c:40:14
	movi.2d	v0, #0000000000000000
	str	d0, [x0, #640]
	.loc	1 41 1                          ; compress.c:41:1
	ret
Ltmp0:
Lfunc_end0:
	.cfi_endproc
                                        ; -- End function
	.section	__TEXT,__literal8,8byte_literals
	.p2align	3, 0x0                          ; -- Begin function BZ2_compressBlock
lCPI1_0:
	.long	1107296256                      ; 0x42000000
	.long	8                               ; 0x8
	.section	__TEXT,__literal16,16byte_literals
	.p2align	4, 0x0
lCPI1_1:
	.byte	0                               ; 0x0
	.byte	1                               ; 0x1
	.byte	2                               ; 0x2
	.byte	3                               ; 0x3
	.byte	4                               ; 0x4
	.byte	5                               ; 0x5
	.byte	6                               ; 0x6
	.byte	7                               ; 0x7
	.byte	8                               ; 0x8
	.byte	9                               ; 0x9
	.byte	10                              ; 0xa
	.byte	11                              ; 0xb
	.byte	12                              ; 0xc
	.byte	13                              ; 0xd
	.byte	14                              ; 0xe
	.byte	15                              ; 0xf
	.section	__TEXT,__text,regular,pure_instructions
	.globl	_BZ2_compressBlock
	.p2align	2
_BZ2_compressBlock:                     ; @BZ2_compressBlock
Lfunc_begin1:
	.loc	1 603 0                         ; compress.c:603:0
	.cfi_startproc
; %bb.0:
	;DEBUG_VALUE: BZ2_compressBlock:s <- $x0
	;DEBUG_VALUE: BZ2_compressBlock:is_last_block <- $w1
	sub	sp, sp, #384
	.cfi_def_cfa_offset 384
	stp	x28, x27, [sp, #304]            ; 16-byte Folded Spill
	stp	x24, x23, [sp, #320]            ; 16-byte Folded Spill
	stp	x22, x21, [sp, #336]            ; 16-byte Folded Spill
	stp	x20, x19, [sp, #352]            ; 16-byte Folded Spill
	stp	x29, x30, [sp, #368]            ; 16-byte Folded Spill
	add	x29, sp, #368
	.cfi_def_cfa w29, 16
	.cfi_offset w30, -8
	.cfi_offset w29, -16
	.cfi_offset w19, -24
	.cfi_offset w20, -32
	.cfi_offset w21, -40
	.cfi_offset w22, -48
	.cfi_offset w23, -56
	.cfi_offset w24, -64
	.cfi_offset w27, -72
	.cfi_offset w28, -80
	mov	x20, x1
Ltmp1:
	;DEBUG_VALUE: BZ2_compressBlock:is_last_block <- $w20
	mov	x19, x0
Ltmp2:
	;DEBUG_VALUE: BZ2_compressBlock:s <- $x19
Lloh0:
	adrp	x8, ___stack_chk_guard@GOTPAGE
Lloh1:
	ldr	x8, [x8, ___stack_chk_guard@GOTPAGEOFF]
Lloh2:
	ldr	x8, [x8]
	stur	x8, [x29, #-72]
Ltmp3:
	.loc	1 604 11 prologue_end           ; compress.c:604:11
	ldr	w8, [x0, #108]
Ltmp4:
	.loc	1 604 8 is_stmt 0               ; compress.c:604:8
	cmp	w8, #1
	b.lt	LBB1_6
Ltmp5:
; %bb.1:
	;DEBUG_VALUE: BZ2_compressBlock:s <- $x19
	;DEBUG_VALUE: BZ2_compressBlock:is_last_block <- $w20
	.loc	1 606 28 is_stmt 1              ; compress.c:606:28
	ldr	w10, [x19, #648]
	.loc	1 606 23 is_stmt 0              ; compress.c:606:23
	mvn	w9, w10
	.loc	1 606 21                        ; compress.c:606:21
	str	w9, [x19, #648]
Ltmp6:
	.loc	1 607 28 is_stmt 1              ; compress.c:607:28
	ldr	w11, [x19, #652]
	.loc	1 608 22                        ; compress.c:608:22
	eon	w11, w10, w11, ror #31
	str	w11, [x19, #652]
Ltmp7:
	.loc	1 609 14                        ; compress.c:609:14
	ldr	w10, [x19, #660]
Ltmp8:
	.loc	1 609 11 is_stmt 0              ; compress.c:609:11
	cmp	w10, #2
	b.lt	LBB1_3
Ltmp9:
; %bb.2:
	;DEBUG_VALUE: BZ2_compressBlock:s <- $x19
	;DEBUG_VALUE: BZ2_compressBlock:is_last_block <- $w20
	.loc	1 609 35                        ; compress.c:609:35
	str	wzr, [x19, #116]
Ltmp10:
LBB1_3:
	;DEBUG_VALUE: BZ2_compressBlock:s <- $x19
	;DEBUG_VALUE: BZ2_compressBlock:is_last_block <- $w20
	.loc	1 611 14 is_stmt 1              ; compress.c:611:14
	ldr	w12, [x19, #656]
Ltmp11:
	.loc	1 611 11 is_stmt 0              ; compress.c:611:11
	cmp	w12, #2
	b.lt	LBB1_5
Ltmp12:
; %bb.4:
	;DEBUG_VALUE: BZ2_compressBlock:s <- $x19
	;DEBUG_VALUE: BZ2_compressBlock:is_last_block <- $w20
	.loc	1 612 18 is_stmt 1              ; compress.c:612:18
Lloh3:
	adrp	x12, ___stderrp@GOTPAGE
Lloh4:
	ldr	x12, [x12, ___stderrp@GOTPAGEOFF]
Lloh5:
	ldr	x0, [x12]
	.loc	1 612 10 is_stmt 0              ; compress.c:612:10
	stp	x11, x8, [sp, #16]
	stp	x10, x9, [sp]
Lloh6:
	adrp	x1, l_.str@PAGE
Lloh7:
	add	x1, x1, l_.str@PAGEOFF
	bl	_fprintf
Ltmp13:
LBB1_5:
	;DEBUG_VALUE: BZ2_compressBlock:s <- $x19
	;DEBUG_VALUE: BZ2_compressBlock:is_last_block <- $w20
	.loc	1 616 7 is_stmt 1               ; compress.c:616:7
	mov	x0, x19
	bl	_BZ2_blockSort
Ltmp14:
	.loc	1 619 47                        ; compress.c:619:47
	ldr	w8, [x19, #108]
Ltmp15:
LBB1_6:
	;DEBUG_VALUE: BZ2_compressBlock:s <- $x19
	;DEBUG_VALUE: BZ2_compressBlock:is_last_block <- $w20
	;DEBUG_VALUE: BZ2_compressBlock:is_last_block <- $w20
	.loc	1 619 38 is_stmt 0              ; compress.c:619:38
	ldr	x9, [x19, #32]
	.loc	1 619 26                        ; compress.c:619:26
	add	x9, x9, w8, sxtw
	.loc	1 619 13                        ; compress.c:619:13
	str	x9, [x19, #80]
Ltmp16:
	.loc	1 622 11 is_stmt 1              ; compress.c:622:11
	ldr	w9, [x19, #660]
Ltmp17:
	.loc	1 622 8 is_stmt 0               ; compress.c:622:8
	cmp	w9, #1
	b.ne	LBB1_16
Ltmp18:
; %bb.7:                                ; %.lr.ph.i.i55
	;DEBUG_VALUE: BZ2_compressBlock:s <- $x19
	;DEBUG_VALUE: BZ2_compressBlock:is_last_block <- $w20
	;DEBUG_VALUE: BZ2_bsInitWrite:s <- $x19
	.loc	1 0 8                           ; compress.c:0:8
Lloh8:
	adrp	x8, lCPI1_0@PAGE
Ltmp19:
	;DEBUG_VALUE: bsW:v <- 66
	;DEBUG_VALUE: bsW:n <- 8
	;DEBUG_VALUE: bsW:s <- $x19
	;DEBUG_VALUE: bsPutUChar:c <- 66
	;DEBUG_VALUE: bsPutUChar:s <- $x19
	.loc	1 76 14 is_stmt 1               ; compress.c:76:14
Lloh9:
	ldr	d0, [x8, lCPI1_0@PAGEOFF]
	str	d0, [x19, #640]
Ltmp20:
	;DEBUG_VALUE: bsW:v <- [DW_OP_stack_value] 90
	;DEBUG_VALUE: bsW:n <- 8
	;DEBUG_VALUE: bsW:s <- $x19
	;DEBUG_VALUE: bsPutUChar:c <- 90
	;DEBUG_VALUE: bsPutUChar:s <- $x19
	.loc	1 75 43                         ; compress.c:75:43
	ldr	w8, [x19, #116]
	mov	w9, #1107296256
Ltmp21:
LBB1_8:                                 ; =>This Inner Loop Header: Depth=1
	;DEBUG_VALUE: bsPutUChar:s <- $x19
	;DEBUG_VALUE: bsPutUChar:c <- 90
	;DEBUG_VALUE: bsW:s <- $x19
	;DEBUG_VALUE: bsW:n <- 8
	;DEBUG_VALUE: bsW:v <- [DW_OP_stack_value] 90
	;DEBUG_VALUE: BZ2_compressBlock:s <- $x19
	;DEBUG_VALUE: BZ2_compressBlock:is_last_block <- $w20
	.loc	1 75 69 is_stmt 0               ; compress.c:75:69
	lsr	w9, w9, #24
	.loc	1 75 34                         ; compress.c:75:34
	ldr	x10, [x19, #80]
	.loc	1 75 49                         ; compress.c:75:49
	strb	w9, [x10, w8, sxtw]
	.loc	1 75 84                         ; compress.c:75:84
	ldr	w8, [x19, #116]
	add	w8, w8, #1
	str	w8, [x19, #116]
	.loc	1 75 98                         ; compress.c:75:98
	ldr	w9, [x19, #640]
	lsl	w9, w9, #8
	str	w9, [x19, #640]
	.loc	1 75 115                        ; compress.c:75:115
	ldr	w10, [x19, #644]
	sub	w11, w10, #8
	str	w11, [x19, #644]
Ltmp22:
	.loc	1 75 6                          ; compress.c:75:6
	cmp	w10, #15
	b.gt	LBB1_8
Ltmp23:
; %bb.9:                                ; %bsPutUChar.exit57
	;DEBUG_VALUE: bsPutUChar:s <- $x19
	;DEBUG_VALUE: bsPutUChar:c <- 90
	;DEBUG_VALUE: bsW:s <- $x19
	;DEBUG_VALUE: bsW:n <- 8
	;DEBUG_VALUE: bsW:v <- [DW_OP_stack_value] 90
	;DEBUG_VALUE: BZ2_compressBlock:s <- $x19
	;DEBUG_VALUE: BZ2_compressBlock:is_last_block <- $w20
	;DEBUG_VALUE: bsW:v <- 90
	.loc	1 76 20 is_stmt 1               ; compress.c:76:20
	neg	w11, w10
	mov	w12, #90
	lsl	w11, w12, w11
	.loc	1 76 14 is_stmt 0               ; compress.c:76:14
	orr	w9, w11, w9
	str	w9, [x19, #640]
	.loc	1 77 14 is_stmt 1               ; compress.c:77:14
	str	w10, [x19, #644]
Ltmp24:
	;DEBUG_VALUE: bsW:v <- [DW_OP_stack_value] 104
	;DEBUG_VALUE: bsW:n <- 8
	;DEBUG_VALUE: bsW:s <- $x19
	;DEBUG_VALUE: bsPutUChar:c <- 104
	;DEBUG_VALUE: bsPutUChar:s <- $x19
	.loc	1 75 6                          ; compress.c:75:6
	cmp	w10, #8
	b.lt	LBB1_11
Ltmp25:
LBB1_10:                                ; %.lr.ph.i.i62
                                        ; =>This Inner Loop Header: Depth=1
	;DEBUG_VALUE: bsPutUChar:s <- $x19
	;DEBUG_VALUE: bsPutUChar:c <- 104
	;DEBUG_VALUE: bsW:s <- $x19
	;DEBUG_VALUE: bsW:n <- 8
	;DEBUG_VALUE: bsW:v <- [DW_OP_stack_value] 104
	;DEBUG_VALUE: BZ2_compressBlock:s <- $x19
	;DEBUG_VALUE: BZ2_compressBlock:is_last_block <- $w20
	.loc	1 75 69 is_stmt 0               ; compress.c:75:69
	lsr	w9, w9, #24
	.loc	1 75 34                         ; compress.c:75:34
	ldr	x10, [x19, #80]
	.loc	1 75 49                         ; compress.c:75:49
	strb	w9, [x10, w8, sxtw]
	.loc	1 75 84                         ; compress.c:75:84
	ldr	w8, [x19, #116]
	add	w8, w8, #1
	str	w8, [x19, #116]
	.loc	1 75 98                         ; compress.c:75:98
	ldr	w9, [x19, #640]
	lsl	w9, w9, #8
	str	w9, [x19, #640]
	.loc	1 75 115                        ; compress.c:75:115
	ldr	w11, [x19, #644]
	sub	w10, w11, #8
	str	w10, [x19, #644]
Ltmp26:
	.loc	1 75 6                          ; compress.c:75:6
	cmp	w11, #15
	b.gt	LBB1_10
	b	LBB1_12
Ltmp27:
LBB1_11:                                ; %.._crit_edge_crit_edge.i.i59
	;DEBUG_VALUE: bsPutUChar:s <- $x19
	;DEBUG_VALUE: bsPutUChar:c <- 104
	;DEBUG_VALUE: bsW:s <- $x19
	;DEBUG_VALUE: bsW:n <- 8
	;DEBUG_VALUE: bsW:v <- [DW_OP_stack_value] 104
	;DEBUG_VALUE: BZ2_compressBlock:s <- $x19
	;DEBUG_VALUE: BZ2_compressBlock:is_last_block <- $w20
	.loc	1 76 39 is_stmt 1               ; compress.c:76:39
	add	w11, w10, #8
Ltmp28:
LBB1_12:                                ; %bsPutUChar.exit64
	;DEBUG_VALUE: bsPutUChar:s <- $x19
	;DEBUG_VALUE: bsPutUChar:c <- 104
	;DEBUG_VALUE: bsW:s <- $x19
	;DEBUG_VALUE: bsW:n <- 8
	;DEBUG_VALUE: bsW:v <- [DW_OP_stack_value] 104
	;DEBUG_VALUE: BZ2_compressBlock:s <- $x19
	;DEBUG_VALUE: BZ2_compressBlock:is_last_block <- $w20
	;DEBUG_VALUE: bsW:v <- 104
	.loc	1 76 20 is_stmt 0               ; compress.c:76:20
	neg	w10, w11
	mov	w12, #104
	lsl	w10, w12, w10
	.loc	1 76 14                         ; compress.c:76:14
	orr	w9, w10, w9
	str	w9, [x19, #640]
	.loc	1 77 14 is_stmt 1               ; compress.c:77:14
	str	w11, [x19, #644]
Ltmp29:
	.loc	1 627 41                        ; compress.c:627:41
	ldr	w10, [x19, #664]
	.loc	1 627 23 is_stmt 0              ; compress.c:627:23
	add	w10, w10, #48
Ltmp30:
	;DEBUG_VALUE: bsW:v <- [DW_OP_LLVM_convert 32 7, DW_OP_LLVM_convert 8 7, DW_OP_plus_uconst 48, DW_OP_LLVM_convert 8 7, DW_OP_LLVM_convert 32 7, DW_OP_stack_value] undef
	;DEBUG_VALUE: bsPutUChar:c <- [DW_OP_LLVM_convert 32 7, DW_OP_LLVM_convert 8 7, DW_OP_plus_uconst 48, DW_OP_stack_value] undef
	;DEBUG_VALUE: bsW:n <- 8
	;DEBUG_VALUE: bsW:s <- $x19
	;DEBUG_VALUE: bsPutUChar:s <- $x19
	.loc	1 75 6 is_stmt 1                ; compress.c:75:6
	cmp	w11, #8
	b.lt	LBB1_14
Ltmp31:
LBB1_13:                                ; %.lr.ph.i.i69
                                        ; =>This Inner Loop Header: Depth=1
	;DEBUG_VALUE: bsPutUChar:s <- $x19
	;DEBUG_VALUE: bsW:s <- $x19
	;DEBUG_VALUE: bsW:n <- 8
	;DEBUG_VALUE: BZ2_compressBlock:s <- $x19
	;DEBUG_VALUE: BZ2_compressBlock:is_last_block <- $w20
	.loc	1 75 69 is_stmt 0               ; compress.c:75:69
	lsr	w9, w9, #24
	.loc	1 75 34                         ; compress.c:75:34
	ldr	x11, [x19, #80]
	.loc	1 75 49                         ; compress.c:75:49
	strb	w9, [x11, w8, sxtw]
	.loc	1 75 84                         ; compress.c:75:84
	ldr	w8, [x19, #116]
	add	w8, w8, #1
	str	w8, [x19, #116]
	.loc	1 75 98                         ; compress.c:75:98
	ldr	w9, [x19, #640]
	lsl	w9, w9, #8
	str	w9, [x19, #640]
	.loc	1 75 115                        ; compress.c:75:115
	ldr	w11, [x19, #644]
	sub	w12, w11, #8
	str	w12, [x19, #644]
Ltmp32:
	.loc	1 75 6                          ; compress.c:75:6
	cmp	w11, #15
	b.gt	LBB1_13
	b	LBB1_15
Ltmp33:
LBB1_14:                                ; %.._crit_edge_crit_edge.i.i66
	;DEBUG_VALUE: bsPutUChar:s <- $x19
	;DEBUG_VALUE: bsW:s <- $x19
	;DEBUG_VALUE: bsW:n <- 8
	;DEBUG_VALUE: BZ2_compressBlock:s <- $x19
	;DEBUG_VALUE: BZ2_compressBlock:is_last_block <- $w20
	.loc	1 76 39 is_stmt 1               ; compress.c:76:39
	add	w11, w11, #8
Ltmp34:
LBB1_15:                                ; %bsPutUChar.exit71
	;DEBUG_VALUE: bsPutUChar:s <- $x19
	;DEBUG_VALUE: bsW:s <- $x19
	;DEBUG_VALUE: bsW:n <- 8
	;DEBUG_VALUE: BZ2_compressBlock:s <- $x19
	;DEBUG_VALUE: BZ2_compressBlock:is_last_block <- $w20
	.loc	1 96 15                         ; compress.c:96:15
	and	w8, w10, #0xff
Ltmp35:
	;DEBUG_VALUE: bsW:v <- $w8
	.loc	1 76 20                         ; compress.c:76:20
	neg	w10, w11
	lsl	w8, w8, w10
Ltmp36:
	.loc	1 76 14 is_stmt 0               ; compress.c:76:14
	orr	w8, w8, w9
	str	w8, [x19, #640]
	.loc	1 77 14 is_stmt 1               ; compress.c:77:14
	str	w11, [x19, #644]
Ltmp37:
	.loc	1 630 11                        ; compress.c:630:11
	ldr	w8, [x19, #108]
Ltmp38:
LBB1_16:
	;DEBUG_VALUE: BZ2_compressBlock:s <- $x19
	;DEBUG_VALUE: BZ2_compressBlock:is_last_block <- $w20
	;DEBUG_VALUE: BZ2_compressBlock:is_last_block <- $w20
	.loc	1 630 8 is_stmt 0               ; compress.c:630:8
	cmp	w8, #1
	b.lt	LBB1_85
Ltmp39:
; %bb.17:
	;DEBUG_VALUE: BZ2_compressBlock:s <- $x19
	;DEBUG_VALUE: BZ2_compressBlock:is_last_block <- $w20
	;DEBUG_VALUE: bsPutUChar:s <- $x19
	;DEBUG_VALUE: bsPutUChar:c <- 49
	;DEBUG_VALUE: bsW:s <- $x19
	;DEBUG_VALUE: bsW:n <- 8
	;DEBUG_VALUE: bsW:v <- [DW_OP_stack_value] 49
	.loc	1 75 16 is_stmt 1               ; compress.c:75:16
	ldr	w9, [x19, #644]
	.loc	1 75 6 is_stmt 0                ; compress.c:75:6
	cmp	w9, #7
	b.le	LBB1_20
Ltmp40:
; %bb.18:                               ; %.lr.ph.i.i76
	;DEBUG_VALUE: bsW:v <- [DW_OP_stack_value] 49
	;DEBUG_VALUE: bsW:n <- 8
	;DEBUG_VALUE: bsW:s <- $x19
	;DEBUG_VALUE: bsPutUChar:c <- 49
	;DEBUG_VALUE: bsPutUChar:s <- $x19
	;DEBUG_VALUE: BZ2_compressBlock:s <- $x19
	;DEBUG_VALUE: BZ2_compressBlock:is_last_block <- $w20
	.loc	1 75 62                         ; compress.c:75:62
	ldr	w8, [x19, #640]
	.loc	1 75 43                         ; compress.c:75:43
	ldr	w10, [x19, #116]
Ltmp41:
LBB1_19:                                ; =>This Inner Loop Header: Depth=1
	;DEBUG_VALUE: bsW:v <- [DW_OP_stack_value] 49
	;DEBUG_VALUE: bsW:n <- 8
	;DEBUG_VALUE: bsW:s <- $x19
	;DEBUG_VALUE: bsPutUChar:c <- 49
	;DEBUG_VALUE: bsPutUChar:s <- $x19
	;DEBUG_VALUE: BZ2_compressBlock:s <- $x19
	;DEBUG_VALUE: BZ2_compressBlock:is_last_block <- $w20
	.loc	1 75 69                         ; compress.c:75:69
	lsr	w8, w8, #24
	.loc	1 75 34                         ; compress.c:75:34
	ldr	x9, [x19, #80]
	.loc	1 75 49                         ; compress.c:75:49
	strb	w8, [x9, w10, sxtw]
	.loc	1 75 84                         ; compress.c:75:84
	ldr	w8, [x19, #116]
	add	w10, w8, #1
	str	w10, [x19, #116]
	.loc	1 75 98                         ; compress.c:75:98
	ldr	w8, [x19, #640]
	lsl	w8, w8, #8
	str	w8, [x19, #640]
	.loc	1 75 115                        ; compress.c:75:115
	ldr	w9, [x19, #644]
	sub	w11, w9, #8
	str	w11, [x19, #644]
Ltmp42:
	.loc	1 75 6                          ; compress.c:75:6
	cmp	w9, #15
	b.gt	LBB1_19
	b	LBB1_21
Ltmp43:
LBB1_20:                                ; %.._crit_edge_crit_edge.i.i73
	;DEBUG_VALUE: bsW:v <- [DW_OP_stack_value] 49
	;DEBUG_VALUE: bsW:n <- 8
	;DEBUG_VALUE: bsW:s <- $x19
	;DEBUG_VALUE: bsPutUChar:c <- 49
	;DEBUG_VALUE: bsPutUChar:s <- $x19
	;DEBUG_VALUE: BZ2_compressBlock:s <- $x19
	;DEBUG_VALUE: BZ2_compressBlock:is_last_block <- $w20
	.loc	1 76 14 is_stmt 1               ; compress.c:76:14
	ldr	w8, [x19, #640]
	.loc	1 76 39 is_stmt 0               ; compress.c:76:39
	add	w9, w9, #8
Ltmp44:
LBB1_21:                                ; %bsPutUChar.exit78
	;DEBUG_VALUE: bsW:v <- [DW_OP_stack_value] 49
	;DEBUG_VALUE: bsW:n <- 8
	;DEBUG_VALUE: bsW:s <- $x19
	;DEBUG_VALUE: bsPutUChar:c <- 49
	;DEBUG_VALUE: bsPutUChar:s <- $x19
	;DEBUG_VALUE: BZ2_compressBlock:s <- $x19
	;DEBUG_VALUE: BZ2_compressBlock:is_last_block <- $w20
	;DEBUG_VALUE: bsW:v <- 49
	.loc	1 76 20                         ; compress.c:76:20
	neg	w10, w9
	mov	w11, #49
	lsl	w10, w11, w10
	.loc	1 76 14                         ; compress.c:76:14
	orr	w8, w10, w8
	str	w8, [x19, #640]
	.loc	1 77 14 is_stmt 1               ; compress.c:77:14
	str	w9, [x19, #644]
Ltmp45:
	;DEBUG_VALUE: bsW:v <- [DW_OP_stack_value] 65
	;DEBUG_VALUE: bsW:n <- 8
	;DEBUG_VALUE: bsW:s <- $x19
	;DEBUG_VALUE: bsPutUChar:c <- 65
	;DEBUG_VALUE: bsPutUChar:s <- $x19
	.loc	1 75 6                          ; compress.c:75:6
	cmp	w9, #7
	b.le	LBB1_24
Ltmp46:
; %bb.22:                               ; %.lr.ph.i.i83
	;DEBUG_VALUE: bsPutUChar:s <- $x19
	;DEBUG_VALUE: bsPutUChar:c <- 65
	;DEBUG_VALUE: bsW:s <- $x19
	;DEBUG_VALUE: bsW:n <- 8
	;DEBUG_VALUE: bsW:v <- [DW_OP_stack_value] 65
	;DEBUG_VALUE: BZ2_compressBlock:s <- $x19
	;DEBUG_VALUE: BZ2_compressBlock:is_last_block <- $w20
	.loc	1 75 43 is_stmt 0               ; compress.c:75:43
	ldr	w10, [x19, #116]
Ltmp47:
LBB1_23:                                ; =>This Inner Loop Header: Depth=1
	;DEBUG_VALUE: bsPutUChar:s <- $x19
	;DEBUG_VALUE: bsPutUChar:c <- 65
	;DEBUG_VALUE: bsW:s <- $x19
	;DEBUG_VALUE: bsW:n <- 8
	;DEBUG_VALUE: bsW:v <- [DW_OP_stack_value] 65
	;DEBUG_VALUE: BZ2_compressBlock:s <- $x19
	;DEBUG_VALUE: BZ2_compressBlock:is_last_block <- $w20
	.loc	1 75 69                         ; compress.c:75:69
	lsr	w8, w8, #24
	.loc	1 75 34                         ; compress.c:75:34
	ldr	x9, [x19, #80]
	.loc	1 75 49                         ; compress.c:75:49
	strb	w8, [x9, w10, sxtw]
	.loc	1 75 84                         ; compress.c:75:84
	ldr	w8, [x19, #116]
	add	w10, w8, #1
	str	w10, [x19, #116]
	.loc	1 75 98                         ; compress.c:75:98
	ldr	w8, [x19, #640]
	lsl	w8, w8, #8
	str	w8, [x19, #640]
	.loc	1 75 115                        ; compress.c:75:115
	ldr	w9, [x19, #644]
	sub	w11, w9, #8
	str	w11, [x19, #644]
Ltmp48:
	.loc	1 75 6                          ; compress.c:75:6
	cmp	w9, #15
	b.gt	LBB1_23
	b	LBB1_25
Ltmp49:
LBB1_24:                                ; %.._crit_edge_crit_edge.i.i80
	;DEBUG_VALUE: bsPutUChar:s <- $x19
	;DEBUG_VALUE: bsPutUChar:c <- 65
	;DEBUG_VALUE: bsW:s <- $x19
	;DEBUG_VALUE: bsW:n <- 8
	;DEBUG_VALUE: bsW:v <- [DW_OP_stack_value] 65
	;DEBUG_VALUE: BZ2_compressBlock:s <- $x19
	;DEBUG_VALUE: BZ2_compressBlock:is_last_block <- $w20
	.loc	1 76 39 is_stmt 1               ; compress.c:76:39
	add	w9, w9, #8
Ltmp50:
LBB1_25:                                ; %bsPutUChar.exit85
	;DEBUG_VALUE: bsPutUChar:s <- $x19
	;DEBUG_VALUE: bsPutUChar:c <- 65
	;DEBUG_VALUE: bsW:s <- $x19
	;DEBUG_VALUE: bsW:n <- 8
	;DEBUG_VALUE: bsW:v <- [DW_OP_stack_value] 65
	;DEBUG_VALUE: BZ2_compressBlock:s <- $x19
	;DEBUG_VALUE: BZ2_compressBlock:is_last_block <- $w20
	;DEBUG_VALUE: bsW:v <- 65
	.loc	1 76 20 is_stmt 0               ; compress.c:76:20
	neg	w10, w9
	mov	w11, #65
	lsl	w10, w11, w10
	.loc	1 76 14                         ; compress.c:76:14
	orr	w8, w10, w8
	str	w8, [x19, #640]
	.loc	1 77 14 is_stmt 1               ; compress.c:77:14
	str	w9, [x19, #644]
Ltmp51:
	;DEBUG_VALUE: bsW:v <- [DW_OP_stack_value] 89
	;DEBUG_VALUE: bsW:n <- 8
	;DEBUG_VALUE: bsW:s <- $x19
	;DEBUG_VALUE: bsPutUChar:c <- 89
	;DEBUG_VALUE: bsPutUChar:s <- $x19
	.loc	1 75 6                          ; compress.c:75:6
	cmp	w9, #7
	b.le	LBB1_28
Ltmp52:
; %bb.26:                               ; %.lr.ph.i.i90
	;DEBUG_VALUE: bsPutUChar:s <- $x19
	;DEBUG_VALUE: bsPutUChar:c <- 89
	;DEBUG_VALUE: bsW:s <- $x19
	;DEBUG_VALUE: bsW:n <- 8
	;DEBUG_VALUE: bsW:v <- [DW_OP_stack_value] 89
	;DEBUG_VALUE: BZ2_compressBlock:s <- $x19
	;DEBUG_VALUE: BZ2_compressBlock:is_last_block <- $w20
	.loc	1 75 43 is_stmt 0               ; compress.c:75:43
	ldr	w10, [x19, #116]
Ltmp53:
LBB1_27:                                ; =>This Inner Loop Header: Depth=1
	;DEBUG_VALUE: bsPutUChar:s <- $x19
	;DEBUG_VALUE: bsPutUChar:c <- 89
	;DEBUG_VALUE: bsW:s <- $x19
	;DEBUG_VALUE: bsW:n <- 8
	;DEBUG_VALUE: bsW:v <- [DW_OP_stack_value] 89
	;DEBUG_VALUE: BZ2_compressBlock:s <- $x19
	;DEBUG_VALUE: BZ2_compressBlock:is_last_block <- $w20
	.loc	1 75 69                         ; compress.c:75:69
	lsr	w8, w8, #24
	.loc	1 75 34                         ; compress.c:75:34
	ldr	x9, [x19, #80]
	.loc	1 75 49                         ; compress.c:75:49
	strb	w8, [x9, w10, sxtw]
	.loc	1 75 84                         ; compress.c:75:84
	ldr	w8, [x19, #116]
	add	w10, w8, #1
	str	w10, [x19, #116]
	.loc	1 75 98                         ; compress.c:75:98
	ldr	w8, [x19, #640]
	lsl	w8, w8, #8
	str	w8, [x19, #640]
	.loc	1 75 115                        ; compress.c:75:115
	ldr	w9, [x19, #644]
	sub	w11, w9, #8
	str	w11, [x19, #644]
Ltmp54:
	.loc	1 75 6                          ; compress.c:75:6
	cmp	w9, #15
	b.gt	LBB1_27
	b	LBB1_29
Ltmp55:
LBB1_28:                                ; %.._crit_edge_crit_edge.i.i87
	;DEBUG_VALUE: bsPutUChar:s <- $x19
	;DEBUG_VALUE: bsPutUChar:c <- 89
	;DEBUG_VALUE: bsW:s <- $x19
	;DEBUG_VALUE: bsW:n <- 8
	;DEBUG_VALUE: bsW:v <- [DW_OP_stack_value] 89
	;DEBUG_VALUE: BZ2_compressBlock:s <- $x19
	;DEBUG_VALUE: BZ2_compressBlock:is_last_block <- $w20
	.loc	1 76 39 is_stmt 1               ; compress.c:76:39
	add	w9, w9, #8
Ltmp56:
LBB1_29:                                ; %bsPutUChar.exit92
	;DEBUG_VALUE: bsPutUChar:s <- $x19
	;DEBUG_VALUE: bsPutUChar:c <- 89
	;DEBUG_VALUE: bsW:s <- $x19
	;DEBUG_VALUE: bsW:n <- 8
	;DEBUG_VALUE: bsW:v <- [DW_OP_stack_value] 89
	;DEBUG_VALUE: BZ2_compressBlock:s <- $x19
	;DEBUG_VALUE: BZ2_compressBlock:is_last_block <- $w20
	;DEBUG_VALUE: bsW:v <- 89
	.loc	1 76 20 is_stmt 0               ; compress.c:76:20
	neg	w10, w9
	mov	w11, #89
	lsl	w10, w11, w10
	.loc	1 76 14                         ; compress.c:76:14
	orr	w8, w10, w8
	str	w8, [x19, #640]
	.loc	1 77 14 is_stmt 1               ; compress.c:77:14
	str	w9, [x19, #644]
Ltmp57:
	;DEBUG_VALUE: bsW:v <- [DW_OP_stack_value] 38
	;DEBUG_VALUE: bsW:n <- 8
	;DEBUG_VALUE: bsW:s <- $x19
	;DEBUG_VALUE: bsPutUChar:c <- 38
	;DEBUG_VALUE: bsPutUChar:s <- $x19
	.loc	1 75 6                          ; compress.c:75:6
	cmp	w9, #7
	b.le	LBB1_32
Ltmp58:
; %bb.30:                               ; %.lr.ph.i.i97
	;DEBUG_VALUE: bsPutUChar:s <- $x19
	;DEBUG_VALUE: bsPutUChar:c <- 38
	;DEBUG_VALUE: bsW:s <- $x19
	;DEBUG_VALUE: bsW:n <- 8
	;DEBUG_VALUE: bsW:v <- [DW_OP_stack_value] 38
	;DEBUG_VALUE: BZ2_compressBlock:s <- $x19
	;DEBUG_VALUE: BZ2_compressBlock:is_last_block <- $w20
	.loc	1 75 43 is_stmt 0               ; compress.c:75:43
	ldr	w10, [x19, #116]
Ltmp59:
LBB1_31:                                ; =>This Inner Loop Header: Depth=1
	;DEBUG_VALUE: bsPutUChar:s <- $x19
	;DEBUG_VALUE: bsPutUChar:c <- 38
	;DEBUG_VALUE: bsW:s <- $x19
	;DEBUG_VALUE: bsW:n <- 8
	;DEBUG_VALUE: bsW:v <- [DW_OP_stack_value] 38
	;DEBUG_VALUE: BZ2_compressBlock:s <- $x19
	;DEBUG_VALUE: BZ2_compressBlock:is_last_block <- $w20
	.loc	1 75 69                         ; compress.c:75:69
	lsr	w8, w8, #24
	.loc	1 75 34                         ; compress.c:75:34
	ldr	x9, [x19, #80]
	.loc	1 75 49                         ; compress.c:75:49
	strb	w8, [x9, w10, sxtw]
	.loc	1 75 84                         ; compress.c:75:84
	ldr	w8, [x19, #116]
	add	w10, w8, #1
	str	w10, [x19, #116]
	.loc	1 75 98                         ; compress.c:75:98
	ldr	w8, [x19, #640]
	lsl	w8, w8, #8
	str	w8, [x19, #640]
	.loc	1 75 115                        ; compress.c:75:115
	ldr	w9, [x19, #644]
	sub	w11, w9, #8
	str	w11, [x19, #644]
Ltmp60:
	.loc	1 75 6                          ; compress.c:75:6
	cmp	w9, #15
	b.gt	LBB1_31
	b	LBB1_33
Ltmp61:
LBB1_32:                                ; %.._crit_edge_crit_edge.i.i94
	;DEBUG_VALUE: bsPutUChar:s <- $x19
	;DEBUG_VALUE: bsPutUChar:c <- 38
	;DEBUG_VALUE: bsW:s <- $x19
	;DEBUG_VALUE: bsW:n <- 8
	;DEBUG_VALUE: bsW:v <- [DW_OP_stack_value] 38
	;DEBUG_VALUE: BZ2_compressBlock:s <- $x19
	;DEBUG_VALUE: BZ2_compressBlock:is_last_block <- $w20
	.loc	1 76 39 is_stmt 1               ; compress.c:76:39
	add	w9, w9, #8
Ltmp62:
LBB1_33:                                ; %bsPutUChar.exit99
	;DEBUG_VALUE: bsPutUChar:s <- $x19
	;DEBUG_VALUE: bsPutUChar:c <- 38
	;DEBUG_VALUE: bsW:s <- $x19
	;DEBUG_VALUE: bsW:n <- 8
	;DEBUG_VALUE: bsW:v <- [DW_OP_stack_value] 38
	;DEBUG_VALUE: BZ2_compressBlock:s <- $x19
	;DEBUG_VALUE: BZ2_compressBlock:is_last_block <- $w20
	;DEBUG_VALUE: bsW:v <- 38
	.loc	1 76 20 is_stmt 0               ; compress.c:76:20
	neg	w10, w9
	mov	w11, #38
	lsl	w10, w11, w10
	.loc	1 76 14                         ; compress.c:76:14
	orr	w8, w10, w8
	str	w8, [x19, #640]
	.loc	1 77 14 is_stmt 1               ; compress.c:77:14
	str	w9, [x19, #644]
Ltmp63:
	;DEBUG_VALUE: bsW:v <- [DW_OP_stack_value] 83
	;DEBUG_VALUE: bsW:n <- 8
	;DEBUG_VALUE: bsW:s <- $x19
	;DEBUG_VALUE: bsPutUChar:c <- 83
	;DEBUG_VALUE: bsPutUChar:s <- $x19
	.loc	1 75 6                          ; compress.c:75:6
	cmp	w9, #7
	b.le	LBB1_36
Ltmp64:
; %bb.34:                               ; %.lr.ph.i.i104
	;DEBUG_VALUE: bsPutUChar:s <- $x19
	;DEBUG_VALUE: bsPutUChar:c <- 83
	;DEBUG_VALUE: bsW:s <- $x19
	;DEBUG_VALUE: bsW:n <- 8
	;DEBUG_VALUE: bsW:v <- [DW_OP_stack_value] 83
	;DEBUG_VALUE: BZ2_compressBlock:s <- $x19
	;DEBUG_VALUE: BZ2_compressBlock:is_last_block <- $w20
	.loc	1 75 43 is_stmt 0               ; compress.c:75:43
	ldr	w10, [x19, #116]
Ltmp65:
LBB1_35:                                ; =>This Inner Loop Header: Depth=1
	;DEBUG_VALUE: bsPutUChar:s <- $x19
	;DEBUG_VALUE: bsPutUChar:c <- 83
	;DEBUG_VALUE: bsW:s <- $x19
	;DEBUG_VALUE: bsW:n <- 8
	;DEBUG_VALUE: bsW:v <- [DW_OP_stack_value] 83
	;DEBUG_VALUE: BZ2_compressBlock:s <- $x19
	;DEBUG_VALUE: BZ2_compressBlock:is_last_block <- $w20
	.loc	1 75 69                         ; compress.c:75:69
	lsr	w8, w8, #24
	.loc	1 75 34                         ; compress.c:75:34
	ldr	x9, [x19, #80]
	.loc	1 75 49                         ; compress.c:75:49
	strb	w8, [x9, w10, sxtw]
	.loc	1 75 84                         ; compress.c:75:84
	ldr	w8, [x19, #116]
	add	w10, w8, #1
	str	w10, [x19, #116]
	.loc	1 75 98                         ; compress.c:75:98
	ldr	w8, [x19, #640]
	lsl	w8, w8, #8
	str	w8, [x19, #640]
	.loc	1 75 115                        ; compress.c:75:115
	ldr	w9, [x19, #644]
	sub	w11, w9, #8
	str	w11, [x19, #644]
Ltmp66:
	.loc	1 75 6                          ; compress.c:75:6
	cmp	w9, #15
	b.gt	LBB1_35
	b	LBB1_37
Ltmp67:
LBB1_36:                                ; %.._crit_edge_crit_edge.i.i101
	;DEBUG_VALUE: bsPutUChar:s <- $x19
	;DEBUG_VALUE: bsPutUChar:c <- 83
	;DEBUG_VALUE: bsW:s <- $x19
	;DEBUG_VALUE: bsW:n <- 8
	;DEBUG_VALUE: bsW:v <- [DW_OP_stack_value] 83
	;DEBUG_VALUE: BZ2_compressBlock:s <- $x19
	;DEBUG_VALUE: BZ2_compressBlock:is_last_block <- $w20
	.loc	1 76 39 is_stmt 1               ; compress.c:76:39
	add	w9, w9, #8
Ltmp68:
LBB1_37:                                ; %bsPutUChar.exit106
	;DEBUG_VALUE: bsPutUChar:s <- $x19
	;DEBUG_VALUE: bsPutUChar:c <- 83
	;DEBUG_VALUE: bsW:s <- $x19
	;DEBUG_VALUE: bsW:n <- 8
	;DEBUG_VALUE: bsW:v <- [DW_OP_stack_value] 83
	;DEBUG_VALUE: BZ2_compressBlock:s <- $x19
	;DEBUG_VALUE: BZ2_compressBlock:is_last_block <- $w20
	;DEBUG_VALUE: bsW:v <- 83
	.loc	1 76 20 is_stmt 0               ; compress.c:76:20
	neg	w10, w9
	mov	w11, #83
	lsl	w10, w11, w10
	.loc	1 76 14                         ; compress.c:76:14
	orr	w8, w10, w8
	str	w8, [x19, #640]
	.loc	1 77 14 is_stmt 1               ; compress.c:77:14
	str	w9, [x19, #644]
Ltmp69:
	;DEBUG_VALUE: bsW:v <- [DW_OP_stack_value] 89
	;DEBUG_VALUE: bsW:n <- 8
	;DEBUG_VALUE: bsW:s <- $x19
	;DEBUG_VALUE: bsPutUChar:c <- 89
	;DEBUG_VALUE: bsPutUChar:s <- $x19
	.loc	1 75 6                          ; compress.c:75:6
	cmp	w9, #7
	b.le	LBB1_40
Ltmp70:
; %bb.38:                               ; %.lr.ph.i.i111
	;DEBUG_VALUE: bsPutUChar:s <- $x19
	;DEBUG_VALUE: bsPutUChar:c <- 89
	;DEBUG_VALUE: bsW:s <- $x19
	;DEBUG_VALUE: bsW:n <- 8
	;DEBUG_VALUE: bsW:v <- [DW_OP_stack_value] 89
	;DEBUG_VALUE: BZ2_compressBlock:s <- $x19
	;DEBUG_VALUE: BZ2_compressBlock:is_last_block <- $w20
	.loc	1 75 43 is_stmt 0               ; compress.c:75:43
	ldr	w10, [x19, #116]
Ltmp71:
LBB1_39:                                ; =>This Inner Loop Header: Depth=1
	;DEBUG_VALUE: bsPutUChar:s <- $x19
	;DEBUG_VALUE: bsPutUChar:c <- 89
	;DEBUG_VALUE: bsW:s <- $x19
	;DEBUG_VALUE: bsW:n <- 8
	;DEBUG_VALUE: bsW:v <- [DW_OP_stack_value] 89
	;DEBUG_VALUE: BZ2_compressBlock:s <- $x19
	;DEBUG_VALUE: BZ2_compressBlock:is_last_block <- $w20
	.loc	1 75 69                         ; compress.c:75:69
	lsr	w8, w8, #24
	.loc	1 75 34                         ; compress.c:75:34
	ldr	x9, [x19, #80]
	.loc	1 75 49                         ; compress.c:75:49
	strb	w8, [x9, w10, sxtw]
	.loc	1 75 84                         ; compress.c:75:84
	ldr	w8, [x19, #116]
	add	w10, w8, #1
	str	w10, [x19, #116]
	.loc	1 75 98                         ; compress.c:75:98
	ldr	w8, [x19, #640]
	lsl	w8, w8, #8
	str	w8, [x19, #640]
	.loc	1 75 115                        ; compress.c:75:115
	ldr	w9, [x19, #644]
	sub	w11, w9, #8
	str	w11, [x19, #644]
Ltmp72:
	.loc	1 75 6                          ; compress.c:75:6
	cmp	w9, #15
	b.gt	LBB1_39
	b	LBB1_41
Ltmp73:
LBB1_40:                                ; %.._crit_edge_crit_edge.i.i108
	;DEBUG_VALUE: bsPutUChar:s <- $x19
	;DEBUG_VALUE: bsPutUChar:c <- 89
	;DEBUG_VALUE: bsW:s <- $x19
	;DEBUG_VALUE: bsW:n <- 8
	;DEBUG_VALUE: bsW:v <- [DW_OP_stack_value] 89
	;DEBUG_VALUE: BZ2_compressBlock:s <- $x19
	;DEBUG_VALUE: BZ2_compressBlock:is_last_block <- $w20
	.loc	1 76 39 is_stmt 1               ; compress.c:76:39
	add	w9, w9, #8
Ltmp74:
LBB1_41:                                ; %bsPutUChar.exit113
	;DEBUG_VALUE: bsPutUChar:s <- $x19
	;DEBUG_VALUE: bsPutUChar:c <- 89
	;DEBUG_VALUE: bsW:s <- $x19
	;DEBUG_VALUE: bsW:n <- 8
	;DEBUG_VALUE: bsW:v <- [DW_OP_stack_value] 89
	;DEBUG_VALUE: BZ2_compressBlock:s <- $x19
	;DEBUG_VALUE: BZ2_compressBlock:is_last_block <- $w20
	;DEBUG_VALUE: bsW:v <- 89
	.loc	1 76 20 is_stmt 0               ; compress.c:76:20
	neg	w10, w9
	mov	w11, #89
	lsl	w10, w11, w10
	.loc	1 76 14                         ; compress.c:76:14
	orr	w8, w10, w8
	str	w8, [x19, #640]
	.loc	1 77 14 is_stmt 1               ; compress.c:77:14
	str	w9, [x19, #644]
Ltmp75:
	.loc	1 637 27                        ; compress.c:637:27
	ldr	w1, [x19, #648]
	.loc	1 637 7 is_stmt 0               ; compress.c:637:7
	mov	x0, x19
	bl	_bsPutUInt32
Ltmp76:
	;DEBUG_VALUE: bsW:v <- 0
	;DEBUG_VALUE: bsW:n <- 1
	;DEBUG_VALUE: bsW:s <- $x19
	.loc	1 75 16 is_stmt 1               ; compress.c:75:16
	ldr	w9, [x19, #644]
	.loc	1 75 6 is_stmt 0                ; compress.c:75:6
	cmp	w9, #7
	b.le	LBB1_44
Ltmp77:
; %bb.42:                               ; %.lr.ph.i
	;DEBUG_VALUE: bsW:s <- $x19
	;DEBUG_VALUE: bsW:n <- 1
	;DEBUG_VALUE: bsW:v <- 0
	;DEBUG_VALUE: BZ2_compressBlock:s <- $x19
	;DEBUG_VALUE: BZ2_compressBlock:is_last_block <- $w20
	.loc	1 75 62                         ; compress.c:75:62
	ldr	w8, [x19, #640]
	.loc	1 75 43                         ; compress.c:75:43
	ldr	w10, [x19, #116]
Ltmp78:
LBB1_43:                                ; =>This Inner Loop Header: Depth=1
	;DEBUG_VALUE: bsW:s <- $x19
	;DEBUG_VALUE: bsW:n <- 1
	;DEBUG_VALUE: bsW:v <- 0
	;DEBUG_VALUE: BZ2_compressBlock:s <- $x19
	;DEBUG_VALUE: BZ2_compressBlock:is_last_block <- $w20
	.loc	1 75 69                         ; compress.c:75:69
	lsr	w8, w8, #24
	.loc	1 75 34                         ; compress.c:75:34
	ldr	x9, [x19, #80]
	.loc	1 75 49                         ; compress.c:75:49
	strb	w8, [x9, w10, sxtw]
	.loc	1 75 84                         ; compress.c:75:84
	ldr	w8, [x19, #116]
	add	w10, w8, #1
	str	w10, [x19, #116]
	.loc	1 75 98                         ; compress.c:75:98
	ldr	w8, [x19, #640]
	lsl	w8, w8, #8
	str	w8, [x19, #640]
	.loc	1 75 115                        ; compress.c:75:115
	ldr	w11, [x19, #644]
	sub	w9, w11, #8
	str	w9, [x19, #644]
Ltmp79:
	.loc	1 75 6                          ; compress.c:75:6
	cmp	w11, #15
	b.gt	LBB1_43
	b	LBB1_45
Ltmp80:
LBB1_44:                                ; %.._crit_edge_crit_edge.i
	;DEBUG_VALUE: bsW:s <- $x19
	;DEBUG_VALUE: bsW:n <- 1
	;DEBUG_VALUE: bsW:v <- 0
	;DEBUG_VALUE: BZ2_compressBlock:s <- $x19
	;DEBUG_VALUE: BZ2_compressBlock:is_last_block <- $w20
	.loc	1 76 14 is_stmt 1               ; compress.c:76:14
	ldr	w8, [x19, #640]
Ltmp81:
LBB1_45:                                ; %bsW.exit
	;DEBUG_VALUE: bsW:s <- $x19
	;DEBUG_VALUE: bsW:n <- 1
	;DEBUG_VALUE: bsW:v <- 0
	;DEBUG_VALUE: BZ2_compressBlock:s <- $x19
	;DEBUG_VALUE: BZ2_compressBlock:is_last_block <- $w20
	.loc	1 76 39 is_stmt 0               ; compress.c:76:39
	add	w11, w9, #1
	.loc	1 76 14                         ; compress.c:76:14
	str	w8, [x19, #640]
	.loc	1 77 14 is_stmt 1               ; compress.c:77:14
	str	w11, [x19, #644]
Ltmp82:
	.loc	1 650 23                        ; compress.c:650:23
	ldr	w10, [x19, #48]
Ltmp83:
	;DEBUG_VALUE: bsW:n <- 24
	;DEBUG_VALUE: bsW:s <- $x19
	;DEBUG_VALUE: bsW:v <- $w10
	.loc	1 75 6                          ; compress.c:75:6
	cmp	w9, #7
	b.lt	LBB1_48
Ltmp84:
; %bb.46:                               ; %.lr.ph.i118
	;DEBUG_VALUE: bsW:v <- $w10
	;DEBUG_VALUE: bsW:s <- $x19
	;DEBUG_VALUE: bsW:n <- 24
	;DEBUG_VALUE: BZ2_compressBlock:s <- $x19
	;DEBUG_VALUE: BZ2_compressBlock:is_last_block <- $w20
	.loc	1 75 43 is_stmt 0               ; compress.c:75:43
	ldr	w9, [x19, #116]
Ltmp85:
LBB1_47:                                ; =>This Inner Loop Header: Depth=1
	;DEBUG_VALUE: bsW:v <- $w10
	;DEBUG_VALUE: bsW:s <- $x19
	;DEBUG_VALUE: bsW:n <- 24
	;DEBUG_VALUE: BZ2_compressBlock:s <- $x19
	;DEBUG_VALUE: BZ2_compressBlock:is_last_block <- $w20
	.loc	1 75 69                         ; compress.c:75:69
	lsr	w8, w8, #24
	.loc	1 75 34                         ; compress.c:75:34
	ldr	x11, [x19, #80]
	.loc	1 75 49                         ; compress.c:75:49
	strb	w8, [x11, w9, sxtw]
	.loc	1 75 84                         ; compress.c:75:84
	ldr	w8, [x19, #116]
	add	w9, w8, #1
	str	w9, [x19, #116]
	.loc	1 75 98                         ; compress.c:75:98
	ldr	w8, [x19, #640]
	lsl	w8, w8, #8
	str	w8, [x19, #640]
	.loc	1 75 115                        ; compress.c:75:115
	ldr	w12, [x19, #644]
	sub	w11, w12, #8
	str	w11, [x19, #644]
Ltmp86:
	.loc	1 75 6                          ; compress.c:75:6
	cmp	w12, #15
	b.gt	LBB1_47
Ltmp87:
LBB1_48:                                ; %bsW.exit120
	;DEBUG_VALUE: bsW:v <- $w10
	;DEBUG_VALUE: bsW:s <- $x19
	;DEBUG_VALUE: bsW:n <- 24
	;DEBUG_VALUE: BZ2_compressBlock:s <- $x19
	;DEBUG_VALUE: BZ2_compressBlock:is_last_block <- $w20
	.loc	1 0 6                           ; compress.c:0:6
	mov	w21, #0
	mov	x9, #0
	.loc	1 76 39 is_stmt 1               ; compress.c:76:39
	add	w12, w11, #24
	mov	w13, #8
	sub	w11, w13, w11
	.loc	1 76 20 is_stmt 0               ; compress.c:76:20
	lsl	w10, w10, w11
Ltmp88:
	.loc	1 76 14                         ; compress.c:76:14
	orr	w8, w10, w8
	str	w8, [x19, #640]
	.loc	1 77 14 is_stmt 1               ; compress.c:77:14
	str	w12, [x19, #644]
Ltmp89:
	;DEBUG_VALUE: generateMTFValues:s <- $x19
	.loc	1 150 21                        ; compress.c:150:21
	ldp	x23, x24, [x19, #56]
Ltmp90:
	;DEBUG_VALUE: generateMTFValues:ptr <- $x23
	;DEBUG_VALUE: generateMTFValues:block <- $x24
	.loc	1 152 22                        ; compress.c:152:22
	ldr	x22, [x19, #72]
Ltmp91:
	;DEBUG_VALUE: makeMaps_e:s <- $x19
	;DEBUG_VALUE: generateMTFValues:mtfv <- $x22
	.loc	1 109 14                        ; compress.c:109:14
	str	wzr, [x19, #124]
Ltmp92:
	;DEBUG_VALUE: makeMaps_e:i <- 0
	.loc	1 0 14 is_stmt 0                ; compress.c:0:14
	b	LBB1_50
Ltmp93:
LBB1_49:                                ;   in Loop: Header=BB1_50 Depth=1
	;DEBUG_VALUE: makeMaps_e:i <- $x9
	;DEBUG_VALUE: generateMTFValues:mtfv <- $x22
	;DEBUG_VALUE: makeMaps_e:s <- $x19
	;DEBUG_VALUE: generateMTFValues:block <- $x24
	;DEBUG_VALUE: generateMTFValues:ptr <- $x23
	;DEBUG_VALUE: generateMTFValues:s <- $x19
	;DEBUG_VALUE: BZ2_compressBlock:s <- $x19
	;DEBUG_VALUE: BZ2_compressBlock:is_last_block <- $w20
	.loc	1 110 26 is_stmt 1              ; compress.c:110:26
	add	x9, x9, #1
Ltmp94:
	;DEBUG_VALUE: makeMaps_e:i <- $x9
	.loc	1 110 4 is_stmt 0               ; compress.c:110:4
	cmp	x9, #256
	b.eq	LBB1_52
Ltmp95:
LBB1_50:                                ; =>This Inner Loop Header: Depth=1
	;DEBUG_VALUE: generateMTFValues:mtfv <- $x22
	;DEBUG_VALUE: makeMaps_e:s <- $x19
	;DEBUG_VALUE: generateMTFValues:block <- $x24
	;DEBUG_VALUE: generateMTFValues:ptr <- $x23
	;DEBUG_VALUE: generateMTFValues:s <- $x19
	;DEBUG_VALUE: BZ2_compressBlock:s <- $x19
	;DEBUG_VALUE: BZ2_compressBlock:is_last_block <- $w20
	;DEBUG_VALUE: makeMaps_e:i <- $x9
	.loc	1 111 11 is_stmt 1              ; compress.c:111:11
	add	x8, x19, x9
	ldrb	w10, [x8, #128]
Ltmp96:
	.loc	1 111 11 is_stmt 0              ; compress.c:111:11
	cbz	w10, LBB1_49
Ltmp97:
; %bb.51:                               ;   in Loop: Header=BB1_50 Depth=1
	;DEBUG_VALUE: makeMaps_e:i <- $x9
	;DEBUG_VALUE: generateMTFValues:mtfv <- $x22
	;DEBUG_VALUE: makeMaps_e:s <- $x19
	;DEBUG_VALUE: generateMTFValues:block <- $x24
	;DEBUG_VALUE: generateMTFValues:ptr <- $x23
	;DEBUG_VALUE: generateMTFValues:s <- $x19
	;DEBUG_VALUE: BZ2_compressBlock:s <- $x19
	;DEBUG_VALUE: BZ2_compressBlock:is_last_block <- $w20
	.loc	1 112 27 is_stmt 1              ; compress.c:112:27
	strb	w21, [x8, #384]
	.loc	1 113 19                        ; compress.c:113:19
	add	w21, w21, #1
	str	w21, [x19, #124]
	b	LBB1_49
Ltmp98:
LBB1_52:                                ; %makeMaps_e.exit.i
	;DEBUG_VALUE: generateMTFValues:mtfv <- $x22
	;DEBUG_VALUE: generateMTFValues:block <- $x24
	;DEBUG_VALUE: generateMTFValues:ptr <- $x23
	;DEBUG_VALUE: generateMTFValues:s <- $x19
	;DEBUG_VALUE: BZ2_compressBlock:s <- $x19
	;DEBUG_VALUE: BZ2_compressBlock:is_last_block <- $w20
	;DEBUG_VALUE: generateMTFValues:EOB <- [DW_OP_plus_uconst 1, DW_OP_stack_value] $w21
	;DEBUG_VALUE: generateMTFValues:i <- 0
	.loc	1 157 4                         ; compress.c:157:4
	cmn	w21, #1
	b.lt	LBB1_61
Ltmp99:
; %bb.53:                               ; %.preheader97.i
	;DEBUG_VALUE: generateMTFValues:i <- 0
	;DEBUG_VALUE: generateMTFValues:EOB <- [DW_OP_plus_uconst 1, DW_OP_stack_value] $w21
	;DEBUG_VALUE: generateMTFValues:mtfv <- $x22
	;DEBUG_VALUE: generateMTFValues:block <- $x24
	;DEBUG_VALUE: generateMTFValues:ptr <- $x23
	;DEBUG_VALUE: generateMTFValues:s <- $x19
	;DEBUG_VALUE: BZ2_compressBlock:s <- $x19
	;DEBUG_VALUE: BZ2_compressBlock:is_last_block <- $w20
	add	x0, x19, #672
	add	w8, w21, #1
	ubfiz	x8, x8, #2, #32
	add	x1, x8, #4
Ltmp100:
	.loc	1 157 45 is_stmt 0              ; compress.c:157:45
	bl	_bzero
Ltmp101:
	;DEBUG_VALUE: generateMTFValues:i <- 0
	.loc	1 161 4 is_stmt 1               ; compress.c:161:4
	cmp	w21, #1
	b.lt	LBB1_61
Ltmp102:
; %bb.54:                               ; %.lr.ph101.preheader.i
	;DEBUG_VALUE: generateMTFValues:i <- 0
	;DEBUG_VALUE: generateMTFValues:EOB <- [DW_OP_plus_uconst 1, DW_OP_stack_value] $w21
	;DEBUG_VALUE: generateMTFValues:mtfv <- $x22
	;DEBUG_VALUE: generateMTFValues:block <- $x24
	;DEBUG_VALUE: generateMTFValues:ptr <- $x23
	;DEBUG_VALUE: generateMTFValues:s <- $x19
	;DEBUG_VALUE: BZ2_compressBlock:s <- $x19
	;DEBUG_VALUE: BZ2_compressBlock:is_last_block <- $w20
	.loc	1 161 18 is_stmt 0              ; compress.c:161:18
	mov	w8, w21
Ltmp103:
	.loc	1 161 4                         ; compress.c:161:4
	cmp	w21, #16
	b.hs	LBB1_56
Ltmp104:
; %bb.55:
	;DEBUG_VALUE: generateMTFValues:i <- 0
	;DEBUG_VALUE: generateMTFValues:EOB <- [DW_OP_plus_uconst 1, DW_OP_stack_value] $w21
	;DEBUG_VALUE: generateMTFValues:mtfv <- $x22
	;DEBUG_VALUE: generateMTFValues:block <- $x24
	;DEBUG_VALUE: generateMTFValues:ptr <- $x23
	;DEBUG_VALUE: generateMTFValues:s <- $x19
	;DEBUG_VALUE: BZ2_compressBlock:s <- $x19
	;DEBUG_VALUE: BZ2_compressBlock:is_last_block <- $w20
	.loc	1 0 4                           ; compress.c:0:4
	mov	x9, #0
	b	LBB1_59
Ltmp105:
LBB1_56:                                ; %vector.ph
	;DEBUG_VALUE: generateMTFValues:i <- 0
	;DEBUG_VALUE: generateMTFValues:EOB <- [DW_OP_plus_uconst 1, DW_OP_stack_value] $w21
	;DEBUG_VALUE: generateMTFValues:mtfv <- $x22
	;DEBUG_VALUE: generateMTFValues:block <- $x24
	;DEBUG_VALUE: generateMTFValues:ptr <- $x23
	;DEBUG_VALUE: generateMTFValues:s <- $x19
	;DEBUG_VALUE: BZ2_compressBlock:s <- $x19
	;DEBUG_VALUE: BZ2_compressBlock:is_last_block <- $w20
Lloh10:
	adrp	x9, lCPI1_1@PAGE
Lloh11:
	ldr	q0, [x9, lCPI1_1@PAGEOFF]
	.loc	1 161 4                         ; compress.c:161:4
	and	x9, x8, #0xfffffff0
	add	x10, sp, #40
	movi.16b	v1, #16
	mov	x11, x9
Ltmp106:
LBB1_57:                                ; %vector.body
                                        ; =>This Inner Loop Header: Depth=1
	;DEBUG_VALUE: generateMTFValues:i <- 0
	;DEBUG_VALUE: generateMTFValues:EOB <- [DW_OP_plus_uconst 1, DW_OP_stack_value] $w21
	;DEBUG_VALUE: generateMTFValues:mtfv <- $x22
	;DEBUG_VALUE: generateMTFValues:block <- $x24
	;DEBUG_VALUE: generateMTFValues:ptr <- $x23
	;DEBUG_VALUE: generateMTFValues:s <- $x19
	;DEBUG_VALUE: BZ2_compressBlock:s <- $x19
	;DEBUG_VALUE: BZ2_compressBlock:is_last_block <- $w20
	.loc	1 161 42                        ; compress.c:161:42
	str	q0, [x10], #16
	.loc	1 161 44                        ; compress.c:161:44
	add.16b	v0, v0, v1
	.loc	1 161 32                        ; compress.c:161:32
	subs	x11, x11, #16
	b.ne	LBB1_57
Ltmp107:
; %bb.58:                               ; %middle.block
	;DEBUG_VALUE: generateMTFValues:i <- 0
	;DEBUG_VALUE: generateMTFValues:EOB <- [DW_OP_plus_uconst 1, DW_OP_stack_value] $w21
	;DEBUG_VALUE: generateMTFValues:mtfv <- $x22
	;DEBUG_VALUE: generateMTFValues:block <- $x24
	;DEBUG_VALUE: generateMTFValues:ptr <- $x23
	;DEBUG_VALUE: generateMTFValues:s <- $x19
	;DEBUG_VALUE: BZ2_compressBlock:s <- $x19
	;DEBUG_VALUE: BZ2_compressBlock:is_last_block <- $w20
	.loc	1 161 4                         ; compress.c:161:4
	cmp	x9, x8
	b.eq	LBB1_61
Ltmp108:
LBB1_59:                                ; %.lr.ph101.i.preheader
	;DEBUG_VALUE: generateMTFValues:i <- 0
	;DEBUG_VALUE: generateMTFValues:EOB <- [DW_OP_plus_uconst 1, DW_OP_stack_value] $w21
	;DEBUG_VALUE: generateMTFValues:mtfv <- $x22
	;DEBUG_VALUE: generateMTFValues:block <- $x24
	;DEBUG_VALUE: generateMTFValues:ptr <- $x23
	;DEBUG_VALUE: generateMTFValues:s <- $x19
	;DEBUG_VALUE: BZ2_compressBlock:s <- $x19
	;DEBUG_VALUE: BZ2_compressBlock:is_last_block <- $w20
	.loc	1 0 4                           ; compress.c:0:4
	add	x10, sp, #40
Ltmp109:
LBB1_60:                                ; %.lr.ph101.i
                                        ; =>This Inner Loop Header: Depth=1
	;DEBUG_VALUE: generateMTFValues:EOB <- [DW_OP_plus_uconst 1, DW_OP_stack_value] $w21
	;DEBUG_VALUE: generateMTFValues:mtfv <- $x22
	;DEBUG_VALUE: generateMTFValues:block <- $x24
	;DEBUG_VALUE: generateMTFValues:ptr <- $x23
	;DEBUG_VALUE: generateMTFValues:s <- $x19
	;DEBUG_VALUE: BZ2_compressBlock:s <- $x19
	;DEBUG_VALUE: BZ2_compressBlock:is_last_block <- $w20
	;DEBUG_VALUE: generateMTFValues:i <- $x9
	.loc	1 161 42                        ; compress.c:161:42
	strb	w9, [x10, x9]
	.loc	1 161 32                        ; compress.c:161:32
	add	x9, x9, #1
Ltmp110:
	;DEBUG_VALUE: generateMTFValues:i <- $x9
	.loc	1 161 4                         ; compress.c:161:4
	cmp	x8, x9
	b.ne	LBB1_60
Ltmp111:
LBB1_61:                                ; %.preheader.i
	;DEBUG_VALUE: generateMTFValues:EOB <- [DW_OP_plus_uconst 1, DW_OP_stack_value] $w21
	;DEBUG_VALUE: generateMTFValues:mtfv <- $x22
	;DEBUG_VALUE: generateMTFValues:block <- $x24
	;DEBUG_VALUE: generateMTFValues:ptr <- $x23
	;DEBUG_VALUE: generateMTFValues:s <- $x19
	;DEBUG_VALUE: BZ2_compressBlock:s <- $x19
	;DEBUG_VALUE: BZ2_compressBlock:is_last_block <- $w20
	;DEBUG_VALUE: generateMTFValues:i <- 0
	;DEBUG_VALUE: generateMTFValues:zPend <- 0
	;DEBUG_VALUE: generateMTFValues:wr <- 0
	.loc	1 163 23 is_stmt 1              ; compress.c:163:23
	ldr	w14, [x19, #108]
Ltmp112:
	.loc	1 163 4 is_stmt 0               ; compress.c:163:4
	cmp	w14, #1
	b.lt	LBB1_83
Ltmp113:
; %bb.62:                               ; %.lr.ph110.i
	;DEBUG_VALUE: generateMTFValues:wr <- 0
	;DEBUG_VALUE: generateMTFValues:zPend <- 0
	;DEBUG_VALUE: generateMTFValues:i <- 0
	;DEBUG_VALUE: generateMTFValues:EOB <- [DW_OP_plus_uconst 1, DW_OP_stack_value] $w21
	;DEBUG_VALUE: generateMTFValues:mtfv <- $x22
	;DEBUG_VALUE: generateMTFValues:block <- $x24
	;DEBUG_VALUE: generateMTFValues:ptr <- $x23
	;DEBUG_VALUE: generateMTFValues:s <- $x19
	;DEBUG_VALUE: BZ2_compressBlock:s <- $x19
	;DEBUG_VALUE: BZ2_compressBlock:is_last_block <- $w20
	.loc	1 0 4                           ; compress.c:0:4
	mov	x9, #0
	mov	w12, #0
	mov	w8, #0
	add	x10, sp, #40
	add	x11, x10, #1
	b	LBB1_65
Ltmp114:
LBB1_63:                                ; %._crit_edge.i
                                        ;   in Loop: Header=BB1_65 Depth=1
	;DEBUG_VALUE: generateMTFValues:wr <- $w8
	;DEBUG_VALUE: generateMTFValues:zPend <- $w12
	;DEBUG_VALUE: generateMTFValues:i <- $x9
	;DEBUG_VALUE: generateMTFValues:EOB <- [DW_OP_plus_uconst 1, DW_OP_stack_value] $w21
	;DEBUG_VALUE: generateMTFValues:mtfv <- $x22
	;DEBUG_VALUE: generateMTFValues:block <- $x24
	;DEBUG_VALUE: generateMTFValues:ptr <- $x23
	;DEBUG_VALUE: generateMTFValues:s <- $x19
	;DEBUG_VALUE: BZ2_compressBlock:s <- $x19
	;DEBUG_VALUE: BZ2_compressBlock:is_last_block <- $w20
	.loc	1 204 19 is_stmt 1              ; compress.c:204:19
	strb	w13, [sp, #40]
	.loc	1 205 23                        ; compress.c:205:23
	sub	w13, w14, w10
Ltmp115:
	;DEBUG_VALUE: generateMTFValues:j <- undef
	.loc	1 206 35                        ; compress.c:206:35
	sxtw	x13, w13
	.loc	1 206 25 is_stmt 0              ; compress.c:206:25
	add	x13, x13, #1
	.loc	1 206 22                        ; compress.c:206:22
	strh	w13, [x22, w8, sxtw  #1]
	.loc	1 206 31                        ; compress.c:206:31
	add	w8, w8, #1
Ltmp116:
	;DEBUG_VALUE: generateMTFValues:wr <- $w8
	.loc	1 206 35                        ; compress.c:206:35
	add	x13, x19, x13, lsl #2
	.loc	1 206 50                        ; compress.c:206:50
	ldr	w14, [x13, #672]
	add	w14, w14, #1
	str	w14, [x13, #672]
Ltmp117:
	.loc	1 163 23 is_stmt 1              ; compress.c:163:23
	ldr	w14, [x19, #108]
Ltmp118:
LBB1_64:                                ;   in Loop: Header=BB1_65 Depth=1
	;DEBUG_VALUE: generateMTFValues:wr <- $w8
	;DEBUG_VALUE: generateMTFValues:zPend <- $w12
	;DEBUG_VALUE: generateMTFValues:i <- $x9
	;DEBUG_VALUE: generateMTFValues:EOB <- [DW_OP_plus_uconst 1, DW_OP_stack_value] $w21
	;DEBUG_VALUE: generateMTFValues:mtfv <- $x22
	;DEBUG_VALUE: generateMTFValues:block <- $x24
	;DEBUG_VALUE: generateMTFValues:ptr <- $x23
	;DEBUG_VALUE: generateMTFValues:s <- $x19
	;DEBUG_VALUE: BZ2_compressBlock:s <- $x19
	;DEBUG_VALUE: BZ2_compressBlock:is_last_block <- $w20
	;DEBUG_VALUE: generateMTFValues:zPend <- $w12
	;DEBUG_VALUE: generateMTFValues:wr <- $w8
	.loc	1 163 32 is_stmt 0              ; compress.c:163:32
	add	x9, x9, #1
Ltmp119:
	;DEBUG_VALUE: generateMTFValues:i <- $x9
	.loc	1 163 4                         ; compress.c:163:4
	cmp	x9, w14, sxtw
	b.ge	LBB1_77
Ltmp120:
LBB1_65:                                ; =>This Loop Header: Depth=1
                                        ;     Child Loop BB1_76 Depth 2
	;DEBUG_VALUE: generateMTFValues:EOB <- [DW_OP_plus_uconst 1, DW_OP_stack_value] $w21
	;DEBUG_VALUE: generateMTFValues:mtfv <- $x22
	;DEBUG_VALUE: generateMTFValues:block <- $x24
	;DEBUG_VALUE: generateMTFValues:ptr <- $x23
	;DEBUG_VALUE: generateMTFValues:s <- $x19
	;DEBUG_VALUE: BZ2_compressBlock:s <- $x19
	;DEBUG_VALUE: BZ2_compressBlock:is_last_block <- $w20
	;DEBUG_VALUE: generateMTFValues:i <- $x9
	;DEBUG_VALUE: generateMTFValues:zPend <- $w12
	;DEBUG_VALUE: generateMTFValues:wr <- $w8
	.loc	1 166 11 is_stmt 1              ; compress.c:166:11
	ldr	w13, [x23, x9, lsl  #2]
	.loc	1 166 17 is_stmt 0              ; compress.c:166:17
	sub	w13, w13, #1
Ltmp121:
	;DEBUG_VALUE: generateMTFValues:j <- $w13
	.loc	1 166 25                        ; compress.c:166:25
	and	w15, w14, w13, asr #31
	add	w13, w15, w13
Ltmp122:
	;DEBUG_VALUE: generateMTFValues:j <- $w13
	.loc	1 167 28 is_stmt 1              ; compress.c:167:28
	ldrb	w13, [x24, w13, sxtw]
Ltmp123:
	.loc	1 167 14 is_stmt 0              ; compress.c:167:14
	add	x13, x19, x13
	ldrb	w13, [x13, #384]
Ltmp124:
	;DEBUG_VALUE: ll_i <- undef
	.loc	1 170 11 is_stmt 1              ; compress.c:170:11
	ldrb	w15, [sp, #40]
Ltmp125:
	.loc	1 170 11 is_stmt 0              ; compress.c:170:11
	cmp	w15, w13
	b.ne	LBB1_67
Ltmp126:
; %bb.66:                               ;   in Loop: Header=BB1_65 Depth=1
	;DEBUG_VALUE: generateMTFValues:wr <- $w8
	;DEBUG_VALUE: generateMTFValues:zPend <- $w12
	;DEBUG_VALUE: generateMTFValues:i <- $x9
	;DEBUG_VALUE: generateMTFValues:EOB <- [DW_OP_plus_uconst 1, DW_OP_stack_value] $w21
	;DEBUG_VALUE: generateMTFValues:mtfv <- $x22
	;DEBUG_VALUE: generateMTFValues:block <- $x24
	;DEBUG_VALUE: generateMTFValues:ptr <- $x23
	;DEBUG_VALUE: generateMTFValues:s <- $x19
	;DEBUG_VALUE: BZ2_compressBlock:s <- $x19
	;DEBUG_VALUE: BZ2_compressBlock:is_last_block <- $w20
	.loc	1 171 15 is_stmt 1              ; compress.c:171:15
	add	w12, w12, #1
Ltmp127:
	;DEBUG_VALUE: generateMTFValues:zPend <- $w12
	.loc	1 0 15 is_stmt 0                ; compress.c:0:15
	b	LBB1_64
Ltmp128:
LBB1_67:                                ;   in Loop: Header=BB1_65 Depth=1
	;DEBUG_VALUE: generateMTFValues:wr <- $w8
	;DEBUG_VALUE: generateMTFValues:zPend <- $w12
	;DEBUG_VALUE: generateMTFValues:i <- $x9
	;DEBUG_VALUE: generateMTFValues:EOB <- [DW_OP_plus_uconst 1, DW_OP_stack_value] $w21
	;DEBUG_VALUE: generateMTFValues:mtfv <- $x22
	;DEBUG_VALUE: generateMTFValues:block <- $x24
	;DEBUG_VALUE: generateMTFValues:ptr <- $x23
	;DEBUG_VALUE: generateMTFValues:s <- $x19
	;DEBUG_VALUE: BZ2_compressBlock:s <- $x19
	;DEBUG_VALUE: BZ2_compressBlock:is_last_block <- $w20
	.loc	1 174 14 is_stmt 1              ; compress.c:174:14
	subs	w14, w12, #1
	b.lt	LBB1_74
Ltmp129:
; %bb.68:                               ;   in Loop: Header=BB1_65 Depth=1
	;DEBUG_VALUE: generateMTFValues:wr <- $w8
	;DEBUG_VALUE: generateMTFValues:zPend <- $w12
	;DEBUG_VALUE: generateMTFValues:i <- $x9
	;DEBUG_VALUE: generateMTFValues:EOB <- [DW_OP_plus_uconst 1, DW_OP_stack_value] $w21
	;DEBUG_VALUE: generateMTFValues:mtfv <- $x22
	;DEBUG_VALUE: generateMTFValues:block <- $x24
	;DEBUG_VALUE: generateMTFValues:ptr <- $x23
	;DEBUG_VALUE: generateMTFValues:s <- $x19
	;DEBUG_VALUE: BZ2_compressBlock:s <- $x19
	;DEBUG_VALUE: BZ2_compressBlock:is_last_block <- $w20
	;DEBUG_VALUE: generateMTFValues:zPend <- $w14
	.loc	1 176 13                        ; compress.c:176:13
	add	x12, x22, w8, sxtw #1
	add	w8, w8, #1
Ltmp130:
	;DEBUG_VALUE: generateMTFValues:zPend <- $w14
	;DEBUG_VALUE: generateMTFValues:wr <- [DW_OP_plus_uconst 1, DW_OP_stack_value] $w8
	.loc	1 177 20                        ; compress.c:177:20
	tbnz	w14, #0, LBB1_70
Ltmp131:
LBB1_69:                                ;   in Loop: Header=BB1_65 Depth=1
	;DEBUG_VALUE: generateMTFValues:wr <- [DW_OP_plus_uconst 1, DW_OP_stack_value] $w8
	;DEBUG_VALUE: generateMTFValues:zPend <- $w14
	;DEBUG_VALUE: generateMTFValues:i <- $x9
	;DEBUG_VALUE: generateMTFValues:EOB <- [DW_OP_plus_uconst 1, DW_OP_stack_value] $w21
	;DEBUG_VALUE: generateMTFValues:mtfv <- $x22
	;DEBUG_VALUE: generateMTFValues:block <- $x24
	;DEBUG_VALUE: generateMTFValues:ptr <- $x23
	;DEBUG_VALUE: generateMTFValues:s <- $x19
	;DEBUG_VALUE: BZ2_compressBlock:s <- $x19
	;DEBUG_VALUE: BZ2_compressBlock:is_last_block <- $w20
	.loc	1 0 20 is_stmt 0                ; compress.c:0:20
	mov	w15, #0
Ltmp132:
	.loc	1 182 32 is_stmt 1              ; compress.c:182:32
	ldr	w16, [x19, #672]
	add	w16, w16, #1
	str	w16, [x19, #672]
	b	LBB1_71
Ltmp133:
LBB1_70:                                ;   in Loop: Header=BB1_65 Depth=1
	;DEBUG_VALUE: generateMTFValues:wr <- [DW_OP_plus_uconst 1, DW_OP_stack_value] $w8
	;DEBUG_VALUE: generateMTFValues:zPend <- $w14
	;DEBUG_VALUE: generateMTFValues:i <- $x9
	;DEBUG_VALUE: generateMTFValues:EOB <- [DW_OP_plus_uconst 1, DW_OP_stack_value] $w21
	;DEBUG_VALUE: generateMTFValues:mtfv <- $x22
	;DEBUG_VALUE: generateMTFValues:block <- $x24
	;DEBUG_VALUE: generateMTFValues:ptr <- $x23
	;DEBUG_VALUE: generateMTFValues:s <- $x19
	;DEBUG_VALUE: BZ2_compressBlock:s <- $x19
	;DEBUG_VALUE: BZ2_compressBlock:is_last_block <- $w20
	.loc	1 179 32                        ; compress.c:179:32
	ldr	w15, [x19, #676]
	add	w15, w15, #1
	str	w15, [x19, #676]
	mov	w15, #1
Ltmp134:
LBB1_71:                                ;   in Loop: Header=BB1_65 Depth=1
	;DEBUG_VALUE: generateMTFValues:wr <- [DW_OP_plus_uconst 1, DW_OP_stack_value] $w8
	;DEBUG_VALUE: generateMTFValues:zPend <- $w14
	;DEBUG_VALUE: generateMTFValues:i <- $x9
	;DEBUG_VALUE: generateMTFValues:EOB <- [DW_OP_plus_uconst 1, DW_OP_stack_value] $w21
	;DEBUG_VALUE: generateMTFValues:mtfv <- $x22
	;DEBUG_VALUE: generateMTFValues:block <- $x24
	;DEBUG_VALUE: generateMTFValues:ptr <- $x23
	;DEBUG_VALUE: generateMTFValues:s <- $x19
	;DEBUG_VALUE: BZ2_compressBlock:s <- $x19
	;DEBUG_VALUE: BZ2_compressBlock:is_last_block <- $w20
	.loc	1 0 0 is_stmt 0                 ; compress.c:0:0
	strh	w15, [x12]
Ltmp135:
	;DEBUG_VALUE: generateMTFValues:wr <- [DW_OP_LLVM_arg 0, DW_OP_consts 1, DW_OP_LLVM_arg 0, DW_OP_plus, DW_OP_minus, DW_OP_consts 1, DW_OP_LLVM_arg 0, DW_OP_LLVM_convert 64 5, DW_OP_plus, DW_OP_plus, DW_OP_stack_value] $w8
	.loc	1 184 20 is_stmt 1              ; compress.c:184:20
	subs	w14, w14, #2
Ltmp136:
	b.lt	LBB1_73
Ltmp137:
; %bb.72:                               ;   in Loop: Header=BB1_65 Depth=1
	;DEBUG_VALUE: generateMTFValues:wr <- [DW_OP_LLVM_arg 0, DW_OP_consts 1, DW_OP_LLVM_arg 0, DW_OP_plus, DW_OP_minus, DW_OP_consts 1, DW_OP_LLVM_arg 0, DW_OP_LLVM_convert 64 5, DW_OP_plus, DW_OP_plus, DW_OP_stack_value] $w8
	;DEBUG_VALUE: generateMTFValues:i <- $x9
	;DEBUG_VALUE: generateMTFValues:EOB <- [DW_OP_plus_uconst 1, DW_OP_stack_value] $w21
	;DEBUG_VALUE: generateMTFValues:mtfv <- $x22
	;DEBUG_VALUE: generateMTFValues:block <- $x24
	;DEBUG_VALUE: generateMTFValues:ptr <- $x23
	;DEBUG_VALUE: generateMTFValues:s <- $x19
	;DEBUG_VALUE: BZ2_compressBlock:s <- $x19
	;DEBUG_VALUE: BZ2_compressBlock:is_last_block <- $w20
	.loc	1 0 20 is_stmt 0                ; compress.c:0:20
	lsr	w14, w14, #1
Ltmp138:
	;DEBUG_VALUE: generateMTFValues:zPend <- $w14
	.loc	1 176 13 is_stmt 1              ; compress.c:176:13
	add	w8, w8, #1
Ltmp139:
	add	x12, x12, #2
	;DEBUG_VALUE: generateMTFValues:zPend <- $w14
Ltmp140:
	;DEBUG_VALUE: generateMTFValues:wr <- [DW_OP_plus_uconst 1, DW_OP_stack_value] $w8
	.loc	1 177 20                        ; compress.c:177:20
	tbnz	w14, #0, LBB1_70
	b	LBB1_69
Ltmp141:
LBB1_73:                                ; %.loopexit96.loopexit.i
                                        ;   in Loop: Header=BB1_65 Depth=1
	;DEBUG_VALUE: generateMTFValues:wr <- [DW_OP_LLVM_arg 0, DW_OP_consts 1, DW_OP_LLVM_arg 0, DW_OP_plus, DW_OP_minus, DW_OP_consts 1, DW_OP_LLVM_arg 0, DW_OP_LLVM_convert 64 5, DW_OP_plus, DW_OP_plus, DW_OP_stack_value] $w8
	;DEBUG_VALUE: generateMTFValues:i <- $x9
	;DEBUG_VALUE: generateMTFValues:EOB <- [DW_OP_plus_uconst 1, DW_OP_stack_value] $w21
	;DEBUG_VALUE: generateMTFValues:mtfv <- $x22
	;DEBUG_VALUE: generateMTFValues:block <- $x24
	;DEBUG_VALUE: generateMTFValues:ptr <- $x23
	;DEBUG_VALUE: generateMTFValues:s <- $x19
	;DEBUG_VALUE: BZ2_compressBlock:s <- $x19
	;DEBUG_VALUE: BZ2_compressBlock:is_last_block <- $w20
	.loc	1 0 20 is_stmt 0                ; compress.c:0:20
	mov	w12, #0
Ltmp142:
	.loc	1 194 21 is_stmt 1              ; compress.c:194:21
	ldrb	w15, [sp, #40]
Ltmp143:
LBB1_74:                                ; %.loopexit96.i
                                        ;   in Loop: Header=BB1_65 Depth=1
	;DEBUG_VALUE: generateMTFValues:i <- $x9
	;DEBUG_VALUE: generateMTFValues:EOB <- [DW_OP_plus_uconst 1, DW_OP_stack_value] $w21
	;DEBUG_VALUE: generateMTFValues:mtfv <- $x22
	;DEBUG_VALUE: generateMTFValues:block <- $x24
	;DEBUG_VALUE: generateMTFValues:ptr <- $x23
	;DEBUG_VALUE: generateMTFValues:s <- $x19
	;DEBUG_VALUE: BZ2_compressBlock:s <- $x19
	;DEBUG_VALUE: BZ2_compressBlock:is_last_block <- $w20
	;DEBUG_VALUE: generateMTFValues:zPend <- $w12
	;DEBUG_VALUE: generateMTFValues:wr <- $w8
	.loc	1 193 20                        ; compress.c:193:20
	ldrb	w16, [sp, #41]
Ltmp144:
	;DEBUG_VALUE: rtmp <- undef
	.loc	1 194 19                        ; compress.c:194:19
	strb	w15, [sp, #41]
Ltmp145:
	;DEBUG_VALUE: ryy_j <- [DW_OP_plus_uconst 1, DW_OP_stack_value] undef
	.loc	1 0 19 is_stmt 0                ; compress.c:0:19
	mov	x14, x11
	.loc	1 197 13 is_stmt 1              ; compress.c:197:13
	cmp	w13, w16
Ltmp146:
	;DEBUG_VALUE: rll_i <- undef
	b.eq	LBB1_63
Ltmp147:
; %bb.75:                               ; %.lr.ph105.i.preheader
                                        ;   in Loop: Header=BB1_65 Depth=1
	;DEBUG_VALUE: generateMTFValues:wr <- $w8
	;DEBUG_VALUE: generateMTFValues:zPend <- $w12
	;DEBUG_VALUE: generateMTFValues:i <- $x9
	;DEBUG_VALUE: generateMTFValues:EOB <- [DW_OP_plus_uconst 1, DW_OP_stack_value] $w21
	;DEBUG_VALUE: generateMTFValues:mtfv <- $x22
	;DEBUG_VALUE: generateMTFValues:block <- $x24
	;DEBUG_VALUE: generateMTFValues:ptr <- $x23
	;DEBUG_VALUE: generateMTFValues:s <- $x19
	;DEBUG_VALUE: BZ2_compressBlock:s <- $x19
	;DEBUG_VALUE: BZ2_compressBlock:is_last_block <- $w20
	.loc	1 0 13 is_stmt 0                ; compress.c:0:13
	mov	x14, x11
Ltmp148:
LBB1_76:                                ; %.lr.ph105.i
                                        ;   Parent Loop BB1_65 Depth=1
                                        ; =>  This Inner Loop Header: Depth=2
	;DEBUG_VALUE: generateMTFValues:wr <- $w8
	;DEBUG_VALUE: generateMTFValues:zPend <- $w12
	;DEBUG_VALUE: generateMTFValues:i <- $x9
	;DEBUG_VALUE: generateMTFValues:EOB <- [DW_OP_plus_uconst 1, DW_OP_stack_value] $w21
	;DEBUG_VALUE: generateMTFValues:mtfv <- $x22
	;DEBUG_VALUE: generateMTFValues:block <- $x24
	;DEBUG_VALUE: generateMTFValues:ptr <- $x23
	;DEBUG_VALUE: generateMTFValues:s <- $x19
	;DEBUG_VALUE: BZ2_compressBlock:s <- $x19
	;DEBUG_VALUE: BZ2_compressBlock:is_last_block <- $w20
	;DEBUG_VALUE: rtmp <- $w16
	;DEBUG_VALUE: ryy_j <- $x14
	;DEBUG_VALUE: rtmp2 <- $w16
	.loc	1 201 23 is_stmt 1              ; compress.c:201:23
	ldrb	w15, [x14, #1]!
Ltmp149:
	;DEBUG_VALUE: ryy_j <- $x14
	;DEBUG_VALUE: rtmp <- undef
	.loc	1 202 23                        ; compress.c:202:23
	strb	w16, [x14]
	mov	x16, x15
Ltmp150:
	.loc	1 197 13                        ; compress.c:197:13
	cmp	w13, w15
	b.ne	LBB1_76
	b	LBB1_63
Ltmp151:
LBB1_77:                                ; %._crit_edge111.i
	;DEBUG_VALUE: generateMTFValues:wr <- $w8
	;DEBUG_VALUE: generateMTFValues:zPend <- $w12
	;DEBUG_VALUE: generateMTFValues:i <- $x9
	;DEBUG_VALUE: generateMTFValues:EOB <- [DW_OP_plus_uconst 1, DW_OP_stack_value] $w21
	;DEBUG_VALUE: generateMTFValues:mtfv <- $x22
	;DEBUG_VALUE: generateMTFValues:block <- $x24
	;DEBUG_VALUE: generateMTFValues:ptr <- $x23
	;DEBUG_VALUE: generateMTFValues:s <- $x19
	;DEBUG_VALUE: BZ2_compressBlock:s <- $x19
	;DEBUG_VALUE: BZ2_compressBlock:is_last_block <- $w20
	.loc	1 212 8                         ; compress.c:212:8
	subs	w9, w12, #1
Ltmp152:
	b.lt	LBB1_84
Ltmp153:
; %bb.78:
	;DEBUG_VALUE: generateMTFValues:wr <- $w8
	;DEBUG_VALUE: generateMTFValues:zPend <- $w12
	;DEBUG_VALUE: generateMTFValues:EOB <- [DW_OP_plus_uconst 1, DW_OP_stack_value] $w21
	;DEBUG_VALUE: generateMTFValues:mtfv <- $x22
	;DEBUG_VALUE: generateMTFValues:block <- $x24
	;DEBUG_VALUE: generateMTFValues:ptr <- $x23
	;DEBUG_VALUE: generateMTFValues:s <- $x19
	;DEBUG_VALUE: BZ2_compressBlock:s <- $x19
	;DEBUG_VALUE: BZ2_compressBlock:is_last_block <- $w20
	;DEBUG_VALUE: generateMTFValues:zPend <- $w9
	.loc	1 214 7                         ; compress.c:214:7
	add	x10, x22, w8, sxtw #1
	add	w8, w8, #1
Ltmp154:
	;DEBUG_VALUE: generateMTFValues:zPend <- $w9
	;DEBUG_VALUE: generateMTFValues:wr <- [DW_OP_plus_uconst 1, DW_OP_stack_value] $w8
	.loc	1 215 14                        ; compress.c:215:14
	tbnz	w9, #0, LBB1_80
Ltmp155:
LBB1_79:
	;DEBUG_VALUE: generateMTFValues:zPend <- $w9
	;DEBUG_VALUE: generateMTFValues:wr <- [DW_OP_plus_uconst 1, DW_OP_stack_value] $w8
	;DEBUG_VALUE: generateMTFValues:EOB <- [DW_OP_plus_uconst 1, DW_OP_stack_value] $w21
	;DEBUG_VALUE: generateMTFValues:mtfv <- $x22
	;DEBUG_VALUE: generateMTFValues:block <- $x24
	;DEBUG_VALUE: generateMTFValues:ptr <- $x23
	;DEBUG_VALUE: generateMTFValues:s <- $x19
	;DEBUG_VALUE: BZ2_compressBlock:s <- $x19
	;DEBUG_VALUE: BZ2_compressBlock:is_last_block <- $w20
	.loc	1 0 14 is_stmt 0                ; compress.c:0:14
	mov	w11, #0
Ltmp156:
	.loc	1 220 26 is_stmt 1              ; compress.c:220:26
	ldr	w12, [x19, #672]
	add	w12, w12, #1
	str	w12, [x19, #672]
	b	LBB1_81
Ltmp157:
LBB1_80:
	;DEBUG_VALUE: generateMTFValues:zPend <- $w9
	;DEBUG_VALUE: generateMTFValues:wr <- [DW_OP_plus_uconst 1, DW_OP_stack_value] $w8
	;DEBUG_VALUE: generateMTFValues:EOB <- [DW_OP_plus_uconst 1, DW_OP_stack_value] $w21
	;DEBUG_VALUE: generateMTFValues:mtfv <- $x22
	;DEBUG_VALUE: generateMTFValues:block <- $x24
	;DEBUG_VALUE: generateMTFValues:ptr <- $x23
	;DEBUG_VALUE: generateMTFValues:s <- $x19
	;DEBUG_VALUE: BZ2_compressBlock:s <- $x19
	;DEBUG_VALUE: BZ2_compressBlock:is_last_block <- $w20
	.loc	1 217 26                        ; compress.c:217:26
	ldr	w11, [x19, #676]
	add	w11, w11, #1
	str	w11, [x19, #676]
	mov	w11, #1
Ltmp158:
LBB1_81:
	;DEBUG_VALUE: generateMTFValues:zPend <- $w9
	;DEBUG_VALUE: generateMTFValues:wr <- [DW_OP_plus_uconst 1, DW_OP_stack_value] $w8
	;DEBUG_VALUE: generateMTFValues:EOB <- [DW_OP_plus_uconst 1, DW_OP_stack_value] $w21
	;DEBUG_VALUE: generateMTFValues:mtfv <- $x22
	;DEBUG_VALUE: generateMTFValues:block <- $x24
	;DEBUG_VALUE: generateMTFValues:ptr <- $x23
	;DEBUG_VALUE: generateMTFValues:s <- $x19
	;DEBUG_VALUE: BZ2_compressBlock:s <- $x19
	;DEBUG_VALUE: BZ2_compressBlock:is_last_block <- $w20
	.loc	1 0 0 is_stmt 0                 ; compress.c:0:0
	strh	w11, [x10]
Ltmp159:
	;DEBUG_VALUE: generateMTFValues:wr <- [DW_OP_LLVM_arg 0, DW_OP_consts 1, DW_OP_LLVM_arg 0, DW_OP_plus, DW_OP_minus, DW_OP_consts 1, DW_OP_LLVM_arg 0, DW_OP_LLVM_convert 64 5, DW_OP_plus, DW_OP_plus, DW_OP_stack_value] $w8
	.loc	1 222 14 is_stmt 1              ; compress.c:222:14
	subs	w9, w9, #2
Ltmp160:
	b.lt	LBB1_84
Ltmp161:
; %bb.82:
	;DEBUG_VALUE: generateMTFValues:wr <- [DW_OP_LLVM_arg 0, DW_OP_consts 1, DW_OP_LLVM_arg 0, DW_OP_plus, DW_OP_minus, DW_OP_consts 1, DW_OP_LLVM_arg 0, DW_OP_LLVM_convert 64 5, DW_OP_plus, DW_OP_plus, DW_OP_stack_value] $w8
	;DEBUG_VALUE: generateMTFValues:EOB <- [DW_OP_plus_uconst 1, DW_OP_stack_value] $w21
	;DEBUG_VALUE: generateMTFValues:mtfv <- $x22
	;DEBUG_VALUE: generateMTFValues:block <- $x24
	;DEBUG_VALUE: generateMTFValues:ptr <- $x23
	;DEBUG_VALUE: generateMTFValues:s <- $x19
	;DEBUG_VALUE: BZ2_compressBlock:s <- $x19
	;DEBUG_VALUE: BZ2_compressBlock:is_last_block <- $w20
	.loc	1 0 14 is_stmt 0                ; compress.c:0:14
	lsr	w9, w9, #1
Ltmp162:
	;DEBUG_VALUE: generateMTFValues:zPend <- $w9
	.loc	1 214 7 is_stmt 1               ; compress.c:214:7
	add	w8, w8, #1
Ltmp163:
	add	x10, x10, #2
	;DEBUG_VALUE: generateMTFValues:zPend <- $w9
Ltmp164:
	;DEBUG_VALUE: generateMTFValues:wr <- [DW_OP_plus_uconst 1, DW_OP_stack_value] $w8
	.loc	1 215 14                        ; compress.c:215:14
	tbnz	w9, #0, LBB1_80
	b	LBB1_79
Ltmp165:
LBB1_83:
	;DEBUG_VALUE: generateMTFValues:wr <- 0
	;DEBUG_VALUE: generateMTFValues:zPend <- 0
	;DEBUG_VALUE: generateMTFValues:i <- 0
	;DEBUG_VALUE: generateMTFValues:EOB <- [DW_OP_plus_uconst 1, DW_OP_stack_value] $w21
	;DEBUG_VALUE: generateMTFValues:mtfv <- $x22
	;DEBUG_VALUE: generateMTFValues:block <- $x24
	;DEBUG_VALUE: generateMTFValues:ptr <- $x23
	;DEBUG_VALUE: generateMTFValues:s <- $x19
	;DEBUG_VALUE: BZ2_compressBlock:s <- $x19
	;DEBUG_VALUE: BZ2_compressBlock:is_last_block <- $w20
	.loc	1 0 14 is_stmt 0                ; compress.c:0:14
	mov	w8, #0
Ltmp166:
LBB1_84:                                ; %generateMTFValues.exit
	;DEBUG_VALUE: generateMTFValues:EOB <- [DW_OP_plus_uconst 1, DW_OP_stack_value] $w21
	;DEBUG_VALUE: generateMTFValues:mtfv <- $x22
	;DEBUG_VALUE: generateMTFValues:block <- $x24
	;DEBUG_VALUE: generateMTFValues:ptr <- $x23
	;DEBUG_VALUE: generateMTFValues:s <- $x19
	;DEBUG_VALUE: BZ2_compressBlock:s <- $x19
	;DEBUG_VALUE: BZ2_compressBlock:is_last_block <- $w20
	.loc	1 228 26 is_stmt 1              ; compress.c:228:26
	sxtw	x9, w21
	.loc	1 155 19                        ; compress.c:155:19
	add	x9, x9, #1
Ltmp167:
	;DEBUG_VALUE: generateMTFValues:wr <- $w8
	;DEBUG_VALUE: generateMTFValues:EOB <- undef
	.loc	1 228 13                        ; compress.c:228:13
	strh	w9, [x22, w8, sxtw  #1]
	.loc	1 228 22 is_stmt 0              ; compress.c:228:22
	add	w8, w8, #1
Ltmp168:
	;DEBUG_VALUE: generateMTFValues:wr <- $w8
	.loc	1 228 26                        ; compress.c:228:26
	add	x9, x19, x9, lsl #2
	.loc	1 228 41                        ; compress.c:228:41
	ldr	w10, [x9, #672]
	add	w10, w10, #1
	str	w10, [x9, #672]
	.loc	1 230 12 is_stmt 1              ; compress.c:230:12
	str	w8, [x19, #668]
Ltmp169:
	.loc	1 652 7                         ; compress.c:652:7
	mov	x0, x19
	bl	_sendMTFValues
Ltmp170:
LBB1_85:
	;DEBUG_VALUE: BZ2_compressBlock:s <- $x19
	;DEBUG_VALUE: BZ2_compressBlock:is_last_block <- $w20
	.loc	1 657 8                         ; compress.c:657:8
	cbz	w20, LBB1_115
Ltmp171:
; %bb.86:
	;DEBUG_VALUE: BZ2_compressBlock:s <- $x19
	;DEBUG_VALUE: BZ2_compressBlock:is_last_block <- $w20
	;DEBUG_VALUE: bsPutUChar:s <- $x19
	;DEBUG_VALUE: bsPutUChar:c <- 23
	;DEBUG_VALUE: bsW:s <- $x19
	;DEBUG_VALUE: bsW:n <- 8
	;DEBUG_VALUE: bsW:v <- [DW_OP_stack_value] 23
	.loc	1 75 16                         ; compress.c:75:16
	ldr	w9, [x19, #644]
	.loc	1 75 6 is_stmt 0                ; compress.c:75:6
	cmp	w9, #7
	b.le	LBB1_89
Ltmp172:
; %bb.87:                               ; %.lr.ph.i.i126
	;DEBUG_VALUE: bsW:v <- [DW_OP_stack_value] 23
	;DEBUG_VALUE: bsW:n <- 8
	;DEBUG_VALUE: bsW:s <- $x19
	;DEBUG_VALUE: bsPutUChar:c <- 23
	;DEBUG_VALUE: bsPutUChar:s <- $x19
	;DEBUG_VALUE: BZ2_compressBlock:s <- $x19
	;DEBUG_VALUE: BZ2_compressBlock:is_last_block <- $w20
	.loc	1 75 62                         ; compress.c:75:62
	ldr	w8, [x19, #640]
	.loc	1 75 43                         ; compress.c:75:43
	ldr	w10, [x19, #116]
Ltmp173:
LBB1_88:                                ; =>This Inner Loop Header: Depth=1
	;DEBUG_VALUE: bsW:v <- [DW_OP_stack_value] 23
	;DEBUG_VALUE: bsW:n <- 8
	;DEBUG_VALUE: bsW:s <- $x19
	;DEBUG_VALUE: bsPutUChar:c <- 23
	;DEBUG_VALUE: bsPutUChar:s <- $x19
	;DEBUG_VALUE: BZ2_compressBlock:s <- $x19
	;DEBUG_VALUE: BZ2_compressBlock:is_last_block <- $w20
	.loc	1 75 69                         ; compress.c:75:69
	lsr	w8, w8, #24
	.loc	1 75 34                         ; compress.c:75:34
	ldr	x9, [x19, #80]
	.loc	1 75 49                         ; compress.c:75:49
	strb	w8, [x9, w10, sxtw]
	.loc	1 75 84                         ; compress.c:75:84
	ldr	w8, [x19, #116]
	add	w10, w8, #1
	str	w10, [x19, #116]
	.loc	1 75 98                         ; compress.c:75:98
	ldr	w8, [x19, #640]
	lsl	w8, w8, #8
	str	w8, [x19, #640]
	.loc	1 75 115                        ; compress.c:75:115
	ldr	w9, [x19, #644]
	sub	w11, w9, #8
	str	w11, [x19, #644]
Ltmp174:
	.loc	1 75 6                          ; compress.c:75:6
	cmp	w9, #15
	b.gt	LBB1_88
	b	LBB1_90
Ltmp175:
LBB1_89:                                ; %.._crit_edge_crit_edge.i.i123
	;DEBUG_VALUE: bsW:v <- [DW_OP_stack_value] 23
	;DEBUG_VALUE: bsW:n <- 8
	;DEBUG_VALUE: bsW:s <- $x19
	;DEBUG_VALUE: bsPutUChar:c <- 23
	;DEBUG_VALUE: bsPutUChar:s <- $x19
	;DEBUG_VALUE: BZ2_compressBlock:s <- $x19
	;DEBUG_VALUE: BZ2_compressBlock:is_last_block <- $w20
	.loc	1 76 14 is_stmt 1               ; compress.c:76:14
	ldr	w8, [x19, #640]
	.loc	1 76 39 is_stmt 0               ; compress.c:76:39
	add	w9, w9, #8
Ltmp176:
LBB1_90:                                ; %bsPutUChar.exit128
	;DEBUG_VALUE: bsW:v <- [DW_OP_stack_value] 23
	;DEBUG_VALUE: bsW:n <- 8
	;DEBUG_VALUE: bsW:s <- $x19
	;DEBUG_VALUE: bsPutUChar:c <- 23
	;DEBUG_VALUE: bsPutUChar:s <- $x19
	;DEBUG_VALUE: BZ2_compressBlock:s <- $x19
	;DEBUG_VALUE: BZ2_compressBlock:is_last_block <- $w20
	;DEBUG_VALUE: bsW:v <- 23
	.loc	1 76 20                         ; compress.c:76:20
	neg	w10, w9
	mov	w11, #23
	lsl	w10, w11, w10
	.loc	1 76 14                         ; compress.c:76:14
	orr	w8, w10, w8
	str	w8, [x19, #640]
	.loc	1 77 14 is_stmt 1               ; compress.c:77:14
	str	w9, [x19, #644]
Ltmp177:
	;DEBUG_VALUE: bsW:v <- [DW_OP_stack_value] 114
	;DEBUG_VALUE: bsW:n <- 8
	;DEBUG_VALUE: bsW:s <- $x19
	;DEBUG_VALUE: bsPutUChar:c <- 114
	;DEBUG_VALUE: bsPutUChar:s <- $x19
	.loc	1 75 6                          ; compress.c:75:6
	cmp	w9, #7
	b.le	LBB1_93
Ltmp178:
; %bb.91:                               ; %.lr.ph.i.i133
	;DEBUG_VALUE: bsPutUChar:s <- $x19
	;DEBUG_VALUE: bsPutUChar:c <- 114
	;DEBUG_VALUE: bsW:s <- $x19
	;DEBUG_VALUE: bsW:n <- 8
	;DEBUG_VALUE: bsW:v <- [DW_OP_stack_value] 114
	;DEBUG_VALUE: BZ2_compressBlock:s <- $x19
	;DEBUG_VALUE: BZ2_compressBlock:is_last_block <- $w20
	.loc	1 75 43 is_stmt 0               ; compress.c:75:43
	ldr	w10, [x19, #116]
Ltmp179:
LBB1_92:                                ; =>This Inner Loop Header: Depth=1
	;DEBUG_VALUE: bsPutUChar:s <- $x19
	;DEBUG_VALUE: bsPutUChar:c <- 114
	;DEBUG_VALUE: bsW:s <- $x19
	;DEBUG_VALUE: bsW:n <- 8
	;DEBUG_VALUE: bsW:v <- [DW_OP_stack_value] 114
	;DEBUG_VALUE: BZ2_compressBlock:s <- $x19
	;DEBUG_VALUE: BZ2_compressBlock:is_last_block <- $w20
	.loc	1 75 69                         ; compress.c:75:69
	lsr	w8, w8, #24
	.loc	1 75 34                         ; compress.c:75:34
	ldr	x9, [x19, #80]
	.loc	1 75 49                         ; compress.c:75:49
	strb	w8, [x9, w10, sxtw]
	.loc	1 75 84                         ; compress.c:75:84
	ldr	w8, [x19, #116]
	add	w10, w8, #1
	str	w10, [x19, #116]
	.loc	1 75 98                         ; compress.c:75:98
	ldr	w8, [x19, #640]
	lsl	w8, w8, #8
	str	w8, [x19, #640]
	.loc	1 75 115                        ; compress.c:75:115
	ldr	w9, [x19, #644]
	sub	w11, w9, #8
	str	w11, [x19, #644]
Ltmp180:
	.loc	1 75 6                          ; compress.c:75:6
	cmp	w9, #15
	b.gt	LBB1_92
	b	LBB1_94
Ltmp181:
LBB1_93:                                ; %.._crit_edge_crit_edge.i.i130
	;DEBUG_VALUE: bsPutUChar:s <- $x19
	;DEBUG_VALUE: bsPutUChar:c <- 114
	;DEBUG_VALUE: bsW:s <- $x19
	;DEBUG_VALUE: bsW:n <- 8
	;DEBUG_VALUE: bsW:v <- [DW_OP_stack_value] 114
	;DEBUG_VALUE: BZ2_compressBlock:s <- $x19
	;DEBUG_VALUE: BZ2_compressBlock:is_last_block <- $w20
	.loc	1 76 39 is_stmt 1               ; compress.c:76:39
	add	w9, w9, #8
Ltmp182:
LBB1_94:                                ; %bsPutUChar.exit135
	;DEBUG_VALUE: bsPutUChar:s <- $x19
	;DEBUG_VALUE: bsPutUChar:c <- 114
	;DEBUG_VALUE: bsW:s <- $x19
	;DEBUG_VALUE: bsW:n <- 8
	;DEBUG_VALUE: bsW:v <- [DW_OP_stack_value] 114
	;DEBUG_VALUE: BZ2_compressBlock:s <- $x19
	;DEBUG_VALUE: BZ2_compressBlock:is_last_block <- $w20
	;DEBUG_VALUE: bsW:v <- 114
	.loc	1 76 20 is_stmt 0               ; compress.c:76:20
	neg	w10, w9
	mov	w11, #114
	lsl	w10, w11, w10
	.loc	1 76 14                         ; compress.c:76:14
	orr	w8, w10, w8
	str	w8, [x19, #640]
	.loc	1 77 14 is_stmt 1               ; compress.c:77:14
	str	w9, [x19, #644]
Ltmp183:
	;DEBUG_VALUE: bsW:v <- [DW_OP_stack_value] 69
	;DEBUG_VALUE: bsW:n <- 8
	;DEBUG_VALUE: bsW:s <- $x19
	;DEBUG_VALUE: bsPutUChar:c <- 69
	;DEBUG_VALUE: bsPutUChar:s <- $x19
	.loc	1 75 6                          ; compress.c:75:6
	cmp	w9, #7
	b.le	LBB1_97
Ltmp184:
; %bb.95:                               ; %.lr.ph.i.i140
	;DEBUG_VALUE: bsPutUChar:s <- $x19
	;DEBUG_VALUE: bsPutUChar:c <- 69
	;DEBUG_VALUE: bsW:s <- $x19
	;DEBUG_VALUE: bsW:n <- 8
	;DEBUG_VALUE: bsW:v <- [DW_OP_stack_value] 69
	;DEBUG_VALUE: BZ2_compressBlock:s <- $x19
	;DEBUG_VALUE: BZ2_compressBlock:is_last_block <- $w20
	.loc	1 75 43 is_stmt 0               ; compress.c:75:43
	ldr	w10, [x19, #116]
Ltmp185:
LBB1_96:                                ; =>This Inner Loop Header: Depth=1
	;DEBUG_VALUE: bsPutUChar:s <- $x19
	;DEBUG_VALUE: bsPutUChar:c <- 69
	;DEBUG_VALUE: bsW:s <- $x19
	;DEBUG_VALUE: bsW:n <- 8
	;DEBUG_VALUE: bsW:v <- [DW_OP_stack_value] 69
	;DEBUG_VALUE: BZ2_compressBlock:s <- $x19
	;DEBUG_VALUE: BZ2_compressBlock:is_last_block <- $w20
	.loc	1 75 69                         ; compress.c:75:69
	lsr	w8, w8, #24
	.loc	1 75 34                         ; compress.c:75:34
	ldr	x9, [x19, #80]
	.loc	1 75 49                         ; compress.c:75:49
	strb	w8, [x9, w10, sxtw]
	.loc	1 75 84                         ; compress.c:75:84
	ldr	w8, [x19, #116]
	add	w10, w8, #1
	str	w10, [x19, #116]
	.loc	1 75 98                         ; compress.c:75:98
	ldr	w8, [x19, #640]
	lsl	w8, w8, #8
	str	w8, [x19, #640]
	.loc	1 75 115                        ; compress.c:75:115
	ldr	w9, [x19, #644]
	sub	w11, w9, #8
	str	w11, [x19, #644]
Ltmp186:
	.loc	1 75 6                          ; compress.c:75:6
	cmp	w9, #15
	b.gt	LBB1_96
	b	LBB1_98
Ltmp187:
LBB1_97:                                ; %.._crit_edge_crit_edge.i.i137
	;DEBUG_VALUE: bsPutUChar:s <- $x19
	;DEBUG_VALUE: bsPutUChar:c <- 69
	;DEBUG_VALUE: bsW:s <- $x19
	;DEBUG_VALUE: bsW:n <- 8
	;DEBUG_VALUE: bsW:v <- [DW_OP_stack_value] 69
	;DEBUG_VALUE: BZ2_compressBlock:s <- $x19
	;DEBUG_VALUE: BZ2_compressBlock:is_last_block <- $w20
	.loc	1 76 39 is_stmt 1               ; compress.c:76:39
	add	w9, w9, #8
Ltmp188:
LBB1_98:                                ; %bsPutUChar.exit142
	;DEBUG_VALUE: bsPutUChar:s <- $x19
	;DEBUG_VALUE: bsPutUChar:c <- 69
	;DEBUG_VALUE: bsW:s <- $x19
	;DEBUG_VALUE: bsW:n <- 8
	;DEBUG_VALUE: bsW:v <- [DW_OP_stack_value] 69
	;DEBUG_VALUE: BZ2_compressBlock:s <- $x19
	;DEBUG_VALUE: BZ2_compressBlock:is_last_block <- $w20
	;DEBUG_VALUE: bsW:v <- 69
	.loc	1 76 20 is_stmt 0               ; compress.c:76:20
	neg	w10, w9
	mov	w11, #69
	lsl	w10, w11, w10
	.loc	1 76 14                         ; compress.c:76:14
	orr	w8, w10, w8
	str	w8, [x19, #640]
	.loc	1 77 14 is_stmt 1               ; compress.c:77:14
	str	w9, [x19, #644]
Ltmp189:
	;DEBUG_VALUE: bsW:v <- [DW_OP_stack_value] 56
	;DEBUG_VALUE: bsW:n <- 8
	;DEBUG_VALUE: bsW:s <- $x19
	;DEBUG_VALUE: bsPutUChar:c <- 56
	;DEBUG_VALUE: bsPutUChar:s <- $x19
	.loc	1 75 6                          ; compress.c:75:6
	cmp	w9, #7
	b.le	LBB1_101
Ltmp190:
; %bb.99:                               ; %.lr.ph.i.i147
	;DEBUG_VALUE: bsPutUChar:s <- $x19
	;DEBUG_VALUE: bsPutUChar:c <- 56
	;DEBUG_VALUE: bsW:s <- $x19
	;DEBUG_VALUE: bsW:n <- 8
	;DEBUG_VALUE: bsW:v <- [DW_OP_stack_value] 56
	;DEBUG_VALUE: BZ2_compressBlock:s <- $x19
	;DEBUG_VALUE: BZ2_compressBlock:is_last_block <- $w20
	.loc	1 75 43 is_stmt 0               ; compress.c:75:43
	ldr	w10, [x19, #116]
Ltmp191:
LBB1_100:                               ; =>This Inner Loop Header: Depth=1
	;DEBUG_VALUE: bsPutUChar:s <- $x19
	;DEBUG_VALUE: bsPutUChar:c <- 56
	;DEBUG_VALUE: bsW:s <- $x19
	;DEBUG_VALUE: bsW:n <- 8
	;DEBUG_VALUE: bsW:v <- [DW_OP_stack_value] 56
	;DEBUG_VALUE: BZ2_compressBlock:s <- $x19
	;DEBUG_VALUE: BZ2_compressBlock:is_last_block <- $w20
	.loc	1 75 69                         ; compress.c:75:69
	lsr	w8, w8, #24
	.loc	1 75 34                         ; compress.c:75:34
	ldr	x9, [x19, #80]
	.loc	1 75 49                         ; compress.c:75:49
	strb	w8, [x9, w10, sxtw]
	.loc	1 75 84                         ; compress.c:75:84
	ldr	w8, [x19, #116]
	add	w10, w8, #1
	str	w10, [x19, #116]
	.loc	1 75 98                         ; compress.c:75:98
	ldr	w8, [x19, #640]
	lsl	w8, w8, #8
	str	w8, [x19, #640]
	.loc	1 75 115                        ; compress.c:75:115
	ldr	w9, [x19, #644]
	sub	w11, w9, #8
	str	w11, [x19, #644]
Ltmp192:
	.loc	1 75 6                          ; compress.c:75:6
	cmp	w9, #15
	b.gt	LBB1_100
	b	LBB1_102
Ltmp193:
LBB1_101:                               ; %.._crit_edge_crit_edge.i.i144
	;DEBUG_VALUE: bsPutUChar:s <- $x19
	;DEBUG_VALUE: bsPutUChar:c <- 56
	;DEBUG_VALUE: bsW:s <- $x19
	;DEBUG_VALUE: bsW:n <- 8
	;DEBUG_VALUE: bsW:v <- [DW_OP_stack_value] 56
	;DEBUG_VALUE: BZ2_compressBlock:s <- $x19
	;DEBUG_VALUE: BZ2_compressBlock:is_last_block <- $w20
	.loc	1 76 39 is_stmt 1               ; compress.c:76:39
	add	w9, w9, #8
Ltmp194:
LBB1_102:                               ; %bsPutUChar.exit149
	;DEBUG_VALUE: bsPutUChar:s <- $x19
	;DEBUG_VALUE: bsPutUChar:c <- 56
	;DEBUG_VALUE: bsW:s <- $x19
	;DEBUG_VALUE: bsW:n <- 8
	;DEBUG_VALUE: bsW:v <- [DW_OP_stack_value] 56
	;DEBUG_VALUE: BZ2_compressBlock:s <- $x19
	;DEBUG_VALUE: BZ2_compressBlock:is_last_block <- $w20
	;DEBUG_VALUE: bsW:v <- 56
	.loc	1 76 20 is_stmt 0               ; compress.c:76:20
	neg	w10, w9
	mov	w11, #56
	lsl	w10, w11, w10
	.loc	1 76 14                         ; compress.c:76:14
	orr	w8, w10, w8
	str	w8, [x19, #640]
	.loc	1 77 14 is_stmt 1               ; compress.c:77:14
	str	w9, [x19, #644]
Ltmp195:
	;DEBUG_VALUE: bsW:v <- [DW_OP_stack_value] 80
	;DEBUG_VALUE: bsW:n <- 8
	;DEBUG_VALUE: bsW:s <- $x19
	;DEBUG_VALUE: bsPutUChar:c <- 80
	;DEBUG_VALUE: bsPutUChar:s <- $x19
	.loc	1 75 6                          ; compress.c:75:6
	cmp	w9, #7
	b.le	LBB1_105
Ltmp196:
; %bb.103:                              ; %.lr.ph.i.i154
	;DEBUG_VALUE: bsPutUChar:s <- $x19
	;DEBUG_VALUE: bsPutUChar:c <- 80
	;DEBUG_VALUE: bsW:s <- $x19
	;DEBUG_VALUE: bsW:n <- 8
	;DEBUG_VALUE: bsW:v <- [DW_OP_stack_value] 80
	;DEBUG_VALUE: BZ2_compressBlock:s <- $x19
	;DEBUG_VALUE: BZ2_compressBlock:is_last_block <- $w20
	.loc	1 75 43 is_stmt 0               ; compress.c:75:43
	ldr	w10, [x19, #116]
Ltmp197:
LBB1_104:                               ; =>This Inner Loop Header: Depth=1
	;DEBUG_VALUE: bsPutUChar:s <- $x19
	;DEBUG_VALUE: bsPutUChar:c <- 80
	;DEBUG_VALUE: bsW:s <- $x19
	;DEBUG_VALUE: bsW:n <- 8
	;DEBUG_VALUE: bsW:v <- [DW_OP_stack_value] 80
	;DEBUG_VALUE: BZ2_compressBlock:s <- $x19
	;DEBUG_VALUE: BZ2_compressBlock:is_last_block <- $w20
	.loc	1 75 69                         ; compress.c:75:69
	lsr	w8, w8, #24
	.loc	1 75 34                         ; compress.c:75:34
	ldr	x9, [x19, #80]
	.loc	1 75 49                         ; compress.c:75:49
	strb	w8, [x9, w10, sxtw]
	.loc	1 75 84                         ; compress.c:75:84
	ldr	w8, [x19, #116]
	add	w10, w8, #1
	str	w10, [x19, #116]
	.loc	1 75 98                         ; compress.c:75:98
	ldr	w8, [x19, #640]
	lsl	w8, w8, #8
	str	w8, [x19, #640]
	.loc	1 75 115                        ; compress.c:75:115
	ldr	w9, [x19, #644]
	sub	w11, w9, #8
	str	w11, [x19, #644]
Ltmp198:
	.loc	1 75 6                          ; compress.c:75:6
	cmp	w9, #15
	b.gt	LBB1_104
	b	LBB1_106
Ltmp199:
LBB1_105:                               ; %.._crit_edge_crit_edge.i.i151
	;DEBUG_VALUE: bsPutUChar:s <- $x19
	;DEBUG_VALUE: bsPutUChar:c <- 80
	;DEBUG_VALUE: bsW:s <- $x19
	;DEBUG_VALUE: bsW:n <- 8
	;DEBUG_VALUE: bsW:v <- [DW_OP_stack_value] 80
	;DEBUG_VALUE: BZ2_compressBlock:s <- $x19
	;DEBUG_VALUE: BZ2_compressBlock:is_last_block <- $w20
	.loc	1 76 39 is_stmt 1               ; compress.c:76:39
	add	w9, w9, #8
Ltmp200:
LBB1_106:                               ; %bsPutUChar.exit156
	;DEBUG_VALUE: bsPutUChar:s <- $x19
	;DEBUG_VALUE: bsPutUChar:c <- 80
	;DEBUG_VALUE: bsW:s <- $x19
	;DEBUG_VALUE: bsW:n <- 8
	;DEBUG_VALUE: bsW:v <- [DW_OP_stack_value] 80
	;DEBUG_VALUE: BZ2_compressBlock:s <- $x19
	;DEBUG_VALUE: BZ2_compressBlock:is_last_block <- $w20
	;DEBUG_VALUE: bsW:v <- 80
	.loc	1 76 20 is_stmt 0               ; compress.c:76:20
	neg	w10, w9
	mov	w11, #80
	lsl	w10, w11, w10
	.loc	1 76 14                         ; compress.c:76:14
	orr	w8, w10, w8
	str	w8, [x19, #640]
	.loc	1 77 14 is_stmt 1               ; compress.c:77:14
	str	w9, [x19, #644]
Ltmp201:
	;DEBUG_VALUE: bsW:v <- [DW_OP_stack_value] 144
	;DEBUG_VALUE: bsW:n <- 8
	;DEBUG_VALUE: bsW:s <- $x19
	;DEBUG_VALUE: bsPutUChar:c <- -112
	;DEBUG_VALUE: bsPutUChar:s <- $x19
	.loc	1 75 6                          ; compress.c:75:6
	cmp	w9, #7
	b.le	LBB1_109
Ltmp202:
; %bb.107:                              ; %.lr.ph.i.i161
	;DEBUG_VALUE: bsPutUChar:s <- $x19
	;DEBUG_VALUE: bsPutUChar:c <- -112
	;DEBUG_VALUE: bsW:s <- $x19
	;DEBUG_VALUE: bsW:n <- 8
	;DEBUG_VALUE: bsW:v <- [DW_OP_stack_value] 144
	;DEBUG_VALUE: BZ2_compressBlock:s <- $x19
	;DEBUG_VALUE: BZ2_compressBlock:is_last_block <- $w20
	.loc	1 75 43 is_stmt 0               ; compress.c:75:43
	ldr	w10, [x19, #116]
Ltmp203:
LBB1_108:                               ; =>This Inner Loop Header: Depth=1
	;DEBUG_VALUE: bsPutUChar:s <- $x19
	;DEBUG_VALUE: bsPutUChar:c <- -112
	;DEBUG_VALUE: bsW:s <- $x19
	;DEBUG_VALUE: bsW:n <- 8
	;DEBUG_VALUE: bsW:v <- [DW_OP_stack_value] 144
	;DEBUG_VALUE: BZ2_compressBlock:s <- $x19
	;DEBUG_VALUE: BZ2_compressBlock:is_last_block <- $w20
	.loc	1 75 69                         ; compress.c:75:69
	lsr	w8, w8, #24
	.loc	1 75 34                         ; compress.c:75:34
	ldr	x9, [x19, #80]
	.loc	1 75 49                         ; compress.c:75:49
	strb	w8, [x9, w10, sxtw]
	.loc	1 75 84                         ; compress.c:75:84
	ldr	w8, [x19, #116]
	add	w10, w8, #1
	str	w10, [x19, #116]
	.loc	1 75 98                         ; compress.c:75:98
	ldr	w8, [x19, #640]
	lsl	w8, w8, #8
	str	w8, [x19, #640]
	.loc	1 75 115                        ; compress.c:75:115
	ldr	w9, [x19, #644]
	sub	w11, w9, #8
	str	w11, [x19, #644]
Ltmp204:
	.loc	1 75 6                          ; compress.c:75:6
	cmp	w9, #15
	b.gt	LBB1_108
	b	LBB1_110
Ltmp205:
LBB1_109:                               ; %.._crit_edge_crit_edge.i.i158
	;DEBUG_VALUE: bsPutUChar:s <- $x19
	;DEBUG_VALUE: bsPutUChar:c <- -112
	;DEBUG_VALUE: bsW:s <- $x19
	;DEBUG_VALUE: bsW:n <- 8
	;DEBUG_VALUE: bsW:v <- [DW_OP_stack_value] 144
	;DEBUG_VALUE: BZ2_compressBlock:s <- $x19
	;DEBUG_VALUE: BZ2_compressBlock:is_last_block <- $w20
	.loc	1 76 39 is_stmt 1               ; compress.c:76:39
	add	w9, w9, #8
Ltmp206:
LBB1_110:                               ; %bsPutUChar.exit163
	;DEBUG_VALUE: bsPutUChar:s <- $x19
	;DEBUG_VALUE: bsPutUChar:c <- -112
	;DEBUG_VALUE: bsW:s <- $x19
	;DEBUG_VALUE: bsW:n <- 8
	;DEBUG_VALUE: bsW:v <- [DW_OP_stack_value] 144
	;DEBUG_VALUE: BZ2_compressBlock:s <- $x19
	;DEBUG_VALUE: BZ2_compressBlock:is_last_block <- $w20
	;DEBUG_VALUE: bsW:v <- 144
	.loc	1 76 20 is_stmt 0               ; compress.c:76:20
	neg	w10, w9
	mov	w11, #144
	lsl	w10, w11, w10
	.loc	1 76 14                         ; compress.c:76:14
	orr	w8, w10, w8
	str	w8, [x19, #640]
	.loc	1 77 14 is_stmt 1               ; compress.c:77:14
	str	w9, [x19, #644]
Ltmp207:
	.loc	1 662 27                        ; compress.c:662:27
	ldr	w1, [x19, #652]
	.loc	1 662 7 is_stmt 0               ; compress.c:662:7
	mov	x0, x19
	bl	_bsPutUInt32
Ltmp208:
	.loc	1 663 14 is_stmt 1              ; compress.c:663:14
	ldr	w8, [x19, #656]
Ltmp209:
	.loc	1 663 11 is_stmt 0              ; compress.c:663:11
	cmp	w8, #1
	b.le	LBB1_112
Ltmp210:
; %bb.111:
	;DEBUG_VALUE: BZ2_compressBlock:s <- $x19
	;DEBUG_VALUE: BZ2_compressBlock:is_last_block <- $w20
	.loc	1 664 18 is_stmt 1              ; compress.c:664:18
Lloh12:
	adrp	x8, ___stderrp@GOTPAGE
Lloh13:
	ldr	x8, [x8, ___stderrp@GOTPAGEOFF]
Lloh14:
	ldr	x0, [x8]
	.loc	1 664 10 is_stmt 0              ; compress.c:664:10
	ldr	w8, [x19, #652]
	str	x8, [sp]
Lloh15:
	adrp	x1, l_.str.1@PAGE
Lloh16:
	add	x1, x1, l_.str.1@PAGEOFF
	bl	_fprintf
Ltmp211:
LBB1_112:
	;DEBUG_VALUE: BZ2_compressBlock:s <- $x19
	;DEBUG_VALUE: BZ2_compressBlock:is_last_block <- $w20
	;DEBUG_VALUE: bsFinishWrite:s <- $x19
	.loc	1 48 14 is_stmt 1               ; compress.c:48:14
	ldr	w8, [x19, #644]
	.loc	1 48 4 is_stmt 0                ; compress.c:48:4
	cmp	w8, #1
	b.lt	LBB1_115
Ltmp212:
; %bb.113:                              ; %.lr.ph.i165
	;DEBUG_VALUE: bsFinishWrite:s <- $x19
	;DEBUG_VALUE: BZ2_compressBlock:s <- $x19
	;DEBUG_VALUE: BZ2_compressBlock:is_last_block <- $w20
	.loc	1 49 38 is_stmt 1               ; compress.c:49:38
	ldr	w9, [x19, #640]
	.loc	1 49 19 is_stmt 0               ; compress.c:49:19
	ldr	w8, [x19, #116]
Ltmp213:
LBB1_114:                               ; =>This Inner Loop Header: Depth=1
	;DEBUG_VALUE: bsFinishWrite:s <- $x19
	;DEBUG_VALUE: BZ2_compressBlock:s <- $x19
	;DEBUG_VALUE: BZ2_compressBlock:is_last_block <- $w20
	.loc	1 49 45                         ; compress.c:49:45
	lsr	w9, w9, #24
	.loc	1 49 10                         ; compress.c:49:10
	ldr	x10, [x19, #80]
	.loc	1 49 25                         ; compress.c:49:25
	strb	w9, [x10, w8, sxtw]
	.loc	1 50 14 is_stmt 1               ; compress.c:50:14
	ldr	w8, [x19, #116]
	add	w8, w8, #1
	str	w8, [x19, #116]
	.loc	1 51 17                         ; compress.c:51:17
	ldr	w9, [x19, #640]
	lsl	w9, w9, #8
	str	w9, [x19, #640]
	.loc	1 52 17                         ; compress.c:52:17
	ldr	w10, [x19, #644]
	subs	w10, w10, #8
	str	w10, [x19, #644]
Ltmp214:
	.loc	1 48 4                          ; compress.c:48:4
	b.gt	LBB1_114
Ltmp215:
LBB1_115:                               ; %bsFinishWrite.exit
	;DEBUG_VALUE: BZ2_compressBlock:s <- $x19
	;DEBUG_VALUE: BZ2_compressBlock:is_last_block <- $w20
	.loc	1 0 4 is_stmt 0                 ; compress.c:0:4
	ldur	x8, [x29, #-72]
Lloh17:
	adrp	x9, ___stack_chk_guard@GOTPAGE
Lloh18:
	ldr	x9, [x9, ___stack_chk_guard@GOTPAGEOFF]
Lloh19:
	ldr	x9, [x9]
	cmp	x9, x8
	b.ne	LBB1_117
Ltmp216:
; %bb.116:                              ; %bsFinishWrite.exit
	;DEBUG_VALUE: BZ2_compressBlock:s <- $x19
	;DEBUG_VALUE: BZ2_compressBlock:is_last_block <- $w20
	.loc	1 667 1 is_stmt 1               ; compress.c:667:1
	ldp	x29, x30, [sp, #368]            ; 16-byte Folded Reload
	ldp	x20, x19, [sp, #352]            ; 16-byte Folded Reload
Ltmp217:
	;DEBUG_VALUE: BZ2_compressBlock:s <- [DW_OP_LLVM_entry_value 1] $x0
	ldp	x22, x21, [sp, #336]            ; 16-byte Folded Reload
	ldp	x24, x23, [sp, #320]            ; 16-byte Folded Reload
	ldp	x28, x27, [sp, #304]            ; 16-byte Folded Reload
	add	sp, sp, #384
	ret
Ltmp218:
LBB1_117:                               ; %bsFinishWrite.exit
	;DEBUG_VALUE: BZ2_compressBlock:s <- $x19
	;DEBUG_VALUE: BZ2_compressBlock:is_last_block <- $w20
	.loc	1 0 1 is_stmt 0                 ; compress.c:0:1
	bl	___stack_chk_fail
Ltmp219:
	.loh AdrpLdrGotLdr	Lloh0, Lloh1, Lloh2
	.loh AdrpAdd	Lloh6, Lloh7
	.loh AdrpLdrGotLdr	Lloh3, Lloh4, Lloh5
	.loh AdrpLdr	Lloh8, Lloh9
	.loh AdrpLdr	Lloh10, Lloh11
	.loh AdrpAdd	Lloh15, Lloh16
	.loh AdrpLdrGotLdr	Lloh12, Lloh13, Lloh14
	.loh AdrpLdrGotLdr	Lloh17, Lloh18, Lloh19
Lfunc_end1:
	.cfi_endproc
	.file	3 "/Users/mac/rustmap-clone/c-code/bzip2" "./bzlib.h"
                                        ; -- End function
	.p2align	2                               ; -- Begin function bsPutUInt32
_bsPutUInt32:                           ; @bsPutUInt32
Lfunc_begin2:
	.loc	1 84 0 is_stmt 1                ; compress.c:84:0
	.cfi_startproc
; %bb.0:
	;DEBUG_VALUE: bsPutUInt32:s <- $x0
	;DEBUG_VALUE: bsPutUInt32:u <- $w1
	.loc	1 85 19 prologue_end            ; compress.c:85:19
	lsr	w9, w1, #24
Ltmp220:
	;DEBUG_VALUE: bsW:n <- 8
	;DEBUG_VALUE: bsW:s <- $x0
	;DEBUG_VALUE: bsW:v <- $w9
	.loc	1 75 16                         ; compress.c:75:16
	ldr	w8, [x0, #644]
	.loc	1 75 6 is_stmt 0                ; compress.c:75:6
	cmp	w8, #7
	b.le	LBB2_3
Ltmp221:
; %bb.1:                                ; %.lr.ph.i
	;DEBUG_VALUE: bsW:v <- $w9
	;DEBUG_VALUE: bsW:s <- $x0
	;DEBUG_VALUE: bsW:n <- 8
	;DEBUG_VALUE: bsPutUInt32:u <- $w1
	;DEBUG_VALUE: bsPutUInt32:s <- $x0
	.loc	1 75 62                         ; compress.c:75:62
	ldr	w10, [x0, #640]
	.loc	1 75 43                         ; compress.c:75:43
	ldr	w11, [x0, #116]
Ltmp222:
LBB2_2:                                 ; =>This Inner Loop Header: Depth=1
	;DEBUG_VALUE: bsW:v <- $w9
	;DEBUG_VALUE: bsW:s <- $x0
	;DEBUG_VALUE: bsW:n <- 8
	;DEBUG_VALUE: bsPutUInt32:u <- $w1
	;DEBUG_VALUE: bsPutUInt32:s <- $x0
	.loc	1 75 69                         ; compress.c:75:69
	lsr	w8, w10, #24
	.loc	1 75 34                         ; compress.c:75:34
	ldr	x10, [x0, #80]
	.loc	1 75 49                         ; compress.c:75:49
	strb	w8, [x10, w11, sxtw]
	.loc	1 75 84                         ; compress.c:75:84
	ldr	w8, [x0, #116]
	add	w11, w8, #1
	str	w11, [x0, #116]
	.loc	1 75 98                         ; compress.c:75:98
	ldr	w8, [x0, #640]
	lsl	w10, w8, #8
	str	w10, [x0, #640]
	.loc	1 75 115                        ; compress.c:75:115
	ldr	w8, [x0, #644]
	sub	w12, w8, #8
	str	w12, [x0, #644]
Ltmp223:
	.loc	1 75 6                          ; compress.c:75:6
	cmp	w8, #15
	b.gt	LBB2_2
	b	LBB2_4
Ltmp224:
LBB2_3:                                 ; %.._crit_edge_crit_edge.i
	;DEBUG_VALUE: bsW:v <- $w9
	;DEBUG_VALUE: bsW:s <- $x0
	;DEBUG_VALUE: bsW:n <- 8
	;DEBUG_VALUE: bsPutUInt32:u <- $w1
	;DEBUG_VALUE: bsPutUInt32:s <- $x0
	.loc	1 76 14 is_stmt 1               ; compress.c:76:14
	ldr	w10, [x0, #640]
	.loc	1 76 39 is_stmt 0               ; compress.c:76:39
	add	w8, w8, #8
Ltmp225:
LBB2_4:                                 ; %bsW.exit
	;DEBUG_VALUE: bsW:v <- $w9
	;DEBUG_VALUE: bsW:s <- $x0
	;DEBUG_VALUE: bsW:n <- 8
	;DEBUG_VALUE: bsPutUInt32:u <- $w1
	;DEBUG_VALUE: bsPutUInt32:s <- $x0
	.loc	1 76 20                         ; compress.c:76:20
	neg	w11, w8
	lsl	w9, w9, w11
Ltmp226:
	.loc	1 76 14                         ; compress.c:76:14
	orr	w11, w9, w10
	str	w11, [x0, #640]
	.loc	1 77 14 is_stmt 1               ; compress.c:77:14
	str	w8, [x0, #644]
Ltmp227:
	.loc	1 86 26                         ; compress.c:86:26
	ubfx	w10, w1, #16, #8
Ltmp228:
	;DEBUG_VALUE: bsW:n <- 8
	;DEBUG_VALUE: bsW:s <- $x0
	;DEBUG_VALUE: bsW:v <- $w10
	.loc	1 75 6                          ; compress.c:75:6
	cmp	w8, #8
	b.lt	LBB2_7
Ltmp229:
; %bb.5:                                ; %.lr.ph.i11
	;DEBUG_VALUE: bsW:v <- $w10
	;DEBUG_VALUE: bsW:s <- $x0
	;DEBUG_VALUE: bsW:n <- 8
	;DEBUG_VALUE: bsPutUInt32:u <- $w1
	;DEBUG_VALUE: bsPutUInt32:s <- $x0
	.loc	1 75 43 is_stmt 0               ; compress.c:75:43
	ldr	w9, [x0, #116]
Ltmp230:
LBB2_6:                                 ; =>This Inner Loop Header: Depth=1
	;DEBUG_VALUE: bsW:v <- $w10
	;DEBUG_VALUE: bsW:s <- $x0
	;DEBUG_VALUE: bsW:n <- 8
	;DEBUG_VALUE: bsPutUInt32:u <- $w1
	;DEBUG_VALUE: bsPutUInt32:s <- $x0
	.loc	1 75 69                         ; compress.c:75:69
	lsr	w8, w11, #24
	.loc	1 75 34                         ; compress.c:75:34
	ldr	x11, [x0, #80]
	.loc	1 75 49                         ; compress.c:75:49
	strb	w8, [x11, w9, sxtw]
	.loc	1 75 84                         ; compress.c:75:84
	ldr	w8, [x0, #116]
	add	w9, w8, #1
	str	w9, [x0, #116]
	.loc	1 75 98                         ; compress.c:75:98
	ldr	w8, [x0, #640]
	lsl	w11, w8, #8
	str	w11, [x0, #640]
	.loc	1 75 115                        ; compress.c:75:115
	ldr	w12, [x0, #644]
	sub	w8, w12, #8
	str	w8, [x0, #644]
Ltmp231:
	.loc	1 75 6                          ; compress.c:75:6
	cmp	w12, #15
	b.gt	LBB2_6
Ltmp232:
LBB2_7:                                 ; %bsW.exit13
	;DEBUG_VALUE: bsW:v <- $w10
	;DEBUG_VALUE: bsW:s <- $x0
	;DEBUG_VALUE: bsW:n <- 8
	;DEBUG_VALUE: bsPutUInt32:u <- $w1
	;DEBUG_VALUE: bsPutUInt32:s <- $x0
	.loc	1 76 39 is_stmt 1               ; compress.c:76:39
	add	w12, w8, #8
	mov	w9, #24
	sub	w13, w9, w8
	.loc	1 76 20 is_stmt 0               ; compress.c:76:20
	lsl	w10, w10, w13
Ltmp233:
	.loc	1 76 14                         ; compress.c:76:14
	orr	w11, w10, w11
	str	w11, [x0, #640]
	.loc	1 77 14 is_stmt 1               ; compress.c:77:14
	str	w12, [x0, #644]
Ltmp234:
	.loc	1 87 25                         ; compress.c:87:25
	ubfx	w10, w1, #8, #8
Ltmp235:
	;DEBUG_VALUE: bsW:n <- 8
	;DEBUG_VALUE: bsW:s <- $x0
	;DEBUG_VALUE: bsW:v <- $w10
	.loc	1 75 6                          ; compress.c:75:6
	tbnz	w8, #31, LBB2_10
Ltmp236:
; %bb.8:                                ; %.lr.ph.i18
	;DEBUG_VALUE: bsW:v <- $w10
	;DEBUG_VALUE: bsW:s <- $x0
	;DEBUG_VALUE: bsW:n <- 8
	;DEBUG_VALUE: bsPutUInt32:u <- $w1
	;DEBUG_VALUE: bsPutUInt32:s <- $x0
	.loc	1 75 43 is_stmt 0               ; compress.c:75:43
	ldr	w8, [x0, #116]
Ltmp237:
LBB2_9:                                 ; =>This Inner Loop Header: Depth=1
	;DEBUG_VALUE: bsW:v <- $w10
	;DEBUG_VALUE: bsW:s <- $x0
	;DEBUG_VALUE: bsW:n <- 8
	;DEBUG_VALUE: bsPutUInt32:u <- $w1
	;DEBUG_VALUE: bsPutUInt32:s <- $x0
	.loc	1 75 69                         ; compress.c:75:69
	lsr	w11, w11, #24
	.loc	1 75 34                         ; compress.c:75:34
	ldr	x12, [x0, #80]
	.loc	1 75 49                         ; compress.c:75:49
	strb	w11, [x12, w8, sxtw]
	.loc	1 75 84                         ; compress.c:75:84
	ldr	w8, [x0, #116]
	add	w8, w8, #1
	str	w8, [x0, #116]
	.loc	1 75 98                         ; compress.c:75:98
	ldr	w11, [x0, #640]
	lsl	w11, w11, #8
	str	w11, [x0, #640]
	.loc	1 75 115                        ; compress.c:75:115
	ldr	w13, [x0, #644]
	sub	w12, w13, #8
	str	w12, [x0, #644]
Ltmp238:
	.loc	1 75 6                          ; compress.c:75:6
	cmp	w13, #15
	b.gt	LBB2_9
Ltmp239:
LBB2_10:                                ; %bsW.exit20
	;DEBUG_VALUE: bsW:v <- $w10
	;DEBUG_VALUE: bsW:s <- $x0
	;DEBUG_VALUE: bsW:n <- 8
	;DEBUG_VALUE: bsPutUInt32:u <- $w1
	;DEBUG_VALUE: bsPutUInt32:s <- $x0
	.loc	1 76 39 is_stmt 1               ; compress.c:76:39
	add	w13, w12, #8
	sub	w8, w9, w12
	.loc	1 76 20 is_stmt 0               ; compress.c:76:20
	lsl	w8, w10, w8
	.loc	1 76 14                         ; compress.c:76:14
	orr	w8, w8, w11
	str	w8, [x0, #640]
	.loc	1 77 14 is_stmt 1               ; compress.c:77:14
	str	w13, [x0, #644]
Ltmp240:
	;DEBUG_VALUE: bsW:v <- [DW_OP_constu 255, DW_OP_and, DW_OP_stack_value] $w1
	;DEBUG_VALUE: bsW:n <- 8
	;DEBUG_VALUE: bsW:s <- $x0
	.loc	1 75 6                          ; compress.c:75:6
	tbnz	w12, #31, LBB2_13
Ltmp241:
; %bb.11:                               ; %.lr.ph.i25
	;DEBUG_VALUE: bsW:s <- $x0
	;DEBUG_VALUE: bsW:n <- 8
	;DEBUG_VALUE: bsW:v <- [DW_OP_constu 255, DW_OP_and, DW_OP_stack_value] $w1
	;DEBUG_VALUE: bsPutUInt32:u <- $w1
	;DEBUG_VALUE: bsPutUInt32:s <- $x0
	.loc	1 75 43 is_stmt 0               ; compress.c:75:43
	ldr	w9, [x0, #116]
Ltmp242:
LBB2_12:                                ; =>This Inner Loop Header: Depth=1
	;DEBUG_VALUE: bsW:s <- $x0
	;DEBUG_VALUE: bsW:n <- 8
	;DEBUG_VALUE: bsW:v <- [DW_OP_constu 255, DW_OP_and, DW_OP_stack_value] $w1
	;DEBUG_VALUE: bsPutUInt32:u <- $w1
	;DEBUG_VALUE: bsPutUInt32:s <- $x0
	.loc	1 75 69                         ; compress.c:75:69
	lsr	w8, w8, #24
	.loc	1 75 34                         ; compress.c:75:34
	ldr	x10, [x0, #80]
	.loc	1 75 49                         ; compress.c:75:49
	strb	w8, [x10, w9, sxtw]
	.loc	1 75 84                         ; compress.c:75:84
	ldr	w8, [x0, #116]
	add	w9, w8, #1
	str	w9, [x0, #116]
	.loc	1 75 98                         ; compress.c:75:98
	ldr	w8, [x0, #640]
	lsl	w8, w8, #8
	str	w8, [x0, #640]
	.loc	1 75 115                        ; compress.c:75:115
	ldr	w10, [x0, #644]
	sub	w13, w10, #8
	str	w13, [x0, #644]
Ltmp243:
	.loc	1 75 6                          ; compress.c:75:6
	cmp	w10, #15
	b.gt	LBB2_12
Ltmp244:
LBB2_13:                                ; %bsW.exit27
	;DEBUG_VALUE: bsW:s <- $x0
	;DEBUG_VALUE: bsW:n <- 8
	;DEBUG_VALUE: bsW:v <- [DW_OP_constu 255, DW_OP_and, DW_OP_stack_value] $w1
	;DEBUG_VALUE: bsPutUInt32:u <- $w1
	;DEBUG_VALUE: bsPutUInt32:s <- $x0
	.loc	1 88 18 is_stmt 1               ; compress.c:88:18
	and	w9, w1, #0xff
Ltmp245:
	;DEBUG_VALUE: bsW:v <- $w9
	.loc	1 76 39                         ; compress.c:76:39
	add	w10, w13, #8
	mov	w11, #24
	sub	w11, w11, w13
	.loc	1 76 20 is_stmt 0               ; compress.c:76:20
	lsl	w9, w9, w11
Ltmp246:
	.loc	1 76 14                         ; compress.c:76:14
	orr	w8, w9, w8
	str	w8, [x0, #640]
	.loc	1 77 14 is_stmt 1               ; compress.c:77:14
	str	w10, [x0, #644]
Ltmp247:
	.loc	1 89 1                          ; compress.c:89:1
	ret
Ltmp248:
Lfunc_end2:
	.cfi_endproc
                                        ; -- End function
	.section	__TEXT,__literal16,16byte_literals
	.p2align	4, 0x0                          ; -- Begin function sendMTFValues
lCPI3_0:
	.quad	6                               ; 0x6
	.quad	7                               ; 0x7
lCPI3_1:
	.quad	4                               ; 0x4
	.quad	5                               ; 0x5
lCPI3_2:
	.quad	2                               ; 0x2
	.quad	3                               ; 0x3
lCPI3_3:
	.quad	0                               ; 0x0
	.quad	1                               ; 0x1
lCPI3_4:
	.byte	12                              ; 0xc
	.byte	255                             ; 0xff
	.byte	255                             ; 0xff
	.byte	255                             ; 0xff
	.byte	13                              ; 0xd
	.byte	255                             ; 0xff
	.byte	255                             ; 0xff
	.byte	255                             ; 0xff
	.byte	14                              ; 0xe
	.byte	255                             ; 0xff
	.byte	255                             ; 0xff
	.byte	255                             ; 0xff
	.byte	15                              ; 0xf
	.byte	255                             ; 0xff
	.byte	255                             ; 0xff
	.byte	255                             ; 0xff
lCPI3_5:
	.byte	0                               ; 0x0
	.byte	255                             ; 0xff
	.byte	255                             ; 0xff
	.byte	255                             ; 0xff
	.byte	1                               ; 0x1
	.byte	255                             ; 0xff
	.byte	255                             ; 0xff
	.byte	255                             ; 0xff
	.byte	2                               ; 0x2
	.byte	255                             ; 0xff
	.byte	255                             ; 0xff
	.byte	255                             ; 0xff
	.byte	3                               ; 0x3
	.byte	255                             ; 0xff
	.byte	255                             ; 0xff
	.byte	255                             ; 0xff
lCPI3_6:
	.byte	4                               ; 0x4
	.byte	255                             ; 0xff
	.byte	255                             ; 0xff
	.byte	255                             ; 0xff
	.byte	5                               ; 0x5
	.byte	255                             ; 0xff
	.byte	255                             ; 0xff
	.byte	255                             ; 0xff
	.byte	6                               ; 0x6
	.byte	255                             ; 0xff
	.byte	255                             ; 0xff
	.byte	255                             ; 0xff
	.byte	7                               ; 0x7
	.byte	255                             ; 0xff
	.byte	255                             ; 0xff
	.byte	255                             ; 0xff
lCPI3_7:
	.byte	8                               ; 0x8
	.byte	255                             ; 0xff
	.byte	255                             ; 0xff
	.byte	255                             ; 0xff
	.byte	9                               ; 0x9
	.byte	255                             ; 0xff
	.byte	255                             ; 0xff
	.byte	255                             ; 0xff
	.byte	10                              ; 0xa
	.byte	255                             ; 0xff
	.byte	255                             ; 0xff
	.byte	255                             ; 0xff
	.byte	11                              ; 0xb
	.byte	255                             ; 0xff
	.byte	255                             ; 0xff
	.byte	255                             ; 0xff
	.section	__TEXT,__text,regular,pure_instructions
	.p2align	2
_sendMTFValues:                         ; @sendMTFValues
Lfunc_begin3:
	.loc	1 240 0                         ; compress.c:240:0
	.cfi_startproc
; %bb.0:
	;DEBUG_VALUE: sendMTFValues:s <- $x0
	sub	sp, sp, #496
	.cfi_def_cfa_offset 496
	stp	d9, d8, [sp, #384]              ; 16-byte Folded Spill
	stp	x28, x27, [sp, #400]            ; 16-byte Folded Spill
	stp	x26, x25, [sp, #416]            ; 16-byte Folded Spill
	stp	x24, x23, [sp, #432]            ; 16-byte Folded Spill
	stp	x22, x21, [sp, #448]            ; 16-byte Folded Spill
	stp	x20, x19, [sp, #464]            ; 16-byte Folded Spill
	stp	x29, x30, [sp, #480]            ; 16-byte Folded Spill
	add	x29, sp, #480
	.cfi_def_cfa w29, 16
	.cfi_offset w30, -8
	.cfi_offset w29, -16
	.cfi_offset w19, -24
	.cfi_offset w20, -32
	.cfi_offset w21, -40
	.cfi_offset w22, -48
	.cfi_offset w23, -56
	.cfi_offset w24, -64
	.cfi_offset w25, -72
	.cfi_offset w26, -80
	.cfi_offset w27, -88
	.cfi_offset w28, -96
	.cfi_offset b8, -104
	.cfi_offset b9, -112
	mov	x19, x0
Ltmp249:
	;DEBUG_VALUE: sendMTFValues:s <- $x19
Lloh20:
	adrp	x8, ___stack_chk_guard@GOTPAGE
Lloh21:
	ldr	x8, [x8, ___stack_chk_guard@GOTPAGEOFF]
Lloh22:
	ldr	x8, [x8]
	stur	x8, [x29, #-112]
	mov	w20, #51644
	mov	w8, #37708
	add	x8, x0, x8
	str	x8, [sp, #128]                  ; 8-byte Folded Spill
Ltmp250:
	.loc	1 259 22 prologue_end           ; compress.c:259:22
	ldr	x21, [x0, #72]
Ltmp251:
	;DEBUG_VALUE: sendMTFValues:mtfv <- $x21
	.loc	1 261 11                        ; compress.c:261:11
	ldr	w8, [x0, #656]
Lloh23:
	adrp	x9, ___stderrp@GOTPAGE
Lloh24:
	ldr	x9, [x9, ___stderrp@GOTPAGEOFF]
Ltmp252:
	.loc	1 261 8 is_stmt 0               ; compress.c:261:8
	cmp	w8, #3
	b.lt	LBB3_2
Ltmp253:
; %bb.1:
	;DEBUG_VALUE: sendMTFValues:mtfv <- $x21
	;DEBUG_VALUE: sendMTFValues:s <- $x19
	.loc	1 262 15 is_stmt 1              ; compress.c:262:15
	ldr	x0, [x9]
	.loc	1 262 7 is_stmt 0               ; compress.c:262:7
	ldr	w8, [x19, #108]
	ldr	w9, [x19, #668]
	ldr	w10, [x19, #124]
	stp	x9, x10, [sp, #8]
	str	x8, [sp]
Lloh25:
	adrp	x1, l_.str.2@PAGE
Lloh26:
	add	x1, x1, l_.str.2@PAGEOFF
	bl	_fprintf
Ltmp254:
LBB3_2:                                 ; %.preheader1980
	;DEBUG_VALUE: sendMTFValues:mtfv <- $x21
	;DEBUG_VALUE: sendMTFValues:s <- $x19
	.loc	1 266 19 is_stmt 1              ; compress.c:266:19
	ldrsw	x13, [x19, #124]
	.loc	1 266 25 is_stmt 0              ; compress.c:266:25
	add	w22, w13, #2
Ltmp255:
	;DEBUG_VALUE: sendMTFValues:t <- 0
	;DEBUG_VALUE: sendMTFValues:alphaSize <- $w22
	.loc	1 267 4 is_stmt 1               ; compress.c:267:4
	cmp	w22, #1
	csinc	w2, w22, wzr, gt
Ltmp256:
	;DEBUG_VALUE: sendMTFValues:v <- 0
	;DEBUG_VALUE: sendMTFValues:t <- [DW_OP_stack_value] 0
	.loc	1 268 7                         ; compress.c:268:7
	cmn	w13, #1
	stp	x2, x13, [x29, #-224]           ; 16-byte Folded Spill
	b.lt	LBB3_4
Ltmp257:
; %bb.3:                                ; %.lr.ph.5
	;DEBUG_VALUE: sendMTFValues:t <- [DW_OP_stack_value] 0
	;DEBUG_VALUE: sendMTFValues:v <- 0
	;DEBUG_VALUE: sendMTFValues:alphaSize <- $w22
	;DEBUG_VALUE: sendMTFValues:mtfv <- $x21
	;DEBUG_VALUE: sendMTFValues:s <- $x19
	.loc	1 0 7 is_stmt 0                 ; compress.c:0:7
	ldr	x0, [sp, #128]                  ; 8-byte Folded Reload
Ltmp258:
	.loc	1 269 23 is_stmt 1              ; compress.c:269:23
	mov	w1, #15
	bl	_memset
Ltmp259:
	.loc	1 0 23 is_stmt 0                ; compress.c:0:23
	mov	w8, #37966
Ltmp260:
	;DEBUG_VALUE: sendMTFValues:v <- 0
	;DEBUG_VALUE: sendMTFValues:t <- [DW_OP_stack_value] 1
	.loc	1 268 7 is_stmt 1               ; compress.c:268:7
	add	x0, x19, x8
Ltmp261:
	.loc	1 269 23                        ; compress.c:269:23
	mov	w1, #15
	ldur	x2, [x29, #-224]                ; 8-byte Folded Reload
	bl	_memset
Ltmp262:
	.loc	1 0 23 is_stmt 0                ; compress.c:0:23
	mov	w8, #38224
Ltmp263:
	;DEBUG_VALUE: sendMTFValues:t <- [DW_OP_stack_value] 2
	.loc	1 268 7 is_stmt 1               ; compress.c:268:7
	add	x0, x19, x8
Ltmp264:
	.loc	1 269 23                        ; compress.c:269:23
	mov	w1, #15
	ldur	x2, [x29, #-224]                ; 8-byte Folded Reload
	bl	_memset
Ltmp265:
	.loc	1 0 23 is_stmt 0                ; compress.c:0:23
	mov	w8, #38482
Ltmp266:
	;DEBUG_VALUE: sendMTFValues:t <- [DW_OP_stack_value] 3
	.loc	1 268 7 is_stmt 1               ; compress.c:268:7
	add	x0, x19, x8
Ltmp267:
	.loc	1 269 23                        ; compress.c:269:23
	mov	w1, #15
	ldur	x2, [x29, #-224]                ; 8-byte Folded Reload
	bl	_memset
Ltmp268:
	.loc	1 0 23 is_stmt 0                ; compress.c:0:23
	mov	w8, #38740
Ltmp269:
	;DEBUG_VALUE: sendMTFValues:t <- [DW_OP_stack_value] 4
	.loc	1 268 7 is_stmt 1               ; compress.c:268:7
	add	x0, x19, x8
Ltmp270:
	.loc	1 269 23                        ; compress.c:269:23
	mov	w1, #15
	ldur	x2, [x29, #-224]                ; 8-byte Folded Reload
	bl	_memset
Ltmp271:
	.loc	1 0 23 is_stmt 0                ; compress.c:0:23
	mov	w8, #38998
Ltmp272:
	;DEBUG_VALUE: sendMTFValues:t <- [DW_OP_stack_value] 5
	.loc	1 268 7 is_stmt 1               ; compress.c:268:7
	add	x0, x19, x8
Ltmp273:
	.loc	1 269 23                        ; compress.c:269:23
	mov	w1, #15
	ldur	x2, [x29, #-224]                ; 8-byte Folded Reload
	bl	_memset
Ltmp274:
	.loc	1 0 23 is_stmt 0                ; compress.c:0:23
	ldp	x2, x13, [x29, #-224]           ; 16-byte Folded Reload
Ltmp275:
	;DEBUG_VALUE: sendMTFValues:v <- [DW_OP_plus_uconst 1, DW_OP_stack_value] undef
LBB3_4:                                 ; %._crit_edge.5
	;DEBUG_VALUE: sendMTFValues:alphaSize <- $w22
	;DEBUG_VALUE: sendMTFValues:mtfv <- $x21
	;DEBUG_VALUE: sendMTFValues:s <- $x19
	str	w22, [sp, #220]                 ; 4-byte Folded Spill
Ltmp276:
	;DEBUG_VALUE: sendMTFValues:alphaSize <- [DW_OP_plus_uconst 220] [$sp+0]
	stur	x21, [x29, #-192]               ; 8-byte Folded Spill
Ltmp277:
	;DEBUG_VALUE: sendMTFValues:mtfv <- [DW_OP_constu 192, DW_OP_minus] [$fp+0]
	add	x8, x19, x20
Ltmp278:
	;DEBUG_VALUE: sendMTFValues:t <- [DW_OP_stack_value] 6
	str	x8, [sp, #120]                  ; 8-byte Folded Spill
Ltmp279:
	.loc	1 272 15 is_stmt 1              ; compress.c:272:15
	ldr	w20, [x19, #668]
Ltmp280:
	.loc	1 272 10 is_stmt 0              ; compress.c:272:10
	cmp	w20, #0
	b.gt	LBB3_6
Ltmp281:
; %bb.5:
	;DEBUG_VALUE: sendMTFValues:t <- [DW_OP_stack_value] 6
	;DEBUG_VALUE: sendMTFValues:mtfv <- [DW_OP_constu 192, DW_OP_minus] [$fp+0]
	;DEBUG_VALUE: sendMTFValues:alphaSize <- [DW_OP_plus_uconst 220] [$sp+0]
	;DEBUG_VALUE: sendMTFValues:s <- $x19
	.loc	1 272 26                        ; compress.c:272:26
	mov	w0, #3001
	bl	_BZ2_bz__AssertH__fail
Ltmp282:
	.loc	1 0 26                          ; compress.c:0:26
	ldp	x2, x13, [x29, #-224]           ; 16-byte Folded Reload
Ltmp283:
	.loc	1 273 11 is_stmt 1              ; compress.c:273:11
	ldr	w20, [x19, #668]
Ltmp284:
LBB3_6:
	;DEBUG_VALUE: sendMTFValues:t <- [DW_OP_stack_value] 6
	;DEBUG_VALUE: sendMTFValues:mtfv <- [DW_OP_constu 192, DW_OP_minus] [$fp+0]
	;DEBUG_VALUE: sendMTFValues:alphaSize <- [DW_OP_plus_uconst 220] [$sp+0]
	;DEBUG_VALUE: sendMTFValues:s <- $x19
	.loc	1 0 11 is_stmt 0                ; compress.c:0:11
	mov	w25, #0
	mov	w8, #2
	mov	w9, #3
	mov	w10, #4
Ltmp285:
	.loc	1 276 16 is_stmt 1              ; compress.c:276:16
	cmp	w20, #2399
	cset	w11, hi
	cmp	w20, #2400
	mov	w12, #5
	cinc	w12, w12, hs
Ltmp286:
	.loc	1 275 8                         ; compress.c:275:8
	cmp	w20, #1200
	csel	w11, wzr, w11, lo
	csel	w10, w10, w12, lo
Ltmp287:
	.loc	1 274 8                         ; compress.c:274:8
	cmp	w20, #600
	csel	w11, wzr, w11, lo
	csel	w9, w9, w10, lo
Ltmp288:
	.loc	1 273 8                         ; compress.c:273:8
	cmp	w20, #200
	csel	w10, wzr, w11, lt
	stur	w10, [x29, #-180]               ; 4-byte Folded Spill
	csel	w26, w8, w9, lt
Ltmp289:
	;DEBUG_VALUE: sendMTFValues:gs <- 0
	;DEBUG_VALUE: remF <- $w20
	;DEBUG_VALUE: nPart <- $w26
	;DEBUG_VALUE: sendMTFValues:nGroups <- $w26
	.loc	1 0 8 is_stmt 0                 ; compress.c:0:8
	and	x8, x2, #0x7ffffff8
	stur	x8, [x29, #-176]                ; 8-byte Folded Spill
Ltmp290:
	.loc	1 286 7 is_stmt 1               ; compress.c:286:7
	add	x23, x19, #676
	mov	w8, #258
	umaddl	x8, w26, w8, x19
	mov	w9, #37450
	add	x24, x8, x9
	mov	w27, #15
Lloh27:
	adrp	x8, lCPI3_0@PAGE
Lloh28:
	ldr	q0, [x8, lCPI3_0@PAGEOFF]
	str	q0, [sp, #240]                  ; 16-byte Folded Spill
Lloh29:
	adrp	x8, lCPI3_1@PAGE
Lloh30:
	ldr	q0, [x8, lCPI3_1@PAGEOFF]
	str	q0, [sp, #224]                  ; 16-byte Folded Spill
Lloh31:
	adrp	x8, lCPI3_2@PAGE
Lloh32:
	ldr	q0, [x8, lCPI3_2@PAGEOFF]
	str	q0, [sp, #192]                  ; 16-byte Folded Spill
Lloh33:
	adrp	x8, lCPI3_3@PAGE
Lloh34:
	ldr	q0, [x8, lCPI3_3@PAGEOFF]
	str	q0, [sp, #176]                  ; 16-byte Folded Spill
	movi.8b	v8, #15
	mov	w8, #8
	dup.2d	v22, x8
	mov	x28, x26
	stur	q22, [x29, #-208]               ; 16-byte Folded Spill
	b	LBB3_8
Ltmp291:
LBB3_7:                                 ; %._crit_edge2118
                                        ;   in Loop: Header=BB3_8 Depth=1
	;DEBUG_VALUE: aFreq <- $w22
	;DEBUG_VALUE: sendMTFValues:ge <- $w21
	;DEBUG_VALUE: sendMTFValues:gs <- $w25
	;DEBUG_VALUE: nPart <- $x28
	;DEBUG_VALUE: sendMTFValues:nGroups <- $w26
	;DEBUG_VALUE: remF <- $w20
	;DEBUG_VALUE: sendMTFValues:t <- [DW_OP_stack_value] 6
	;DEBUG_VALUE: sendMTFValues:mtfv <- [DW_OP_constu 192, DW_OP_minus] [$fp+0]
	;DEBUG_VALUE: sendMTFValues:alphaSize <- [DW_OP_plus_uconst 220] [$sp+0]
	;DEBUG_VALUE: sendMTFValues:s <- $x19
	;DEBUG_VALUE: nPart <- $x8
	.loc	1 314 17                        ; compress.c:314:17
	add	w25, w21, #1
Ltmp292:
	;DEBUG_VALUE: sendMTFValues:gs <- $w25
	.loc	1 315 15                        ; compress.c:315:15
	sub	w20, w20, w22
Ltmp293:
	;DEBUG_VALUE: remF <- $w20
	.loc	1 286 7                         ; compress.c:286:7
	sub	x24, x24, #258
	cmp	x28, #1
	mov	x28, x8
Ltmp294:
	;DEBUG_VALUE: nPart <- $x28
	;DEBUG_VALUE: nPart <- $x28
	b.le	LBB3_25
Ltmp295:
LBB3_8:                                 ; =>This Loop Header: Depth=1
                                        ;     Child Loop BB3_10 Depth 2
                                        ;     Child Loop BB3_22 Depth 2
                                        ;     Child Loop BB3_24 Depth 2
	;DEBUG_VALUE: sendMTFValues:nGroups <- $w26
	;DEBUG_VALUE: remF <- $w20
	;DEBUG_VALUE: sendMTFValues:t <- [DW_OP_stack_value] 6
	;DEBUG_VALUE: sendMTFValues:mtfv <- [DW_OP_constu 192, DW_OP_minus] [$fp+0]
	;DEBUG_VALUE: sendMTFValues:alphaSize <- [DW_OP_plus_uconst 220] [$sp+0]
	;DEBUG_VALUE: sendMTFValues:s <- $x19
	;DEBUG_VALUE: nPart <- $x28
	;DEBUG_VALUE: remF <- $w20
	;DEBUG_VALUE: sendMTFValues:gs <- $w25
	.loc	1 287 23                        ; compress.c:287:23
	sdiv	w8, w20, w28
Ltmp296:
	;DEBUG_VALUE: tFreq <- $w8
	.loc	1 288 17                        ; compress.c:288:17
	sub	w21, w25, #1
Ltmp297:
	;DEBUG_VALUE: aFreq <- 0
	;DEBUG_VALUE: sendMTFValues:ge <- $w21
	.loc	1 290 10                        ; compress.c:290:10
	cmp	w8, #1
	mov	w22, #0
	ccmp	w21, w13, #0, ge
	b.gt	LBB3_11
Ltmp298:
; %bb.9:                                ; %.lr.ph2112.preheader
                                        ;   in Loop: Header=BB3_8 Depth=1
	;DEBUG_VALUE: sendMTFValues:ge <- $w21
	;DEBUG_VALUE: aFreq <- 0
	;DEBUG_VALUE: tFreq <- $w8
	;DEBUG_VALUE: sendMTFValues:gs <- $w25
	;DEBUG_VALUE: nPart <- $x28
	;DEBUG_VALUE: sendMTFValues:nGroups <- $w26
	;DEBUG_VALUE: remF <- $w20
	;DEBUG_VALUE: sendMTFValues:t <- [DW_OP_stack_value] 6
	;DEBUG_VALUE: sendMTFValues:mtfv <- [DW_OP_constu 192, DW_OP_minus] [$fp+0]
	;DEBUG_VALUE: sendMTFValues:alphaSize <- [DW_OP_plus_uconst 220] [$sp+0]
	;DEBUG_VALUE: sendMTFValues:s <- $x19
	sxtw	x9, w21
Ltmp299:
LBB3_10:                                ; %.lr.ph2112
                                        ;   Parent Loop BB3_8 Depth=1
                                        ; =>  This Inner Loop Header: Depth=2
	;DEBUG_VALUE: tFreq <- $w8
	;DEBUG_VALUE: sendMTFValues:gs <- $w25
	;DEBUG_VALUE: nPart <- $x28
	;DEBUG_VALUE: sendMTFValues:nGroups <- $w26
	;DEBUG_VALUE: remF <- $w20
	;DEBUG_VALUE: sendMTFValues:t <- [DW_OP_stack_value] 6
	;DEBUG_VALUE: sendMTFValues:mtfv <- [DW_OP_constu 192, DW_OP_minus] [$fp+0]
	;DEBUG_VALUE: sendMTFValues:alphaSize <- [DW_OP_plus_uconst 220] [$sp+0]
	;DEBUG_VALUE: sendMTFValues:s <- $x19
	;DEBUG_VALUE: sendMTFValues:ge <- $x9
	;DEBUG_VALUE: aFreq <- $w22
	.loc	1 291 15                        ; compress.c:291:15
	add	x21, x9, #1
Ltmp300:
	;DEBUG_VALUE: sendMTFValues:ge <- $x21
	.loc	1 292 22                        ; compress.c:292:22
	ldr	w10, [x23, x9, lsl  #2]
	.loc	1 292 19 is_stmt 0              ; compress.c:292:19
	add	w22, w10, w22
Ltmp301:
	;DEBUG_VALUE: aFreq <- $w22
	.loc	1 290 10 is_stmt 1              ; compress.c:290:10
	cmp	w22, w8
	ccmp	x9, x13, #0, lt
	mov	x9, x21
	b.lt	LBB3_10
Ltmp302:
LBB3_11:                                ;   in Loop: Header=BB3_8 Depth=1
	;DEBUG_VALUE: tFreq <- $w8
	;DEBUG_VALUE: sendMTFValues:gs <- $w25
	;DEBUG_VALUE: nPart <- $x28
	;DEBUG_VALUE: sendMTFValues:nGroups <- $w26
	;DEBUG_VALUE: remF <- $w20
	;DEBUG_VALUE: sendMTFValues:t <- [DW_OP_stack_value] 6
	;DEBUG_VALUE: sendMTFValues:mtfv <- [DW_OP_constu 192, DW_OP_minus] [$fp+0]
	;DEBUG_VALUE: sendMTFValues:alphaSize <- [DW_OP_plus_uconst 220] [$sp+0]
	;DEBUG_VALUE: sendMTFValues:s <- $x19
                                        ; kill: def $w21 killed $w21 killed $x21 def $x21
	.loc	1 296 14                        ; compress.c:296:14
	cmp	w21, w25
	b.le	LBB3_16
Ltmp303:
; %bb.12:                               ;   in Loop: Header=BB3_8 Depth=1
	;DEBUG_VALUE: tFreq <- $w8
	;DEBUG_VALUE: sendMTFValues:gs <- $w25
	;DEBUG_VALUE: nPart <- $x28
	;DEBUG_VALUE: sendMTFValues:nGroups <- $w26
	;DEBUG_VALUE: remF <- $w20
	;DEBUG_VALUE: sendMTFValues:t <- [DW_OP_stack_value] 6
	;DEBUG_VALUE: sendMTFValues:mtfv <- [DW_OP_constu 192, DW_OP_minus] [$fp+0]
	;DEBUG_VALUE: sendMTFValues:alphaSize <- [DW_OP_plus_uconst 220] [$sp+0]
	;DEBUG_VALUE: sendMTFValues:s <- $x19
	.loc	1 296 34 is_stmt 0              ; compress.c:296:34
	cmp	x28, x26
	b.eq	LBB3_16
Ltmp304:
; %bb.13:                               ;   in Loop: Header=BB3_8 Depth=1
	;DEBUG_VALUE: tFreq <- $w8
	;DEBUG_VALUE: sendMTFValues:gs <- $w25
	;DEBUG_VALUE: nPart <- $x28
	;DEBUG_VALUE: sendMTFValues:nGroups <- $w26
	;DEBUG_VALUE: remF <- $w20
	;DEBUG_VALUE: sendMTFValues:t <- [DW_OP_stack_value] 6
	;DEBUG_VALUE: sendMTFValues:mtfv <- [DW_OP_constu 192, DW_OP_minus] [$fp+0]
	;DEBUG_VALUE: sendMTFValues:alphaSize <- [DW_OP_plus_uconst 220] [$sp+0]
	;DEBUG_VALUE: sendMTFValues:s <- $x19
	cmp	x28, #1
	b.eq	LBB3_16
Ltmp305:
; %bb.14:                               ;   in Loop: Header=BB3_8 Depth=1
	;DEBUG_VALUE: tFreq <- $w8
	;DEBUG_VALUE: sendMTFValues:gs <- $w25
	;DEBUG_VALUE: nPart <- $x28
	;DEBUG_VALUE: sendMTFValues:nGroups <- $w26
	;DEBUG_VALUE: remF <- $w20
	;DEBUG_VALUE: sendMTFValues:t <- [DW_OP_stack_value] 6
	;DEBUG_VALUE: sendMTFValues:mtfv <- [DW_OP_constu 192, DW_OP_minus] [$fp+0]
	;DEBUG_VALUE: sendMTFValues:alphaSize <- [DW_OP_plus_uconst 220] [$sp+0]
	;DEBUG_VALUE: sendMTFValues:s <- $x19
	.loc	1 297 38 is_stmt 1              ; compress.c:297:38
	sub	w8, w26, w28
Ltmp306:
	and	w8, w8, #0x80000001
Ltmp307:
	.loc	1 295 14                        ; compress.c:295:14
	cmp	w8, #1
	b.ne	LBB3_16
Ltmp308:
; %bb.15:                               ;   in Loop: Header=BB3_8 Depth=1
	;DEBUG_VALUE: sendMTFValues:gs <- $w25
	;DEBUG_VALUE: nPart <- $x28
	;DEBUG_VALUE: sendMTFValues:nGroups <- $w26
	;DEBUG_VALUE: remF <- $w20
	;DEBUG_VALUE: sendMTFValues:t <- [DW_OP_stack_value] 6
	;DEBUG_VALUE: sendMTFValues:mtfv <- [DW_OP_constu 192, DW_OP_minus] [$fp+0]
	;DEBUG_VALUE: sendMTFValues:alphaSize <- [DW_OP_plus_uconst 220] [$sp+0]
	;DEBUG_VALUE: sendMTFValues:s <- $x19
	.loc	1 298 22                        ; compress.c:298:22
	add	x8, x19, w21, sxtw #2
	ldr	w8, [x8, #672]
	.loc	1 298 19 is_stmt 0              ; compress.c:298:19
	sub	w22, w22, w8
Ltmp309:
	;DEBUG_VALUE: aFreq <- $w22
	.loc	1 299 15 is_stmt 1              ; compress.c:299:15
	sub	w21, w21, #1
Ltmp310:
	;DEBUG_VALUE: sendMTFValues:ge <- $w21
LBB3_16:                                ;   in Loop: Header=BB3_8 Depth=1
	;DEBUG_VALUE: sendMTFValues:gs <- $w25
	;DEBUG_VALUE: nPart <- $x28
	;DEBUG_VALUE: sendMTFValues:nGroups <- $w26
	;DEBUG_VALUE: remF <- $w20
	;DEBUG_VALUE: sendMTFValues:t <- [DW_OP_stack_value] 6
	;DEBUG_VALUE: sendMTFValues:mtfv <- [DW_OP_constu 192, DW_OP_minus] [$fp+0]
	;DEBUG_VALUE: sendMTFValues:alphaSize <- [DW_OP_plus_uconst 220] [$sp+0]
	;DEBUG_VALUE: sendMTFValues:s <- $x19
	;DEBUG_VALUE: sendMTFValues:ge <- $w21
	;DEBUG_VALUE: aFreq <- $w22
	.loc	1 302 17                        ; compress.c:302:17
	ldr	w8, [x19, #656]
Ltmp311:
	.loc	1 302 14 is_stmt 0              ; compress.c:302:14
	cmp	w8, #3
	b.lt	LBB3_18
Ltmp312:
; %bb.17:                               ;   in Loop: Header=BB3_8 Depth=1
	;DEBUG_VALUE: aFreq <- $w22
	;DEBUG_VALUE: sendMTFValues:ge <- $w21
	;DEBUG_VALUE: sendMTFValues:gs <- $w25
	;DEBUG_VALUE: nPart <- $x28
	;DEBUG_VALUE: sendMTFValues:nGroups <- $w26
	;DEBUG_VALUE: remF <- $w20
	;DEBUG_VALUE: sendMTFValues:t <- [DW_OP_stack_value] 6
	;DEBUG_VALUE: sendMTFValues:mtfv <- [DW_OP_constu 192, DW_OP_minus] [$fp+0]
	;DEBUG_VALUE: sendMTFValues:alphaSize <- [DW_OP_plus_uconst 220] [$sp+0]
	;DEBUG_VALUE: sendMTFValues:s <- $x19
	.loc	1 303 21 is_stmt 1              ; compress.c:303:21
Lloh35:
	adrp	x8, ___stderrp@GOTPAGE
Lloh36:
	ldr	x8, [x8, ___stderrp@GOTPAGEOFF]
Lloh37:
	ldr	x0, [x8]
	.loc	1 303 123 is_stmt 0             ; compress.c:303:123
	scvtf	s0, w22
	fcvt	d0, s0
	mov	x8, #4636737291354636288
	fmov	d1, x8
	.loc	1 303 121                       ; compress.c:303:121
	fmul	d0, d0, d1
	.loc	1 303 139                       ; compress.c:303:139
	ldr	s1, [x19, #668]
	scvtf	s1, s1
	fcvt	d1, s1
	.loc	1 303 137                       ; compress.c:303:137
	fdiv	d0, d0, d1
	.loc	1 303 13                        ; compress.c:303:13
	mov	x8, x21
	stp	x8, x22, [sp, #16]
	mov	x8, x25
	mov	x9, x28
	stp	x9, x8, [sp]
	str	d0, [sp, #32]
Lloh38:
	adrp	x1, l_.str.3@PAGE
Lloh39:
	add	x1, x1, l_.str.3@PAGEOFF
	bl	_fprintf
Ltmp313:
	.loc	1 0 13                          ; compress.c:0:13
	ldur	q22, [x29, #-208]               ; 16-byte Folded Reload
	ldp	x2, x13, [x29, #-224]           ; 16-byte Folded Reload
Ltmp314:
LBB3_18:                                ;   in Loop: Header=BB3_8 Depth=1
	;DEBUG_VALUE: aFreq <- $w22
	;DEBUG_VALUE: sendMTFValues:ge <- $w21
	;DEBUG_VALUE: sendMTFValues:gs <- $w25
	;DEBUG_VALUE: nPart <- $x28
	;DEBUG_VALUE: sendMTFValues:nGroups <- $w26
	;DEBUG_VALUE: remF <- $w20
	;DEBUG_VALUE: sendMTFValues:t <- [DW_OP_stack_value] 6
	;DEBUG_VALUE: sendMTFValues:mtfv <- [DW_OP_constu 192, DW_OP_minus] [$fp+0]
	;DEBUG_VALUE: sendMTFValues:alphaSize <- [DW_OP_plus_uconst 220] [$sp+0]
	;DEBUG_VALUE: sendMTFValues:s <- $x19
	;DEBUG_VALUE: sendMTFValues:v <- 0
	sub	x8, x28, #1
Ltmp315:
	.loc	1 308 10 is_stmt 1              ; compress.c:308:10
	cmn	w13, #1
	b.lt	LBB3_7
Ltmp316:
; %bb.19:                               ; %.lr.ph2117
                                        ;   in Loop: Header=BB3_8 Depth=1
	;DEBUG_VALUE: aFreq <- $w22
	;DEBUG_VALUE: sendMTFValues:ge <- $w21
	;DEBUG_VALUE: sendMTFValues:gs <- $w25
	;DEBUG_VALUE: nPart <- $x28
	;DEBUG_VALUE: sendMTFValues:nGroups <- $w26
	;DEBUG_VALUE: remF <- $w20
	;DEBUG_VALUE: sendMTFValues:t <- [DW_OP_stack_value] 6
	;DEBUG_VALUE: sendMTFValues:mtfv <- [DW_OP_constu 192, DW_OP_minus] [$fp+0]
	;DEBUG_VALUE: sendMTFValues:alphaSize <- [DW_OP_plus_uconst 220] [$sp+0]
	;DEBUG_VALUE: sendMTFValues:v <- 0
	;DEBUG_VALUE: sendMTFValues:s <- $x19
	sxtw	x9, w21
	sxtw	x10, w25
	cmp	w2, #8
	b.hs	LBB3_21
Ltmp317:
; %bb.20:                               ;   in Loop: Header=BB3_8 Depth=1
	;DEBUG_VALUE: aFreq <- $w22
	;DEBUG_VALUE: sendMTFValues:ge <- $w21
	;DEBUG_VALUE: sendMTFValues:gs <- $w25
	;DEBUG_VALUE: nPart <- $x28
	;DEBUG_VALUE: sendMTFValues:nGroups <- $w26
	;DEBUG_VALUE: remF <- $w20
	;DEBUG_VALUE: sendMTFValues:t <- [DW_OP_stack_value] 6
	;DEBUG_VALUE: sendMTFValues:mtfv <- [DW_OP_constu 192, DW_OP_minus] [$fp+0]
	;DEBUG_VALUE: sendMTFValues:alphaSize <- [DW_OP_plus_uconst 220] [$sp+0]
	;DEBUG_VALUE: sendMTFValues:v <- 0
	;DEBUG_VALUE: sendMTFValues:s <- $x19
	.loc	1 0 10 is_stmt 0                ; compress.c:0:10
	mov	x11, #0
	b	LBB3_24
Ltmp318:
LBB3_21:                                ; %vector.ph
                                        ;   in Loop: Header=BB3_8 Depth=1
	;DEBUG_VALUE: aFreq <- $w22
	;DEBUG_VALUE: sendMTFValues:ge <- $w21
	;DEBUG_VALUE: sendMTFValues:gs <- $w25
	;DEBUG_VALUE: nPart <- $x28
	;DEBUG_VALUE: sendMTFValues:nGroups <- $w26
	;DEBUG_VALUE: remF <- $w20
	;DEBUG_VALUE: sendMTFValues:t <- [DW_OP_stack_value] 6
	;DEBUG_VALUE: sendMTFValues:mtfv <- [DW_OP_constu 192, DW_OP_minus] [$fp+0]
	;DEBUG_VALUE: sendMTFValues:alphaSize <- [DW_OP_plus_uconst 220] [$sp+0]
	;DEBUG_VALUE: sendMTFValues:v <- 0
	;DEBUG_VALUE: sendMTFValues:s <- $x19
	.loc	1 308 10                        ; compress.c:308:10
	dup.2d	v0, x10
	ldur	x11, [x29, #-176]               ; 8-byte Folded Reload
	mov	x12, x24
	dup.2d	v1, x9
	ldp	q2, q3, [sp, #176]              ; 32-byte Folded Reload
	ldp	q4, q5, [sp, #224]              ; 32-byte Folded Reload
Ltmp319:
LBB3_22:                                ; %vector.body
                                        ;   Parent Loop BB3_8 Depth=1
                                        ; =>  This Inner Loop Header: Depth=2
	;DEBUG_VALUE: aFreq <- $w22
	;DEBUG_VALUE: sendMTFValues:ge <- $w21
	;DEBUG_VALUE: sendMTFValues:gs <- $w25
	;DEBUG_VALUE: nPart <- $x28
	;DEBUG_VALUE: sendMTFValues:nGroups <- $w26
	;DEBUG_VALUE: remF <- $w20
	;DEBUG_VALUE: sendMTFValues:t <- [DW_OP_stack_value] 6
	;DEBUG_VALUE: sendMTFValues:mtfv <- [DW_OP_constu 192, DW_OP_minus] [$fp+0]
	;DEBUG_VALUE: sendMTFValues:alphaSize <- [DW_OP_plus_uconst 220] [$sp+0]
	;DEBUG_VALUE: sendMTFValues:v <- 0
	;DEBUG_VALUE: sendMTFValues:s <- $x19
	.loc	1 309 19 is_stmt 1              ; compress.c:309:19
	cmgt.2d	v6, v0, v5
	cmgt.2d	v7, v0, v4
	cmgt.2d	v16, v0, v3
	cmgt.2d	v17, v0, v2
	cmgt.2d	v18, v5, v1
	cmgt.2d	v19, v4, v1
	cmgt.2d	v20, v3, v1
	cmgt.2d	v21, v2, v1
	.loc	1 309 25 is_stmt 0              ; compress.c:309:25
	orr.16b	v17, v17, v21
	orr.16b	v16, v16, v20
	uzp1.4s	v16, v17, v16
	orr.16b	v7, v7, v19
	orr.16b	v6, v6, v18
	uzp1.4s	v6, v7, v6
	uzp1.8h	v6, v16, v6
	xtn.8b	v6, v6
	and.8b	v6, v6, v8
	.loc	1 0 0                           ; compress.c:0:0
	str	d6, [x12], #8
	add.2d	v4, v4, v22
	add.2d	v3, v3, v22
	add.2d	v2, v2, v22
	add.2d	v5, v5, v22
Ltmp320:
	.loc	1 308 38 is_stmt 1              ; compress.c:308:38
	subs	x11, x11, #8
	b.ne	LBB3_22
Ltmp321:
; %bb.23:                               ; %middle.block
                                        ;   in Loop: Header=BB3_8 Depth=1
	;DEBUG_VALUE: aFreq <- $w22
	;DEBUG_VALUE: sendMTFValues:ge <- $w21
	;DEBUG_VALUE: sendMTFValues:gs <- $w25
	;DEBUG_VALUE: nPart <- $x28
	;DEBUG_VALUE: sendMTFValues:nGroups <- $w26
	;DEBUG_VALUE: remF <- $w20
	;DEBUG_VALUE: sendMTFValues:t <- [DW_OP_stack_value] 6
	;DEBUG_VALUE: sendMTFValues:mtfv <- [DW_OP_constu 192, DW_OP_minus] [$fp+0]
	;DEBUG_VALUE: sendMTFValues:alphaSize <- [DW_OP_plus_uconst 220] [$sp+0]
	;DEBUG_VALUE: sendMTFValues:v <- 0
	;DEBUG_VALUE: sendMTFValues:s <- $x19
	.loc	1 0 38 is_stmt 0                ; compress.c:0:38
	ldur	x12, [x29, #-176]               ; 8-byte Folded Reload
	mov	x11, x12
	.loc	1 308 10                        ; compress.c:308:10
	cmp	x12, x2
	b.eq	LBB3_7
Ltmp322:
LBB3_24:                                ; %scalar.ph
                                        ;   Parent Loop BB3_8 Depth=1
                                        ; =>  This Inner Loop Header: Depth=2
	;DEBUG_VALUE: aFreq <- $w22
	;DEBUG_VALUE: sendMTFValues:ge <- $w21
	;DEBUG_VALUE: sendMTFValues:gs <- $w25
	;DEBUG_VALUE: nPart <- $x28
	;DEBUG_VALUE: sendMTFValues:nGroups <- $w26
	;DEBUG_VALUE: remF <- $w20
	;DEBUG_VALUE: sendMTFValues:t <- [DW_OP_stack_value] 6
	;DEBUG_VALUE: sendMTFValues:mtfv <- [DW_OP_constu 192, DW_OP_minus] [$fp+0]
	;DEBUG_VALUE: sendMTFValues:alphaSize <- [DW_OP_plus_uconst 220] [$sp+0]
	;DEBUG_VALUE: sendMTFValues:s <- $x19
	;DEBUG_VALUE: sendMTFValues:v <- $x11
	.loc	1 0 10                          ; compress.c:0:10
	cmp	x11, x9
Ltmp323:
	.loc	1 309 19 is_stmt 1              ; compress.c:309:19
	ccmp	x11, x10, #8, le
	csel	w12, w27, wzr, lt
	.loc	1 0 0 is_stmt 0                 ; compress.c:0:0
	strb	w12, [x24, x11]
Ltmp324:
	.loc	1 308 38 is_stmt 1              ; compress.c:308:38
	add	x11, x11, #1
Ltmp325:
	;DEBUG_VALUE: sendMTFValues:v <- $x11
	.loc	1 308 10 is_stmt 0              ; compress.c:308:10
	cmp	x2, x11
	b.ne	LBB3_24
	b	LBB3_7
Ltmp326:
LBB3_25:                                ; %.preheader1979
	;DEBUG_VALUE: sendMTFValues:ge <- $w21
	;DEBUG_VALUE: sendMTFValues:gs <- $w25
	;DEBUG_VALUE: sendMTFValues:nGroups <- $w26
	;DEBUG_VALUE: sendMTFValues:t <- [DW_OP_stack_value] 6
	;DEBUG_VALUE: sendMTFValues:mtfv <- [DW_OP_constu 192, DW_OP_minus] [$fp+0]
	;DEBUG_VALUE: sendMTFValues:alphaSize <- [DW_OP_plus_uconst 220] [$sp+0]
	;DEBUG_VALUE: sendMTFValues:s <- $x19
	;DEBUG_VALUE: sendMTFValues:iter <- 0
	;DEBUG_VALUE: sendMTFValues:nSelectors <- undef
	.loc	1 0 10                          ; compress.c:0:10
	mov	w22, #0
	cmn	w13, #1
	cset	w8, lt
Ltmp327:
	.loc	1 322 4 is_stmt 1               ; compress.c:322:4
	lsl	x9, x26, #2
	str	x9, [sp, #192]                  ; 8-byte Folded Spill
	lsl	x9, x2, #2
	str	x9, [sp, #176]                  ; 8-byte Folded Spill
	lsl	x9, x26, #1
	stur	x9, [x29, #-208]                ; 8-byte Folded Spill
	ldur	w9, [x29, #-180]                ; 4-byte Folded Reload
	eor	w9, w9, #0x1
	orr	w8, w9, w8
	str	w8, [sp, #168]                  ; 4-byte Folded Spill
	mov	w23, #45448
	add	x28, x19, x23
	mov	w8, #46480
	add	x8, x19, x8
	str	x8, [sp, #240]                  ; 8-byte Folded Spill
	mov	w8, #47512
	add	x8, x19, x8
	str	x8, [sp, #144]                  ; 8-byte Folded Spill
	mov	w8, #48544
	add	x8, x19, x8
	str	x8, [sp, #104]                  ; 8-byte Folded Spill
	mov	w8, #49576
	add	x8, x19, x8
	str	x8, [sp, #88]                   ; 8-byte Folded Spill
	mov	w8, #50608
	add	x8, x19, x8
	str	x8, [sp, #72]                   ; 8-byte Folded Spill
	mov	w8, #51640
	add	x8, x19, x8
	str	x8, [sp, #64]                   ; 8-byte Folded Spill
	mov	w8, #37708
	add	x8, x19, x8
	str	x8, [sp, #160]                  ; 8-byte Folded Spill
	mov	w8, #37966
	add	x8, x19, x8
	str	x8, [sp, #152]                  ; 8-byte Folded Spill
	mov	w8, #38224
	add	x8, x19, x8
	str	x8, [sp, #112]                  ; 8-byte Folded Spill
	mov	w8, #38482
	add	x8, x19, x8
	str	x8, [sp, #96]                   ; 8-byte Folded Spill
	mov	w8, #38740
	add	x8, x19, x8
	str	x8, [sp, #80]                   ; 8-byte Folded Spill
	mov	w8, #38998
	add	x8, x19, x8
	str	x8, [sp, #56]                   ; 8-byte Folded Spill
	mov	w8, #39256
	add	x8, x19, x8
	str	x8, [sp, #48]                   ; 8-byte Folded Spill
	mov	w20, #1032
Lloh40:
	adrp	x21, ___stderrp@GOTPAGE
Ltmp328:
	.loc	1 0 4 is_stmt 0                 ; compress.c:0:4
Lloh41:
	ldr	x21, [x21, ___stderrp@GOTPAGEOFF]
	str	x28, [sp, #136]                 ; 8-byte Folded Spill
	b	LBB3_27
Ltmp329:
LBB3_26:                                ;   in Loop: Header=BB3_27 Depth=1
	;DEBUG_VALUE: sendMTFValues:nGroups <- $w26
	;DEBUG_VALUE: sendMTFValues:mtfv <- [DW_OP_constu 192, DW_OP_minus] [$fp+0]
	;DEBUG_VALUE: sendMTFValues:alphaSize <- [DW_OP_plus_uconst 220] [$sp+0]
	;DEBUG_VALUE: sendMTFValues:s <- $x19
	.loc	1 322 33                        ; compress.c:322:33
	add	w22, w22, #1
Ltmp330:
	;DEBUG_VALUE: sendMTFValues:nSelectors <- [DW_OP_constu 176, DW_OP_minus] [$fp+0]
	;DEBUG_VALUE: sendMTFValues:iter <- $w22
	.loc	1 322 4                         ; compress.c:322:4
	cmp	w22, #4
	b.eq	LBB3_89
Ltmp331:
LBB3_27:                                ; %.preheader1978
                                        ; =>This Loop Header: Depth=1
                                        ;     Child Loop BB3_46 Depth 2
                                        ;     Child Loop BB3_51 Depth 2
                                        ;       Child Loop BB3_56 Depth 3
                                        ;       Child Loop BB3_72 Depth 3
	;DEBUG_VALUE: sendMTFValues:nGroups <- $w26
	;DEBUG_VALUE: sendMTFValues:mtfv <- [DW_OP_constu 192, DW_OP_minus] [$fp+0]
	;DEBUG_VALUE: sendMTFValues:alphaSize <- [DW_OP_plus_uconst 220] [$sp+0]
	;DEBUG_VALUE: sendMTFValues:s <- $x19
	;DEBUG_VALUE: sendMTFValues:t <- 0
	;DEBUG_VALUE: sendMTFValues:iter <- $w22
	.loc	1 324 45 is_stmt 1              ; compress.c:324:45
	sub	x0, x29, #148
	ldr	x1, [sp, #192]                  ; 8-byte Folded Reload
	bl	_bzero
Ltmp332:
	;DEBUG_VALUE: sendMTFValues:v <- 0
	;DEBUG_VALUE: sendMTFValues:t <- [DW_OP_stack_value] 0
	.loc	1 0 45 is_stmt 0                ; compress.c:0:45
	ldur	x8, [x29, #-216]                ; 8-byte Folded Reload
Ltmp333:
	.loc	1 327 10 is_stmt 1              ; compress.c:327:10
	cmn	w8, #1
	b.lt	LBB3_29
Ltmp334:
; %bb.28:                               ; %.lr.ph2124
                                        ;   in Loop: Header=BB3_27 Depth=1
	;DEBUG_VALUE: sendMTFValues:iter <- $w22
	;DEBUG_VALUE: sendMTFValues:nGroups <- $w26
	;DEBUG_VALUE: sendMTFValues:mtfv <- [DW_OP_constu 192, DW_OP_minus] [$fp+0]
	;DEBUG_VALUE: sendMTFValues:alphaSize <- [DW_OP_plus_uconst 220] [$sp+0]
	;DEBUG_VALUE: sendMTFValues:t <- [DW_OP_stack_value] 0
	;DEBUG_VALUE: sendMTFValues:v <- 0
	;DEBUG_VALUE: sendMTFValues:s <- $x19
	.loc	1 328 28                        ; compress.c:328:28
	mov	x0, x28
	ldr	x24, [sp, #176]                 ; 8-byte Folded Reload
	mov	x1, x24
	bl	_bzero
Ltmp335:
	;DEBUG_VALUE: sendMTFValues:v <- 0
	;DEBUG_VALUE: sendMTFValues:t <- [DW_OP_stack_value] 1
	.loc	1 0 28 is_stmt 0                ; compress.c:0:28
	ldr	x0, [sp, #240]                  ; 8-byte Folded Reload
	.loc	1 328 28                        ; compress.c:328:28
	mov	x1, x24
	bl	_bzero
Ltmp336:
	.loc	1 0 28                          ; compress.c:0:28
	ldur	x8, [x29, #-216]                ; 8-byte Folded Reload
Ltmp337:
	;DEBUG_VALUE: sendMTFValues:v <- [DW_OP_plus_uconst 1, DW_OP_stack_value] undef
LBB3_29:                                ; %._crit_edge2125.1
                                        ;   in Loop: Header=BB3_27 Depth=1
	;DEBUG_VALUE: sendMTFValues:iter <- $w22
	;DEBUG_VALUE: sendMTFValues:nGroups <- $w26
	;DEBUG_VALUE: sendMTFValues:mtfv <- [DW_OP_constu 192, DW_OP_minus] [$fp+0]
	;DEBUG_VALUE: sendMTFValues:alphaSize <- [DW_OP_plus_uconst 220] [$sp+0]
	;DEBUG_VALUE: sendMTFValues:s <- $x19
	;DEBUG_VALUE: sendMTFValues:t <- [DW_OP_stack_value] 2
	.loc	1 326 7 is_stmt 1               ; compress.c:326:7
	cmp	w26, #2
	ldur	x9, [x29, #-224]                ; 8-byte Folded Reload
	b.eq	LBB3_44
Ltmp338:
; %bb.30:                               ; %.preheader1974.2
                                        ;   in Loop: Header=BB3_27 Depth=1
	;DEBUG_VALUE: sendMTFValues:iter <- $w22
	;DEBUG_VALUE: sendMTFValues:nGroups <- $w26
	;DEBUG_VALUE: sendMTFValues:mtfv <- [DW_OP_constu 192, DW_OP_minus] [$fp+0]
	;DEBUG_VALUE: sendMTFValues:alphaSize <- [DW_OP_plus_uconst 220] [$sp+0]
	;DEBUG_VALUE: sendMTFValues:t <- [DW_OP_stack_value] 2
	;DEBUG_VALUE: sendMTFValues:s <- $x19
	;DEBUG_VALUE: sendMTFValues:t <- [DW_OP_stack_value] 2
	;DEBUG_VALUE: sendMTFValues:v <- 0
	.loc	1 327 10                        ; compress.c:327:10
	cmn	w8, #1
	b.lt	LBB3_32
Ltmp339:
; %bb.31:                               ; %.lr.ph2124.2
                                        ;   in Loop: Header=BB3_27 Depth=1
	;DEBUG_VALUE: sendMTFValues:iter <- $w22
	;DEBUG_VALUE: sendMTFValues:nGroups <- $w26
	;DEBUG_VALUE: sendMTFValues:mtfv <- [DW_OP_constu 192, DW_OP_minus] [$fp+0]
	;DEBUG_VALUE: sendMTFValues:alphaSize <- [DW_OP_plus_uconst 220] [$sp+0]
	;DEBUG_VALUE: sendMTFValues:t <- [DW_OP_stack_value] 2
	;DEBUG_VALUE: sendMTFValues:v <- 0
	;DEBUG_VALUE: sendMTFValues:s <- $x19
	.loc	1 0 10 is_stmt 0                ; compress.c:0:10
	ldr	x0, [sp, #144]                  ; 8-byte Folded Reload
	ldr	x1, [sp, #176]                  ; 8-byte Folded Reload
Ltmp340:
	.loc	1 328 28 is_stmt 1              ; compress.c:328:28
	bl	_bzero
Ltmp341:
	.loc	1 0 28 is_stmt 0                ; compress.c:0:28
	ldp	x9, x8, [x29, #-224]            ; 16-byte Folded Reload
Ltmp342:
	;DEBUG_VALUE: sendMTFValues:v <- [DW_OP_plus_uconst 1, DW_OP_stack_value] undef
LBB3_32:                                ; %._crit_edge2125.2
                                        ;   in Loop: Header=BB3_27 Depth=1
	;DEBUG_VALUE: sendMTFValues:iter <- $w22
	;DEBUG_VALUE: sendMTFValues:nGroups <- $w26
	;DEBUG_VALUE: sendMTFValues:mtfv <- [DW_OP_constu 192, DW_OP_minus] [$fp+0]
	;DEBUG_VALUE: sendMTFValues:alphaSize <- [DW_OP_plus_uconst 220] [$sp+0]
	;DEBUG_VALUE: sendMTFValues:t <- [DW_OP_stack_value] 2
	;DEBUG_VALUE: sendMTFValues:s <- $x19
	;DEBUG_VALUE: sendMTFValues:t <- [DW_OP_stack_value] 3
	.loc	1 326 7 is_stmt 1               ; compress.c:326:7
	cmp	w26, #3
	b.eq	LBB3_44
Ltmp343:
; %bb.33:                               ; %.preheader1974.3
                                        ;   in Loop: Header=BB3_27 Depth=1
	;DEBUG_VALUE: sendMTFValues:iter <- $w22
	;DEBUG_VALUE: sendMTFValues:nGroups <- $w26
	;DEBUG_VALUE: sendMTFValues:mtfv <- [DW_OP_constu 192, DW_OP_minus] [$fp+0]
	;DEBUG_VALUE: sendMTFValues:alphaSize <- [DW_OP_plus_uconst 220] [$sp+0]
	;DEBUG_VALUE: sendMTFValues:t <- [DW_OP_stack_value] 3
	;DEBUG_VALUE: sendMTFValues:s <- $x19
	;DEBUG_VALUE: sendMTFValues:t <- [DW_OP_stack_value] 3
	;DEBUG_VALUE: sendMTFValues:v <- 0
	.loc	1 327 10                        ; compress.c:327:10
	cmn	w8, #1
	b.lt	LBB3_35
Ltmp344:
; %bb.34:                               ; %.lr.ph2124.3
                                        ;   in Loop: Header=BB3_27 Depth=1
	;DEBUG_VALUE: sendMTFValues:iter <- $w22
	;DEBUG_VALUE: sendMTFValues:nGroups <- $w26
	;DEBUG_VALUE: sendMTFValues:mtfv <- [DW_OP_constu 192, DW_OP_minus] [$fp+0]
	;DEBUG_VALUE: sendMTFValues:alphaSize <- [DW_OP_plus_uconst 220] [$sp+0]
	;DEBUG_VALUE: sendMTFValues:t <- [DW_OP_stack_value] 3
	;DEBUG_VALUE: sendMTFValues:v <- 0
	;DEBUG_VALUE: sendMTFValues:s <- $x19
	.loc	1 0 10 is_stmt 0                ; compress.c:0:10
	ldr	x0, [sp, #104]                  ; 8-byte Folded Reload
	ldr	x1, [sp, #176]                  ; 8-byte Folded Reload
Ltmp345:
	.loc	1 328 28 is_stmt 1              ; compress.c:328:28
	bl	_bzero
Ltmp346:
	.loc	1 0 28 is_stmt 0                ; compress.c:0:28
	ldp	x9, x8, [x29, #-224]            ; 16-byte Folded Reload
Ltmp347:
	;DEBUG_VALUE: sendMTFValues:v <- [DW_OP_plus_uconst 1, DW_OP_stack_value] undef
LBB3_35:                                ; %._crit_edge2125.3
                                        ;   in Loop: Header=BB3_27 Depth=1
	;DEBUG_VALUE: sendMTFValues:iter <- $w22
	;DEBUG_VALUE: sendMTFValues:nGroups <- $w26
	;DEBUG_VALUE: sendMTFValues:mtfv <- [DW_OP_constu 192, DW_OP_minus] [$fp+0]
	;DEBUG_VALUE: sendMTFValues:alphaSize <- [DW_OP_plus_uconst 220] [$sp+0]
	;DEBUG_VALUE: sendMTFValues:t <- [DW_OP_stack_value] 3
	;DEBUG_VALUE: sendMTFValues:s <- $x19
	;DEBUG_VALUE: sendMTFValues:t <- [DW_OP_stack_value] 4
	.loc	1 326 7 is_stmt 1               ; compress.c:326:7
	cmp	w26, #4
	b.eq	LBB3_44
Ltmp348:
; %bb.36:                               ; %.preheader1974.4
                                        ;   in Loop: Header=BB3_27 Depth=1
	;DEBUG_VALUE: sendMTFValues:iter <- $w22
	;DEBUG_VALUE: sendMTFValues:nGroups <- $w26
	;DEBUG_VALUE: sendMTFValues:mtfv <- [DW_OP_constu 192, DW_OP_minus] [$fp+0]
	;DEBUG_VALUE: sendMTFValues:alphaSize <- [DW_OP_plus_uconst 220] [$sp+0]
	;DEBUG_VALUE: sendMTFValues:t <- [DW_OP_stack_value] 4
	;DEBUG_VALUE: sendMTFValues:s <- $x19
	;DEBUG_VALUE: sendMTFValues:t <- [DW_OP_stack_value] 4
	;DEBUG_VALUE: sendMTFValues:v <- 0
	.loc	1 327 10                        ; compress.c:327:10
	cmn	w8, #1
	b.lt	LBB3_38
Ltmp349:
; %bb.37:                               ; %.lr.ph2124.4
                                        ;   in Loop: Header=BB3_27 Depth=1
	;DEBUG_VALUE: sendMTFValues:iter <- $w22
	;DEBUG_VALUE: sendMTFValues:nGroups <- $w26
	;DEBUG_VALUE: sendMTFValues:mtfv <- [DW_OP_constu 192, DW_OP_minus] [$fp+0]
	;DEBUG_VALUE: sendMTFValues:alphaSize <- [DW_OP_plus_uconst 220] [$sp+0]
	;DEBUG_VALUE: sendMTFValues:t <- [DW_OP_stack_value] 4
	;DEBUG_VALUE: sendMTFValues:v <- 0
	;DEBUG_VALUE: sendMTFValues:s <- $x19
	.loc	1 0 10 is_stmt 0                ; compress.c:0:10
	ldr	x0, [sp, #88]                   ; 8-byte Folded Reload
	ldr	x1, [sp, #176]                  ; 8-byte Folded Reload
Ltmp350:
	.loc	1 328 28 is_stmt 1              ; compress.c:328:28
	bl	_bzero
Ltmp351:
	.loc	1 0 28 is_stmt 0                ; compress.c:0:28
	ldp	x9, x8, [x29, #-224]            ; 16-byte Folded Reload
Ltmp352:
	;DEBUG_VALUE: sendMTFValues:v <- [DW_OP_plus_uconst 1, DW_OP_stack_value] undef
LBB3_38:                                ; %._crit_edge2125.4
                                        ;   in Loop: Header=BB3_27 Depth=1
	;DEBUG_VALUE: sendMTFValues:iter <- $w22
	;DEBUG_VALUE: sendMTFValues:nGroups <- $w26
	;DEBUG_VALUE: sendMTFValues:mtfv <- [DW_OP_constu 192, DW_OP_minus] [$fp+0]
	;DEBUG_VALUE: sendMTFValues:alphaSize <- [DW_OP_plus_uconst 220] [$sp+0]
	;DEBUG_VALUE: sendMTFValues:t <- [DW_OP_stack_value] 4
	;DEBUG_VALUE: sendMTFValues:s <- $x19
	;DEBUG_VALUE: sendMTFValues:t <- [DW_OP_stack_value] 5
	.loc	1 326 7 is_stmt 1               ; compress.c:326:7
	cmp	w26, #5
	b.eq	LBB3_44
Ltmp353:
; %bb.39:                               ; %.preheader1974.5
                                        ;   in Loop: Header=BB3_27 Depth=1
	;DEBUG_VALUE: sendMTFValues:iter <- $w22
	;DEBUG_VALUE: sendMTFValues:nGroups <- $w26
	;DEBUG_VALUE: sendMTFValues:mtfv <- [DW_OP_constu 192, DW_OP_minus] [$fp+0]
	;DEBUG_VALUE: sendMTFValues:alphaSize <- [DW_OP_plus_uconst 220] [$sp+0]
	;DEBUG_VALUE: sendMTFValues:t <- [DW_OP_stack_value] 5
	;DEBUG_VALUE: sendMTFValues:s <- $x19
	;DEBUG_VALUE: sendMTFValues:t <- [DW_OP_stack_value] 5
	;DEBUG_VALUE: sendMTFValues:v <- 0
	.loc	1 327 10                        ; compress.c:327:10
	cmn	w8, #1
	b.lt	LBB3_41
Ltmp354:
; %bb.40:                               ; %.lr.ph2124.5
                                        ;   in Loop: Header=BB3_27 Depth=1
	;DEBUG_VALUE: sendMTFValues:iter <- $w22
	;DEBUG_VALUE: sendMTFValues:nGroups <- $w26
	;DEBUG_VALUE: sendMTFValues:mtfv <- [DW_OP_constu 192, DW_OP_minus] [$fp+0]
	;DEBUG_VALUE: sendMTFValues:alphaSize <- [DW_OP_plus_uconst 220] [$sp+0]
	;DEBUG_VALUE: sendMTFValues:t <- [DW_OP_stack_value] 5
	;DEBUG_VALUE: sendMTFValues:v <- 0
	;DEBUG_VALUE: sendMTFValues:s <- $x19
	.loc	1 0 10 is_stmt 0                ; compress.c:0:10
	ldr	x0, [sp, #72]                   ; 8-byte Folded Reload
	ldr	x1, [sp, #176]                  ; 8-byte Folded Reload
Ltmp355:
	.loc	1 328 28 is_stmt 1              ; compress.c:328:28
	bl	_bzero
Ltmp356:
	.loc	1 0 28 is_stmt 0                ; compress.c:0:28
	ldp	x9, x8, [x29, #-224]            ; 16-byte Folded Reload
Ltmp357:
	;DEBUG_VALUE: sendMTFValues:v <- [DW_OP_plus_uconst 1, DW_OP_stack_value] undef
LBB3_41:                                ; %._crit_edge2125.5
                                        ;   in Loop: Header=BB3_27 Depth=1
	;DEBUG_VALUE: sendMTFValues:iter <- $w22
	;DEBUG_VALUE: sendMTFValues:nGroups <- $w26
	;DEBUG_VALUE: sendMTFValues:mtfv <- [DW_OP_constu 192, DW_OP_minus] [$fp+0]
	;DEBUG_VALUE: sendMTFValues:alphaSize <- [DW_OP_plus_uconst 220] [$sp+0]
	;DEBUG_VALUE: sendMTFValues:t <- [DW_OP_stack_value] 5
	;DEBUG_VALUE: sendMTFValues:s <- $x19
	;DEBUG_VALUE: sendMTFValues:t <- [DW_OP_stack_value] 6
	.loc	1 326 7 is_stmt 1               ; compress.c:326:7
	cmp	w26, #6
	b.eq	LBB3_44
Ltmp358:
; %bb.42:                               ; %._crit_edge2125.5
                                        ;   in Loop: Header=BB3_27 Depth=1
	;DEBUG_VALUE: sendMTFValues:iter <- $w22
	;DEBUG_VALUE: sendMTFValues:nGroups <- $w26
	;DEBUG_VALUE: sendMTFValues:t <- [DW_OP_stack_value] 6
	;DEBUG_VALUE: sendMTFValues:mtfv <- [DW_OP_constu 192, DW_OP_minus] [$fp+0]
	;DEBUG_VALUE: sendMTFValues:alphaSize <- [DW_OP_plus_uconst 220] [$sp+0]
	;DEBUG_VALUE: sendMTFValues:s <- $x19
	cmn	w8, #1
	b.lt	LBB3_44
Ltmp359:
; %bb.43:                               ; %.lr.ph2124.6
                                        ;   in Loop: Header=BB3_27 Depth=1
	;DEBUG_VALUE: sendMTFValues:iter <- $w22
	;DEBUG_VALUE: sendMTFValues:nGroups <- $w26
	;DEBUG_VALUE: sendMTFValues:t <- [DW_OP_stack_value] 6
	;DEBUG_VALUE: sendMTFValues:mtfv <- [DW_OP_constu 192, DW_OP_minus] [$fp+0]
	;DEBUG_VALUE: sendMTFValues:alphaSize <- [DW_OP_plus_uconst 220] [$sp+0]
	;DEBUG_VALUE: sendMTFValues:s <- $x19
	.loc	1 0 7 is_stmt 0                 ; compress.c:0:7
	ldr	x0, [sp, #64]                   ; 8-byte Folded Reload
	ldr	x1, [sp, #176]                  ; 8-byte Folded Reload
Ltmp360:
	.loc	1 328 28 is_stmt 1              ; compress.c:328:28
	bl	_bzero
Ltmp361:
	.loc	1 0 28 is_stmt 0                ; compress.c:0:28
	ldur	x9, [x29, #-224]                ; 8-byte Folded Reload
Ltmp362:
	;DEBUG_VALUE: sendMTFValues:v <- [DW_OP_plus_uconst 1, DW_OP_stack_value] undef
LBB3_44:                                ; %._crit_edge2125.6
                                        ;   in Loop: Header=BB3_27 Depth=1
	;DEBUG_VALUE: sendMTFValues:iter <- $w22
	;DEBUG_VALUE: sendMTFValues:nGroups <- $w26
	;DEBUG_VALUE: sendMTFValues:mtfv <- [DW_OP_constu 192, DW_OP_minus] [$fp+0]
	;DEBUG_VALUE: sendMTFValues:alphaSize <- [DW_OP_plus_uconst 220] [$sp+0]
	;DEBUG_VALUE: sendMTFValues:s <- $x19
	ldr	w8, [sp, #168]                  ; 4-byte Folded Reload
	.loc	1 334 11 is_stmt 1              ; compress.c:334:11
	tbnz	w8, #0, LBB3_47
Ltmp363:
; %bb.45:                               ; %.lr.ph2128.preheader
                                        ;   in Loop: Header=BB3_27 Depth=1
	;DEBUG_VALUE: sendMTFValues:iter <- $w22
	;DEBUG_VALUE: sendMTFValues:nGroups <- $w26
	;DEBUG_VALUE: sendMTFValues:mtfv <- [DW_OP_constu 192, DW_OP_minus] [$fp+0]
	;DEBUG_VALUE: sendMTFValues:alphaSize <- [DW_OP_plus_uconst 220] [$sp+0]
	;DEBUG_VALUE: sendMTFValues:s <- $x19
	.loc	1 0 11 is_stmt 0                ; compress.c:0:11
	ldp	x8, x10, [sp, #120]             ; 16-byte Folded Reload
Ltmp364:
LBB3_46:                                ; %.lr.ph2128
                                        ;   Parent Loop BB3_27 Depth=1
                                        ; =>  This Inner Loop Header: Depth=2
	;DEBUG_VALUE: sendMTFValues:iter <- $w22
	;DEBUG_VALUE: sendMTFValues:nGroups <- $w26
	;DEBUG_VALUE: sendMTFValues:mtfv <- [DW_OP_constu 192, DW_OP_minus] [$fp+0]
	;DEBUG_VALUE: sendMTFValues:alphaSize <- [DW_OP_plus_uconst 220] [$sp+0]
	;DEBUG_VALUE: sendMTFValues:s <- $x19
	;DEBUG_VALUE: sendMTFValues:v <- [DW_OP_LLVM_arg 0, DW_OP_consts 37708, DW_OP_LLVM_arg 1, DW_OP_plus, DW_OP_minus, DW_OP_stack_value] $x10, $x19
	.loc	1 336 34 is_stmt 1              ; compress.c:336:34
	ldrb	w11, [x10, #258]
	.loc	1 336 56 is_stmt 0              ; compress.c:336:56
	ldrb	w12, [x10]
	.loc	1 336 54                        ; compress.c:336:54
	bfi	w12, w11, #16, #8
	.loc	1 336 31                        ; compress.c:336:31
	stur	w12, [x8, #-4]
	.loc	1 337 34 is_stmt 1              ; compress.c:337:34
	ldrb	w11, [x10, #774]
	.loc	1 337 56 is_stmt 0              ; compress.c:337:56
	ldrb	w12, [x10, #516]
	.loc	1 337 54                        ; compress.c:337:54
	bfi	w12, w11, #16, #8
	.loc	1 337 31                        ; compress.c:337:31
	str	w12, [x8]
	.loc	1 338 34 is_stmt 1              ; compress.c:338:34
	ldrb	w11, [x10, #1290]
	.loc	1 338 56 is_stmt 0              ; compress.c:338:56
	ldrb	w12, [x10, #1032]
	.loc	1 338 54                        ; compress.c:338:54
	bfi	w12, w11, #16, #8
	.loc	1 338 31                        ; compress.c:338:31
	str	w12, [x8, #4]
Ltmp365:
	;DEBUG_VALUE: sendMTFValues:v <- [DW_OP_LLVM_arg 0, DW_OP_consts 37708, DW_OP_LLVM_arg 1, DW_OP_plus, DW_OP_minus, DW_OP_consts 1, DW_OP_plus, DW_OP_stack_value] $x10, $x19
	.loc	1 335 24 is_stmt 1              ; compress.c:335:24
	add	x10, x10, #1
Ltmp366:
	add	x8, x8, #16
	subs	x9, x9, #1
Ltmp367:
	.loc	1 335 10 is_stmt 0              ; compress.c:335:10
	b.ne	LBB3_46
Ltmp368:
LBB3_47:                                ; %.loopexit1976
                                        ;   in Loop: Header=BB3_27 Depth=1
	;DEBUG_VALUE: sendMTFValues:iter <- $w22
	;DEBUG_VALUE: sendMTFValues:nGroups <- $w26
	;DEBUG_VALUE: sendMTFValues:mtfv <- [DW_OP_constu 192, DW_OP_minus] [$fp+0]
	;DEBUG_VALUE: sendMTFValues:alphaSize <- [DW_OP_plus_uconst 220] [$sp+0]
	;DEBUG_VALUE: sendMTFValues:s <- $x19
	;DEBUG_VALUE: sendMTFValues:gs <- 0
	;DEBUG_VALUE: sendMTFValues:nSelectors <- 0
	;DEBUG_VALUE: sendMTFValues:totc <- 0
	.loc	1 348 23 is_stmt 1              ; compress.c:348:23
	ldr	w27, [x19, #668]
Ltmp369:
	.loc	1 348 14 is_stmt 0              ; compress.c:348:14
	cmp	w27, #1
	b.lt	LBB3_74
Ltmp370:
; %bb.48:                               ; %.lr.ph2145.preheader
                                        ;   in Loop: Header=BB3_27 Depth=1
	;DEBUG_VALUE: sendMTFValues:totc <- 0
	;DEBUG_VALUE: sendMTFValues:nSelectors <- 0
	;DEBUG_VALUE: sendMTFValues:iter <- $w22
	;DEBUG_VALUE: sendMTFValues:nGroups <- $w26
	;DEBUG_VALUE: sendMTFValues:gs <- 0
	;DEBUG_VALUE: sendMTFValues:mtfv <- [DW_OP_constu 192, DW_OP_minus] [$fp+0]
	;DEBUG_VALUE: sendMTFValues:alphaSize <- [DW_OP_plus_uconst 220] [$sp+0]
	;DEBUG_VALUE: sendMTFValues:s <- $x19
	.loc	1 0 14                          ; compress.c:0:14
	str	w22, [sp, #224]                 ; 4-byte Folded Spill
Ltmp371:
	;DEBUG_VALUE: sendMTFValues:iter <- [DW_OP_plus_uconst 224] [$sp+0]
	stur	xzr, [x29, #-176]               ; 8-byte Folded Spill
	mov	w22, #0
	mov	w25, #0
	b	LBB3_51
Ltmp372:
LBB3_49:                                ;   in Loop: Header=BB3_51 Depth=2
	;DEBUG_VALUE: sendMTFValues:bt <- $w11
	;DEBUG_VALUE: sendMTFValues:ge <- $w8
	;DEBUG_VALUE: sendMTFValues:gs <- $w22
	;DEBUG_VALUE: sendMTFValues:iter <- [DW_OP_plus_uconst 224] [$sp+0]
	;DEBUG_VALUE: sendMTFValues:nGroups <- $w26
	;DEBUG_VALUE: sendMTFValues:mtfv <- [DW_OP_constu 192, DW_OP_minus] [$fp+0]
	;DEBUG_VALUE: sendMTFValues:alphaSize <- [DW_OP_plus_uconst 220] [$sp+0]
	;DEBUG_VALUE: sendMTFValues:s <- $x19
	.loc	1 415 27 is_stmt 1              ; compress.c:415:27
	add	x11, x4, x28, lsl #1
Ltmp373:
	ldrh	w13, [x11]
	.loc	1 415 13 is_stmt 0              ; compress.c:415:13
	madd	x9, x12, x20, x19
	add	x9, x9, x23
	lsl	x12, x13, #2
	.loc	1 415 41                        ; compress.c:415:41
	ldr	w13, [x9, x12]
	add	w13, w13, #1
	str	w13, [x9, x12]
	.loc	1 415 59                        ; compress.c:415:59
	ldrh	w12, [x11, #2]
	.loc	1 415 45                        ; compress.c:415:45
	lsl	x12, x12, #2
	.loc	1 415 73                        ; compress.c:415:73
	ldr	w13, [x9, x12]
	add	w13, w13, #1
	str	w13, [x9, x12]
	.loc	1 415 91                        ; compress.c:415:91
	ldrh	w12, [x11, #4]
	.loc	1 415 77                        ; compress.c:415:77
	lsl	x12, x12, #2
	.loc	1 415 105                       ; compress.c:415:105
	ldr	w13, [x9, x12]
	add	w13, w13, #1
	str	w13, [x9, x12]
	.loc	1 415 123                       ; compress.c:415:123
	ldrh	w12, [x11, #6]
	.loc	1 415 109                       ; compress.c:415:109
	lsl	x12, x12, #2
	.loc	1 415 137                       ; compress.c:415:137
	ldr	w13, [x9, x12]
	add	w13, w13, #1
	str	w13, [x9, x12]
	.loc	1 415 155                       ; compress.c:415:155
	ldrh	w12, [x11, #8]
	.loc	1 415 141                       ; compress.c:415:141
	lsl	x12, x12, #2
	.loc	1 415 169                       ; compress.c:415:169
	ldr	w13, [x9, x12]
	add	w13, w13, #1
	str	w13, [x9, x12]
	.loc	1 416 27 is_stmt 1              ; compress.c:416:27
	ldrh	w12, [x11, #10]
	.loc	1 416 13 is_stmt 0              ; compress.c:416:13
	lsl	x12, x12, #2
	.loc	1 416 41                        ; compress.c:416:41
	ldr	w13, [x9, x12]
	add	w13, w13, #1
	str	w13, [x9, x12]
	.loc	1 416 59                        ; compress.c:416:59
	ldrh	w12, [x11, #12]
	.loc	1 416 45                        ; compress.c:416:45
	lsl	x12, x12, #2
	.loc	1 416 73                        ; compress.c:416:73
	ldr	w13, [x9, x12]
	add	w13, w13, #1
	str	w13, [x9, x12]
	.loc	1 416 91                        ; compress.c:416:91
	ldrh	w12, [x11, #14]
	.loc	1 416 77                        ; compress.c:416:77
	lsl	x12, x12, #2
	.loc	1 416 105                       ; compress.c:416:105
	ldr	w13, [x9, x12]
	add	w13, w13, #1
	str	w13, [x9, x12]
	.loc	1 416 123                       ; compress.c:416:123
	ldrh	w12, [x11, #16]
	.loc	1 416 109                       ; compress.c:416:109
	lsl	x12, x12, #2
	.loc	1 416 137                       ; compress.c:416:137
	ldr	w13, [x9, x12]
	add	w13, w13, #1
	str	w13, [x9, x12]
	.loc	1 416 155                       ; compress.c:416:155
	ldrh	w12, [x11, #18]
	.loc	1 416 141                       ; compress.c:416:141
	lsl	x12, x12, #2
	.loc	1 416 169                       ; compress.c:416:169
	ldr	w13, [x9, x12]
	add	w13, w13, #1
	str	w13, [x9, x12]
	.loc	1 417 27 is_stmt 1              ; compress.c:417:27
	ldrh	w12, [x11, #20]
	.loc	1 417 13 is_stmt 0              ; compress.c:417:13
	lsl	x12, x12, #2
	.loc	1 417 42                        ; compress.c:417:42
	ldr	w13, [x9, x12]
	add	w13, w13, #1
	str	w13, [x9, x12]
	.loc	1 417 60                        ; compress.c:417:60
	ldrh	w12, [x11, #22]
	.loc	1 417 46                        ; compress.c:417:46
	lsl	x12, x12, #2
	.loc	1 417 75                        ; compress.c:417:75
	ldr	w13, [x9, x12]
	add	w13, w13, #1
	str	w13, [x9, x12]
	.loc	1 417 93                        ; compress.c:417:93
	ldrh	w12, [x11, #24]
	.loc	1 417 79                        ; compress.c:417:79
	lsl	x12, x12, #2
	.loc	1 417 108                       ; compress.c:417:108
	ldr	w13, [x9, x12]
	add	w13, w13, #1
	str	w13, [x9, x12]
	.loc	1 417 126                       ; compress.c:417:126
	ldrh	w12, [x11, #26]
	.loc	1 417 112                       ; compress.c:417:112
	lsl	x12, x12, #2
	.loc	1 417 141                       ; compress.c:417:141
	ldr	w13, [x9, x12]
	add	w13, w13, #1
	str	w13, [x9, x12]
	.loc	1 417 159                       ; compress.c:417:159
	ldrh	w12, [x11, #28]
	.loc	1 417 145                       ; compress.c:417:145
	lsl	x12, x12, #2
	.loc	1 417 174                       ; compress.c:417:174
	ldr	w13, [x9, x12]
	add	w13, w13, #1
	str	w13, [x9, x12]
	.loc	1 418 27 is_stmt 1              ; compress.c:418:27
	ldrh	w12, [x11, #30]
	.loc	1 418 13 is_stmt 0              ; compress.c:418:13
	lsl	x12, x12, #2
	.loc	1 418 42                        ; compress.c:418:42
	ldr	w13, [x9, x12]
	add	w13, w13, #1
	str	w13, [x9, x12]
	.loc	1 418 60                        ; compress.c:418:60
	ldrh	w12, [x11, #32]
	.loc	1 418 46                        ; compress.c:418:46
	lsl	x12, x12, #2
	.loc	1 418 75                        ; compress.c:418:75
	ldr	w13, [x9, x12]
	add	w13, w13, #1
	str	w13, [x9, x12]
	.loc	1 418 93                        ; compress.c:418:93
	ldrh	w12, [x11, #34]
	.loc	1 418 79                        ; compress.c:418:79
	lsl	x12, x12, #2
	.loc	1 418 108                       ; compress.c:418:108
	ldr	w13, [x9, x12]
	add	w13, w13, #1
	str	w13, [x9, x12]
	.loc	1 418 126                       ; compress.c:418:126
	ldrh	w12, [x11, #36]
	.loc	1 418 112                       ; compress.c:418:112
	lsl	x12, x12, #2
	.loc	1 418 141                       ; compress.c:418:141
	ldr	w13, [x9, x12]
	add	w13, w13, #1
	str	w13, [x9, x12]
	.loc	1 418 159                       ; compress.c:418:159
	ldrh	w12, [x11, #38]
	.loc	1 418 145                       ; compress.c:418:145
	lsl	x12, x12, #2
	.loc	1 418 174                       ; compress.c:418:174
	ldr	w13, [x9, x12]
	add	w13, w13, #1
	str	w13, [x9, x12]
	.loc	1 419 27 is_stmt 1              ; compress.c:419:27
	ldrh	w12, [x11, #40]
	.loc	1 419 13 is_stmt 0              ; compress.c:419:13
	lsl	x12, x12, #2
	.loc	1 419 42                        ; compress.c:419:42
	ldr	w13, [x9, x12]
	add	w13, w13, #1
	str	w13, [x9, x12]
	.loc	1 419 60                        ; compress.c:419:60
	ldrh	w12, [x11, #42]
	.loc	1 419 46                        ; compress.c:419:46
	lsl	x12, x12, #2
	.loc	1 419 75                        ; compress.c:419:75
	ldr	w13, [x9, x12]
	add	w13, w13, #1
	str	w13, [x9, x12]
	.loc	1 419 93                        ; compress.c:419:93
	ldrh	w12, [x11, #44]
	.loc	1 419 79                        ; compress.c:419:79
	lsl	x12, x12, #2
	.loc	1 419 108                       ; compress.c:419:108
	ldr	w13, [x9, x12]
	add	w13, w13, #1
	str	w13, [x9, x12]
	.loc	1 419 126                       ; compress.c:419:126
	ldrh	w12, [x11, #46]
	.loc	1 419 112                       ; compress.c:419:112
	lsl	x12, x12, #2
	.loc	1 419 141                       ; compress.c:419:141
	ldr	w13, [x9, x12]
	add	w13, w13, #1
	str	w13, [x9, x12]
	.loc	1 419 159                       ; compress.c:419:159
	ldrh	w12, [x11, #48]
	.loc	1 419 145                       ; compress.c:419:145
	lsl	x12, x12, #2
	.loc	1 419 174                       ; compress.c:419:174
	ldr	w13, [x9, x12]
	add	w13, w13, #1
	str	w13, [x9, x12]
	.loc	1 420 27 is_stmt 1              ; compress.c:420:27
	ldrh	w12, [x11, #50]
	.loc	1 420 13 is_stmt 0              ; compress.c:420:13
	lsl	x12, x12, #2
	.loc	1 420 42                        ; compress.c:420:42
	ldr	w13, [x9, x12]
	add	w13, w13, #1
	str	w13, [x9, x12]
	.loc	1 420 60                        ; compress.c:420:60
	ldrh	w12, [x11, #52]
	.loc	1 420 46                        ; compress.c:420:46
	lsl	x12, x12, #2
	.loc	1 420 75                        ; compress.c:420:75
	ldr	w13, [x9, x12]
	add	w13, w13, #1
	str	w13, [x9, x12]
	.loc	1 420 93                        ; compress.c:420:93
	ldrh	w12, [x11, #54]
	.loc	1 420 79                        ; compress.c:420:79
	lsl	x12, x12, #2
	.loc	1 420 108                       ; compress.c:420:108
	ldr	w13, [x9, x12]
	add	w13, w13, #1
	str	w13, [x9, x12]
	.loc	1 420 126                       ; compress.c:420:126
	ldrh	w12, [x11, #56]
	.loc	1 420 112                       ; compress.c:420:112
	lsl	x12, x12, #2
	.loc	1 420 141                       ; compress.c:420:141
	ldr	w13, [x9, x12]
	add	w13, w13, #1
	str	w13, [x9, x12]
	.loc	1 420 159                       ; compress.c:420:159
	ldrh	w12, [x11, #58]
	.loc	1 420 145                       ; compress.c:420:145
	lsl	x12, x12, #2
	.loc	1 420 174                       ; compress.c:420:174
	ldr	w13, [x9, x12]
	add	w13, w13, #1
	str	w13, [x9, x12]
	.loc	1 421 27 is_stmt 1              ; compress.c:421:27
	ldrh	w12, [x11, #60]
	.loc	1 421 13 is_stmt 0              ; compress.c:421:13
	lsl	x12, x12, #2
	.loc	1 421 42                        ; compress.c:421:42
	ldr	w13, [x9, x12]
	add	w13, w13, #1
	str	w13, [x9, x12]
	.loc	1 421 60                        ; compress.c:421:60
	ldrh	w12, [x11, #62]
	.loc	1 421 46                        ; compress.c:421:46
	lsl	x12, x12, #2
	.loc	1 421 75                        ; compress.c:421:75
	ldr	w13, [x9, x12]
	add	w13, w13, #1
	str	w13, [x9, x12]
	.loc	1 421 93                        ; compress.c:421:93
	ldrh	w12, [x11, #64]
	.loc	1 421 79                        ; compress.c:421:79
	lsl	x12, x12, #2
	.loc	1 421 108                       ; compress.c:421:108
	ldr	w13, [x9, x12]
	add	w13, w13, #1
	str	w13, [x9, x12]
	.loc	1 421 126                       ; compress.c:421:126
	ldrh	w12, [x11, #66]
	.loc	1 421 112                       ; compress.c:421:112
	lsl	x12, x12, #2
	.loc	1 421 141                       ; compress.c:421:141
	ldr	w13, [x9, x12]
	add	w13, w13, #1
	str	w13, [x9, x12]
	.loc	1 421 159                       ; compress.c:421:159
	ldrh	w12, [x11, #68]
	.loc	1 421 145                       ; compress.c:421:145
	lsl	x12, x12, #2
	.loc	1 421 174                       ; compress.c:421:174
	ldr	w13, [x9, x12]
	add	w13, w13, #1
	str	w13, [x9, x12]
	.loc	1 422 27 is_stmt 1              ; compress.c:422:27
	ldrh	w12, [x11, #70]
	.loc	1 422 13 is_stmt 0              ; compress.c:422:13
	lsl	x12, x12, #2
	.loc	1 422 42                        ; compress.c:422:42
	ldr	w13, [x9, x12]
	add	w13, w13, #1
	str	w13, [x9, x12]
	.loc	1 422 60                        ; compress.c:422:60
	ldrh	w12, [x11, #72]
	.loc	1 422 46                        ; compress.c:422:46
	lsl	x12, x12, #2
	.loc	1 422 75                        ; compress.c:422:75
	ldr	w13, [x9, x12]
	add	w13, w13, #1
	str	w13, [x9, x12]
	.loc	1 422 93                        ; compress.c:422:93
	ldrh	w12, [x11, #74]
	.loc	1 422 79                        ; compress.c:422:79
	lsl	x12, x12, #2
	.loc	1 422 108                       ; compress.c:422:108
	ldr	w13, [x9, x12]
	add	w13, w13, #1
	str	w13, [x9, x12]
	.loc	1 422 126                       ; compress.c:422:126
	ldrh	w12, [x11, #76]
	.loc	1 422 112                       ; compress.c:422:112
	lsl	x12, x12, #2
	.loc	1 422 141                       ; compress.c:422:141
	ldr	w13, [x9, x12]
	add	w13, w13, #1
	str	w13, [x9, x12]
	.loc	1 422 159                       ; compress.c:422:159
	ldrh	w12, [x11, #78]
	.loc	1 422 145                       ; compress.c:422:145
	lsl	x12, x12, #2
	.loc	1 422 174                       ; compress.c:422:174
	ldr	w13, [x9, x12]
	add	w13, w13, #1
	str	w13, [x9, x12]
	.loc	1 423 27 is_stmt 1              ; compress.c:423:27
	ldrh	w12, [x11, #80]
	.loc	1 423 13 is_stmt 0              ; compress.c:423:13
	lsl	x12, x12, #2
	.loc	1 423 42                        ; compress.c:423:42
	ldr	w13, [x9, x12]
	add	w13, w13, #1
	str	w13, [x9, x12]
	.loc	1 423 60                        ; compress.c:423:60
	ldrh	w12, [x11, #82]
	.loc	1 423 46                        ; compress.c:423:46
	lsl	x12, x12, #2
	.loc	1 423 75                        ; compress.c:423:75
	ldr	w13, [x9, x12]
	add	w13, w13, #1
	str	w13, [x9, x12]
	.loc	1 423 93                        ; compress.c:423:93
	ldrh	w12, [x11, #84]
	.loc	1 423 79                        ; compress.c:423:79
	lsl	x12, x12, #2
	.loc	1 423 108                       ; compress.c:423:108
	ldr	w13, [x9, x12]
	add	w13, w13, #1
	str	w13, [x9, x12]
	.loc	1 423 126                       ; compress.c:423:126
	ldrh	w12, [x11, #86]
	.loc	1 423 112                       ; compress.c:423:112
	lsl	x12, x12, #2
	.loc	1 423 141                       ; compress.c:423:141
	ldr	w13, [x9, x12]
	add	w13, w13, #1
	str	w13, [x9, x12]
	.loc	1 423 159                       ; compress.c:423:159
	ldrh	w12, [x11, #88]
	.loc	1 423 145                       ; compress.c:423:145
	lsl	x12, x12, #2
	.loc	1 423 174                       ; compress.c:423:174
	ldr	w13, [x9, x12]
	add	w13, w13, #1
	str	w13, [x9, x12]
	.loc	1 424 27 is_stmt 1              ; compress.c:424:27
	ldrh	w12, [x11, #90]
	.loc	1 424 13 is_stmt 0              ; compress.c:424:13
	lsl	x12, x12, #2
	.loc	1 424 42                        ; compress.c:424:42
	ldr	w13, [x9, x12]
	add	w13, w13, #1
	str	w13, [x9, x12]
	.loc	1 424 60                        ; compress.c:424:60
	ldrh	w12, [x11, #92]
	.loc	1 424 46                        ; compress.c:424:46
	lsl	x12, x12, #2
	.loc	1 424 75                        ; compress.c:424:75
	ldr	w13, [x9, x12]
	add	w13, w13, #1
	str	w13, [x9, x12]
	.loc	1 424 93                        ; compress.c:424:93
	ldrh	w12, [x11, #94]
	.loc	1 424 79                        ; compress.c:424:79
	lsl	x12, x12, #2
	.loc	1 424 108                       ; compress.c:424:108
	ldr	w13, [x9, x12]
	add	w13, w13, #1
	str	w13, [x9, x12]
	.loc	1 424 126                       ; compress.c:424:126
	ldrh	w11, [x11, #96]
	.loc	1 424 112                       ; compress.c:424:112
	lsl	x11, x11, #2
	.loc	1 424 141                       ; compress.c:424:141
	ldr	w12, [x9, x11]
	add	w12, w12, #1
	str	w12, [x9, x11]
	.loc	1 424 159                       ; compress.c:424:159
	ldrh	w11, [x4, w24, sxtw  #1]
	.loc	1 424 145                       ; compress.c:424:145
	lsl	x11, x11, #2
	.loc	1 424 174                       ; compress.c:424:174
	ldr	w12, [x9, x11]
	add	w12, w12, #1
	str	w12, [x9, x11]
Ltmp374:
LBB3_50:                                ; %.loopexit1971
                                        ;   in Loop: Header=BB3_51 Depth=2
	;DEBUG_VALUE: sendMTFValues:ge <- $w8
	;DEBUG_VALUE: sendMTFValues:gs <- $w22
	;DEBUG_VALUE: sendMTFValues:iter <- [DW_OP_plus_uconst 224] [$sp+0]
	;DEBUG_VALUE: sendMTFValues:nGroups <- $w26
	;DEBUG_VALUE: sendMTFValues:mtfv <- [DW_OP_constu 192, DW_OP_minus] [$fp+0]
	;DEBUG_VALUE: sendMTFValues:alphaSize <- [DW_OP_plus_uconst 220] [$sp+0]
	;DEBUG_VALUE: sendMTFValues:s <- $x19
	.loc	1 0 0                           ; compress.c:0:0
	add	w25, w10, w25
Ltmp375:
	;DEBUG_VALUE: sendMTFValues:totc <- $w25
	add	x5, x5, #1
Ltmp376:
	;DEBUG_VALUE: sendMTFValues:nSelectors <- $x5
	stur	x5, [x29, #-176]                ; 8-byte Folded Spill
Ltmp377:
	;DEBUG_VALUE: sendMTFValues:nSelectors <- [DW_OP_constu 176, DW_OP_minus] [$fp+0]
	;DEBUG_VALUE: sendMTFValues:nSelectors <- [DW_OP_constu 176, DW_OP_minus] [$fp+0]
	.loc	1 434 17 is_stmt 1              ; compress.c:434:17
	add	w22, w8, #1
Ltmp378:
	;DEBUG_VALUE: sendMTFValues:gs <- $w22
	.loc	1 348 23                        ; compress.c:348:23
	ldr	w27, [x19, #668]
Ltmp379:
	.loc	1 348 14 is_stmt 0              ; compress.c:348:14
	cmp	w22, w27
	b.ge	LBB3_73
Ltmp380:
LBB3_51:                                ; %.lr.ph2145
                                        ;   Parent Loop BB3_27 Depth=1
                                        ; =>  This Loop Header: Depth=2
                                        ;       Child Loop BB3_56 Depth 3
                                        ;       Child Loop BB3_72 Depth 3
	;DEBUG_VALUE: sendMTFValues:iter <- [DW_OP_plus_uconst 224] [$sp+0]
	;DEBUG_VALUE: sendMTFValues:nGroups <- $w26
	;DEBUG_VALUE: sendMTFValues:mtfv <- [DW_OP_constu 192, DW_OP_minus] [$fp+0]
	;DEBUG_VALUE: sendMTFValues:alphaSize <- [DW_OP_plus_uconst 220] [$sp+0]
	;DEBUG_VALUE: sendMTFValues:s <- $x19
	;DEBUG_VALUE: sendMTFValues:gs <- $w22
	;DEBUG_VALUE: sendMTFValues:nSelectors <- [DW_OP_constu 176, DW_OP_minus] [$fp+0]
	;DEBUG_VALUE: sendMTFValues:totc <- $w25
	.loc	1 379 479 is_stmt 1             ; compress.c:379:479
	sxtw	x28, w22
Ltmp381:
	.loc	1 349 23                        ; compress.c:349:23
	add	x24, x28, #49
Ltmp382:
	;DEBUG_VALUE: sendMTFValues:ge <- $w24
	.loc	1 0 23 is_stmt 0                ; compress.c:0:23
	sub	w21, w27, #1
Ltmp383:
	;DEBUG_VALUE: sendMTFValues:t <- 0
	.loc	1 356 48 is_stmt 1              ; compress.c:356:48
	sub	x0, x29, #124
	ldur	x1, [x29, #-208]                ; 8-byte Folded Reload
	bl	_bzero
Ltmp384:
	;DEBUG_VALUE: sendMTFValues:t <- [DW_OP_plus_uconst 1, DW_OP_stack_value] undef
	.loc	1 350 14                        ; compress.c:350:14
	cmp	w24, w27
	csel	w8, w24, w21, lt
Ltmp385:
	;DEBUG_VALUE: sendMTFValues:ge <- $w8
	.loc	1 0 14 is_stmt 0                ; compress.c:0:14
	sub	w9, w8, w22
	cmp	w9, #49
	cset	w9, eq
	ldur	w10, [x29, #-180]               ; 4-byte Folded Reload
Ltmp386:
	.loc	1 358 27 is_stmt 1              ; compress.c:358:27
	and	w9, w10, w9
	tbz	w9, #0, LBB3_53
Ltmp387:
; %bb.52:                               ;   in Loop: Header=BB3_51 Depth=2
	;DEBUG_VALUE: sendMTFValues:ge <- $w8
	;DEBUG_VALUE: sendMTFValues:totc <- $w25
	;DEBUG_VALUE: sendMTFValues:nSelectors <- [DW_OP_constu 176, DW_OP_minus] [$fp+0]
	;DEBUG_VALUE: sendMTFValues:gs <- $w22
	;DEBUG_VALUE: sendMTFValues:iter <- [DW_OP_plus_uconst 224] [$sp+0]
	;DEBUG_VALUE: sendMTFValues:nGroups <- $w26
	;DEBUG_VALUE: sendMTFValues:mtfv <- [DW_OP_constu 192, DW_OP_minus] [$fp+0]
	;DEBUG_VALUE: sendMTFValues:alphaSize <- [DW_OP_plus_uconst 220] [$sp+0]
	;DEBUG_VALUE: sendMTFValues:s <- $x19
	;DEBUG_VALUE: cost45 <- 0
	;DEBUG_VALUE: cost23 <- 0
	;DEBUG_VALUE: cost01 <- 0
	.loc	1 0 27 is_stmt 0                ; compress.c:0:27
	ldur	x4, [x29, #-192]                ; 8-byte Folded Reload
Ltmp388:
	.loc	1 370 19 is_stmt 1              ; compress.c:370:19
	add	x11, x4, x28, lsl #1
	ldrh	w12, [x11]
Ltmp389:
	;DEBUG_VALUE: icv <- undef
	.loc	1 370 43 is_stmt 0              ; compress.c:370:43
	mov	w10, #51640
	add	x10, x19, x10
	add	x12, x10, x12, lsl #4
	ldp	w13, w14, [x12]
Ltmp390:
	;DEBUG_VALUE: cost01 <- $w13
	;DEBUG_VALUE: cost23 <- $w14
	.loc	1 370 105                       ; compress.c:370:105
	ldr	w12, [x12, #8]
Ltmp391:
	;DEBUG_VALUE: cost45 <- $w12
	.loc	1 370 133                       ; compress.c:370:133
	ldrh	w15, [x11, #2]
	.loc	1 370 157                       ; compress.c:370:157
	add	x15, x10, x15, lsl #4
	ldp	w16, w17, [x15]
	.loc	1 370 219                       ; compress.c:370:219
	ldr	w15, [x15, #8]
	.loc	1 370 247                       ; compress.c:370:247
	ldrh	w0, [x11, #4]
	.loc	1 370 271                       ; compress.c:370:271
	add	x0, x10, x0, lsl #4
	ldp	w1, w2, [x0]
	.loc	1 370 154                       ; compress.c:370:154
	add	w13, w16, w13
Ltmp392:
	;DEBUG_VALUE: cost01 <- $w13
	.loc	1 370 268                       ; compress.c:370:268
	add	w13, w13, w1
Ltmp393:
	;DEBUG_VALUE: cost01 <- $w13
	.loc	1 370 185                       ; compress.c:370:185
	add	w14, w17, w14
Ltmp394:
	;DEBUG_VALUE: cost23 <- $w14
	.loc	1 370 299                       ; compress.c:370:299
	add	w14, w14, w2
Ltmp395:
	;DEBUG_VALUE: cost23 <- $w14
	.loc	1 370 333                       ; compress.c:370:333
	ldr	w16, [x0, #8]
	.loc	1 370 216                       ; compress.c:370:216
	add	w12, w15, w12
Ltmp396:
	;DEBUG_VALUE: cost45 <- $w12
	.loc	1 370 330                       ; compress.c:370:330
	add	w12, w12, w16
Ltmp397:
	;DEBUG_VALUE: cost45 <- $w12
	.loc	1 370 361                       ; compress.c:370:361
	ldrh	w15, [x11, #6]
	.loc	1 370 385                       ; compress.c:370:385
	add	x15, x10, x15, lsl #4
	ldp	w16, w17, [x15]
	.loc	1 370 447                       ; compress.c:370:447
	ldr	w15, [x15, #8]
	.loc	1 370 475                       ; compress.c:370:475
	ldrh	w0, [x11, #8]
	.loc	1 370 499                       ; compress.c:370:499
	add	x0, x10, x0, lsl #4
	ldp	w1, w2, [x0]
	.loc	1 370 382                       ; compress.c:370:382
	add	w13, w13, w16
Ltmp398:
	;DEBUG_VALUE: cost01 <- $w13
	.loc	1 370 496                       ; compress.c:370:496
	add	w13, w13, w1
Ltmp399:
	;DEBUG_VALUE: cost01 <- $w13
	.loc	1 370 413                       ; compress.c:370:413
	add	w14, w14, w17
Ltmp400:
	;DEBUG_VALUE: cost23 <- $w14
	.loc	1 370 527                       ; compress.c:370:527
	add	w14, w14, w2
Ltmp401:
	;DEBUG_VALUE: cost23 <- $w14
	.loc	1 370 561                       ; compress.c:370:561
	ldr	w16, [x0, #8]
	.loc	1 370 444                       ; compress.c:370:444
	add	w12, w12, w15
Ltmp402:
	;DEBUG_VALUE: cost45 <- $w12
	.loc	1 370 558                       ; compress.c:370:558
	add	w12, w12, w16
Ltmp403:
	;DEBUG_VALUE: cost45 <- $w12
	.loc	1 371 19 is_stmt 1              ; compress.c:371:19
	ldrh	w15, [x11, #10]
	.loc	1 371 43 is_stmt 0              ; compress.c:371:43
	add	x15, x10, x15, lsl #4
	ldp	w16, w17, [x15]
	.loc	1 371 105                       ; compress.c:371:105
	ldr	w15, [x15, #8]
	.loc	1 371 133                       ; compress.c:371:133
	ldrh	w0, [x11, #12]
	.loc	1 371 157                       ; compress.c:371:157
	add	x0, x10, x0, lsl #4
	ldp	w1, w2, [x0]
	.loc	1 371 40                        ; compress.c:371:40
	add	w13, w13, w16
Ltmp404:
	;DEBUG_VALUE: cost01 <- $w13
	.loc	1 371 154                       ; compress.c:371:154
	add	w13, w13, w1
Ltmp405:
	;DEBUG_VALUE: cost01 <- $w13
	.loc	1 371 71                        ; compress.c:371:71
	add	w14, w14, w17
Ltmp406:
	;DEBUG_VALUE: cost23 <- $w14
	.loc	1 371 185                       ; compress.c:371:185
	add	w14, w14, w2
Ltmp407:
	;DEBUG_VALUE: cost23 <- $w14
	.loc	1 371 219                       ; compress.c:371:219
	ldr	w16, [x0, #8]
	.loc	1 371 102                       ; compress.c:371:102
	add	w12, w12, w15
Ltmp408:
	;DEBUG_VALUE: cost45 <- $w12
	.loc	1 371 216                       ; compress.c:371:216
	add	w12, w12, w16
Ltmp409:
	;DEBUG_VALUE: cost45 <- $w12
	.loc	1 371 247                       ; compress.c:371:247
	ldrh	w15, [x11, #14]
	.loc	1 371 271                       ; compress.c:371:271
	add	x15, x10, x15, lsl #4
	ldp	w16, w17, [x15]
	.loc	1 371 333                       ; compress.c:371:333
	ldr	w15, [x15, #8]
	.loc	1 371 361                       ; compress.c:371:361
	ldrh	w0, [x11, #16]
	.loc	1 371 385                       ; compress.c:371:385
	add	x0, x10, x0, lsl #4
	ldp	w1, w2, [x0]
	.loc	1 371 268                       ; compress.c:371:268
	add	w13, w13, w16
Ltmp410:
	;DEBUG_VALUE: cost01 <- $w13
	.loc	1 371 382                       ; compress.c:371:382
	add	w13, w13, w1
Ltmp411:
	;DEBUG_VALUE: cost01 <- $w13
	.loc	1 371 299                       ; compress.c:371:299
	add	w14, w14, w17
Ltmp412:
	;DEBUG_VALUE: cost23 <- $w14
	.loc	1 371 413                       ; compress.c:371:413
	add	w14, w14, w2
Ltmp413:
	;DEBUG_VALUE: cost23 <- $w14
	.loc	1 371 447                       ; compress.c:371:447
	ldr	w16, [x0, #8]
	.loc	1 371 330                       ; compress.c:371:330
	add	w12, w12, w15
Ltmp414:
	;DEBUG_VALUE: cost45 <- $w12
	.loc	1 371 444                       ; compress.c:371:444
	add	w12, w12, w16
Ltmp415:
	;DEBUG_VALUE: cost45 <- $w12
	.loc	1 371 475                       ; compress.c:371:475
	ldrh	w15, [x11, #18]
	.loc	1 371 499                       ; compress.c:371:499
	add	x15, x10, x15, lsl #4
	ldp	w16, w17, [x15]
	.loc	1 371 561                       ; compress.c:371:561
	ldr	w15, [x15, #8]
	.loc	1 372 19 is_stmt 1              ; compress.c:372:19
	ldrh	w0, [x11, #20]
	.loc	1 372 44 is_stmt 0              ; compress.c:372:44
	add	x0, x10, x0, lsl #4
	ldp	w1, w2, [x0]
	.loc	1 371 496 is_stmt 1             ; compress.c:371:496
	add	w13, w13, w16
Ltmp416:
	;DEBUG_VALUE: cost01 <- $w13
	.loc	1 372 41                        ; compress.c:372:41
	add	w13, w13, w1
Ltmp417:
	;DEBUG_VALUE: cost01 <- $w13
	.loc	1 371 527                       ; compress.c:371:527
	add	w14, w14, w17
Ltmp418:
	;DEBUG_VALUE: cost23 <- $w14
	.loc	1 372 72                        ; compress.c:372:72
	add	w14, w14, w2
Ltmp419:
	;DEBUG_VALUE: cost23 <- $w14
	.loc	1 372 106 is_stmt 0             ; compress.c:372:106
	ldr	w16, [x0, #8]
	.loc	1 371 558 is_stmt 1             ; compress.c:371:558
	add	w12, w12, w15
Ltmp420:
	;DEBUG_VALUE: cost45 <- $w12
	.loc	1 372 103                       ; compress.c:372:103
	add	w12, w12, w16
Ltmp421:
	;DEBUG_VALUE: cost45 <- $w12
	.loc	1 372 134 is_stmt 0             ; compress.c:372:134
	ldrh	w15, [x11, #22]
	.loc	1 372 159                       ; compress.c:372:159
	add	x15, x10, x15, lsl #4
	ldp	w16, w17, [x15]
	.loc	1 372 221                       ; compress.c:372:221
	ldr	w15, [x15, #8]
	.loc	1 372 249                       ; compress.c:372:249
	ldrh	w0, [x11, #24]
	.loc	1 372 274                       ; compress.c:372:274
	add	x0, x10, x0, lsl #4
	ldp	w1, w2, [x0]
	.loc	1 372 156                       ; compress.c:372:156
	add	w13, w13, w16
Ltmp422:
	;DEBUG_VALUE: cost01 <- $w13
	.loc	1 372 271                       ; compress.c:372:271
	add	w13, w13, w1
Ltmp423:
	;DEBUG_VALUE: cost01 <- $w13
	.loc	1 372 187                       ; compress.c:372:187
	add	w14, w14, w17
Ltmp424:
	;DEBUG_VALUE: cost23 <- $w14
	.loc	1 372 302                       ; compress.c:372:302
	add	w14, w14, w2
Ltmp425:
	;DEBUG_VALUE: cost23 <- $w14
	.loc	1 372 336                       ; compress.c:372:336
	ldr	w16, [x0, #8]
	.loc	1 372 218                       ; compress.c:372:218
	add	w12, w12, w15
Ltmp426:
	;DEBUG_VALUE: cost45 <- $w12
	.loc	1 372 333                       ; compress.c:372:333
	add	w12, w12, w16
Ltmp427:
	;DEBUG_VALUE: cost45 <- $w12
	.loc	1 372 364                       ; compress.c:372:364
	ldrh	w15, [x11, #26]
	.loc	1 372 389                       ; compress.c:372:389
	add	x15, x10, x15, lsl #4
	ldp	w16, w17, [x15]
	.loc	1 372 451                       ; compress.c:372:451
	ldr	w15, [x15, #8]
	.loc	1 372 479                       ; compress.c:372:479
	ldrh	w0, [x11, #28]
	.loc	1 372 504                       ; compress.c:372:504
	add	x0, x10, x0, lsl #4
	ldp	w1, w2, [x0]
	.loc	1 372 386                       ; compress.c:372:386
	add	w13, w13, w16
Ltmp428:
	;DEBUG_VALUE: cost01 <- $w13
	.loc	1 372 501                       ; compress.c:372:501
	add	w13, w13, w1
Ltmp429:
	;DEBUG_VALUE: cost01 <- $w13
	.loc	1 372 417                       ; compress.c:372:417
	add	w14, w14, w17
Ltmp430:
	;DEBUG_VALUE: cost23 <- $w14
	.loc	1 372 532                       ; compress.c:372:532
	add	w14, w14, w2
Ltmp431:
	;DEBUG_VALUE: cost23 <- $w14
	.loc	1 372 566                       ; compress.c:372:566
	ldr	w16, [x0, #8]
	.loc	1 372 448                       ; compress.c:372:448
	add	w12, w12, w15
Ltmp432:
	;DEBUG_VALUE: cost45 <- $w12
	.loc	1 372 563                       ; compress.c:372:563
	add	w12, w12, w16
Ltmp433:
	;DEBUG_VALUE: cost45 <- $w12
	.loc	1 373 19 is_stmt 1              ; compress.c:373:19
	ldrh	w15, [x11, #30]
	.loc	1 373 44 is_stmt 0              ; compress.c:373:44
	add	x15, x10, x15, lsl #4
	ldp	w16, w17, [x15]
	.loc	1 373 106                       ; compress.c:373:106
	ldr	w15, [x15, #8]
	.loc	1 373 134                       ; compress.c:373:134
	ldrh	w0, [x11, #32]
	.loc	1 373 159                       ; compress.c:373:159
	add	x0, x10, x0, lsl #4
	ldp	w1, w2, [x0]
	.loc	1 373 41                        ; compress.c:373:41
	add	w13, w13, w16
Ltmp434:
	;DEBUG_VALUE: cost01 <- $w13
	.loc	1 373 156                       ; compress.c:373:156
	add	w13, w13, w1
Ltmp435:
	;DEBUG_VALUE: cost01 <- $w13
	.loc	1 373 72                        ; compress.c:373:72
	add	w14, w14, w17
Ltmp436:
	;DEBUG_VALUE: cost23 <- $w14
	.loc	1 373 187                       ; compress.c:373:187
	add	w14, w14, w2
Ltmp437:
	;DEBUG_VALUE: cost23 <- $w14
	.loc	1 373 221                       ; compress.c:373:221
	ldr	w16, [x0, #8]
	.loc	1 373 103                       ; compress.c:373:103
	add	w12, w12, w15
Ltmp438:
	;DEBUG_VALUE: cost45 <- $w12
	.loc	1 373 218                       ; compress.c:373:218
	add	w12, w12, w16
Ltmp439:
	;DEBUG_VALUE: cost45 <- $w12
	.loc	1 373 249                       ; compress.c:373:249
	ldrh	w15, [x11, #34]
	.loc	1 373 274                       ; compress.c:373:274
	add	x15, x10, x15, lsl #4
	ldp	w16, w17, [x15]
	.loc	1 373 336                       ; compress.c:373:336
	ldr	w15, [x15, #8]
	.loc	1 373 364                       ; compress.c:373:364
	ldrh	w0, [x11, #36]
	.loc	1 373 389                       ; compress.c:373:389
	add	x0, x10, x0, lsl #4
	ldp	w1, w2, [x0]
	.loc	1 373 271                       ; compress.c:373:271
	add	w13, w13, w16
Ltmp440:
	;DEBUG_VALUE: cost01 <- $w13
	.loc	1 373 386                       ; compress.c:373:386
	add	w13, w13, w1
Ltmp441:
	;DEBUG_VALUE: cost01 <- $w13
	.loc	1 373 302                       ; compress.c:373:302
	add	w14, w14, w17
Ltmp442:
	;DEBUG_VALUE: cost23 <- $w14
	.loc	1 373 417                       ; compress.c:373:417
	add	w14, w14, w2
Ltmp443:
	;DEBUG_VALUE: cost23 <- $w14
	.loc	1 373 451                       ; compress.c:373:451
	ldr	w16, [x0, #8]
	.loc	1 373 333                       ; compress.c:373:333
	add	w12, w12, w15
Ltmp444:
	;DEBUG_VALUE: cost45 <- $w12
	.loc	1 373 448                       ; compress.c:373:448
	add	w12, w12, w16
Ltmp445:
	;DEBUG_VALUE: cost45 <- $w12
	.loc	1 373 479                       ; compress.c:373:479
	ldrh	w15, [x11, #38]
	.loc	1 373 504                       ; compress.c:373:504
	add	x15, x10, x15, lsl #4
	ldp	w16, w17, [x15]
	.loc	1 373 566                       ; compress.c:373:566
	ldr	w15, [x15, #8]
	.loc	1 374 19 is_stmt 1              ; compress.c:374:19
	ldrh	w0, [x11, #40]
	.loc	1 374 44 is_stmt 0              ; compress.c:374:44
	add	x0, x10, x0, lsl #4
	ldp	w1, w2, [x0]
	.loc	1 373 501 is_stmt 1             ; compress.c:373:501
	add	w13, w13, w16
Ltmp446:
	;DEBUG_VALUE: cost01 <- $w13
	.loc	1 374 41                        ; compress.c:374:41
	add	w13, w13, w1
Ltmp447:
	;DEBUG_VALUE: cost01 <- $w13
	.loc	1 373 532                       ; compress.c:373:532
	add	w14, w14, w17
Ltmp448:
	;DEBUG_VALUE: cost23 <- $w14
	.loc	1 374 72                        ; compress.c:374:72
	add	w14, w14, w2
Ltmp449:
	;DEBUG_VALUE: cost23 <- $w14
	.loc	1 374 106 is_stmt 0             ; compress.c:374:106
	ldr	w16, [x0, #8]
	.loc	1 373 563 is_stmt 1             ; compress.c:373:563
	add	w12, w12, w15
Ltmp450:
	;DEBUG_VALUE: cost45 <- $w12
	.loc	1 374 103                       ; compress.c:374:103
	add	w12, w12, w16
Ltmp451:
	;DEBUG_VALUE: cost45 <- $w12
	.loc	1 374 134 is_stmt 0             ; compress.c:374:134
	ldrh	w15, [x11, #42]
	.loc	1 374 159                       ; compress.c:374:159
	add	x15, x10, x15, lsl #4
	ldp	w16, w17, [x15]
	.loc	1 374 221                       ; compress.c:374:221
	ldr	w15, [x15, #8]
	.loc	1 374 249                       ; compress.c:374:249
	ldrh	w0, [x11, #44]
	.loc	1 374 274                       ; compress.c:374:274
	add	x0, x10, x0, lsl #4
	ldp	w1, w2, [x0]
	.loc	1 374 156                       ; compress.c:374:156
	add	w13, w13, w16
Ltmp452:
	;DEBUG_VALUE: cost01 <- $w13
	.loc	1 374 271                       ; compress.c:374:271
	add	w13, w13, w1
Ltmp453:
	;DEBUG_VALUE: cost01 <- $w13
	.loc	1 374 187                       ; compress.c:374:187
	add	w14, w14, w17
Ltmp454:
	;DEBUG_VALUE: cost23 <- $w14
	.loc	1 374 302                       ; compress.c:374:302
	add	w14, w14, w2
Ltmp455:
	;DEBUG_VALUE: cost23 <- $w14
	.loc	1 374 336                       ; compress.c:374:336
	ldr	w16, [x0, #8]
	.loc	1 374 218                       ; compress.c:374:218
	add	w12, w12, w15
Ltmp456:
	;DEBUG_VALUE: cost45 <- $w12
	.loc	1 374 333                       ; compress.c:374:333
	add	w12, w12, w16
Ltmp457:
	;DEBUG_VALUE: cost45 <- $w12
	.loc	1 374 364                       ; compress.c:374:364
	ldrh	w15, [x11, #46]
	.loc	1 374 389                       ; compress.c:374:389
	add	x15, x10, x15, lsl #4
	ldp	w16, w17, [x15]
	.loc	1 374 451                       ; compress.c:374:451
	ldr	w15, [x15, #8]
	.loc	1 374 479                       ; compress.c:374:479
	ldrh	w0, [x11, #48]
	.loc	1 374 504                       ; compress.c:374:504
	add	x0, x10, x0, lsl #4
	ldp	w1, w2, [x0]
	.loc	1 374 386                       ; compress.c:374:386
	add	w13, w13, w16
Ltmp458:
	;DEBUG_VALUE: cost01 <- $w13
	.loc	1 374 501                       ; compress.c:374:501
	add	w13, w13, w1
Ltmp459:
	;DEBUG_VALUE: cost01 <- $w13
	.loc	1 374 417                       ; compress.c:374:417
	add	w14, w14, w17
Ltmp460:
	;DEBUG_VALUE: cost23 <- $w14
	.loc	1 374 532                       ; compress.c:374:532
	add	w14, w14, w2
Ltmp461:
	;DEBUG_VALUE: cost23 <- $w14
	.loc	1 374 566                       ; compress.c:374:566
	ldr	w16, [x0, #8]
	.loc	1 374 448                       ; compress.c:374:448
	add	w12, w12, w15
Ltmp462:
	;DEBUG_VALUE: cost45 <- $w12
	.loc	1 374 563                       ; compress.c:374:563
	add	w12, w12, w16
Ltmp463:
	;DEBUG_VALUE: cost45 <- $w12
	.loc	1 375 19 is_stmt 1              ; compress.c:375:19
	ldrh	w15, [x11, #50]
	.loc	1 375 44 is_stmt 0              ; compress.c:375:44
	add	x15, x10, x15, lsl #4
	ldp	w16, w17, [x15]
	.loc	1 375 106                       ; compress.c:375:106
	ldr	w15, [x15, #8]
	.loc	1 375 134                       ; compress.c:375:134
	ldrh	w0, [x11, #52]
	.loc	1 375 159                       ; compress.c:375:159
	add	x0, x10, x0, lsl #4
	ldp	w1, w2, [x0]
	.loc	1 375 41                        ; compress.c:375:41
	add	w13, w13, w16
Ltmp464:
	;DEBUG_VALUE: cost01 <- $w13
	.loc	1 375 156                       ; compress.c:375:156
	add	w13, w13, w1
Ltmp465:
	;DEBUG_VALUE: cost01 <- $w13
	.loc	1 375 72                        ; compress.c:375:72
	add	w14, w14, w17
Ltmp466:
	;DEBUG_VALUE: cost23 <- $w14
	.loc	1 375 187                       ; compress.c:375:187
	add	w14, w14, w2
Ltmp467:
	;DEBUG_VALUE: cost23 <- $w14
	.loc	1 375 221                       ; compress.c:375:221
	ldr	w16, [x0, #8]
	.loc	1 375 103                       ; compress.c:375:103
	add	w12, w12, w15
Ltmp468:
	;DEBUG_VALUE: cost45 <- $w12
	.loc	1 375 218                       ; compress.c:375:218
	add	w12, w12, w16
Ltmp469:
	;DEBUG_VALUE: cost45 <- $w12
	.loc	1 375 249                       ; compress.c:375:249
	ldrh	w15, [x11, #54]
	.loc	1 375 274                       ; compress.c:375:274
	add	x15, x10, x15, lsl #4
	ldp	w16, w17, [x15]
	.loc	1 375 336                       ; compress.c:375:336
	ldr	w15, [x15, #8]
	.loc	1 375 364                       ; compress.c:375:364
	ldrh	w0, [x11, #56]
	.loc	1 375 389                       ; compress.c:375:389
	add	x0, x10, x0, lsl #4
	ldp	w1, w2, [x0]
	.loc	1 375 271                       ; compress.c:375:271
	add	w13, w13, w16
Ltmp470:
	;DEBUG_VALUE: cost01 <- $w13
	.loc	1 375 386                       ; compress.c:375:386
	add	w13, w13, w1
Ltmp471:
	;DEBUG_VALUE: cost01 <- $w13
	.loc	1 375 302                       ; compress.c:375:302
	add	w14, w14, w17
Ltmp472:
	;DEBUG_VALUE: cost23 <- $w14
	.loc	1 375 417                       ; compress.c:375:417
	add	w14, w14, w2
Ltmp473:
	;DEBUG_VALUE: cost23 <- $w14
	.loc	1 375 451                       ; compress.c:375:451
	ldr	w16, [x0, #8]
	.loc	1 375 333                       ; compress.c:375:333
	add	w12, w12, w15
Ltmp474:
	;DEBUG_VALUE: cost45 <- $w12
	.loc	1 375 448                       ; compress.c:375:448
	add	w12, w12, w16
Ltmp475:
	;DEBUG_VALUE: cost45 <- $w12
	.loc	1 375 479                       ; compress.c:375:479
	ldrh	w15, [x11, #58]
	.loc	1 375 504                       ; compress.c:375:504
	add	x15, x10, x15, lsl #4
	ldp	w16, w17, [x15]
	.loc	1 375 566                       ; compress.c:375:566
	ldr	w15, [x15, #8]
	.loc	1 376 19 is_stmt 1              ; compress.c:376:19
	ldrh	w0, [x11, #60]
	.loc	1 376 44 is_stmt 0              ; compress.c:376:44
	add	x0, x10, x0, lsl #4
	ldp	w1, w2, [x0]
	.loc	1 375 501 is_stmt 1             ; compress.c:375:501
	add	w13, w13, w16
Ltmp476:
	;DEBUG_VALUE: cost01 <- $w13
	.loc	1 376 41                        ; compress.c:376:41
	add	w13, w13, w1
Ltmp477:
	;DEBUG_VALUE: cost01 <- $w13
	.loc	1 375 532                       ; compress.c:375:532
	add	w14, w14, w17
Ltmp478:
	;DEBUG_VALUE: cost23 <- $w14
	.loc	1 376 72                        ; compress.c:376:72
	add	w14, w14, w2
Ltmp479:
	;DEBUG_VALUE: cost23 <- $w14
	.loc	1 376 106 is_stmt 0             ; compress.c:376:106
	ldr	w16, [x0, #8]
	.loc	1 375 563 is_stmt 1             ; compress.c:375:563
	add	w12, w12, w15
Ltmp480:
	;DEBUG_VALUE: cost45 <- $w12
	.loc	1 376 103                       ; compress.c:376:103
	add	w12, w12, w16
Ltmp481:
	;DEBUG_VALUE: cost45 <- $w12
	.loc	1 376 134 is_stmt 0             ; compress.c:376:134
	ldrh	w15, [x11, #62]
	.loc	1 376 159                       ; compress.c:376:159
	add	x15, x10, x15, lsl #4
	ldp	w16, w17, [x15]
	.loc	1 376 221                       ; compress.c:376:221
	ldr	w15, [x15, #8]
	.loc	1 376 249                       ; compress.c:376:249
	ldrh	w0, [x11, #64]
	.loc	1 376 274                       ; compress.c:376:274
	add	x0, x10, x0, lsl #4
	ldp	w1, w2, [x0]
	.loc	1 376 156                       ; compress.c:376:156
	add	w13, w13, w16
Ltmp482:
	;DEBUG_VALUE: cost01 <- $w13
	.loc	1 376 271                       ; compress.c:376:271
	add	w13, w13, w1
Ltmp483:
	;DEBUG_VALUE: cost01 <- $w13
	.loc	1 376 187                       ; compress.c:376:187
	add	w14, w14, w17
Ltmp484:
	;DEBUG_VALUE: cost23 <- $w14
	.loc	1 376 302                       ; compress.c:376:302
	add	w14, w14, w2
Ltmp485:
	;DEBUG_VALUE: cost23 <- $w14
	.loc	1 376 336                       ; compress.c:376:336
	ldr	w16, [x0, #8]
	.loc	1 376 218                       ; compress.c:376:218
	add	w12, w12, w15
Ltmp486:
	;DEBUG_VALUE: cost45 <- $w12
	.loc	1 376 333                       ; compress.c:376:333
	add	w12, w12, w16
Ltmp487:
	;DEBUG_VALUE: cost45 <- $w12
	.loc	1 376 364                       ; compress.c:376:364
	ldrh	w15, [x11, #66]
	.loc	1 376 389                       ; compress.c:376:389
	add	x15, x10, x15, lsl #4
	ldp	w16, w17, [x15]
	.loc	1 376 451                       ; compress.c:376:451
	ldr	w15, [x15, #8]
	.loc	1 376 479                       ; compress.c:376:479
	ldrh	w0, [x11, #68]
	.loc	1 376 504                       ; compress.c:376:504
	add	x0, x10, x0, lsl #4
	ldp	w1, w2, [x0]
	.loc	1 376 386                       ; compress.c:376:386
	add	w13, w13, w16
Ltmp488:
	;DEBUG_VALUE: cost01 <- $w13
	.loc	1 376 501                       ; compress.c:376:501
	add	w13, w13, w1
Ltmp489:
	;DEBUG_VALUE: cost01 <- $w13
	.loc	1 376 417                       ; compress.c:376:417
	add	w14, w14, w17
Ltmp490:
	;DEBUG_VALUE: cost23 <- $w14
	.loc	1 376 532                       ; compress.c:376:532
	add	w14, w14, w2
Ltmp491:
	;DEBUG_VALUE: cost23 <- $w14
	.loc	1 376 566                       ; compress.c:376:566
	ldr	w16, [x0, #8]
	.loc	1 376 448                       ; compress.c:376:448
	add	w12, w12, w15
Ltmp492:
	;DEBUG_VALUE: cost45 <- $w12
	.loc	1 376 563                       ; compress.c:376:563
	add	w12, w12, w16
Ltmp493:
	;DEBUG_VALUE: cost45 <- $w12
	.loc	1 377 19 is_stmt 1              ; compress.c:377:19
	ldrh	w15, [x11, #70]
	.loc	1 377 44 is_stmt 0              ; compress.c:377:44
	add	x15, x10, x15, lsl #4
	ldp	w16, w17, [x15]
	.loc	1 377 106                       ; compress.c:377:106
	ldr	w15, [x15, #8]
	.loc	1 377 134                       ; compress.c:377:134
	ldrh	w0, [x11, #72]
	.loc	1 377 159                       ; compress.c:377:159
	add	x0, x10, x0, lsl #4
	ldp	w1, w2, [x0]
	.loc	1 377 41                        ; compress.c:377:41
	add	w13, w13, w16
Ltmp494:
	;DEBUG_VALUE: cost01 <- $w13
	.loc	1 377 156                       ; compress.c:377:156
	add	w13, w13, w1
Ltmp495:
	;DEBUG_VALUE: cost01 <- $w13
	.loc	1 377 72                        ; compress.c:377:72
	add	w14, w14, w17
Ltmp496:
	;DEBUG_VALUE: cost23 <- $w14
	.loc	1 377 187                       ; compress.c:377:187
	add	w14, w14, w2
Ltmp497:
	;DEBUG_VALUE: cost23 <- $w14
	.loc	1 377 221                       ; compress.c:377:221
	ldr	w16, [x0, #8]
	.loc	1 377 103                       ; compress.c:377:103
	add	w12, w12, w15
Ltmp498:
	;DEBUG_VALUE: cost45 <- $w12
	.loc	1 377 218                       ; compress.c:377:218
	add	w12, w12, w16
Ltmp499:
	;DEBUG_VALUE: cost45 <- $w12
	.loc	1 377 249                       ; compress.c:377:249
	ldrh	w15, [x11, #74]
	.loc	1 377 274                       ; compress.c:377:274
	add	x15, x10, x15, lsl #4
	ldp	w16, w17, [x15]
	.loc	1 377 336                       ; compress.c:377:336
	ldr	w15, [x15, #8]
	.loc	1 377 364                       ; compress.c:377:364
	ldrh	w0, [x11, #76]
	.loc	1 377 389                       ; compress.c:377:389
	add	x0, x10, x0, lsl #4
	ldp	w1, w2, [x0]
	.loc	1 377 271                       ; compress.c:377:271
	add	w13, w13, w16
Ltmp500:
	;DEBUG_VALUE: cost01 <- $w13
	.loc	1 377 386                       ; compress.c:377:386
	add	w13, w13, w1
Ltmp501:
	;DEBUG_VALUE: cost01 <- $w13
	.loc	1 377 302                       ; compress.c:377:302
	add	w14, w14, w17
Ltmp502:
	;DEBUG_VALUE: cost23 <- $w14
	.loc	1 377 417                       ; compress.c:377:417
	add	w14, w14, w2
Ltmp503:
	;DEBUG_VALUE: cost23 <- $w14
	.loc	1 377 451                       ; compress.c:377:451
	ldr	w16, [x0, #8]
	.loc	1 377 333                       ; compress.c:377:333
	add	w12, w12, w15
Ltmp504:
	;DEBUG_VALUE: cost45 <- $w12
	.loc	1 377 448                       ; compress.c:377:448
	add	w12, w12, w16
Ltmp505:
	;DEBUG_VALUE: cost45 <- $w12
	.loc	1 377 479                       ; compress.c:377:479
	ldrh	w15, [x11, #78]
	.loc	1 377 504                       ; compress.c:377:504
	add	x15, x10, x15, lsl #4
	ldp	w16, w17, [x15]
	.loc	1 377 566                       ; compress.c:377:566
	ldr	w15, [x15, #8]
	.loc	1 378 19 is_stmt 1              ; compress.c:378:19
	ldrh	w0, [x11, #80]
	.loc	1 378 44 is_stmt 0              ; compress.c:378:44
	add	x0, x10, x0, lsl #4
	ldp	w1, w2, [x0]
	.loc	1 377 501 is_stmt 1             ; compress.c:377:501
	add	w13, w13, w16
Ltmp506:
	;DEBUG_VALUE: cost01 <- $w13
	.loc	1 378 41                        ; compress.c:378:41
	add	w13, w13, w1
Ltmp507:
	;DEBUG_VALUE: cost01 <- $w13
	.loc	1 377 532                       ; compress.c:377:532
	add	w14, w14, w17
Ltmp508:
	;DEBUG_VALUE: cost23 <- $w14
	.loc	1 378 72                        ; compress.c:378:72
	add	w14, w14, w2
Ltmp509:
	;DEBUG_VALUE: cost23 <- $w14
	.loc	1 378 106 is_stmt 0             ; compress.c:378:106
	ldr	w16, [x0, #8]
	.loc	1 377 563 is_stmt 1             ; compress.c:377:563
	add	w12, w12, w15
Ltmp510:
	;DEBUG_VALUE: cost45 <- $w12
	.loc	1 378 103                       ; compress.c:378:103
	add	w12, w12, w16
Ltmp511:
	;DEBUG_VALUE: cost45 <- $w12
	.loc	1 378 134 is_stmt 0             ; compress.c:378:134
	ldrh	w15, [x11, #82]
	.loc	1 378 159                       ; compress.c:378:159
	add	x15, x10, x15, lsl #4
	ldp	w16, w17, [x15]
	.loc	1 378 221                       ; compress.c:378:221
	ldr	w15, [x15, #8]
	.loc	1 378 249                       ; compress.c:378:249
	ldrh	w0, [x11, #84]
	.loc	1 378 274                       ; compress.c:378:274
	add	x0, x10, x0, lsl #4
	ldp	w1, w2, [x0]
	.loc	1 378 156                       ; compress.c:378:156
	add	w13, w13, w16
Ltmp512:
	;DEBUG_VALUE: cost01 <- $w13
	.loc	1 378 271                       ; compress.c:378:271
	add	w13, w13, w1
Ltmp513:
	;DEBUG_VALUE: cost01 <- $w13
	.loc	1 378 187                       ; compress.c:378:187
	add	w14, w14, w17
Ltmp514:
	;DEBUG_VALUE: cost23 <- $w14
	.loc	1 378 302                       ; compress.c:378:302
	add	w14, w14, w2
Ltmp515:
	;DEBUG_VALUE: cost23 <- $w14
	.loc	1 378 336                       ; compress.c:378:336
	ldr	w16, [x0, #8]
	.loc	1 378 218                       ; compress.c:378:218
	add	w12, w12, w15
Ltmp516:
	;DEBUG_VALUE: cost45 <- $w12
	.loc	1 378 333                       ; compress.c:378:333
	add	w12, w12, w16
Ltmp517:
	;DEBUG_VALUE: cost45 <- $w12
	.loc	1 378 364                       ; compress.c:378:364
	ldrh	w15, [x11, #86]
	.loc	1 378 389                       ; compress.c:378:389
	add	x15, x10, x15, lsl #4
	ldp	w16, w17, [x15]
	.loc	1 378 451                       ; compress.c:378:451
	ldr	w15, [x15, #8]
	.loc	1 378 479                       ; compress.c:378:479
	ldrh	w0, [x11, #88]
	.loc	1 378 504                       ; compress.c:378:504
	add	x0, x10, x0, lsl #4
	ldp	w1, w2, [x0]
	.loc	1 378 386                       ; compress.c:378:386
	add	w13, w13, w16
Ltmp518:
	;DEBUG_VALUE: cost01 <- $w13
	.loc	1 378 501                       ; compress.c:378:501
	add	w13, w13, w1
Ltmp519:
	;DEBUG_VALUE: cost01 <- $w13
	.loc	1 378 417                       ; compress.c:378:417
	add	w14, w14, w17
Ltmp520:
	;DEBUG_VALUE: cost23 <- $w14
	.loc	1 378 532                       ; compress.c:378:532
	add	w14, w14, w2
Ltmp521:
	;DEBUG_VALUE: cost23 <- $w14
	.loc	1 378 566                       ; compress.c:378:566
	ldr	w16, [x0, #8]
	.loc	1 378 448                       ; compress.c:378:448
	add	w12, w12, w15
Ltmp522:
	;DEBUG_VALUE: cost45 <- $w12
	.loc	1 378 563                       ; compress.c:378:563
	add	w12, w12, w16
Ltmp523:
	;DEBUG_VALUE: cost45 <- $w12
	.loc	1 379 19 is_stmt 1              ; compress.c:379:19
	ldrh	w15, [x11, #90]
	.loc	1 379 44 is_stmt 0              ; compress.c:379:44
	add	x15, x10, x15, lsl #4
	ldp	w16, w17, [x15]
	.loc	1 379 106                       ; compress.c:379:106
	ldr	w15, [x15, #8]
	.loc	1 379 134                       ; compress.c:379:134
	ldrh	w0, [x11, #92]
	.loc	1 379 159                       ; compress.c:379:159
	add	x0, x10, x0, lsl #4
	ldp	w1, w2, [x0]
	.loc	1 379 41                        ; compress.c:379:41
	add	w13, w13, w16
Ltmp524:
	;DEBUG_VALUE: cost01 <- $w13
	.loc	1 379 156                       ; compress.c:379:156
	add	w13, w13, w1
Ltmp525:
	;DEBUG_VALUE: cost01 <- $w13
	.loc	1 379 72                        ; compress.c:379:72
	add	w14, w14, w17
Ltmp526:
	;DEBUG_VALUE: cost23 <- $w14
	.loc	1 379 187                       ; compress.c:379:187
	add	w14, w14, w2
Ltmp527:
	;DEBUG_VALUE: cost23 <- $w14
	.loc	1 379 221                       ; compress.c:379:221
	ldr	w16, [x0, #8]
	.loc	1 379 103                       ; compress.c:379:103
	add	w12, w12, w15
Ltmp528:
	;DEBUG_VALUE: cost45 <- $w12
	.loc	1 379 218                       ; compress.c:379:218
	add	w12, w12, w16
Ltmp529:
	;DEBUG_VALUE: cost45 <- $w12
	.loc	1 379 249                       ; compress.c:379:249
	ldrh	w15, [x11, #94]
	.loc	1 379 274                       ; compress.c:379:274
	add	x15, x10, x15, lsl #4
	ldp	w16, w17, [x15]
	.loc	1 379 364                       ; compress.c:379:364
	ldrh	w11, [x11, #96]
	.loc	1 379 389                       ; compress.c:379:389
	add	x11, x10, x11, lsl #4
	ldp	w0, w1, [x11]
	.loc	1 379 271                       ; compress.c:379:271
	add	w13, w13, w16
Ltmp530:
	;DEBUG_VALUE: cost01 <- $w13
	.loc	1 379 386                       ; compress.c:379:386
	add	w13, w13, w0
Ltmp531:
	;DEBUG_VALUE: cost01 <- $w13
	.loc	1 379 336                       ; compress.c:379:336
	ldr	w15, [x15, #8]
	.loc	1 379 302                       ; compress.c:379:302
	add	w14, w14, w17
Ltmp532:
	;DEBUG_VALUE: cost23 <- $w14
	.loc	1 379 417                       ; compress.c:379:417
	add	w14, w14, w1
Ltmp533:
	;DEBUG_VALUE: cost23 <- $w14
	.loc	1 379 451                       ; compress.c:379:451
	ldr	w11, [x11, #8]
	.loc	1 379 333                       ; compress.c:379:333
	add	w12, w12, w15
Ltmp534:
	;DEBUG_VALUE: cost45 <- $w12
	.loc	1 379 448                       ; compress.c:379:448
	add	w11, w12, w11
Ltmp535:
	;DEBUG_VALUE: cost45 <- $w11
	.loc	1 379 479                       ; compress.c:379:479
	ldrh	w12, [x4, x24, lsl  #1]
	.loc	1 379 504                       ; compress.c:379:504
	add	x10, x10, x12, lsl #4
	ldp	w12, w15, [x10]
	.loc	1 379 501                       ; compress.c:379:501
	add	w12, w13, w12
Ltmp536:
	;DEBUG_VALUE: cost01 <- $w12
	.loc	1 379 532                       ; compress.c:379:532
	add	w13, w14, w15
Ltmp537:
	;DEBUG_VALUE: cost23 <- $w13
	.loc	1 379 566                       ; compress.c:379:566
	ldr	w10, [x10, #8]
	.loc	1 379 563                       ; compress.c:379:563
	add	w10, w11, w10
Ltmp538:
	;DEBUG_VALUE: cost45 <- $w10
	.loc	1 383 21 is_stmt 1              ; compress.c:383:21
	sturh	w12, [x29, #-124]
	.loc	1 383 57 is_stmt 0              ; compress.c:383:57
	lsr	w11, w12, #16
	.loc	1 383 48                        ; compress.c:383:48
	sturh	w11, [x29, #-122]
	.loc	1 384 21 is_stmt 1              ; compress.c:384:21
	sturh	w13, [x29, #-120]
	.loc	1 384 57 is_stmt 0              ; compress.c:384:57
	lsr	w11, w13, #16
	.loc	1 384 48                        ; compress.c:384:48
	sturh	w11, [x29, #-118]
	.loc	1 385 21 is_stmt 1              ; compress.c:385:21
	sturh	w10, [x29, #-116]
	.loc	1 385 57 is_stmt 0              ; compress.c:385:57
	lsr	w10, w10, #16
Ltmp539:
	.loc	1 385 48                        ; compress.c:385:48
	sturh	w10, [x29, #-114]
	ldur	x5, [x29, #-176]                ; 8-byte Folded Reload
	b	LBB3_63
Ltmp540:
LBB3_53:                                ; %.preheader1972
                                        ;   in Loop: Header=BB3_51 Depth=2
	;DEBUG_VALUE: sendMTFValues:ge <- $w8
	;DEBUG_VALUE: sendMTFValues:totc <- $w25
	;DEBUG_VALUE: sendMTFValues:nSelectors <- [DW_OP_constu 176, DW_OP_minus] [$fp+0]
	;DEBUG_VALUE: sendMTFValues:gs <- $w22
	;DEBUG_VALUE: sendMTFValues:iter <- [DW_OP_plus_uconst 224] [$sp+0]
	;DEBUG_VALUE: sendMTFValues:nGroups <- $w26
	;DEBUG_VALUE: sendMTFValues:mtfv <- [DW_OP_constu 192, DW_OP_minus] [$fp+0]
	;DEBUG_VALUE: sendMTFValues:alphaSize <- [DW_OP_plus_uconst 220] [$sp+0]
	;DEBUG_VALUE: sendMTFValues:s <- $x19
	;DEBUG_VALUE: sendMTFValues:i <- undef
	.loc	1 389 13 is_stmt 1              ; compress.c:389:13
	cmp	w8, w28
	ldur	x4, [x29, #-192]                ; 8-byte Folded Reload
	ldur	x5, [x29, #-176]                ; 8-byte Folded Reload
	mov	w6, #37708
	mov	w7, #38224
	mov	w21, #38482
	b.lt	LBB3_63
Ltmp541:
; %bb.54:                               ; %.lr.ph2133.preheader
                                        ;   in Loop: Header=BB3_51 Depth=2
	;DEBUG_VALUE: sendMTFValues:ge <- $w8
	;DEBUG_VALUE: sendMTFValues:totc <- $w25
	;DEBUG_VALUE: sendMTFValues:nSelectors <- [DW_OP_constu 176, DW_OP_minus] [$fp+0]
	;DEBUG_VALUE: sendMTFValues:gs <- $w22
	;DEBUG_VALUE: sendMTFValues:iter <- [DW_OP_plus_uconst 224] [$sp+0]
	;DEBUG_VALUE: sendMTFValues:nGroups <- $w26
	;DEBUG_VALUE: sendMTFValues:mtfv <- [DW_OP_constu 192, DW_OP_minus] [$fp+0]
	;DEBUG_VALUE: sendMTFValues:alphaSize <- [DW_OP_plus_uconst 220] [$sp+0]
	;DEBUG_VALUE: sendMTFValues:s <- $x19
	.loc	1 0 13 is_stmt 0                ; compress.c:0:13
	ldurh	w10, [x29, #-124]
	ldurh	w11, [x29, #-122]
	ldurh	w12, [x29, #-120]
	ldurh	w13, [x29, #-118]
	ldurh	w14, [x29, #-116]
	.loc	1 389 13                        ; compress.c:389:13
	add	x16, x4, x28, lsl #1
	sub	w15, w8, w28
	add	w17, w15, #1
	ldurh	w15, [x29, #-114]
	b	LBB3_56
Ltmp542:
LBB3_55:                                ;   in Loop: Header=BB3_56 Depth=3
	;DEBUG_VALUE: sendMTFValues:ge <- $w8
	;DEBUG_VALUE: sendMTFValues:totc <- $w25
	;DEBUG_VALUE: sendMTFValues:nSelectors <- [DW_OP_constu 176, DW_OP_minus] [$fp+0]
	;DEBUG_VALUE: sendMTFValues:gs <- $w22
	;DEBUG_VALUE: sendMTFValues:iter <- [DW_OP_plus_uconst 224] [$sp+0]
	;DEBUG_VALUE: sendMTFValues:nGroups <- $w26
	;DEBUG_VALUE: sendMTFValues:mtfv <- [DW_OP_constu 192, DW_OP_minus] [$fp+0]
	;DEBUG_VALUE: sendMTFValues:alphaSize <- [DW_OP_plus_uconst 220] [$sp+0]
	;DEBUG_VALUE: sendMTFValues:s <- $x19
	.loc	1 0 0                           ; compress.c:0:0
	add	x0, x0, x6
	ldrb	w1, [x0]
	add	w10, w10, w1
	ldrb	w0, [x0, #258]
	add	w11, w11, w0
Ltmp543:
	;DEBUG_VALUE: sendMTFValues:i <- [DW_OP_LLVM_arg 0, DW_OP_consts 2, DW_OP_LLVM_arg 0, DW_OP_LLVM_convert 64 5, DW_OP_mul, DW_OP_LLVM_arg 0, DW_OP_plus, DW_OP_minus, DW_OP_consts 2, DW_OP_div, DW_OP_consts 1, DW_OP_LLVM_arg 0, DW_OP_LLVM_convert 64 5, DW_OP_plus, DW_OP_plus, DW_OP_stack_value] undef
	.loc	1 389 28                        ; compress.c:389:28
	add	x16, x16, #2
	subs	w17, w17, #1
Ltmp544:
	.loc	1 389 13                        ; compress.c:389:13
	b.eq	LBB3_62
Ltmp545:
LBB3_56:                                ; %.lr.ph2133
                                        ;   Parent Loop BB3_27 Depth=1
                                        ;     Parent Loop BB3_51 Depth=2
                                        ; =>    This Inner Loop Header: Depth=3
	;DEBUG_VALUE: sendMTFValues:ge <- $w8
	;DEBUG_VALUE: sendMTFValues:totc <- $w25
	;DEBUG_VALUE: sendMTFValues:nSelectors <- [DW_OP_constu 176, DW_OP_minus] [$fp+0]
	;DEBUG_VALUE: sendMTFValues:gs <- $w22
	;DEBUG_VALUE: sendMTFValues:iter <- [DW_OP_plus_uconst 224] [$sp+0]
	;DEBUG_VALUE: sendMTFValues:nGroups <- $w26
	;DEBUG_VALUE: sendMTFValues:mtfv <- [DW_OP_constu 192, DW_OP_minus] [$fp+0]
	;DEBUG_VALUE: sendMTFValues:alphaSize <- [DW_OP_plus_uconst 220] [$sp+0]
	;DEBUG_VALUE: sendMTFValues:s <- $x19
	;DEBUG_VALUE: sendMTFValues:i <- [DW_OP_LLVM_arg 0, DW_OP_consts 2, DW_OP_LLVM_arg 0, DW_OP_LLVM_convert 64 5, DW_OP_mul, DW_OP_LLVM_arg 0, DW_OP_plus, DW_OP_minus, DW_OP_consts 2, DW_OP_div, DW_OP_LLVM_arg 0, DW_OP_LLVM_convert 64 5, DW_OP_plus, DW_OP_stack_value] undef
	.loc	1 390 29 is_stmt 1              ; compress.c:390:29
	ldrh	w1, [x16]
Ltmp546:
	;DEBUG_VALUE: icv <- undef
	;DEBUG_VALUE: sendMTFValues:t <- 0
	.loc	1 391 57                        ; compress.c:391:57
	add	x0, x19, x1
Ltmp547:
	;DEBUG_VALUE: sendMTFValues:t <- 2
	.loc	1 391 16 is_stmt 0              ; compress.c:391:16
	cmp	w26, #2
	b.eq	LBB3_55
Ltmp548:
; %bb.57:                               ;   in Loop: Header=BB3_56 Depth=3
	;DEBUG_VALUE: sendMTFValues:t <- 2
	;DEBUG_VALUE: sendMTFValues:ge <- $w8
	;DEBUG_VALUE: sendMTFValues:totc <- $w25
	;DEBUG_VALUE: sendMTFValues:nSelectors <- [DW_OP_constu 176, DW_OP_minus] [$fp+0]
	;DEBUG_VALUE: sendMTFValues:gs <- $w22
	;DEBUG_VALUE: sendMTFValues:iter <- [DW_OP_plus_uconst 224] [$sp+0]
	;DEBUG_VALUE: sendMTFValues:nGroups <- $w26
	;DEBUG_VALUE: sendMTFValues:mtfv <- [DW_OP_constu 192, DW_OP_minus] [$fp+0]
	;DEBUG_VALUE: sendMTFValues:alphaSize <- [DW_OP_plus_uconst 220] [$sp+0]
	;DEBUG_VALUE: sendMTFValues:s <- $x19
	;DEBUG_VALUE: sendMTFValues:t <- 2
	.loc	1 391 57                        ; compress.c:391:57
	ldrb	w2, [x0, x7]
	.loc	1 391 54                        ; compress.c:391:54
	add	w12, w12, w2
Ltmp549:
	;DEBUG_VALUE: sendMTFValues:t <- 3
	.loc	1 391 16                        ; compress.c:391:16
	cmp	w26, #3
	b.eq	LBB3_55
Ltmp550:
; %bb.58:                               ;   in Loop: Header=BB3_56 Depth=3
	;DEBUG_VALUE: sendMTFValues:t <- 3
	;DEBUG_VALUE: sendMTFValues:ge <- $w8
	;DEBUG_VALUE: sendMTFValues:totc <- $w25
	;DEBUG_VALUE: sendMTFValues:nSelectors <- [DW_OP_constu 176, DW_OP_minus] [$fp+0]
	;DEBUG_VALUE: sendMTFValues:gs <- $w22
	;DEBUG_VALUE: sendMTFValues:iter <- [DW_OP_plus_uconst 224] [$sp+0]
	;DEBUG_VALUE: sendMTFValues:nGroups <- $w26
	;DEBUG_VALUE: sendMTFValues:mtfv <- [DW_OP_constu 192, DW_OP_minus] [$fp+0]
	;DEBUG_VALUE: sendMTFValues:alphaSize <- [DW_OP_plus_uconst 220] [$sp+0]
	;DEBUG_VALUE: sendMTFValues:s <- $x19
	;DEBUG_VALUE: sendMTFValues:t <- 3
	.loc	1 391 57                        ; compress.c:391:57
	add	x2, x19, x1
	ldrb	w3, [x2, x21]
	.loc	1 391 54                        ; compress.c:391:54
	add	w13, w13, w3
Ltmp551:
	;DEBUG_VALUE: sendMTFValues:t <- 4
	.loc	1 391 16                        ; compress.c:391:16
	cmp	w26, #4
	b.eq	LBB3_55
Ltmp552:
; %bb.59:                               ;   in Loop: Header=BB3_56 Depth=3
	;DEBUG_VALUE: sendMTFValues:t <- 4
	;DEBUG_VALUE: sendMTFValues:ge <- $w8
	;DEBUG_VALUE: sendMTFValues:totc <- $w25
	;DEBUG_VALUE: sendMTFValues:nSelectors <- [DW_OP_constu 176, DW_OP_minus] [$fp+0]
	;DEBUG_VALUE: sendMTFValues:gs <- $w22
	;DEBUG_VALUE: sendMTFValues:iter <- [DW_OP_plus_uconst 224] [$sp+0]
	;DEBUG_VALUE: sendMTFValues:nGroups <- $w26
	;DEBUG_VALUE: sendMTFValues:mtfv <- [DW_OP_constu 192, DW_OP_minus] [$fp+0]
	;DEBUG_VALUE: sendMTFValues:alphaSize <- [DW_OP_plus_uconst 220] [$sp+0]
	;DEBUG_VALUE: sendMTFValues:s <- $x19
	;DEBUG_VALUE: sendMTFValues:t <- 4
	.loc	1 391 57                        ; compress.c:391:57
	mov	w3, #38740
	ldrb	w2, [x2, x3]
	.loc	1 391 54                        ; compress.c:391:54
	add	w14, w14, w2
Ltmp553:
	;DEBUG_VALUE: sendMTFValues:t <- 5
	.loc	1 391 16                        ; compress.c:391:16
	cmp	w26, #5
	b.eq	LBB3_55
Ltmp554:
; %bb.60:                               ;   in Loop: Header=BB3_56 Depth=3
	;DEBUG_VALUE: sendMTFValues:t <- 5
	;DEBUG_VALUE: sendMTFValues:ge <- $w8
	;DEBUG_VALUE: sendMTFValues:totc <- $w25
	;DEBUG_VALUE: sendMTFValues:nSelectors <- [DW_OP_constu 176, DW_OP_minus] [$fp+0]
	;DEBUG_VALUE: sendMTFValues:gs <- $w22
	;DEBUG_VALUE: sendMTFValues:iter <- [DW_OP_plus_uconst 224] [$sp+0]
	;DEBUG_VALUE: sendMTFValues:nGroups <- $w26
	;DEBUG_VALUE: sendMTFValues:mtfv <- [DW_OP_constu 192, DW_OP_minus] [$fp+0]
	;DEBUG_VALUE: sendMTFValues:alphaSize <- [DW_OP_plus_uconst 220] [$sp+0]
	;DEBUG_VALUE: sendMTFValues:s <- $x19
	;DEBUG_VALUE: sendMTFValues:t <- 5
	.loc	1 391 57                        ; compress.c:391:57
	add	x1, x19, x1
	mov	w2, #38998
	ldrb	w2, [x1, x2]
	.loc	1 391 54                        ; compress.c:391:54
	add	w15, w15, w2
Ltmp555:
	;DEBUG_VALUE: sendMTFValues:t <- 6
	.loc	1 391 16                        ; compress.c:391:16
	cmp	w26, #6
	b.eq	LBB3_55
Ltmp556:
; %bb.61:                               ;   in Loop: Header=BB3_56 Depth=3
	;DEBUG_VALUE: sendMTFValues:t <- 6
	;DEBUG_VALUE: sendMTFValues:ge <- $w8
	;DEBUG_VALUE: sendMTFValues:totc <- $w25
	;DEBUG_VALUE: sendMTFValues:nSelectors <- [DW_OP_constu 176, DW_OP_minus] [$fp+0]
	;DEBUG_VALUE: sendMTFValues:gs <- $w22
	;DEBUG_VALUE: sendMTFValues:iter <- [DW_OP_plus_uconst 224] [$sp+0]
	;DEBUG_VALUE: sendMTFValues:nGroups <- $w26
	;DEBUG_VALUE: sendMTFValues:mtfv <- [DW_OP_constu 192, DW_OP_minus] [$fp+0]
	;DEBUG_VALUE: sendMTFValues:alphaSize <- [DW_OP_plus_uconst 220] [$sp+0]
	;DEBUG_VALUE: sendMTFValues:s <- $x19
	;DEBUG_VALUE: sendMTFValues:t <- 6
	.loc	1 391 57                        ; compress.c:391:57
	mov	w2, #39256
	ldrb	w1, [x1, x2]
	.loc	1 391 54                        ; compress.c:391:54
	ldurh	w2, [x29, #-112]
	add	w1, w2, w1
	sturh	w1, [x29, #-112]
Ltmp557:
	;DEBUG_VALUE: sendMTFValues:t <- 7
	.loc	1 0 54                          ; compress.c:0:54
	b	LBB3_55
Ltmp558:
LBB3_62:                                ; %.loopexit1973.preheader.loopexit
                                        ;   in Loop: Header=BB3_51 Depth=2
	;DEBUG_VALUE: sendMTFValues:ge <- $w8
	;DEBUG_VALUE: sendMTFValues:totc <- $w25
	;DEBUG_VALUE: sendMTFValues:nSelectors <- [DW_OP_constu 176, DW_OP_minus] [$fp+0]
	;DEBUG_VALUE: sendMTFValues:gs <- $w22
	;DEBUG_VALUE: sendMTFValues:iter <- [DW_OP_plus_uconst 224] [$sp+0]
	;DEBUG_VALUE: sendMTFValues:nGroups <- $w26
	;DEBUG_VALUE: sendMTFValues:mtfv <- [DW_OP_constu 192, DW_OP_minus] [$fp+0]
	;DEBUG_VALUE: sendMTFValues:alphaSize <- [DW_OP_plus_uconst 220] [$sp+0]
	;DEBUG_VALUE: sendMTFValues:s <- $x19
	.loc	1 391 54                        ; compress.c:391:54
	sturh	w10, [x29, #-124]
	sturh	w11, [x29, #-122]
	sturh	w12, [x29, #-120]
	sturh	w13, [x29, #-118]
	sturh	w14, [x29, #-116]
	sturh	w15, [x29, #-114]
Ltmp559:
LBB3_63:                                ; %.loopexit1973
                                        ;   in Loop: Header=BB3_51 Depth=2
	;DEBUG_VALUE: sendMTFValues:ge <- $w8
	;DEBUG_VALUE: sendMTFValues:totc <- $w25
	;DEBUG_VALUE: sendMTFValues:nSelectors <- [DW_OP_constu 176, DW_OP_minus] [$fp+0]
	;DEBUG_VALUE: sendMTFValues:gs <- $w22
	;DEBUG_VALUE: sendMTFValues:iter <- [DW_OP_plus_uconst 224] [$sp+0]
	;DEBUG_VALUE: sendMTFValues:nGroups <- $w26
	;DEBUG_VALUE: sendMTFValues:mtfv <- [DW_OP_constu 192, DW_OP_minus] [$fp+0]
	;DEBUG_VALUE: sendMTFValues:alphaSize <- [DW_OP_plus_uconst 220] [$sp+0]
	;DEBUG_VALUE: sendMTFValues:s <- $x19
	;DEBUG_VALUE: sendMTFValues:t <- 0
	;DEBUG_VALUE: sendMTFValues:bt <- -1
	;DEBUG_VALUE: sendMTFValues:bc <- 999999999
	.loc	1 401 17 is_stmt 1              ; compress.c:401:17
	ldurh	w10, [x29, #-124]
Ltmp560:
	;DEBUG_VALUE: sendMTFValues:bc <- $w10
	;DEBUG_VALUE: sendMTFValues:bt <- 0
	;DEBUG_VALUE: sendMTFValues:t <- 1
	ldurh	w11, [x29, #-122]
	.loc	1 401 25 is_stmt 0              ; compress.c:401:25
	cmp	w10, w11
Ltmp561:
	.loc	1 401 17                        ; compress.c:401:17
	csel	w10, w10, w11, lt
Ltmp562:
	;DEBUG_VALUE: sendMTFValues:bc <- $w10
	;DEBUG_VALUE: sendMTFValues:t <- 2
	.loc	1 401 25                        ; compress.c:401:25
	cset	w11, hi
Ltmp563:
	;DEBUG_VALUE: sendMTFValues:bt <- $w11
	.loc	1 400 10 is_stmt 1              ; compress.c:400:10
	cmp	w26, #2
	b.eq	LBB3_69
Ltmp564:
; %bb.64:                               ; %.loopexit1973.2
                                        ;   in Loop: Header=BB3_51 Depth=2
	;DEBUG_VALUE: sendMTFValues:bt <- $w11
	;DEBUG_VALUE: sendMTFValues:bc <- $w10
	;DEBUG_VALUE: sendMTFValues:t <- 2
	;DEBUG_VALUE: sendMTFValues:ge <- $w8
	;DEBUG_VALUE: sendMTFValues:totc <- $w25
	;DEBUG_VALUE: sendMTFValues:nSelectors <- [DW_OP_constu 176, DW_OP_minus] [$fp+0]
	;DEBUG_VALUE: sendMTFValues:gs <- $w22
	;DEBUG_VALUE: sendMTFValues:iter <- [DW_OP_plus_uconst 224] [$sp+0]
	;DEBUG_VALUE: sendMTFValues:nGroups <- $w26
	;DEBUG_VALUE: sendMTFValues:mtfv <- [DW_OP_constu 192, DW_OP_minus] [$fp+0]
	;DEBUG_VALUE: sendMTFValues:alphaSize <- [DW_OP_plus_uconst 220] [$sp+0]
	;DEBUG_VALUE: sendMTFValues:s <- $x19
	;DEBUG_VALUE: sendMTFValues:t <- 2
	;DEBUG_VALUE: sendMTFValues:bt <- $w11
	;DEBUG_VALUE: sendMTFValues:bc <- $w10
	.loc	1 401 17                        ; compress.c:401:17
	ldurh	w12, [x29, #-120]
Ltmp565:
	.loc	1 401 17 is_stmt 0              ; compress.c:401:17
	cmp	w10, w12
	csel	w10, w10, w12, lt
Ltmp566:
	mov	w12, #2
	csel	w11, w12, w11, hi
Ltmp567:
	;DEBUG_VALUE: sendMTFValues:bc <- $w10
	;DEBUG_VALUE: sendMTFValues:bt <- $w11
	;DEBUG_VALUE: sendMTFValues:t <- 3
	.loc	1 400 10 is_stmt 1              ; compress.c:400:10
	cmp	w26, #3
	b.eq	LBB3_69
Ltmp568:
; %bb.65:                               ; %.loopexit1973.3
                                        ;   in Loop: Header=BB3_51 Depth=2
	;DEBUG_VALUE: sendMTFValues:bt <- $w11
	;DEBUG_VALUE: sendMTFValues:bc <- $w10
	;DEBUG_VALUE: sendMTFValues:t <- 3
	;DEBUG_VALUE: sendMTFValues:ge <- $w8
	;DEBUG_VALUE: sendMTFValues:totc <- $w25
	;DEBUG_VALUE: sendMTFValues:nSelectors <- [DW_OP_constu 176, DW_OP_minus] [$fp+0]
	;DEBUG_VALUE: sendMTFValues:gs <- $w22
	;DEBUG_VALUE: sendMTFValues:iter <- [DW_OP_plus_uconst 224] [$sp+0]
	;DEBUG_VALUE: sendMTFValues:nGroups <- $w26
	;DEBUG_VALUE: sendMTFValues:mtfv <- [DW_OP_constu 192, DW_OP_minus] [$fp+0]
	;DEBUG_VALUE: sendMTFValues:alphaSize <- [DW_OP_plus_uconst 220] [$sp+0]
	;DEBUG_VALUE: sendMTFValues:s <- $x19
	;DEBUG_VALUE: sendMTFValues:t <- 3
	;DEBUG_VALUE: sendMTFValues:bt <- $w11
	;DEBUG_VALUE: sendMTFValues:bc <- $w10
	.loc	1 401 17                        ; compress.c:401:17
	ldurh	w12, [x29, #-118]
Ltmp569:
	.loc	1 401 17 is_stmt 0              ; compress.c:401:17
	cmp	w10, w12
	csel	w10, w10, w12, lt
Ltmp570:
	mov	w12, #3
	csel	w11, w12, w11, hi
Ltmp571:
	;DEBUG_VALUE: sendMTFValues:bc <- $w10
	;DEBUG_VALUE: sendMTFValues:bt <- $w11
	;DEBUG_VALUE: sendMTFValues:t <- 4
	.loc	1 400 10 is_stmt 1              ; compress.c:400:10
	cmp	w26, #4
	b.eq	LBB3_69
Ltmp572:
; %bb.66:                               ; %.loopexit1973.4
                                        ;   in Loop: Header=BB3_51 Depth=2
	;DEBUG_VALUE: sendMTFValues:bt <- $w11
	;DEBUG_VALUE: sendMTFValues:bc <- $w10
	;DEBUG_VALUE: sendMTFValues:t <- 4
	;DEBUG_VALUE: sendMTFValues:ge <- $w8
	;DEBUG_VALUE: sendMTFValues:totc <- $w25
	;DEBUG_VALUE: sendMTFValues:nSelectors <- [DW_OP_constu 176, DW_OP_minus] [$fp+0]
	;DEBUG_VALUE: sendMTFValues:gs <- $w22
	;DEBUG_VALUE: sendMTFValues:iter <- [DW_OP_plus_uconst 224] [$sp+0]
	;DEBUG_VALUE: sendMTFValues:nGroups <- $w26
	;DEBUG_VALUE: sendMTFValues:mtfv <- [DW_OP_constu 192, DW_OP_minus] [$fp+0]
	;DEBUG_VALUE: sendMTFValues:alphaSize <- [DW_OP_plus_uconst 220] [$sp+0]
	;DEBUG_VALUE: sendMTFValues:s <- $x19
	;DEBUG_VALUE: sendMTFValues:t <- 4
	;DEBUG_VALUE: sendMTFValues:bt <- $w11
	;DEBUG_VALUE: sendMTFValues:bc <- $w10
	.loc	1 401 17                        ; compress.c:401:17
	ldurh	w12, [x29, #-116]
Ltmp573:
	.loc	1 401 17 is_stmt 0              ; compress.c:401:17
	cmp	w10, w12
	csel	w10, w10, w12, lt
Ltmp574:
	mov	w12, #4
	csel	w11, w12, w11, hi
Ltmp575:
	;DEBUG_VALUE: sendMTFValues:bc <- $w10
	;DEBUG_VALUE: sendMTFValues:bt <- $w11
	;DEBUG_VALUE: sendMTFValues:t <- 5
	.loc	1 400 10 is_stmt 1              ; compress.c:400:10
	cmp	w26, #5
	b.eq	LBB3_69
Ltmp576:
; %bb.67:                               ; %.loopexit1973.5
                                        ;   in Loop: Header=BB3_51 Depth=2
	;DEBUG_VALUE: sendMTFValues:bt <- $w11
	;DEBUG_VALUE: sendMTFValues:bc <- $w10
	;DEBUG_VALUE: sendMTFValues:t <- 5
	;DEBUG_VALUE: sendMTFValues:ge <- $w8
	;DEBUG_VALUE: sendMTFValues:totc <- $w25
	;DEBUG_VALUE: sendMTFValues:nSelectors <- [DW_OP_constu 176, DW_OP_minus] [$fp+0]
	;DEBUG_VALUE: sendMTFValues:gs <- $w22
	;DEBUG_VALUE: sendMTFValues:iter <- [DW_OP_plus_uconst 224] [$sp+0]
	;DEBUG_VALUE: sendMTFValues:nGroups <- $w26
	;DEBUG_VALUE: sendMTFValues:mtfv <- [DW_OP_constu 192, DW_OP_minus] [$fp+0]
	;DEBUG_VALUE: sendMTFValues:alphaSize <- [DW_OP_plus_uconst 220] [$sp+0]
	;DEBUG_VALUE: sendMTFValues:s <- $x19
	;DEBUG_VALUE: sendMTFValues:t <- 5
	;DEBUG_VALUE: sendMTFValues:bt <- $w11
	;DEBUG_VALUE: sendMTFValues:bc <- $w10
	.loc	1 401 17                        ; compress.c:401:17
	ldurh	w12, [x29, #-114]
Ltmp577:
	.loc	1 401 17 is_stmt 0              ; compress.c:401:17
	cmp	w10, w12
	csel	w10, w10, w12, lt
Ltmp578:
	mov	w12, #5
	csel	w11, w12, w11, hi
Ltmp579:
	;DEBUG_VALUE: sendMTFValues:bc <- $w10
	;DEBUG_VALUE: sendMTFValues:bt <- $w11
	;DEBUG_VALUE: sendMTFValues:t <- 6
	.loc	1 400 10 is_stmt 1              ; compress.c:400:10
	cmp	w26, #6
	b.eq	LBB3_69
Ltmp580:
; %bb.68:                               ; %.loopexit1973.6
                                        ;   in Loop: Header=BB3_51 Depth=2
	;DEBUG_VALUE: sendMTFValues:bt <- $w11
	;DEBUG_VALUE: sendMTFValues:bc <- $w10
	;DEBUG_VALUE: sendMTFValues:t <- 6
	;DEBUG_VALUE: sendMTFValues:ge <- $w8
	;DEBUG_VALUE: sendMTFValues:totc <- $w25
	;DEBUG_VALUE: sendMTFValues:nSelectors <- [DW_OP_constu 176, DW_OP_minus] [$fp+0]
	;DEBUG_VALUE: sendMTFValues:gs <- $w22
	;DEBUG_VALUE: sendMTFValues:iter <- [DW_OP_plus_uconst 224] [$sp+0]
	;DEBUG_VALUE: sendMTFValues:nGroups <- $w26
	;DEBUG_VALUE: sendMTFValues:mtfv <- [DW_OP_constu 192, DW_OP_minus] [$fp+0]
	;DEBUG_VALUE: sendMTFValues:alphaSize <- [DW_OP_plus_uconst 220] [$sp+0]
	;DEBUG_VALUE: sendMTFValues:s <- $x19
	;DEBUG_VALUE: sendMTFValues:t <- 6
	;DEBUG_VALUE: sendMTFValues:bt <- $w11
	;DEBUG_VALUE: sendMTFValues:bc <- $w10
	.loc	1 401 17                        ; compress.c:401:17
	ldurh	w12, [x29, #-112]
Ltmp581:
	.loc	1 401 17 is_stmt 0              ; compress.c:401:17
	cmp	w10, w12
	csel	w10, w10, w12, lt
Ltmp582:
	mov	w12, #6
	csel	w11, w12, w11, hi
Ltmp583:
	;DEBUG_VALUE: sendMTFValues:bc <- undef
	;DEBUG_VALUE: sendMTFValues:bt <- $w11
	;DEBUG_VALUE: sendMTFValues:t <- 7
LBB3_69:                                ;   in Loop: Header=BB3_51 Depth=2
	;DEBUG_VALUE: sendMTFValues:bt <- $w11
	;DEBUG_VALUE: sendMTFValues:ge <- $w8
	;DEBUG_VALUE: sendMTFValues:totc <- $w25
	;DEBUG_VALUE: sendMTFValues:nSelectors <- [DW_OP_constu 176, DW_OP_minus] [$fp+0]
	;DEBUG_VALUE: sendMTFValues:gs <- $w22
	;DEBUG_VALUE: sendMTFValues:iter <- [DW_OP_plus_uconst 224] [$sp+0]
	;DEBUG_VALUE: sendMTFValues:nGroups <- $w26
	;DEBUG_VALUE: sendMTFValues:mtfv <- [DW_OP_constu 192, DW_OP_minus] [$fp+0]
	;DEBUG_VALUE: sendMTFValues:alphaSize <- [DW_OP_plus_uconst 220] [$sp+0]
	;DEBUG_VALUE: sendMTFValues:s <- $x19
	;DEBUG_VALUE: sendMTFValues:totc <- undef
	.loc	1 403 10 is_stmt 1              ; compress.c:403:10
	ubfiz	x13, x11, #2, #32
	sub	x15, x29, #148
	.loc	1 403 18 is_stmt 0              ; compress.c:403:18
	ldr	w14, [x15, x13]
	.loc	1 403 10                        ; compress.c:403:10
	mov	w12, w11
	.loc	1 403 18                        ; compress.c:403:18
	add	w14, w14, #1
	str	w14, [x15, x13]
	.loc	1 404 10 is_stmt 1              ; compress.c:404:10
	add	x13, x19, x5
	.loc	1 404 34 is_stmt 0              ; compress.c:404:34
	strb	w11, [x13, #1704]
Ltmp584:
	;DEBUG_VALUE: sendMTFValues:nSelectors <- undef
	.loc	1 410 27 is_stmt 1              ; compress.c:410:27
	tbnz	w9, #0, LBB3_49
Ltmp585:
; %bb.70:                               ; %.preheader1970
                                        ;   in Loop: Header=BB3_51 Depth=2
	;DEBUG_VALUE: sendMTFValues:bt <- $w11
	;DEBUG_VALUE: sendMTFValues:ge <- $w8
	;DEBUG_VALUE: sendMTFValues:gs <- $w22
	;DEBUG_VALUE: sendMTFValues:iter <- [DW_OP_plus_uconst 224] [$sp+0]
	;DEBUG_VALUE: sendMTFValues:nGroups <- $w26
	;DEBUG_VALUE: sendMTFValues:mtfv <- [DW_OP_constu 192, DW_OP_minus] [$fp+0]
	;DEBUG_VALUE: sendMTFValues:alphaSize <- [DW_OP_plus_uconst 220] [$sp+0]
	;DEBUG_VALUE: sendMTFValues:s <- $x19
	;DEBUG_VALUE: sendMTFValues:i <- undef
	.loc	1 430 13                        ; compress.c:430:13
	cmp	w8, w28
	b.lt	LBB3_50
Ltmp586:
; %bb.71:                               ; %.lr.ph2139.preheader
                                        ;   in Loop: Header=BB3_51 Depth=2
	;DEBUG_VALUE: sendMTFValues:bt <- $w11
	;DEBUG_VALUE: sendMTFValues:ge <- $w8
	;DEBUG_VALUE: sendMTFValues:gs <- $w22
	;DEBUG_VALUE: sendMTFValues:iter <- [DW_OP_plus_uconst 224] [$sp+0]
	;DEBUG_VALUE: sendMTFValues:nGroups <- $w26
	;DEBUG_VALUE: sendMTFValues:mtfv <- [DW_OP_constu 192, DW_OP_minus] [$fp+0]
	;DEBUG_VALUE: sendMTFValues:alphaSize <- [DW_OP_plus_uconst 220] [$sp+0]
	;DEBUG_VALUE: sendMTFValues:s <- $x19
	add	x9, x4, x28, lsl #1
	sub	w11, w8, w28
Ltmp587:
	add	w11, w11, #1
Ltmp588:
LBB3_72:                                ; %.lr.ph2139
                                        ;   Parent Loop BB3_27 Depth=1
                                        ;     Parent Loop BB3_51 Depth=2
                                        ; =>    This Inner Loop Header: Depth=3
	;DEBUG_VALUE: sendMTFValues:ge <- $w8
	;DEBUG_VALUE: sendMTFValues:gs <- $w22
	;DEBUG_VALUE: sendMTFValues:iter <- [DW_OP_plus_uconst 224] [$sp+0]
	;DEBUG_VALUE: sendMTFValues:nGroups <- $w26
	;DEBUG_VALUE: sendMTFValues:mtfv <- [DW_OP_constu 192, DW_OP_minus] [$fp+0]
	;DEBUG_VALUE: sendMTFValues:alphaSize <- [DW_OP_plus_uconst 220] [$sp+0]
	;DEBUG_VALUE: sendMTFValues:s <- $x19
	;DEBUG_VALUE: sendMTFValues:i <- [DW_OP_LLVM_arg 0, DW_OP_consts 2, DW_OP_LLVM_arg 0, DW_OP_LLVM_convert 64 5, DW_OP_mul, DW_OP_LLVM_arg 0, DW_OP_plus, DW_OP_minus, DW_OP_consts 2, DW_OP_div, DW_OP_LLVM_arg 0, DW_OP_LLVM_convert 64 5, DW_OP_plus, DW_OP_stack_value] undef
	.loc	1 431 30                        ; compress.c:431:30
	ldrh	w13, [x9], #2
	.loc	1 431 16 is_stmt 0              ; compress.c:431:16
	mul	x14, x12, x20
	add	x14, x19, x14
	add	x13, x14, x13, lsl #2
	.loc	1 431 39                        ; compress.c:431:39
	ldr	w14, [x13, x23]
	add	w14, w14, #1
	str	w14, [x13, x23]
Ltmp589:
	;DEBUG_VALUE: sendMTFValues:i <- [DW_OP_LLVM_arg 0, DW_OP_consts 2, DW_OP_LLVM_arg 0, DW_OP_LLVM_convert 64 5, DW_OP_mul, DW_OP_LLVM_arg 0, DW_OP_plus, DW_OP_minus, DW_OP_consts 2, DW_OP_div, DW_OP_consts 1, DW_OP_LLVM_arg 0, DW_OP_LLVM_convert 64 5, DW_OP_plus, DW_OP_plus, DW_OP_stack_value] undef
	.loc	1 430 28 is_stmt 1              ; compress.c:430:28
	subs	w11, w11, #1
Ltmp590:
	.loc	1 430 13 is_stmt 0              ; compress.c:430:13
	b.ne	LBB3_72
	b	LBB3_50
Ltmp591:
LBB3_73:                                ; %._crit_edge2146.loopexit
                                        ;   in Loop: Header=BB3_27 Depth=1
	;DEBUG_VALUE: sendMTFValues:ge <- $w8
	;DEBUG_VALUE: sendMTFValues:totc <- $w25
	;DEBUG_VALUE: sendMTFValues:nSelectors <- [DW_OP_constu 176, DW_OP_minus] [$fp+0]
	;DEBUG_VALUE: sendMTFValues:gs <- $w22
	;DEBUG_VALUE: sendMTFValues:iter <- [DW_OP_plus_uconst 224] [$sp+0]
	;DEBUG_VALUE: sendMTFValues:nGroups <- $w26
	;DEBUG_VALUE: sendMTFValues:mtfv <- [DW_OP_constu 192, DW_OP_minus] [$fp+0]
	;DEBUG_VALUE: sendMTFValues:alphaSize <- [DW_OP_plus_uconst 220] [$sp+0]
	;DEBUG_VALUE: sendMTFValues:s <- $x19
	.loc	1 0 13                          ; compress.c:0:13
Lloh42:
	adrp	x21, ___stderrp@GOTPAGE
Lloh43:
	ldr	x21, [x21, ___stderrp@GOTPAGEOFF]
	ldr	w22, [sp, #224]                 ; 4-byte Folded Reload
Ltmp592:
	ldr	x28, [sp, #136]                 ; 8-byte Folded Reload
	b	LBB3_75
Ltmp593:
LBB3_74:                                ;   in Loop: Header=BB3_27 Depth=1
	;DEBUG_VALUE: sendMTFValues:totc <- 0
	;DEBUG_VALUE: sendMTFValues:nSelectors <- 0
	;DEBUG_VALUE: sendMTFValues:iter <- $w22
	;DEBUG_VALUE: sendMTFValues:nGroups <- $w26
	;DEBUG_VALUE: sendMTFValues:gs <- 0
	;DEBUG_VALUE: sendMTFValues:mtfv <- [DW_OP_constu 192, DW_OP_minus] [$fp+0]
	;DEBUG_VALUE: sendMTFValues:alphaSize <- [DW_OP_plus_uconst 220] [$sp+0]
	;DEBUG_VALUE: sendMTFValues:s <- $x19
	stur	xzr, [x29, #-176]               ; 8-byte Folded Spill
	mov	w25, #0
Ltmp594:
LBB3_75:                                ; %._crit_edge2146
                                        ;   in Loop: Header=BB3_27 Depth=1
	;DEBUG_VALUE: sendMTFValues:nGroups <- $w26
	;DEBUG_VALUE: sendMTFValues:mtfv <- [DW_OP_constu 192, DW_OP_minus] [$fp+0]
	;DEBUG_VALUE: sendMTFValues:alphaSize <- [DW_OP_plus_uconst 220] [$sp+0]
	;DEBUG_VALUE: sendMTFValues:s <- $x19
	.loc	1 436 14 is_stmt 1              ; compress.c:436:14
	ldr	w8, [x19, #656]
Ltmp595:
	.loc	1 436 11 is_stmt 0              ; compress.c:436:11
	cmp	w8, #3
	ldr	w27, [sp, #220]                 ; 4-byte Folded Reload
	b.lt	LBB3_83
Ltmp596:
; %bb.76:                               ;   in Loop: Header=BB3_27 Depth=1
	;DEBUG_VALUE: sendMTFValues:nGroups <- $w26
	;DEBUG_VALUE: sendMTFValues:mtfv <- [DW_OP_constu 192, DW_OP_minus] [$fp+0]
	;DEBUG_VALUE: sendMTFValues:alphaSize <- [DW_OP_plus_uconst 220] [$sp+0]
	;DEBUG_VALUE: sendMTFValues:s <- $x19
	.loc	1 437 18 is_stmt 1              ; compress.c:437:18
	ldr	x0, [x21]
	.loc	1 437 75 is_stmt 0              ; compress.c:437:75
	add	w8, w22, #1
	.loc	1 437 82                        ; compress.c:437:82
	add	w9, w25, #7
	cmp	w25, #0
	csel	w9, w9, w25, lt
	asr	w9, w9, #3
	.loc	1 437 10                        ; compress.c:437:10
	stp	x8, x9, [sp]
Lloh44:
	adrp	x1, l_.str.4@PAGE
Lloh45:
	add	x1, x1, l_.str.4@PAGEOFF
	bl	_fprintf
Ltmp597:
	;DEBUG_VALUE: sendMTFValues:t <- 0
	.loc	1 440 21 is_stmt 1              ; compress.c:440:21
	ldr	x0, [x21]
	.loc	1 440 13 is_stmt 0              ; compress.c:440:13
	ldur	w8, [x29, #-148]
	str	x8, [sp]
Lloh46:
	adrp	x24, l_.str.5@PAGE
Lloh47:
	add	x24, x24, l_.str.5@PAGEOFF
	mov	x1, x24
	bl	_fprintf
Ltmp598:
	;DEBUG_VALUE: sendMTFValues:t <- 1
	.loc	1 440 21                        ; compress.c:440:21
	ldr	x0, [x21]
	.loc	1 440 13                        ; compress.c:440:13
	ldur	w8, [x29, #-144]
	str	x8, [sp]
	mov	x1, x24
	bl	_fprintf
Ltmp599:
	;DEBUG_VALUE: sendMTFValues:t <- 2
	.loc	1 439 10 is_stmt 1              ; compress.c:439:10
	cmp	w26, #2
	b.eq	LBB3_82
Ltmp600:
; %bb.77:                               ;   in Loop: Header=BB3_27 Depth=1
	;DEBUG_VALUE: sendMTFValues:t <- 2
	;DEBUG_VALUE: sendMTFValues:nGroups <- $w26
	;DEBUG_VALUE: sendMTFValues:mtfv <- [DW_OP_constu 192, DW_OP_minus] [$fp+0]
	;DEBUG_VALUE: sendMTFValues:alphaSize <- [DW_OP_plus_uconst 220] [$sp+0]
	;DEBUG_VALUE: sendMTFValues:s <- $x19
	;DEBUG_VALUE: sendMTFValues:t <- 2
	.loc	1 440 21                        ; compress.c:440:21
	ldr	x0, [x21]
	.loc	1 440 13 is_stmt 0              ; compress.c:440:13
	ldur	w8, [x29, #-140]
	str	x8, [sp]
	mov	x1, x24
	bl	_fprintf
Ltmp601:
	;DEBUG_VALUE: sendMTFValues:t <- 3
	.loc	1 439 10 is_stmt 1              ; compress.c:439:10
	cmp	w26, #3
	b.eq	LBB3_82
Ltmp602:
; %bb.78:                               ;   in Loop: Header=BB3_27 Depth=1
	;DEBUG_VALUE: sendMTFValues:t <- 3
	;DEBUG_VALUE: sendMTFValues:nGroups <- $w26
	;DEBUG_VALUE: sendMTFValues:mtfv <- [DW_OP_constu 192, DW_OP_minus] [$fp+0]
	;DEBUG_VALUE: sendMTFValues:alphaSize <- [DW_OP_plus_uconst 220] [$sp+0]
	;DEBUG_VALUE: sendMTFValues:s <- $x19
	;DEBUG_VALUE: sendMTFValues:t <- 3
	.loc	1 440 21                        ; compress.c:440:21
	ldr	x0, [x21]
	.loc	1 440 13 is_stmt 0              ; compress.c:440:13
	ldur	w8, [x29, #-136]
	str	x8, [sp]
	mov	x1, x24
	bl	_fprintf
Ltmp603:
	;DEBUG_VALUE: sendMTFValues:t <- 4
	.loc	1 439 10 is_stmt 1              ; compress.c:439:10
	cmp	w26, #4
	b.eq	LBB3_82
Ltmp604:
; %bb.79:                               ;   in Loop: Header=BB3_27 Depth=1
	;DEBUG_VALUE: sendMTFValues:t <- 4
	;DEBUG_VALUE: sendMTFValues:nGroups <- $w26
	;DEBUG_VALUE: sendMTFValues:mtfv <- [DW_OP_constu 192, DW_OP_minus] [$fp+0]
	;DEBUG_VALUE: sendMTFValues:alphaSize <- [DW_OP_plus_uconst 220] [$sp+0]
	;DEBUG_VALUE: sendMTFValues:s <- $x19
	;DEBUG_VALUE: sendMTFValues:t <- 4
	.loc	1 440 21                        ; compress.c:440:21
	ldr	x0, [x21]
	.loc	1 440 13 is_stmt 0              ; compress.c:440:13
	ldur	w8, [x29, #-132]
	str	x8, [sp]
	mov	x1, x24
	bl	_fprintf
Ltmp605:
	;DEBUG_VALUE: sendMTFValues:t <- 5
	.loc	1 439 10 is_stmt 1              ; compress.c:439:10
	cmp	w26, #5
	b.eq	LBB3_82
Ltmp606:
; %bb.80:                               ;   in Loop: Header=BB3_27 Depth=1
	;DEBUG_VALUE: sendMTFValues:t <- 5
	;DEBUG_VALUE: sendMTFValues:nGroups <- $w26
	;DEBUG_VALUE: sendMTFValues:mtfv <- [DW_OP_constu 192, DW_OP_minus] [$fp+0]
	;DEBUG_VALUE: sendMTFValues:alphaSize <- [DW_OP_plus_uconst 220] [$sp+0]
	;DEBUG_VALUE: sendMTFValues:s <- $x19
	;DEBUG_VALUE: sendMTFValues:t <- 5
	.loc	1 440 21                        ; compress.c:440:21
	ldr	x0, [x21]
	.loc	1 440 13 is_stmt 0              ; compress.c:440:13
	ldur	w8, [x29, #-128]
	str	x8, [sp]
	mov	x1, x24
	bl	_fprintf
Ltmp607:
	;DEBUG_VALUE: sendMTFValues:t <- 6
	.loc	1 439 10 is_stmt 1              ; compress.c:439:10
	cmp	w26, #6
	b.eq	LBB3_82
Ltmp608:
; %bb.81:                               ;   in Loop: Header=BB3_27 Depth=1
	;DEBUG_VALUE: sendMTFValues:t <- 6
	;DEBUG_VALUE: sendMTFValues:nGroups <- $w26
	;DEBUG_VALUE: sendMTFValues:mtfv <- [DW_OP_constu 192, DW_OP_minus] [$fp+0]
	;DEBUG_VALUE: sendMTFValues:alphaSize <- [DW_OP_plus_uconst 220] [$sp+0]
	;DEBUG_VALUE: sendMTFValues:s <- $x19
	;DEBUG_VALUE: sendMTFValues:t <- 6
	.loc	1 440 21                        ; compress.c:440:21
	ldr	x0, [x21]
	.loc	1 440 13 is_stmt 0              ; compress.c:440:13
	ldur	w8, [x29, #-124]
	str	x8, [sp]
	mov	x1, x24
	bl	_fprintf
Ltmp609:
	;DEBUG_VALUE: sendMTFValues:t <- 7
LBB3_82:                                ;   in Loop: Header=BB3_27 Depth=1
	;DEBUG_VALUE: sendMTFValues:nGroups <- $w26
	;DEBUG_VALUE: sendMTFValues:mtfv <- [DW_OP_constu 192, DW_OP_minus] [$fp+0]
	;DEBUG_VALUE: sendMTFValues:alphaSize <- [DW_OP_plus_uconst 220] [$sp+0]
	;DEBUG_VALUE: sendMTFValues:s <- $x19
	.loc	1 441 18 is_stmt 1              ; compress.c:441:18
	ldr	x1, [x21]
	.loc	1 441 10 is_stmt 0              ; compress.c:441:10
	mov	w0, #10
	bl	_fputc
Ltmp610:
LBB3_83:                                ; %.preheader3055
                                        ;   in Loop: Header=BB3_27 Depth=1
	;DEBUG_VALUE: sendMTFValues:nGroups <- $w26
	;DEBUG_VALUE: sendMTFValues:mtfv <- [DW_OP_constu 192, DW_OP_minus] [$fp+0]
	;DEBUG_VALUE: sendMTFValues:alphaSize <- [DW_OP_plus_uconst 220] [$sp+0]
	;DEBUG_VALUE: sendMTFValues:s <- $x19
	;DEBUG_VALUE: sendMTFValues:t <- 0
	.loc	1 0 10                          ; compress.c:0:10
	ldr	x0, [sp, #160]                  ; 8-byte Folded Reload
Ltmp611:
	.loc	1 450 10 is_stmt 1              ; compress.c:450:10
	mov	x1, x28
	mov	x2, x27
	mov	w3, #17
	bl	_BZ2_hbMakeCodeLengths
Ltmp612:
	;DEBUG_VALUE: sendMTFValues:t <- 1
	.loc	1 0 10 is_stmt 0                ; compress.c:0:10
	ldr	x0, [sp, #152]                  ; 8-byte Folded Reload
	ldr	x1, [sp, #240]                  ; 8-byte Folded Reload
	.loc	1 450 10                        ; compress.c:450:10
	mov	x2, x27
	mov	w3, #17
	bl	_BZ2_hbMakeCodeLengths
Ltmp613:
	;DEBUG_VALUE: sendMTFValues:t <- 2
	.loc	1 449 7 is_stmt 1               ; compress.c:449:7
	cmp	w26, #2
	b.eq	LBB3_26
Ltmp614:
; %bb.84:                               ;   in Loop: Header=BB3_27 Depth=1
	;DEBUG_VALUE: sendMTFValues:t <- 2
	;DEBUG_VALUE: sendMTFValues:nGroups <- $w26
	;DEBUG_VALUE: sendMTFValues:mtfv <- [DW_OP_constu 192, DW_OP_minus] [$fp+0]
	;DEBUG_VALUE: sendMTFValues:alphaSize <- [DW_OP_plus_uconst 220] [$sp+0]
	;DEBUG_VALUE: sendMTFValues:s <- $x19
	;DEBUG_VALUE: sendMTFValues:t <- 2
	.loc	1 0 7 is_stmt 0                 ; compress.c:0:7
	ldr	x0, [sp, #112]                  ; 8-byte Folded Reload
	ldr	x1, [sp, #144]                  ; 8-byte Folded Reload
Ltmp615:
	.loc	1 450 10 is_stmt 1              ; compress.c:450:10
	mov	x2, x27
	mov	w3, #17
	bl	_BZ2_hbMakeCodeLengths
Ltmp616:
	;DEBUG_VALUE: sendMTFValues:t <- 3
	.loc	1 449 7                         ; compress.c:449:7
	cmp	w26, #3
	b.eq	LBB3_26
Ltmp617:
; %bb.85:                               ;   in Loop: Header=BB3_27 Depth=1
	;DEBUG_VALUE: sendMTFValues:t <- 3
	;DEBUG_VALUE: sendMTFValues:nGroups <- $w26
	;DEBUG_VALUE: sendMTFValues:mtfv <- [DW_OP_constu 192, DW_OP_minus] [$fp+0]
	;DEBUG_VALUE: sendMTFValues:alphaSize <- [DW_OP_plus_uconst 220] [$sp+0]
	;DEBUG_VALUE: sendMTFValues:s <- $x19
	;DEBUG_VALUE: sendMTFValues:t <- 3
	.loc	1 0 7 is_stmt 0                 ; compress.c:0:7
	ldp	x0, x1, [sp, #96]               ; 16-byte Folded Reload
Ltmp618:
	.loc	1 450 10 is_stmt 1              ; compress.c:450:10
	mov	x2, x27
	mov	w3, #17
	bl	_BZ2_hbMakeCodeLengths
Ltmp619:
	;DEBUG_VALUE: sendMTFValues:t <- 4
	.loc	1 449 7                         ; compress.c:449:7
	cmp	w26, #4
	b.eq	LBB3_26
Ltmp620:
; %bb.86:                               ;   in Loop: Header=BB3_27 Depth=1
	;DEBUG_VALUE: sendMTFValues:t <- 4
	;DEBUG_VALUE: sendMTFValues:nGroups <- $w26
	;DEBUG_VALUE: sendMTFValues:mtfv <- [DW_OP_constu 192, DW_OP_minus] [$fp+0]
	;DEBUG_VALUE: sendMTFValues:alphaSize <- [DW_OP_plus_uconst 220] [$sp+0]
	;DEBUG_VALUE: sendMTFValues:s <- $x19
	;DEBUG_VALUE: sendMTFValues:t <- 4
	.loc	1 0 7 is_stmt 0                 ; compress.c:0:7
	ldp	x0, x1, [sp, #80]               ; 16-byte Folded Reload
Ltmp621:
	.loc	1 450 10 is_stmt 1              ; compress.c:450:10
	mov	x2, x27
	mov	w3, #17
	bl	_BZ2_hbMakeCodeLengths
Ltmp622:
	;DEBUG_VALUE: sendMTFValues:t <- 5
	.loc	1 449 7                         ; compress.c:449:7
	cmp	w26, #5
	b.eq	LBB3_26
Ltmp623:
; %bb.87:                               ;   in Loop: Header=BB3_27 Depth=1
	;DEBUG_VALUE: sendMTFValues:t <- 5
	;DEBUG_VALUE: sendMTFValues:nGroups <- $w26
	;DEBUG_VALUE: sendMTFValues:mtfv <- [DW_OP_constu 192, DW_OP_minus] [$fp+0]
	;DEBUG_VALUE: sendMTFValues:alphaSize <- [DW_OP_plus_uconst 220] [$sp+0]
	;DEBUG_VALUE: sendMTFValues:s <- $x19
	;DEBUG_VALUE: sendMTFValues:t <- 5
	.loc	1 0 7 is_stmt 0                 ; compress.c:0:7
	ldr	x0, [sp, #56]                   ; 8-byte Folded Reload
	ldr	x1, [sp, #72]                   ; 8-byte Folded Reload
Ltmp624:
	.loc	1 450 10 is_stmt 1              ; compress.c:450:10
	mov	x2, x27
	mov	w3, #17
	bl	_BZ2_hbMakeCodeLengths
Ltmp625:
	;DEBUG_VALUE: sendMTFValues:t <- 6
	.loc	1 449 7                         ; compress.c:449:7
	cmp	w26, #6
	b.eq	LBB3_26
Ltmp626:
; %bb.88:                               ;   in Loop: Header=BB3_27 Depth=1
	;DEBUG_VALUE: sendMTFValues:t <- 6
	;DEBUG_VALUE: sendMTFValues:nGroups <- $w26
	;DEBUG_VALUE: sendMTFValues:mtfv <- [DW_OP_constu 192, DW_OP_minus] [$fp+0]
	;DEBUG_VALUE: sendMTFValues:alphaSize <- [DW_OP_plus_uconst 220] [$sp+0]
	;DEBUG_VALUE: sendMTFValues:s <- $x19
	;DEBUG_VALUE: sendMTFValues:t <- 6
	.loc	1 0 7 is_stmt 0                 ; compress.c:0:7
	ldr	x0, [sp, #48]                   ; 8-byte Folded Reload
	ldr	x1, [sp, #64]                   ; 8-byte Folded Reload
Ltmp627:
	.loc	1 450 10 is_stmt 1              ; compress.c:450:10
	mov	x2, x27
	mov	w3, #17
	bl	_BZ2_hbMakeCodeLengths
Ltmp628:
	;DEBUG_VALUE: sendMTFValues:t <- 7
	.loc	1 0 10 is_stmt 0                ; compress.c:0:10
	b	LBB3_26
Ltmp629:
LBB3_89:
	;DEBUG_VALUE: sendMTFValues:nSelectors <- [DW_OP_constu 176, DW_OP_minus] [$fp+0]
	;DEBUG_VALUE: sendMTFValues:iter <- $w22
	;DEBUG_VALUE: sendMTFValues:nGroups <- $w26
	;DEBUG_VALUE: sendMTFValues:mtfv <- [DW_OP_constu 192, DW_OP_minus] [$fp+0]
	;DEBUG_VALUE: sendMTFValues:alphaSize <- [DW_OP_plus_uconst 220] [$sp+0]
	;DEBUG_VALUE: sendMTFValues:s <- $x19
	mov	w8, #18003
	ldur	x20, [x29, #-176]               ; 8-byte Folded Reload
Ltmp630:
	.loc	1 456 31 is_stmt 1              ; compress.c:456:31
	cmp	w20, w8
	b.lt	LBB3_91
Ltmp631:
; %bb.90:
	;DEBUG_VALUE: sendMTFValues:nSelectors <- [DW_OP_constu 176, DW_OP_minus] [$fp+0]
	;DEBUG_VALUE: sendMTFValues:iter <- $w22
	;DEBUG_VALUE: sendMTFValues:nGroups <- $w26
	;DEBUG_VALUE: sendMTFValues:mtfv <- [DW_OP_constu 192, DW_OP_minus] [$fp+0]
	;DEBUG_VALUE: sendMTFValues:alphaSize <- [DW_OP_plus_uconst 220] [$sp+0]
	;DEBUG_VALUE: sendMTFValues:s <- $x19
	.loc	1 456 70 is_stmt 0              ; compress.c:456:70
	mov	w0, #3003
	bl	_BZ2_bz__AssertH__fail
Ltmp632:
LBB3_91:
	;DEBUG_VALUE: sendMTFValues:nSelectors <- [DW_OP_constu 176, DW_OP_minus] [$fp+0]
	;DEBUG_VALUE: sendMTFValues:iter <- $w22
	;DEBUG_VALUE: sendMTFValues:nGroups <- $w26
	;DEBUG_VALUE: sendMTFValues:mtfv <- [DW_OP_constu 192, DW_OP_minus] [$fp+0]
	;DEBUG_VALUE: sendMTFValues:alphaSize <- [DW_OP_plus_uconst 220] [$sp+0]
	;DEBUG_VALUE: sendMTFValues:s <- $x19
	.loc	1 0 70                          ; compress.c:0:70
	mov	w8, #256
Ltmp633:
	;DEBUG_VALUE: sendMTFValues:i <- 0
	.loc	1 464 44 is_stmt 1              ; compress.c:464:44
	sturh	w8, [x29, #-164]
Ltmp634:
	;DEBUG_VALUE: sendMTFValues:i <- 2
	.loc	1 464 7 is_stmt 0               ; compress.c:464:7
	cmp	w26, #2
	b.eq	LBB3_97
Ltmp635:
; %bb.92:
	;DEBUG_VALUE: sendMTFValues:i <- 2
	;DEBUG_VALUE: sendMTFValues:nSelectors <- [DW_OP_constu 176, DW_OP_minus] [$fp+0]
	;DEBUG_VALUE: sendMTFValues:iter <- $w22
	;DEBUG_VALUE: sendMTFValues:nGroups <- $w26
	;DEBUG_VALUE: sendMTFValues:mtfv <- [DW_OP_constu 192, DW_OP_minus] [$fp+0]
	;DEBUG_VALUE: sendMTFValues:alphaSize <- [DW_OP_plus_uconst 220] [$sp+0]
	;DEBUG_VALUE: sendMTFValues:s <- $x19
	.loc	1 0 7                           ; compress.c:0:7
	mov	w8, #2
	;DEBUG_VALUE: sendMTFValues:i <- 2
Ltmp636:
	.loc	1 464 44                        ; compress.c:464:44
	sturb	w8, [x29, #-162]
Ltmp637:
	;DEBUG_VALUE: sendMTFValues:i <- 3
	.loc	1 464 7                         ; compress.c:464:7
	cmp	w26, #3
	b.eq	LBB3_97
Ltmp638:
; %bb.93:
	;DEBUG_VALUE: sendMTFValues:i <- 3
	;DEBUG_VALUE: sendMTFValues:nSelectors <- [DW_OP_constu 176, DW_OP_minus] [$fp+0]
	;DEBUG_VALUE: sendMTFValues:iter <- $w22
	;DEBUG_VALUE: sendMTFValues:nGroups <- $w26
	;DEBUG_VALUE: sendMTFValues:mtfv <- [DW_OP_constu 192, DW_OP_minus] [$fp+0]
	;DEBUG_VALUE: sendMTFValues:alphaSize <- [DW_OP_plus_uconst 220] [$sp+0]
	;DEBUG_VALUE: sendMTFValues:s <- $x19
	.loc	1 0 7                           ; compress.c:0:7
	mov	w8, #3
	;DEBUG_VALUE: sendMTFValues:i <- 3
Ltmp639:
	.loc	1 464 44                        ; compress.c:464:44
	sturb	w8, [x29, #-161]
Ltmp640:
	;DEBUG_VALUE: sendMTFValues:i <- 4
	.loc	1 464 7                         ; compress.c:464:7
	cmp	w26, #4
	b.eq	LBB3_97
Ltmp641:
; %bb.94:
	;DEBUG_VALUE: sendMTFValues:i <- 4
	;DEBUG_VALUE: sendMTFValues:nSelectors <- [DW_OP_constu 176, DW_OP_minus] [$fp+0]
	;DEBUG_VALUE: sendMTFValues:iter <- $w22
	;DEBUG_VALUE: sendMTFValues:nGroups <- $w26
	;DEBUG_VALUE: sendMTFValues:mtfv <- [DW_OP_constu 192, DW_OP_minus] [$fp+0]
	;DEBUG_VALUE: sendMTFValues:alphaSize <- [DW_OP_plus_uconst 220] [$sp+0]
	;DEBUG_VALUE: sendMTFValues:s <- $x19
	.loc	1 0 7                           ; compress.c:0:7
	mov	w8, #4
	;DEBUG_VALUE: sendMTFValues:i <- 4
Ltmp642:
	.loc	1 464 44                        ; compress.c:464:44
	sturb	w8, [x29, #-160]
Ltmp643:
	;DEBUG_VALUE: sendMTFValues:i <- 5
	.loc	1 464 7                         ; compress.c:464:7
	cmp	w26, #5
	b.eq	LBB3_97
Ltmp644:
; %bb.95:
	;DEBUG_VALUE: sendMTFValues:i <- 5
	;DEBUG_VALUE: sendMTFValues:nSelectors <- [DW_OP_constu 176, DW_OP_minus] [$fp+0]
	;DEBUG_VALUE: sendMTFValues:iter <- $w22
	;DEBUG_VALUE: sendMTFValues:nGroups <- $w26
	;DEBUG_VALUE: sendMTFValues:mtfv <- [DW_OP_constu 192, DW_OP_minus] [$fp+0]
	;DEBUG_VALUE: sendMTFValues:alphaSize <- [DW_OP_plus_uconst 220] [$sp+0]
	;DEBUG_VALUE: sendMTFValues:s <- $x19
	.loc	1 0 7                           ; compress.c:0:7
	mov	w8, #5
	;DEBUG_VALUE: sendMTFValues:i <- 5
Ltmp645:
	.loc	1 464 44                        ; compress.c:464:44
	sturb	w8, [x29, #-159]
Ltmp646:
	;DEBUG_VALUE: sendMTFValues:i <- 6
	.loc	1 464 7                         ; compress.c:464:7
	cmp	w26, #6
	b.eq	LBB3_97
Ltmp647:
; %bb.96:
	;DEBUG_VALUE: sendMTFValues:i <- 6
	;DEBUG_VALUE: sendMTFValues:nSelectors <- [DW_OP_constu 176, DW_OP_minus] [$fp+0]
	;DEBUG_VALUE: sendMTFValues:iter <- $w22
	;DEBUG_VALUE: sendMTFValues:nGroups <- $w26
	;DEBUG_VALUE: sendMTFValues:mtfv <- [DW_OP_constu 192, DW_OP_minus] [$fp+0]
	;DEBUG_VALUE: sendMTFValues:alphaSize <- [DW_OP_plus_uconst 220] [$sp+0]
	;DEBUG_VALUE: sendMTFValues:s <- $x19
	;DEBUG_VALUE: sendMTFValues:i <- 6
	.loc	1 0 7                           ; compress.c:0:7
	mov	w8, #6
Ltmp648:
	.loc	1 464 44                        ; compress.c:464:44
	sturb	w8, [x29, #-158]
Ltmp649:
	;DEBUG_VALUE: sendMTFValues:i <- 7
LBB3_97:                                ; %.preheader1969
	;DEBUG_VALUE: sendMTFValues:nSelectors <- [DW_OP_constu 176, DW_OP_minus] [$fp+0]
	;DEBUG_VALUE: sendMTFValues:iter <- $w22
	;DEBUG_VALUE: sendMTFValues:nGroups <- $w26
	;DEBUG_VALUE: sendMTFValues:mtfv <- [DW_OP_constu 192, DW_OP_minus] [$fp+0]
	;DEBUG_VALUE: sendMTFValues:alphaSize <- [DW_OP_plus_uconst 220] [$sp+0]
	;DEBUG_VALUE: sendMTFValues:s <- $x19
	;DEBUG_VALUE: sendMTFValues:i <- 0
	.loc	1 0 44                          ; compress.c:0:44
	mov	w0, w20
Ltmp650:
	.loc	1 465 7 is_stmt 1               ; compress.c:465:7
	cmp	w20, #1
	ldp	x17, x16, [x29, #-224]          ; 16-byte Folded Reload
	b.lt	LBB3_105
Ltmp651:
; %bb.98:                               ; %.lr.ph2164.preheader
	;DEBUG_VALUE: sendMTFValues:i <- 0
	;DEBUG_VALUE: sendMTFValues:nSelectors <- [DW_OP_constu 176, DW_OP_minus] [$fp+0]
	;DEBUG_VALUE: sendMTFValues:iter <- $w22
	;DEBUG_VALUE: sendMTFValues:nGroups <- $w26
	;DEBUG_VALUE: sendMTFValues:mtfv <- [DW_OP_constu 192, DW_OP_minus] [$fp+0]
	;DEBUG_VALUE: sendMTFValues:alphaSize <- [DW_OP_plus_uconst 220] [$sp+0]
	;DEBUG_VALUE: sendMTFValues:s <- $x19
	.loc	1 0 7 is_stmt 0                 ; compress.c:0:7
	mov	x8, #0
	ldurb	w10, [x29, #-164]
	sub	x9, x29, #164
	.loc	1 465 7                         ; compress.c:465:7
	add	x9, x9, #1
	mov	w11, #19706
	b	LBB3_101
Ltmp652:
LBB3_99:                                ;   in Loop: Header=BB3_101 Depth=1
	;DEBUG_VALUE: tmp <- $w10
	;DEBUG_VALUE: sendMTFValues:j <- 0
	;DEBUG_VALUE: sendMTFValues:i <- $x8
	;DEBUG_VALUE: sendMTFValues:nSelectors <- [DW_OP_constu 176, DW_OP_minus] [$fp+0]
	;DEBUG_VALUE: sendMTFValues:iter <- $w22
	;DEBUG_VALUE: sendMTFValues:nGroups <- $w26
	;DEBUG_VALUE: sendMTFValues:mtfv <- [DW_OP_constu 192, DW_OP_minus] [$fp+0]
	;DEBUG_VALUE: sendMTFValues:alphaSize <- [DW_OP_plus_uconst 220] [$sp+0]
	;DEBUG_VALUE: sendMTFValues:s <- $x19
	.loc	1 0 7                           ; compress.c:0:7
	mov	w14, #0
Ltmp653:
LBB3_100:                               ; %._crit_edge2158
                                        ;   in Loop: Header=BB3_101 Depth=1
	;DEBUG_VALUE: sendMTFValues:i <- $x8
	;DEBUG_VALUE: sendMTFValues:nSelectors <- [DW_OP_constu 176, DW_OP_minus] [$fp+0]
	;DEBUG_VALUE: sendMTFValues:iter <- $w22
	;DEBUG_VALUE: sendMTFValues:nGroups <- $w26
	;DEBUG_VALUE: sendMTFValues:mtfv <- [DW_OP_constu 192, DW_OP_minus] [$fp+0]
	;DEBUG_VALUE: sendMTFValues:alphaSize <- [DW_OP_plus_uconst 220] [$sp+0]
	;DEBUG_VALUE: sendMTFValues:s <- $x19
	.loc	1 476 28 is_stmt 1              ; compress.c:476:28
	strb	w14, [x12, x11]
Ltmp654:
	.loc	1 465 36                        ; compress.c:465:36
	add	x8, x8, #1
Ltmp655:
	;DEBUG_VALUE: sendMTFValues:i <- $x8
	.loc	1 465 7 is_stmt 0               ; compress.c:465:7
	cmp	x8, x0
	b.eq	LBB3_105
Ltmp656:
LBB3_101:                               ; %.lr.ph2164
                                        ; =>This Loop Header: Depth=1
                                        ;     Child Loop BB3_103 Depth 2
	;DEBUG_VALUE: sendMTFValues:nSelectors <- [DW_OP_constu 176, DW_OP_minus] [$fp+0]
	;DEBUG_VALUE: sendMTFValues:iter <- $w22
	;DEBUG_VALUE: sendMTFValues:nGroups <- $w26
	;DEBUG_VALUE: sendMTFValues:mtfv <- [DW_OP_constu 192, DW_OP_minus] [$fp+0]
	;DEBUG_VALUE: sendMTFValues:alphaSize <- [DW_OP_plus_uconst 220] [$sp+0]
	;DEBUG_VALUE: sendMTFValues:s <- $x19
	;DEBUG_VALUE: sendMTFValues:i <- $x8
	.loc	1 466 17 is_stmt 1              ; compress.c:466:17
	add	x12, x19, x8
	ldrb	w13, [x12, #1704]
Ltmp657:
	;DEBUG_VALUE: sendMTFValues:j <- 0
	;DEBUG_VALUE: tmp <- $w10
	;DEBUG_VALUE: ll_i <- undef
	.loc	1 469 10                        ; compress.c:469:10
	cmp	w13, w10
	b.eq	LBB3_99
Ltmp658:
; %bb.102:                              ; %.lr.ph2157.preheader
                                        ;   in Loop: Header=BB3_101 Depth=1
	;DEBUG_VALUE: tmp <- $w10
	;DEBUG_VALUE: sendMTFValues:j <- 0
	;DEBUG_VALUE: sendMTFValues:i <- $x8
	;DEBUG_VALUE: sendMTFValues:nSelectors <- [DW_OP_constu 176, DW_OP_minus] [$fp+0]
	;DEBUG_VALUE: sendMTFValues:iter <- $w22
	;DEBUG_VALUE: sendMTFValues:nGroups <- $w26
	;DEBUG_VALUE: sendMTFValues:mtfv <- [DW_OP_constu 192, DW_OP_minus] [$fp+0]
	;DEBUG_VALUE: sendMTFValues:alphaSize <- [DW_OP_plus_uconst 220] [$sp+0]
	;DEBUG_VALUE: sendMTFValues:s <- $x19
	.loc	1 0 10 is_stmt 0                ; compress.c:0:10
	mov	x14, #0
Ltmp659:
LBB3_103:                               ; %.lr.ph2157
                                        ;   Parent Loop BB3_101 Depth=1
                                        ; =>  This Inner Loop Header: Depth=2
	;DEBUG_VALUE: sendMTFValues:i <- $x8
	;DEBUG_VALUE: sendMTFValues:nSelectors <- [DW_OP_constu 176, DW_OP_minus] [$fp+0]
	;DEBUG_VALUE: sendMTFValues:iter <- $w22
	;DEBUG_VALUE: sendMTFValues:nGroups <- $w26
	;DEBUG_VALUE: sendMTFValues:mtfv <- [DW_OP_constu 192, DW_OP_minus] [$fp+0]
	;DEBUG_VALUE: sendMTFValues:alphaSize <- [DW_OP_plus_uconst 220] [$sp+0]
	;DEBUG_VALUE: sendMTFValues:s <- $x19
	;DEBUG_VALUE: tmp <- $w10
	;DEBUG_VALUE: sendMTFValues:j <- $x14
	.loc	1 472 19 is_stmt 1              ; compress.c:472:19
	ldrb	w15, [x9, x14]
Ltmp660:
	;DEBUG_VALUE: tmp <- undef
	.loc	1 473 20                        ; compress.c:473:20
	strb	w10, [x9, x14]
	.loc	1 470 14                        ; compress.c:470:14
	add	x14, x14, #1
Ltmp661:
	;DEBUG_VALUE: tmp2 <- undef
	;DEBUG_VALUE: sendMTFValues:j <- $x14
	.loc	1 0 14 is_stmt 0                ; compress.c:0:14
	mov	x10, x15
Ltmp662:
	.loc	1 469 10 is_stmt 1              ; compress.c:469:10
	cmp	w13, w15
	b.ne	LBB3_103
Ltmp663:
; %bb.104:                              ; %._crit_edge2158.loopexit
                                        ;   in Loop: Header=BB3_101 Depth=1
	;DEBUG_VALUE: sendMTFValues:j <- $x14
	;DEBUG_VALUE: sendMTFValues:i <- $x8
	;DEBUG_VALUE: sendMTFValues:nSelectors <- [DW_OP_constu 176, DW_OP_minus] [$fp+0]
	;DEBUG_VALUE: sendMTFValues:iter <- $w22
	;DEBUG_VALUE: sendMTFValues:nGroups <- $w26
	;DEBUG_VALUE: sendMTFValues:mtfv <- [DW_OP_constu 192, DW_OP_minus] [$fp+0]
	;DEBUG_VALUE: sendMTFValues:alphaSize <- [DW_OP_plus_uconst 220] [$sp+0]
	;DEBUG_VALUE: sendMTFValues:s <- $x19
	.loc	1 0 10 is_stmt 0                ; compress.c:0:10
	mov	x10, x13
	b	LBB3_100
Ltmp664:
LBB3_105:                               ; %._crit_edge2165
	;DEBUG_VALUE: sendMTFValues:nSelectors <- [DW_OP_constu 176, DW_OP_minus] [$fp+0]
	;DEBUG_VALUE: sendMTFValues:iter <- $w22
	;DEBUG_VALUE: sendMTFValues:nGroups <- $w26
	;DEBUG_VALUE: sendMTFValues:mtfv <- [DW_OP_constu 192, DW_OP_minus] [$fp+0]
	;DEBUG_VALUE: sendMTFValues:alphaSize <- [DW_OP_plus_uconst 220] [$sp+0]
	;DEBUG_VALUE: sendMTFValues:s <- $x19
	;DEBUG_VALUE: sendMTFValues:t <- 0
	mov	x21, #0
	and	x8, x17, #0x7ffffff0
	stp	x0, x8, [sp, #168]              ; 16-byte Folded Spill
	and	x25, x17, #0x7ffffff8
	mov	w8, #37708
Ltmp665:
	.loc	1 481 4 is_stmt 1               ; compress.c:481:4
	add	x20, x19, x8
Lloh48:
	adrp	x8, lCPI3_5@PAGE
Lloh49:
	ldr	q20, [x8, lCPI3_5@PAGEOFF]
Lloh50:
	adrp	x8, lCPI3_6@PAGE
Lloh51:
	ldr	q21, [x8, lCPI3_6@PAGEOFF]
Lloh52:
	adrp	x8, lCPI3_4@PAGE
Lloh53:
	ldr	q22, [x8, lCPI3_4@PAGEOFF]
Lloh54:
	adrp	x8, lCPI3_7@PAGE
Lloh55:
	ldr	q23, [x8, lCPI3_7@PAGEOFF]
	mov	w28, #39256
	mov	w24, #258
	stur	q20, [x29, #-208]               ; 16-byte Folded Spill
	stp	q22, q21, [sp, #224]            ; 32-byte Folded Spill
	str	q23, [sp, #192]                 ; 16-byte Folded Spill
	b	LBB3_108
Ltmp666:
LBB3_106:                               ;   in Loop: Header=BB3_108 Depth=1
	;DEBUG_VALUE: sendMTFValues:maxLen <- 0
	;DEBUG_VALUE: sendMTFValues:minLen <- 32
	;DEBUG_VALUE: sendMTFValues:t <- $x21
	;DEBUG_VALUE: sendMTFValues:i <- 0
	;DEBUG_VALUE: sendMTFValues:nSelectors <- [DW_OP_constu 176, DW_OP_minus] [$fp+0]
	;DEBUG_VALUE: sendMTFValues:nGroups <- $w26
	;DEBUG_VALUE: sendMTFValues:mtfv <- [DW_OP_constu 192, DW_OP_minus] [$fp+0]
	;DEBUG_VALUE: sendMTFValues:alphaSize <- [DW_OP_plus_uconst 220] [$sp+0]
	;DEBUG_VALUE: sendMTFValues:s <- $x19
	.loc	1 0 4 is_stmt 0                 ; compress.c:0:4
	mov	w22, #0
	mov	w23, #32
Ltmp667:
LBB3_107:                               ; %.thread
                                        ;   in Loop: Header=BB3_108 Depth=1
	;DEBUG_VALUE: sendMTFValues:t <- $x21
	;DEBUG_VALUE: sendMTFValues:nSelectors <- [DW_OP_constu 176, DW_OP_minus] [$fp+0]
	;DEBUG_VALUE: sendMTFValues:nGroups <- $w26
	;DEBUG_VALUE: sendMTFValues:mtfv <- [DW_OP_constu 192, DW_OP_minus] [$fp+0]
	;DEBUG_VALUE: sendMTFValues:alphaSize <- [DW_OP_plus_uconst 220] [$sp+0]
	;DEBUG_VALUE: sendMTFValues:s <- $x19
	.loc	1 490 29 is_stmt 1              ; compress.c:490:29
	mov	w8, #1032
	madd	x8, x21, x8, x19
	add	x0, x8, x28
	.loc	1 490 47 is_stmt 0              ; compress.c:490:47
	madd	x8, x21, x24, x19
	mov	w9, #37708
	add	x1, x8, x9
	.loc	1 490 7                         ; compress.c:490:7
	mov	x2, x23
	mov	x3, x22
	mov	x4, x27
	bl	_BZ2_hbAssignCodes
Ltmp668:
	.loc	1 481 30 is_stmt 1              ; compress.c:481:30
	add	x21, x21, #1
Ltmp669:
	;DEBUG_VALUE: sendMTFValues:t <- $x21
	.loc	1 481 4 is_stmt 0               ; compress.c:481:4
	add	x20, x20, #258
	cmp	x21, x26
	ldp	x17, x16, [x29, #-224]          ; 16-byte Folded Reload
	ldur	q20, [x29, #-208]               ; 16-byte Folded Reload
	ldp	q22, q21, [sp, #224]            ; 32-byte Folded Reload
	ldr	q23, [sp, #192]                 ; 16-byte Folded Reload
	b.eq	LBB3_125
Ltmp670:
LBB3_108:                               ; %.preheader1968
                                        ; =>This Loop Header: Depth=1
                                        ;     Child Loop BB3_117 Depth 2
                                        ;     Child Loop BB3_114 Depth 2
                                        ;     Child Loop BB3_120 Depth 2
	;DEBUG_VALUE: sendMTFValues:nSelectors <- [DW_OP_constu 176, DW_OP_minus] [$fp+0]
	;DEBUG_VALUE: sendMTFValues:nGroups <- $w26
	;DEBUG_VALUE: sendMTFValues:mtfv <- [DW_OP_constu 192, DW_OP_minus] [$fp+0]
	;DEBUG_VALUE: sendMTFValues:alphaSize <- [DW_OP_plus_uconst 220] [$sp+0]
	;DEBUG_VALUE: sendMTFValues:s <- $x19
	;DEBUG_VALUE: sendMTFValues:t <- $x21
	;DEBUG_VALUE: sendMTFValues:i <- 0
	;DEBUG_VALUE: sendMTFValues:minLen <- 32
	;DEBUG_VALUE: sendMTFValues:maxLen <- 0
	.loc	1 484 7 is_stmt 1               ; compress.c:484:7
	cmn	w16, #1
	b.lt	LBB3_106
Ltmp671:
; %bb.109:                              ; %iter.check
                                        ;   in Loop: Header=BB3_108 Depth=1
	;DEBUG_VALUE: sendMTFValues:maxLen <- 0
	;DEBUG_VALUE: sendMTFValues:minLen <- 32
	;DEBUG_VALUE: sendMTFValues:t <- $x21
	;DEBUG_VALUE: sendMTFValues:i <- 0
	;DEBUG_VALUE: sendMTFValues:nSelectors <- [DW_OP_constu 176, DW_OP_minus] [$fp+0]
	;DEBUG_VALUE: sendMTFValues:nGroups <- $w26
	;DEBUG_VALUE: sendMTFValues:mtfv <- [DW_OP_constu 192, DW_OP_minus] [$fp+0]
	;DEBUG_VALUE: sendMTFValues:alphaSize <- [DW_OP_plus_uconst 220] [$sp+0]
	;DEBUG_VALUE: sendMTFValues:s <- $x19
	cmp	w17, #8
	b.hs	LBB3_111
Ltmp672:
; %bb.110:                              ;   in Loop: Header=BB3_108 Depth=1
	;DEBUG_VALUE: sendMTFValues:maxLen <- 0
	;DEBUG_VALUE: sendMTFValues:minLen <- 32
	;DEBUG_VALUE: sendMTFValues:t <- $x21
	;DEBUG_VALUE: sendMTFValues:i <- 0
	;DEBUG_VALUE: sendMTFValues:nSelectors <- [DW_OP_constu 176, DW_OP_minus] [$fp+0]
	;DEBUG_VALUE: sendMTFValues:nGroups <- $w26
	;DEBUG_VALUE: sendMTFValues:mtfv <- [DW_OP_constu 192, DW_OP_minus] [$fp+0]
	;DEBUG_VALUE: sendMTFValues:alphaSize <- [DW_OP_plus_uconst 220] [$sp+0]
	;DEBUG_VALUE: sendMTFValues:s <- $x19
	.loc	1 0 7 is_stmt 0                 ; compress.c:0:7
	mov	x9, #0
	mov	w22, #0
	mov	w23, #32
	b	LBB3_120
Ltmp673:
LBB3_111:                               ; %vector.main.loop.iter.check
                                        ;   in Loop: Header=BB3_108 Depth=1
	;DEBUG_VALUE: sendMTFValues:maxLen <- 0
	;DEBUG_VALUE: sendMTFValues:minLen <- 32
	;DEBUG_VALUE: sendMTFValues:t <- $x21
	;DEBUG_VALUE: sendMTFValues:i <- 0
	;DEBUG_VALUE: sendMTFValues:nSelectors <- [DW_OP_constu 176, DW_OP_minus] [$fp+0]
	;DEBUG_VALUE: sendMTFValues:nGroups <- $w26
	;DEBUG_VALUE: sendMTFValues:mtfv <- [DW_OP_constu 192, DW_OP_minus] [$fp+0]
	;DEBUG_VALUE: sendMTFValues:alphaSize <- [DW_OP_plus_uconst 220] [$sp+0]
	;DEBUG_VALUE: sendMTFValues:s <- $x19
	.loc	1 484 7                         ; compress.c:484:7
	cmp	w17, #16
	b.hs	LBB3_116
Ltmp674:
; %bb.112:                              ;   in Loop: Header=BB3_108 Depth=1
	;DEBUG_VALUE: sendMTFValues:maxLen <- 0
	;DEBUG_VALUE: sendMTFValues:minLen <- 32
	;DEBUG_VALUE: sendMTFValues:t <- $x21
	;DEBUG_VALUE: sendMTFValues:i <- 0
	;DEBUG_VALUE: sendMTFValues:nSelectors <- [DW_OP_constu 176, DW_OP_minus] [$fp+0]
	;DEBUG_VALUE: sendMTFValues:nGroups <- $w26
	;DEBUG_VALUE: sendMTFValues:mtfv <- [DW_OP_constu 192, DW_OP_minus] [$fp+0]
	;DEBUG_VALUE: sendMTFValues:alphaSize <- [DW_OP_plus_uconst 220] [$sp+0]
	;DEBUG_VALUE: sendMTFValues:s <- $x19
	.loc	1 0 7                           ; compress.c:0:7
	mov	w22, #0
	mov	x8, #0
	mov	w23, #32
Ltmp675:
LBB3_113:                               ; %vec.epilog.ph
                                        ;   in Loop: Header=BB3_108 Depth=1
	;DEBUG_VALUE: sendMTFValues:maxLen <- 0
	;DEBUG_VALUE: sendMTFValues:minLen <- 32
	;DEBUG_VALUE: sendMTFValues:t <- $x21
	;DEBUG_VALUE: sendMTFValues:i <- 0
	;DEBUG_VALUE: sendMTFValues:nSelectors <- [DW_OP_constu 176, DW_OP_minus] [$fp+0]
	;DEBUG_VALUE: sendMTFValues:nGroups <- $w26
	;DEBUG_VALUE: sendMTFValues:mtfv <- [DW_OP_constu 192, DW_OP_minus] [$fp+0]
	;DEBUG_VALUE: sendMTFValues:alphaSize <- [DW_OP_plus_uconst 220] [$sp+0]
	;DEBUG_VALUE: sendMTFValues:s <- $x19
	.loc	1 484 7                         ; compress.c:484:7
	dup.4s	v0, w23
	dup.4s	v2, w22
	mov.16b	v1, v0
	mov.16b	v3, v2
Ltmp676:
LBB3_114:                               ; %vec.epilog.vector.body
                                        ;   Parent Loop BB3_108 Depth=1
                                        ; =>  This Inner Loop Header: Depth=2
	;DEBUG_VALUE: sendMTFValues:maxLen <- 0
