	.section	__TEXT,__text,regular,pure_instructions
	.build_version macos, 14, 0	sdk_version 14, 2
	.file	1 "/Users/mac/rustmap-clone/c-code/bzip2" "decompress.c"
	.file	2 "/Users/mac/rustmap-clone/c-code/bzip2" "./bzlib_private.h"
	.section	__TEXT,__literal16,16byte_literals
	.p2align	4, 0x0                          ; -- Begin function BZ2_decompress
lCPI0_0:
	.byte	0                               ; 0x0
	.byte	1                               ; 0x1
	.byte	2                               ; 0x2
	.byte	3                               ; 0x3
	.byte	4                               ; 0x4
	.byte	5                               ; 0x5
	.byte	6                               ; 0x6
	.byte	7                               ; 0x7
	.byte	8                               ; 0x8
	.byte	9                               ; 0x9
	.byte	10                              ; 0xa
	.byte	11                              ; 0xb
	.byte	12                              ; 0xc
	.byte	13                              ; 0xd
	.byte	14                              ; 0xe
	.byte	15                              ; 0xf
lCPI0_1:
	.byte	16                              ; 0x10
	.byte	17                              ; 0x11
	.byte	18                              ; 0x12
	.byte	19                              ; 0x13
	.byte	20                              ; 0x14
	.byte	21                              ; 0x15
	.byte	22                              ; 0x16
	.byte	23                              ; 0x17
	.byte	24                              ; 0x18
	.byte	25                              ; 0x19
	.byte	26                              ; 0x1a
	.byte	27                              ; 0x1b
	.byte	28                              ; 0x1c
	.byte	29                              ; 0x1d
	.byte	30                              ; 0x1e
	.byte	31                              ; 0x1f
lCPI0_2:
	.byte	32                              ; 0x20
	.byte	33                              ; 0x21
	.byte	34                              ; 0x22
	.byte	35                              ; 0x23
	.byte	36                              ; 0x24
	.byte	37                              ; 0x25
	.byte	38                              ; 0x26
	.byte	39                              ; 0x27
	.byte	40                              ; 0x28
	.byte	41                              ; 0x29
	.byte	42                              ; 0x2a
	.byte	43                              ; 0x2b
	.byte	44                              ; 0x2c
	.byte	45                              ; 0x2d
	.byte	46                              ; 0x2e
	.byte	47                              ; 0x2f
lCPI0_3:
	.byte	48                              ; 0x30
	.byte	49                              ; 0x31
	.byte	50                              ; 0x32
	.byte	51                              ; 0x33
	.byte	52                              ; 0x34
	.byte	53                              ; 0x35
	.byte	54                              ; 0x36
	.byte	55                              ; 0x37
	.byte	56                              ; 0x38
	.byte	57                              ; 0x39
	.byte	58                              ; 0x3a
	.byte	59                              ; 0x3b
	.byte	60                              ; 0x3c
	.byte	61                              ; 0x3d
	.byte	62                              ; 0x3e
	.byte	63                              ; 0x3f
lCPI0_4:
	.byte	64                              ; 0x40
	.byte	65                              ; 0x41
	.byte	66                              ; 0x42
	.byte	67                              ; 0x43
	.byte	68                              ; 0x44
	.byte	69                              ; 0x45
	.byte	70                              ; 0x46
	.byte	71                              ; 0x47
	.byte	72                              ; 0x48
	.byte	73                              ; 0x49
	.byte	74                              ; 0x4a
	.byte	75                              ; 0x4b
	.byte	76                              ; 0x4c
	.byte	77                              ; 0x4d
	.byte	78                              ; 0x4e
	.byte	79                              ; 0x4f
lCPI0_5:
	.byte	80                              ; 0x50
	.byte	81                              ; 0x51
	.byte	82                              ; 0x52
	.byte	83                              ; 0x53
	.byte	84                              ; 0x54
	.byte	85                              ; 0x55
	.byte	86                              ; 0x56
	.byte	87                              ; 0x57
	.byte	88                              ; 0x58
	.byte	89                              ; 0x59
	.byte	90                              ; 0x5a
	.byte	91                              ; 0x5b
	.byte	92                              ; 0x5c
	.byte	93                              ; 0x5d
	.byte	94                              ; 0x5e
	.byte	95                              ; 0x5f
lCPI0_6:
	.byte	96                              ; 0x60
	.byte	97                              ; 0x61
	.byte	98                              ; 0x62
	.byte	99                              ; 0x63
	.byte	100                             ; 0x64
	.byte	101                             ; 0x65
	.byte	102                             ; 0x66
	.byte	103                             ; 0x67
	.byte	104                             ; 0x68
	.byte	105                             ; 0x69
	.byte	106                             ; 0x6a
	.byte	107                             ; 0x6b
	.byte	108                             ; 0x6c
	.byte	109                             ; 0x6d
	.byte	110                             ; 0x6e
	.byte	111                             ; 0x6f
lCPI0_7:
	.byte	112                             ; 0x70
	.byte	113                             ; 0x71
	.byte	114                             ; 0x72
	.byte	115                             ; 0x73
	.byte	116                             ; 0x74
	.byte	117                             ; 0x75
	.byte	118                             ; 0x76
	.byte	119                             ; 0x77
	.byte	120                             ; 0x78
	.byte	121                             ; 0x79
	.byte	122                             ; 0x7a
	.byte	123                             ; 0x7b
	.byte	124                             ; 0x7c
	.byte	125                             ; 0x7d
	.byte	126                             ; 0x7e
	.byte	127                             ; 0x7f
lCPI0_8:
	.byte	128                             ; 0x80
	.byte	129                             ; 0x81
	.byte	130                             ; 0x82
	.byte	131                             ; 0x83
	.byte	132                             ; 0x84
	.byte	133                             ; 0x85
	.byte	134                             ; 0x86
	.byte	135                             ; 0x87
	.byte	136                             ; 0x88
	.byte	137                             ; 0x89
	.byte	138                             ; 0x8a
	.byte	139                             ; 0x8b
	.byte	140                             ; 0x8c
	.byte	141                             ; 0x8d
	.byte	142                             ; 0x8e
	.byte	143                             ; 0x8f
lCPI0_9:
	.byte	144                             ; 0x90
	.byte	145                             ; 0x91
	.byte	146                             ; 0x92
	.byte	147                             ; 0x93
	.byte	148                             ; 0x94
	.byte	149                             ; 0x95
	.byte	150                             ; 0x96
	.byte	151                             ; 0x97
	.byte	152                             ; 0x98
	.byte	153                             ; 0x99
	.byte	154                             ; 0x9a
	.byte	155                             ; 0x9b
	.byte	156                             ; 0x9c
	.byte	157                             ; 0x9d
	.byte	158                             ; 0x9e
	.byte	159                             ; 0x9f
lCPI0_10:
	.byte	160                             ; 0xa0
	.byte	161                             ; 0xa1
	.byte	162                             ; 0xa2
	.byte	163                             ; 0xa3
	.byte	164                             ; 0xa4
	.byte	165                             ; 0xa5
	.byte	166                             ; 0xa6
	.byte	167                             ; 0xa7
	.byte	168                             ; 0xa8
	.byte	169                             ; 0xa9
	.byte	170                             ; 0xaa
	.byte	171                             ; 0xab
	.byte	172                             ; 0xac
	.byte	173                             ; 0xad
	.byte	174                             ; 0xae
	.byte	175                             ; 0xaf
lCPI0_11:
	.byte	176                             ; 0xb0
	.byte	177                             ; 0xb1
	.byte	178                             ; 0xb2
	.byte	179                             ; 0xb3
	.byte	180                             ; 0xb4
	.byte	181                             ; 0xb5
	.byte	182                             ; 0xb6
	.byte	183                             ; 0xb7
	.byte	184                             ; 0xb8
	.byte	185                             ; 0xb9
	.byte	186                             ; 0xba
	.byte	187                             ; 0xbb
	.byte	188                             ; 0xbc
	.byte	189                             ; 0xbd
	.byte	190                             ; 0xbe
	.byte	191                             ; 0xbf
lCPI0_12:
	.byte	192                             ; 0xc0
	.byte	193                             ; 0xc1
	.byte	194                             ; 0xc2
	.byte	195                             ; 0xc3
	.byte	196                             ; 0xc4
	.byte	197                             ; 0xc5
	.byte	198                             ; 0xc6
	.byte	199                             ; 0xc7
	.byte	200                             ; 0xc8
	.byte	201                             ; 0xc9
	.byte	202                             ; 0xca
	.byte	203                             ; 0xcb
	.byte	204                             ; 0xcc
	.byte	205                             ; 0xcd
	.byte	206                             ; 0xce
	.byte	207                             ; 0xcf
lCPI0_13:
	.byte	208                             ; 0xd0
	.byte	209                             ; 0xd1
	.byte	210                             ; 0xd2
	.byte	211                             ; 0xd3
	.byte	212                             ; 0xd4
	.byte	213                             ; 0xd5
	.byte	214                             ; 0xd6
	.byte	215                             ; 0xd7
	.byte	216                             ; 0xd8
	.byte	217                             ; 0xd9
	.byte	218                             ; 0xda
	.byte	219                             ; 0xdb
	.byte	220                             ; 0xdc
	.byte	221                             ; 0xdd
	.byte	222                             ; 0xde
	.byte	223                             ; 0xdf
lCPI0_14:
	.byte	224                             ; 0xe0
	.byte	225                             ; 0xe1
	.byte	226                             ; 0xe2
	.byte	227                             ; 0xe3
	.byte	228                             ; 0xe4
	.byte	229                             ; 0xe5
	.byte	230                             ; 0xe6
	.byte	231                             ; 0xe7
	.byte	232                             ; 0xe8
	.byte	233                             ; 0xe9
	.byte	234                             ; 0xea
	.byte	235                             ; 0xeb
	.byte	236                             ; 0xec
	.byte	237                             ; 0xed
	.byte	238                             ; 0xee
	.byte	239                             ; 0xef
lCPI0_15:
	.byte	240                             ; 0xf0
	.byte	241                             ; 0xf1
	.byte	242                             ; 0xf2
	.byte	243                             ; 0xf3
	.byte	244                             ; 0xf4
	.byte	245                             ; 0xf5
	.byte	246                             ; 0xf6
	.byte	247                             ; 0xf7
	.byte	248                             ; 0xf8
	.byte	249                             ; 0xf9
	.byte	250                             ; 0xfa
	.byte	251                             ; 0xfb
	.byte	252                             ; 0xfc
	.byte	253                             ; 0xfd
	.byte	254                             ; 0xfe
	.byte	255                             ; 0xff
lCPI0_16:
	.byte	12                              ; 0xc
	.byte	255                             ; 0xff
	.byte	255                             ; 0xff
	.byte	255                             ; 0xff
	.byte	13                              ; 0xd
	.byte	255                             ; 0xff
	.byte	255                             ; 0xff
	.byte	255                             ; 0xff
	.byte	14                              ; 0xe
	.byte	255                             ; 0xff
	.byte	255                             ; 0xff
	.byte	255                             ; 0xff
	.byte	15                              ; 0xf
	.byte	255                             ; 0xff
	.byte	255                             ; 0xff
	.byte	255                             ; 0xff
lCPI0_17:
	.byte	0                               ; 0x0
	.byte	255                             ; 0xff
	.byte	255                             ; 0xff
	.byte	255                             ; 0xff
	.byte	1                               ; 0x1
	.byte	255                             ; 0xff
	.byte	255                             ; 0xff
	.byte	255                             ; 0xff
	.byte	2                               ; 0x2
	.byte	255                             ; 0xff
	.byte	255                             ; 0xff
	.byte	255                             ; 0xff
	.byte	3                               ; 0x3
	.byte	255                             ; 0xff
	.byte	255                             ; 0xff
	.byte	255                             ; 0xff
lCPI0_18:
	.byte	4                               ; 0x4
	.byte	255                             ; 0xff
	.byte	255                             ; 0xff
	.byte	255                             ; 0xff
	.byte	5                               ; 0x5
	.byte	255                             ; 0xff
	.byte	255                             ; 0xff
	.byte	255                             ; 0xff
	.byte	6                               ; 0x6
	.byte	255                             ; 0xff
	.byte	255                             ; 0xff
	.byte	255                             ; 0xff
	.byte	7                               ; 0x7
	.byte	255                             ; 0xff
	.byte	255                             ; 0xff
	.byte	255                             ; 0xff
lCPI0_19:
	.byte	8                               ; 0x8
	.byte	255                             ; 0xff
	.byte	255                             ; 0xff
	.byte	255                             ; 0xff
	.byte	9                               ; 0x9
	.byte	255                             ; 0xff
	.byte	255                             ; 0xff
	.byte	255                             ; 0xff
	.byte	10                              ; 0xa
	.byte	255                             ; 0xff
	.byte	255                             ; 0xff
	.byte	255                             ; 0xff
	.byte	11                              ; 0xb
	.byte	255                             ; 0xff
	.byte	255                             ; 0xff
	.byte	255                             ; 0xff
	.section	__TEXT,__literal8,8byte_literals
	.p2align	3, 0x0
lCPI0_20:
	.byte	1                               ; 0x1
	.byte	2                               ; 0x2
	.byte	3                               ; 0x3
	.byte	4                               ; 0x4
	.byte	5                               ; 0x5
	.byte	6                               ; 0x6
	.byte	7                               ; 0x7
	.byte	8                               ; 0x8
	.section	__TEXT,__text,regular,pure_instructions
	.globl	_BZ2_decompress
	.p2align	2
_BZ2_decompress:                        ; @BZ2_decompress
Lfunc_begin0:
	.loc	1 107 0                         ; decompress.c:107:0
	.cfi_startproc
; %bb.0:
	;DEBUG_VALUE: BZ2_decompress:s <- $x0
	sub	sp, sp, #320
	.cfi_def_cfa_offset 320
	stp	x28, x27, [sp, #224]            ; 16-byte Folded Spill
	stp	x26, x25, [sp, #240]            ; 16-byte Folded Spill
	stp	x24, x23, [sp, #256]            ; 16-byte Folded Spill
	stp	x22, x21, [sp, #272]            ; 16-byte Folded Spill
	stp	x20, x19, [sp, #288]            ; 16-byte Folded Spill
	stp	x29, x30, [sp, #304]            ; 16-byte Folded Spill
	add	x29, sp, #304
	.cfi_def_cfa w29, 16
	.cfi_offset w30, -8
	.cfi_offset w29, -16
	.cfi_offset w19, -24
	.cfi_offset w20, -32
	.cfi_offset w21, -40
	.cfi_offset w22, -48
	.cfi_offset w23, -56
	.cfi_offset w24, -64
	.cfi_offset w25, -72
	.cfi_offset w26, -80
	.cfi_offset w27, -88
	.cfi_offset w28, -96
	mov	x19, x0
Ltmp0:
	;DEBUG_VALUE: BZ2_decompress:s <- $x19
	mov	w8, #64036
	add	x22, x0, x8
Ltmp1:
	.loc	1 111 25 prologue_end           ; decompress.c:111:25
	ldr	x26, [x0]
Ltmp2:
	;DEBUG_VALUE: BZ2_decompress:strm <- $x26
	.loc	1 139 11                        ; decompress.c:139:11
	ldr	w8, [x0, #8]
Ltmp3:
	.loc	1 139 8 is_stmt 0               ; decompress.c:139:8
	subs	w8, w8, #10
	b.ne	LBB0_2
Ltmp4:
; %bb.1:
	;DEBUG_VALUE: BZ2_decompress:strm <- $x26
	;DEBUG_VALUE: BZ2_decompress:s <- $x19
	.loc	1 0 8                           ; decompress.c:0:8
	mov	x25, #0
	mov	x27, #0
	mov	x28, #0
	stur	wzr, [x29, #-120]               ; 4-byte Folded Spill
	mov	w30, #0
	mov	w23, #0
	mov	w20, #0
	mov	w2, #0
	mov	w14, #0
	mov	w10, #0
	mov	w17, #0
	mov	w1, #0
	mov	w7, #0
	mov	w4, #0
	mov	w11, #0
	mov	w5, #0
	mov	w15, #0
	stur	wzr, [x29, #-144]               ; 4-byte Folded Spill
	mov	w3, #0
	mov	w24, #0
	mov	w6, #0
	mov	w16, #0
	mov	w21, #0
	stur	xzr, [x29, #-112]               ; 8-byte Folded Spill
Ltmp5:
	.loc	1 142 17 is_stmt 1              ; decompress.c:142:17
	movi.2d	v0, #0000000000000000
	stur	q0, [x22, #92]
	stp	q0, q0, [x22, #64]
	stp	q0, q0, [x22, #32]
	stp	q0, q0, [x22]
	b	LBB0_3
Ltmp6:
LBB0_2:                                 ; %._crit_edge2631
	;DEBUG_VALUE: BZ2_decompress:strm <- $x26
	;DEBUG_VALUE: BZ2_decompress:s <- $x19
	.loc	1 168 11                        ; decompress.c:168:11
	ldp	w9, w21, [x22]
	stur	x9, [x29, #-112]                ; 8-byte Folded Spill
	.loc	1 170 11                        ; decompress.c:170:11
	ldp	w16, w6, [x22, #8]
	.loc	1 172 17                        ; decompress.c:172:17
	ldp	w24, w3, [x22, #16]
	.loc	1 174 13                        ; decompress.c:174:13
	ldp	w9, w15, [x22, #24]
	stur	w9, [x29, #-144]                ; 4-byte Folded Spill
	.loc	1 176 18                        ; decompress.c:176:18
	ldp	w5, w11, [x22, #32]
	.loc	1 178 19                        ; decompress.c:178:19
	ldp	w4, w7, [x22, #40]
	.loc	1 180 12                        ; decompress.c:180:12
	ldp	w1, w17, [x22, #48]
	.loc	1 182 14                        ; decompress.c:182:14
	ldp	w10, w14, [x22, #56]
	.loc	1 184 12                        ; decompress.c:184:12
	ldp	w2, w20, [x22, #64]
	.loc	1 186 12                        ; decompress.c:186:12
	ldp	w23, w30, [x22, #72]
	.loc	1 188 17                        ; decompress.c:188:17
	ldr	w9, [x22, #80]
	stur	w9, [x29, #-120]                ; 4-byte Folded Spill
	.loc	1 189 16                        ; decompress.c:189:16
	ldur	x28, [x22, #84]
	.loc	1 190 15                        ; decompress.c:190:15
	ldur	x27, [x22, #92]
	.loc	1 191 15                        ; decompress.c:191:15
	ldur	x25, [x22, #100]
Ltmp7:
LBB0_3:
	;DEBUG_VALUE: BZ2_decompress:strm <- $x26
	;DEBUG_VALUE: BZ2_decompress:s <- $x19
	;DEBUG_VALUE: BZ2_decompress:i <- [DW_OP_constu 112, DW_OP_minus] [$fp+0]
	;DEBUG_VALUE: BZ2_decompress:j <- $w21
	;DEBUG_VALUE: BZ2_decompress:t <- $w16
	;DEBUG_VALUE: BZ2_decompress:alphaSize <- $w6
	;DEBUG_VALUE: BZ2_decompress:nGroups <- $w24
	;DEBUG_VALUE: BZ2_decompress:nSelectors <- $w3
	;DEBUG_VALUE: BZ2_decompress:EOB <- [DW_OP_constu 144, DW_OP_minus] [$fp+0]
	;DEBUG_VALUE: BZ2_decompress:groupNo <- $w15
	;DEBUG_VALUE: BZ2_decompress:groupPos <- $w5
	;DEBUG_VALUE: BZ2_decompress:nextSym <- $w11
	;DEBUG_VALUE: BZ2_decompress:nblockMAX <- $w4
	;DEBUG_VALUE: BZ2_decompress:nblock <- $w7
	;DEBUG_VALUE: BZ2_decompress:es <- $w1
	;DEBUG_VALUE: BZ2_decompress:N <- $w17
	;DEBUG_VALUE: BZ2_decompress:curr <- $w10
	;DEBUG_VALUE: BZ2_decompress:zt <- $w14
	;DEBUG_VALUE: BZ2_decompress:zn <- $w2
	;DEBUG_VALUE: BZ2_decompress:zvec <- $w20
	;DEBUG_VALUE: BZ2_decompress:zj <- $w23
	;DEBUG_VALUE: BZ2_decompress:gSel <- $w30
	;DEBUG_VALUE: BZ2_decompress:gMinlen <- [DW_OP_constu 120, DW_OP_minus] [$fp+0]
	;DEBUG_VALUE: BZ2_decompress:gLimit <- $x28
	;DEBUG_VALUE: BZ2_decompress:gBase <- $x27
	;DEBUG_VALUE: BZ2_decompress:gPerm <- $x25
	;DEBUG_VALUE: BZ2_decompress:retVal <- 0
	.loc	1 0 15 is_stmt 0                ; decompress.c:0:15
	stur	x11, [x29, #-128]               ; 8-byte Folded Spill
Ltmp8:
	;DEBUG_VALUE: BZ2_decompress:nextSym <- [DW_OP_constu 128, DW_OP_minus] [$fp+0]
	stur	w10, [x29, #-116]               ; 4-byte Folded Spill
Ltmp9:
	;DEBUG_VALUE: BZ2_decompress:curr <- [DW_OP_constu 116, DW_OP_minus] [$fp+0]
	;DEBUG_VALUE: BZ2_decompress:curr <- [DW_OP_constu 116, DW_OP_minus] [$fp+0]
	.loc	1 195 4 is_stmt 1               ; decompress.c:195:4
	cmp	w8, #40
	b.hi	LBB0_8
Ltmp10:
; %bb.4:
	;DEBUG_VALUE: BZ2_decompress:curr <- [DW_OP_constu 116, DW_OP_minus] [$fp+0]
	;DEBUG_VALUE: BZ2_decompress:nextSym <- [DW_OP_constu 128, DW_OP_minus] [$fp+0]
	;DEBUG_VALUE: BZ2_decompress:retVal <- 0
	;DEBUG_VALUE: BZ2_decompress:gPerm <- $x25
	;DEBUG_VALUE: BZ2_decompress:gBase <- $x27
	;DEBUG_VALUE: BZ2_decompress:gLimit <- $x28
	;DEBUG_VALUE: BZ2_decompress:gMinlen <- [DW_OP_constu 120, DW_OP_minus] [$fp+0]
	;DEBUG_VALUE: BZ2_decompress:gSel <- $w30
	;DEBUG_VALUE: BZ2_decompress:zj <- $w23
	;DEBUG_VALUE: BZ2_decompress:zvec <- $w20
	;DEBUG_VALUE: BZ2_decompress:zn <- $w2
	;DEBUG_VALUE: BZ2_decompress:zt <- $w14
	;DEBUG_VALUE: BZ2_decompress:N <- $w17
	;DEBUG_VALUE: BZ2_decompress:es <- $w1
	;DEBUG_VALUE: BZ2_decompress:nblock <- $w7
	;DEBUG_VALUE: BZ2_decompress:nblockMAX <- $w4
	;DEBUG_VALUE: BZ2_decompress:groupPos <- $w5
	;DEBUG_VALUE: BZ2_decompress:groupNo <- $w15
	;DEBUG_VALUE: BZ2_decompress:EOB <- [DW_OP_constu 144, DW_OP_minus] [$fp+0]
	;DEBUG_VALUE: BZ2_decompress:nSelectors <- $w3
	;DEBUG_VALUE: BZ2_decompress:nGroups <- $w24
	;DEBUG_VALUE: BZ2_decompress:alphaSize <- $w6
	;DEBUG_VALUE: BZ2_decompress:t <- $w16
	;DEBUG_VALUE: BZ2_decompress:j <- $w21
	;DEBUG_VALUE: BZ2_decompress:i <- [DW_OP_constu 112, DW_OP_minus] [$fp+0]
	;DEBUG_VALUE: BZ2_decompress:strm <- $x26
	;DEBUG_VALUE: BZ2_decompress:s <- $x19
	.loc	1 0 4 is_stmt 0                 ; decompress.c:0:4
	mov	w9, #7884
	add	x9, x19, x9
	str	x9, [sp, #152]                  ; 8-byte Folded Spill
Lloh0:
	adrp	x10, lJTI0_0@PAGE
Lloh1:
	add	x10, x10, lJTI0_0@PAGEOFF
	adr	x9, LBB0_5
	ldrh	w11, [x10, x8, lsl  #1]
	add	x9, x9, x11, lsl #2
	br	x9
Ltmp11:
LBB0_5:
	;DEBUG_VALUE: BZ2_decompress:curr <- [DW_OP_constu 116, DW_OP_minus] [$fp+0]
	;DEBUG_VALUE: BZ2_decompress:nextSym <- [DW_OP_constu 128, DW_OP_minus] [$fp+0]
	;DEBUG_VALUE: BZ2_decompress:retVal <- 0
	;DEBUG_VALUE: BZ2_decompress:gPerm <- $x25
	;DEBUG_VALUE: BZ2_decompress:gBase <- $x27
	;DEBUG_VALUE: BZ2_decompress:gLimit <- $x28
	;DEBUG_VALUE: BZ2_decompress:gMinlen <- [DW_OP_constu 120, DW_OP_minus] [$fp+0]
	;DEBUG_VALUE: BZ2_decompress:gSel <- $w30
	;DEBUG_VALUE: BZ2_decompress:zj <- $w23
	;DEBUG_VALUE: BZ2_decompress:zvec <- $w20
	;DEBUG_VALUE: BZ2_decompress:zn <- $w2
	;DEBUG_VALUE: BZ2_decompress:zt <- $w14
	;DEBUG_VALUE: BZ2_decompress:N <- $w17
	;DEBUG_VALUE: BZ2_decompress:es <- $w1
	;DEBUG_VALUE: BZ2_decompress:nblock <- $w7
	;DEBUG_VALUE: BZ2_decompress:nblockMAX <- $w4
	;DEBUG_VALUE: BZ2_decompress:groupPos <- $w5
	;DEBUG_VALUE: BZ2_decompress:groupNo <- $w15
	;DEBUG_VALUE: BZ2_decompress:EOB <- [DW_OP_constu 144, DW_OP_minus] [$fp+0]
	;DEBUG_VALUE: BZ2_decompress:nSelectors <- $w3
	;DEBUG_VALUE: BZ2_decompress:nGroups <- $w24
	;DEBUG_VALUE: BZ2_decompress:alphaSize <- $w6
	;DEBUG_VALUE: BZ2_decompress:t <- $w16
	;DEBUG_VALUE: BZ2_decompress:j <- $w21
	;DEBUG_VALUE: BZ2_decompress:i <- [DW_OP_constu 112, DW_OP_minus] [$fp+0]
	;DEBUG_VALUE: BZ2_decompress:strm <- $x26
	;DEBUG_VALUE: BZ2_decompress:s <- $x19
	mov	w8, #10
Ltmp12:
	.loc	1 197 25 is_stmt 1              ; decompress.c:197:25
	str	w8, [x19, #8]
Ltmp13:
	.loc	1 197 58 is_stmt 0              ; decompress.c:197:58
	ldr	w8, [x19, #36]
Ltmp14:
	.loc	1 197 55                        ; decompress.c:197:55
	cmp	w8, #8
	b.lt	LBB0_75
Ltmp15:
; %bb.6:                                ; %.._crit_edge_crit_edge
	;DEBUG_VALUE: BZ2_decompress:curr <- [DW_OP_constu 116, DW_OP_minus] [$fp+0]
	;DEBUG_VALUE: BZ2_decompress:nextSym <- [DW_OP_constu 128, DW_OP_minus] [$fp+0]
	;DEBUG_VALUE: BZ2_decompress:retVal <- 0
	;DEBUG_VALUE: BZ2_decompress:gPerm <- $x25
	;DEBUG_VALUE: BZ2_decompress:gBase <- $x27
	;DEBUG_VALUE: BZ2_decompress:gLimit <- $x28
	;DEBUG_VALUE: BZ2_decompress:gMinlen <- [DW_OP_constu 120, DW_OP_minus] [$fp+0]
	;DEBUG_VALUE: BZ2_decompress:gSel <- $w30
	;DEBUG_VALUE: BZ2_decompress:zj <- $w23
	;DEBUG_VALUE: BZ2_decompress:zvec <- $w20
	;DEBUG_VALUE: BZ2_decompress:zn <- $w2
	;DEBUG_VALUE: BZ2_decompress:zt <- $w14
	;DEBUG_VALUE: BZ2_decompress:N <- $w17
	;DEBUG_VALUE: BZ2_decompress:es <- $w1
	;DEBUG_VALUE: BZ2_decompress:nblock <- $w7
	;DEBUG_VALUE: BZ2_decompress:nblockMAX <- $w4
	;DEBUG_VALUE: BZ2_decompress:groupPos <- $w5
	;DEBUG_VALUE: BZ2_decompress:groupNo <- $w15
	;DEBUG_VALUE: BZ2_decompress:EOB <- [DW_OP_constu 144, DW_OP_minus] [$fp+0]
	;DEBUG_VALUE: BZ2_decompress:nSelectors <- $w3
	;DEBUG_VALUE: BZ2_decompress:nGroups <- $w24
	;DEBUG_VALUE: BZ2_decompress:alphaSize <- $w6
	;DEBUG_VALUE: BZ2_decompress:t <- $w16
	;DEBUG_VALUE: BZ2_decompress:j <- $w21
	;DEBUG_VALUE: BZ2_decompress:i <- [DW_OP_constu 112, DW_OP_minus] [$fp+0]
	;DEBUG_VALUE: BZ2_decompress:strm <- $x26
	;DEBUG_VALUE: BZ2_decompress:s <- $x19
	.loc	1 197 91                        ; decompress.c:197:91
	ldr	w9, [x19, #32]
Ltmp16:
LBB0_7:                                 ; %._crit_edge
	;DEBUG_VALUE: BZ2_decompress:curr <- [DW_OP_constu 116, DW_OP_minus] [$fp+0]
	;DEBUG_VALUE: BZ2_decompress:nextSym <- [DW_OP_constu 128, DW_OP_minus] [$fp+0]
	;DEBUG_VALUE: BZ2_decompress:retVal <- 0
	;DEBUG_VALUE: BZ2_decompress:gPerm <- $x25
	;DEBUG_VALUE: BZ2_decompress:gBase <- $x27
	;DEBUG_VALUE: BZ2_decompress:gLimit <- $x28
	;DEBUG_VALUE: BZ2_decompress:gMinlen <- [DW_OP_constu 120, DW_OP_minus] [$fp+0]
	;DEBUG_VALUE: BZ2_decompress:gSel <- $w30
	;DEBUG_VALUE: BZ2_decompress:zj <- $w23
	;DEBUG_VALUE: BZ2_decompress:zvec <- $w20
	;DEBUG_VALUE: BZ2_decompress:zn <- $w2
	;DEBUG_VALUE: BZ2_decompress:zt <- $w14
	;DEBUG_VALUE: BZ2_decompress:N <- $w17
	;DEBUG_VALUE: BZ2_decompress:es <- $w1
	;DEBUG_VALUE: BZ2_decompress:nblock <- $w7
	;DEBUG_VALUE: BZ2_decompress:nblockMAX <- $w4
	;DEBUG_VALUE: BZ2_decompress:groupPos <- $w5
	;DEBUG_VALUE: BZ2_decompress:groupNo <- $w15
	;DEBUG_VALUE: BZ2_decompress:EOB <- [DW_OP_constu 144, DW_OP_minus] [$fp+0]
	;DEBUG_VALUE: BZ2_decompress:nSelectors <- $w3
	;DEBUG_VALUE: BZ2_decompress:nGroups <- $w24
	;DEBUG_VALUE: BZ2_decompress:alphaSize <- $w6
	;DEBUG_VALUE: BZ2_decompress:t <- $w16
	;DEBUG_VALUE: BZ2_decompress:j <- $w21
	;DEBUG_VALUE: BZ2_decompress:i <- [DW_OP_constu 112, DW_OP_minus] [$fp+0]
	;DEBUG_VALUE: BZ2_decompress:strm <- $x26
	;DEBUG_VALUE: BZ2_decompress:s <- $x19
	.loc	1 197 111                       ; decompress.c:197:111
	sub	w8, w8, #8
	.loc	1 197 98                        ; decompress.c:197:98
	lsr	w9, w9, w8
Ltmp17:
	;DEBUG_VALUE: v <- [DW_OP_constu 255, DW_OP_and, DW_OP_stack_value] $w9
	.loc	1 197 142                       ; decompress.c:197:142
	str	w8, [x19, #36]
Ltmp18:
	.loc	1 198 11 is_stmt 1              ; decompress.c:198:11
	and	w9, w9, #0xff
Ltmp19:
	;DEBUG_VALUE: BZ2_decompress:uc <- undef
	.loc	1 198 11 is_stmt 0              ; decompress.c:198:11
	cmp	w9, #66
	b.eq	LBB0_10
	b	LBB0_21
Ltmp20:
LBB0_8:
	;DEBUG_VALUE: BZ2_decompress:curr <- [DW_OP_constu 116, DW_OP_minus] [$fp+0]
	;DEBUG_VALUE: BZ2_decompress:nextSym <- [DW_OP_constu 128, DW_OP_minus] [$fp+0]
	;DEBUG_VALUE: BZ2_decompress:retVal <- 0
	;DEBUG_VALUE: BZ2_decompress:gPerm <- $x25
	;DEBUG_VALUE: BZ2_decompress:gBase <- $x27
	;DEBUG_VALUE: BZ2_decompress:gLimit <- $x28
	;DEBUG_VALUE: BZ2_decompress:gMinlen <- [DW_OP_constu 120, DW_OP_minus] [$fp+0]
	;DEBUG_VALUE: BZ2_decompress:gSel <- $w30
	;DEBUG_VALUE: BZ2_decompress:zj <- $w23
	;DEBUG_VALUE: BZ2_decompress:zvec <- $w20
	;DEBUG_VALUE: BZ2_decompress:zn <- $w2
	;DEBUG_VALUE: BZ2_decompress:zt <- $w14
	;DEBUG_VALUE: BZ2_decompress:N <- $w17
	;DEBUG_VALUE: BZ2_decompress:es <- $w1
	;DEBUG_VALUE: BZ2_decompress:nblock <- $w7
	;DEBUG_VALUE: BZ2_decompress:nblockMAX <- $w4
	;DEBUG_VALUE: BZ2_decompress:groupPos <- $w5
	;DEBUG_VALUE: BZ2_decompress:groupNo <- $w15
	;DEBUG_VALUE: BZ2_decompress:EOB <- [DW_OP_constu 144, DW_OP_minus] [$fp+0]
	;DEBUG_VALUE: BZ2_decompress:nSelectors <- $w3
	;DEBUG_VALUE: BZ2_decompress:nGroups <- $w24
	;DEBUG_VALUE: BZ2_decompress:alphaSize <- $w6
	;DEBUG_VALUE: BZ2_decompress:t <- $w16
	;DEBUG_VALUE: BZ2_decompress:j <- $w21
	;DEBUG_VALUE: BZ2_decompress:i <- [DW_OP_constu 112, DW_OP_minus] [$fp+0]
	;DEBUG_VALUE: BZ2_decompress:strm <- $x26
	;DEBUG_VALUE: BZ2_decompress:s <- $x19
	.loc	1 614 36 is_stmt 1              ; decompress.c:614:36
	mov	w0, #4001
	str	w24, [sp, #44]                  ; 4-byte Folded Spill
Ltmp21:
	;DEBUG_VALUE: BZ2_decompress:nGroups <- [DW_OP_plus_uconst 44] [$sp+0]
	.loc	1 0 36 is_stmt 0                ; decompress.c:0:36
	str	w6, [sp, #64]                   ; 4-byte Folded Spill
Ltmp22:
	;DEBUG_VALUE: BZ2_decompress:alphaSize <- [DW_OP_plus_uconst 64] [$sp+0]
	stp	w21, w23, [sp, #88]             ; 8-byte Folded Spill
	str	x27, [sp, #120]                 ; 8-byte Folded Spill
Ltmp23:
	;DEBUG_VALUE: BZ2_decompress:gBase <- [DW_OP_plus_uconst 120] [$sp+0]
	str	x25, [sp, #48]                  ; 8-byte Folded Spill
Ltmp24:
	;DEBUG_VALUE: BZ2_decompress:gPerm <- [DW_OP_plus_uconst 48] [$sp+0]
	str	x28, [sp, #136]                 ; 8-byte Folded Spill
Ltmp25:
	;DEBUG_VALUE: BZ2_decompress:gLimit <- [DW_OP_plus_uconst 136] [$sp+0]
	str	w20, [sp, #128]                 ; 4-byte Folded Spill
Ltmp26:
	;DEBUG_VALUE: BZ2_decompress:zvec <- [DW_OP_plus_uconst 128] [$sp+0]
	str	x30, [sp, #152]                 ; 8-byte Folded Spill
	mov	x21, x17
Ltmp27:
	mov	x25, x1
	mov	x26, x2
Ltmp28:
	mov	x23, x3
Ltmp29:
	mov	x24, x4
	mov	x27, x7
	mov	x28, x5
	str	x15, [sp, #96]                  ; 8-byte Folded Spill
	mov	x20, x16
	str	w14, [sp, #148]                 ; 4-byte Folded Spill
Ltmp30:
	;DEBUG_VALUE: BZ2_decompress:zt <- [DW_OP_plus_uconst 148] [$sp+0]
	.loc	1 614 36                        ; decompress.c:614:36
	bl	_BZ2_bz__AssertH__fail
Ltmp31:
	.loc	1 617 24 is_stmt 1              ; decompress.c:617:24
	mov	w0, #4002
	bl	_BZ2_bz__AssertH__fail
Ltmp32:
	.loc	1 0 24 is_stmt 0                ; decompress.c:0:24
	ldr	w14, [sp, #148]                 ; 4-byte Folded Reload
	mov	x16, x20
	ldr	x15, [sp, #96]                  ; 8-byte Folded Reload
	mov	x5, x28
	mov	x7, x27
	mov	x4, x24
	mov	x3, x23
	mov	x2, x26
	mov	x1, x25
	mov	x17, x21
	ldr	x30, [sp, #152]                 ; 8-byte Folded Reload
	ldr	w20, [sp, #128]                 ; 4-byte Folded Reload
	ldr	x28, [sp, #136]                 ; 8-byte Folded Reload
	ldp	w21, w23, [sp, #88]             ; 8-byte Folded Reload
	ldr	x25, [sp, #48]                  ; 8-byte Folded Reload
	ldr	x27, [sp, #120]                 ; 8-byte Folded Reload
	ldr	w6, [sp, #64]                   ; 4-byte Folded Reload
	ldr	w24, [sp, #44]                  ; 4-byte Folded Reload
	b	LBB0_283
Ltmp33:
LBB0_9:                                 ; %._crit_edge2681
	;DEBUG_VALUE: BZ2_decompress:curr <- [DW_OP_constu 116, DW_OP_minus] [$fp+0]
	;DEBUG_VALUE: BZ2_decompress:nextSym <- [DW_OP_constu 128, DW_OP_minus] [$fp+0]
	;DEBUG_VALUE: BZ2_decompress:retVal <- 0
	;DEBUG_VALUE: BZ2_decompress:gPerm <- $x25
	;DEBUG_VALUE: BZ2_decompress:gBase <- $x27
	;DEBUG_VALUE: BZ2_decompress:gLimit <- $x28
	;DEBUG_VALUE: BZ2_decompress:gMinlen <- [DW_OP_constu 120, DW_OP_minus] [$fp+0]
	;DEBUG_VALUE: BZ2_decompress:gSel <- $w30
	;DEBUG_VALUE: BZ2_decompress:zj <- $w23
	;DEBUG_VALUE: BZ2_decompress:zvec <- $w20
	;DEBUG_VALUE: BZ2_decompress:zn <- $w2
	;DEBUG_VALUE: BZ2_decompress:zt <- $w14
	;DEBUG_VALUE: BZ2_decompress:N <- $w17
	;DEBUG_VALUE: BZ2_decompress:es <- $w1
	;DEBUG_VALUE: BZ2_decompress:nblock <- $w7
	;DEBUG_VALUE: BZ2_decompress:nblockMAX <- $w4
	;DEBUG_VALUE: BZ2_decompress:groupPos <- $w5
	;DEBUG_VALUE: BZ2_decompress:groupNo <- $w15
	;DEBUG_VALUE: BZ2_decompress:EOB <- [DW_OP_constu 144, DW_OP_minus] [$fp+0]
	;DEBUG_VALUE: BZ2_decompress:nSelectors <- $w3
	;DEBUG_VALUE: BZ2_decompress:nGroups <- $w24
	;DEBUG_VALUE: BZ2_decompress:alphaSize <- $w6
	;DEBUG_VALUE: BZ2_decompress:t <- $w16
	;DEBUG_VALUE: BZ2_decompress:j <- $w21
	;DEBUG_VALUE: BZ2_decompress:i <- [DW_OP_constu 112, DW_OP_minus] [$fp+0]
	;DEBUG_VALUE: BZ2_decompress:strm <- $x26
	;DEBUG_VALUE: BZ2_decompress:s <- $x19
	.loc	1 200 58 is_stmt 1              ; decompress.c:200:58
	ldr	w8, [x19, #36]
Ltmp34:
LBB0_10:
	;DEBUG_VALUE: BZ2_decompress:curr <- [DW_OP_constu 116, DW_OP_minus] [$fp+0]
	;DEBUG_VALUE: BZ2_decompress:nextSym <- [DW_OP_constu 128, DW_OP_minus] [$fp+0]
	;DEBUG_VALUE: BZ2_decompress:retVal <- 0
	;DEBUG_VALUE: BZ2_decompress:gPerm <- $x25
	;DEBUG_VALUE: BZ2_decompress:gBase <- $x27
	;DEBUG_VALUE: BZ2_decompress:gLimit <- $x28
	;DEBUG_VALUE: BZ2_decompress:gMinlen <- [DW_OP_constu 120, DW_OP_minus] [$fp+0]
	;DEBUG_VALUE: BZ2_decompress:gSel <- $w30
	;DEBUG_VALUE: BZ2_decompress:zj <- $w23
	;DEBUG_VALUE: BZ2_decompress:zvec <- $w20
	;DEBUG_VALUE: BZ2_decompress:zn <- $w2
	;DEBUG_VALUE: BZ2_decompress:zt <- $w14
	;DEBUG_VALUE: BZ2_decompress:N <- $w17
	;DEBUG_VALUE: BZ2_decompress:es <- $w1
	;DEBUG_VALUE: BZ2_decompress:nblock <- $w7
	;DEBUG_VALUE: BZ2_decompress:nblockMAX <- $w4
	;DEBUG_VALUE: BZ2_decompress:groupPos <- $w5
	;DEBUG_VALUE: BZ2_decompress:groupNo <- $w15
	;DEBUG_VALUE: BZ2_decompress:EOB <- [DW_OP_constu 144, DW_OP_minus] [$fp+0]
	;DEBUG_VALUE: BZ2_decompress:nSelectors <- $w3
	;DEBUG_VALUE: BZ2_decompress:nGroups <- $w24
	;DEBUG_VALUE: BZ2_decompress:alphaSize <- $w6
	;DEBUG_VALUE: BZ2_decompress:t <- $w16
	;DEBUG_VALUE: BZ2_decompress:j <- $w21
	;DEBUG_VALUE: BZ2_decompress:i <- [DW_OP_constu 112, DW_OP_minus] [$fp+0]
	;DEBUG_VALUE: BZ2_decompress:strm <- $x26
	;DEBUG_VALUE: BZ2_decompress:s <- $x19
	.loc	1 0 58 is_stmt 0                ; decompress.c:0:58
	mov	w9, #11
	.loc	1 200 25                        ; decompress.c:200:25
	str	w9, [x19, #8]
Ltmp35:
	.loc	1 200 55                        ; decompress.c:200:55
	cmp	w8, #8
	b.lt	LBB0_62
Ltmp36:
; %bb.11:                               ; %.._crit_edge2128_crit_edge
	;DEBUG_VALUE: BZ2_decompress:curr <- [DW_OP_constu 116, DW_OP_minus] [$fp+0]
	;DEBUG_VALUE: BZ2_decompress:nextSym <- [DW_OP_constu 128, DW_OP_minus] [$fp+0]
	;DEBUG_VALUE: BZ2_decompress:retVal <- 0
	;DEBUG_VALUE: BZ2_decompress:gPerm <- $x25
	;DEBUG_VALUE: BZ2_decompress:gBase <- $x27
	;DEBUG_VALUE: BZ2_decompress:gLimit <- $x28
	;DEBUG_VALUE: BZ2_decompress:gMinlen <- [DW_OP_constu 120, DW_OP_minus] [$fp+0]
	;DEBUG_VALUE: BZ2_decompress:gSel <- $w30
	;DEBUG_VALUE: BZ2_decompress:zj <- $w23
	;DEBUG_VALUE: BZ2_decompress:zvec <- $w20
	;DEBUG_VALUE: BZ2_decompress:zn <- $w2
	;DEBUG_VALUE: BZ2_decompress:zt <- $w14
	;DEBUG_VALUE: BZ2_decompress:N <- $w17
	;DEBUG_VALUE: BZ2_decompress:es <- $w1
	;DEBUG_VALUE: BZ2_decompress:nblock <- $w7
	;DEBUG_VALUE: BZ2_decompress:nblockMAX <- $w4
	;DEBUG_VALUE: BZ2_decompress:groupPos <- $w5
	;DEBUG_VALUE: BZ2_decompress:groupNo <- $w15
	;DEBUG_VALUE: BZ2_decompress:EOB <- [DW_OP_constu 144, DW_OP_minus] [$fp+0]
	;DEBUG_VALUE: BZ2_decompress:nSelectors <- $w3
	;DEBUG_VALUE: BZ2_decompress:nGroups <- $w24
	;DEBUG_VALUE: BZ2_decompress:alphaSize <- $w6
	;DEBUG_VALUE: BZ2_decompress:t <- $w16
	;DEBUG_VALUE: BZ2_decompress:j <- $w21
	;DEBUG_VALUE: BZ2_decompress:i <- [DW_OP_constu 112, DW_OP_minus] [$fp+0]
	;DEBUG_VALUE: BZ2_decompress:strm <- $x26
	;DEBUG_VALUE: BZ2_decompress:s <- $x19
	.loc	1 200 91                        ; decompress.c:200:91
	ldr	w9, [x19, #32]
Ltmp37:
LBB0_12:                                ; %._crit_edge2128
	;DEBUG_VALUE: BZ2_decompress:curr <- [DW_OP_constu 116, DW_OP_minus] [$fp+0]
	;DEBUG_VALUE: BZ2_decompress:nextSym <- [DW_OP_constu 128, DW_OP_minus] [$fp+0]
	;DEBUG_VALUE: BZ2_decompress:retVal <- 0
	;DEBUG_VALUE: BZ2_decompress:gPerm <- $x25
	;DEBUG_VALUE: BZ2_decompress:gBase <- $x27
	;DEBUG_VALUE: BZ2_decompress:gLimit <- $x28
	;DEBUG_VALUE: BZ2_decompress:gMinlen <- [DW_OP_constu 120, DW_OP_minus] [$fp+0]
	;DEBUG_VALUE: BZ2_decompress:gSel <- $w30
	;DEBUG_VALUE: BZ2_decompress:zj <- $w23
	;DEBUG_VALUE: BZ2_decompress:zvec <- $w20
	;DEBUG_VALUE: BZ2_decompress:zn <- $w2
	;DEBUG_VALUE: BZ2_decompress:zt <- $w14
	;DEBUG_VALUE: BZ2_decompress:N <- $w17
	;DEBUG_VALUE: BZ2_decompress:es <- $w1
	;DEBUG_VALUE: BZ2_decompress:nblock <- $w7
	;DEBUG_VALUE: BZ2_decompress:nblockMAX <- $w4
	;DEBUG_VALUE: BZ2_decompress:groupPos <- $w5
	;DEBUG_VALUE: BZ2_decompress:groupNo <- $w15
	;DEBUG_VALUE: BZ2_decompress:EOB <- [DW_OP_constu 144, DW_OP_minus] [$fp+0]
	;DEBUG_VALUE: BZ2_decompress:nSelectors <- $w3
	;DEBUG_VALUE: BZ2_decompress:nGroups <- $w24
	;DEBUG_VALUE: BZ2_decompress:alphaSize <- $w6
	;DEBUG_VALUE: BZ2_decompress:t <- $w16
	;DEBUG_VALUE: BZ2_decompress:j <- $w21
	;DEBUG_VALUE: BZ2_decompress:i <- [DW_OP_constu 112, DW_OP_minus] [$fp+0]
	;DEBUG_VALUE: BZ2_decompress:strm <- $x26
	;DEBUG_VALUE: BZ2_decompress:s <- $x19
	.loc	1 200 111                       ; decompress.c:200:111
	sub	w8, w8, #8
	.loc	1 200 98                        ; decompress.c:200:98
	lsr	w9, w9, w8
Ltmp38:
	;DEBUG_VALUE: v <- [DW_OP_constu 255, DW_OP_and, DW_OP_stack_value] $w9
	.loc	1 200 142                       ; decompress.c:200:142
	str	w8, [x19, #36]
Ltmp39:
	.loc	1 201 11 is_stmt 1              ; decompress.c:201:11
	and	w9, w9, #0xff
Ltmp40:
	;DEBUG_VALUE: BZ2_decompress:uc <- undef
	.loc	1 201 11 is_stmt 0              ; decompress.c:201:11
	cmp	w9, #90
	b.ne	LBB0_21
	b	LBB0_14
Ltmp41:
LBB0_13:                                ; %._crit_edge2687
	;DEBUG_VALUE: BZ2_decompress:curr <- [DW_OP_constu 116, DW_OP_minus] [$fp+0]
	;DEBUG_VALUE: BZ2_decompress:nextSym <- [DW_OP_constu 128, DW_OP_minus] [$fp+0]
	;DEBUG_VALUE: BZ2_decompress:retVal <- 0
	;DEBUG_VALUE: BZ2_decompress:gPerm <- $x25
	;DEBUG_VALUE: BZ2_decompress:gBase <- $x27
	;DEBUG_VALUE: BZ2_decompress:gLimit <- $x28
	;DEBUG_VALUE: BZ2_decompress:gMinlen <- [DW_OP_constu 120, DW_OP_minus] [$fp+0]
	;DEBUG_VALUE: BZ2_decompress:gSel <- $w30
	;DEBUG_VALUE: BZ2_decompress:zj <- $w23
	;DEBUG_VALUE: BZ2_decompress:zvec <- $w20
	;DEBUG_VALUE: BZ2_decompress:zn <- $w2
	;DEBUG_VALUE: BZ2_decompress:zt <- $w14
	;DEBUG_VALUE: BZ2_decompress:N <- $w17
	;DEBUG_VALUE: BZ2_decompress:es <- $w1
	;DEBUG_VALUE: BZ2_decompress:nblock <- $w7
	;DEBUG_VALUE: BZ2_decompress:nblockMAX <- $w4
	;DEBUG_VALUE: BZ2_decompress:groupPos <- $w5
	;DEBUG_VALUE: BZ2_decompress:groupNo <- $w15
	;DEBUG_VALUE: BZ2_decompress:EOB <- [DW_OP_constu 144, DW_OP_minus] [$fp+0]
	;DEBUG_VALUE: BZ2_decompress:nSelectors <- $w3
	;DEBUG_VALUE: BZ2_decompress:nGroups <- $w24
	;DEBUG_VALUE: BZ2_decompress:alphaSize <- $w6
	;DEBUG_VALUE: BZ2_decompress:t <- $w16
	;DEBUG_VALUE: BZ2_decompress:j <- $w21
	;DEBUG_VALUE: BZ2_decompress:i <- [DW_OP_constu 112, DW_OP_minus] [$fp+0]
	;DEBUG_VALUE: BZ2_decompress:strm <- $x26
	;DEBUG_VALUE: BZ2_decompress:s <- $x19
	.loc	1 203 58 is_stmt 1              ; decompress.c:203:58
	ldr	w8, [x19, #36]
Ltmp42:
LBB0_14:
	;DEBUG_VALUE: BZ2_decompress:curr <- [DW_OP_constu 116, DW_OP_minus] [$fp+0]
	;DEBUG_VALUE: BZ2_decompress:nextSym <- [DW_OP_constu 128, DW_OP_minus] [$fp+0]
	;DEBUG_VALUE: BZ2_decompress:retVal <- 0
	;DEBUG_VALUE: BZ2_decompress:gPerm <- $x25
	;DEBUG_VALUE: BZ2_decompress:gBase <- $x27
	;DEBUG_VALUE: BZ2_decompress:gLimit <- $x28
	;DEBUG_VALUE: BZ2_decompress:gMinlen <- [DW_OP_constu 120, DW_OP_minus] [$fp+0]
	;DEBUG_VALUE: BZ2_decompress:gSel <- $w30
	;DEBUG_VALUE: BZ2_decompress:zj <- $w23
	;DEBUG_VALUE: BZ2_decompress:zvec <- $w20
	;DEBUG_VALUE: BZ2_decompress:zn <- $w2
	;DEBUG_VALUE: BZ2_decompress:zt <- $w14
	;DEBUG_VALUE: BZ2_decompress:N <- $w17
	;DEBUG_VALUE: BZ2_decompress:es <- $w1
	;DEBUG_VALUE: BZ2_decompress:nblock <- $w7
	;DEBUG_VALUE: BZ2_decompress:nblockMAX <- $w4
	;DEBUG_VALUE: BZ2_decompress:groupPos <- $w5
	;DEBUG_VALUE: BZ2_decompress:groupNo <- $w15
	;DEBUG_VALUE: BZ2_decompress:EOB <- [DW_OP_constu 144, DW_OP_minus] [$fp+0]
	;DEBUG_VALUE: BZ2_decompress:nSelectors <- $w3
	;DEBUG_VALUE: BZ2_decompress:nGroups <- $w24
	;DEBUG_VALUE: BZ2_decompress:alphaSize <- $w6
	;DEBUG_VALUE: BZ2_decompress:t <- $w16
	;DEBUG_VALUE: BZ2_decompress:j <- $w21
	;DEBUG_VALUE: BZ2_decompress:i <- [DW_OP_constu 112, DW_OP_minus] [$fp+0]
	;DEBUG_VALUE: BZ2_decompress:strm <- $x26
	;DEBUG_VALUE: BZ2_decompress:s <- $x19
	.loc	1 0 58 is_stmt 0                ; decompress.c:0:58
	mov	w9, #12
	.loc	1 203 25                        ; decompress.c:203:25
	str	w9, [x19, #8]
Ltmp43:
	.loc	1 203 55                        ; decompress.c:203:55
	cmp	w8, #8
	b.lt	LBB0_57
Ltmp44:
; %bb.15:                               ; %.._crit_edge2133_crit_edge
	;DEBUG_VALUE: BZ2_decompress:curr <- [DW_OP_constu 116, DW_OP_minus] [$fp+0]
	;DEBUG_VALUE: BZ2_decompress:nextSym <- [DW_OP_constu 128, DW_OP_minus] [$fp+0]
	;DEBUG_VALUE: BZ2_decompress:retVal <- 0
	;DEBUG_VALUE: BZ2_decompress:gPerm <- $x25
	;DEBUG_VALUE: BZ2_decompress:gBase <- $x27
	;DEBUG_VALUE: BZ2_decompress:gLimit <- $x28
	;DEBUG_VALUE: BZ2_decompress:gMinlen <- [DW_OP_constu 120, DW_OP_minus] [$fp+0]
	;DEBUG_VALUE: BZ2_decompress:gSel <- $w30
	;DEBUG_VALUE: BZ2_decompress:zj <- $w23
	;DEBUG_VALUE: BZ2_decompress:zvec <- $w20
	;DEBUG_VALUE: BZ2_decompress:zn <- $w2
	;DEBUG_VALUE: BZ2_decompress:zt <- $w14
	;DEBUG_VALUE: BZ2_decompress:N <- $w17
	;DEBUG_VALUE: BZ2_decompress:es <- $w1
	;DEBUG_VALUE: BZ2_decompress:nblock <- $w7
	;DEBUG_VALUE: BZ2_decompress:nblockMAX <- $w4
	;DEBUG_VALUE: BZ2_decompress:groupPos <- $w5
	;DEBUG_VALUE: BZ2_decompress:groupNo <- $w15
	;DEBUG_VALUE: BZ2_decompress:EOB <- [DW_OP_constu 144, DW_OP_minus] [$fp+0]
	;DEBUG_VALUE: BZ2_decompress:nSelectors <- $w3
	;DEBUG_VALUE: BZ2_decompress:nGroups <- $w24
	;DEBUG_VALUE: BZ2_decompress:alphaSize <- $w6
	;DEBUG_VALUE: BZ2_decompress:t <- $w16
	;DEBUG_VALUE: BZ2_decompress:j <- $w21
	;DEBUG_VALUE: BZ2_decompress:i <- [DW_OP_constu 112, DW_OP_minus] [$fp+0]
	;DEBUG_VALUE: BZ2_decompress:strm <- $x26
	;DEBUG_VALUE: BZ2_decompress:s <- $x19
	.loc	1 203 91                        ; decompress.c:203:91
	ldr	w9, [x19, #32]
Ltmp45:
LBB0_16:                                ; %._crit_edge2133
	;DEBUG_VALUE: BZ2_decompress:curr <- [DW_OP_constu 116, DW_OP_minus] [$fp+0]
	;DEBUG_VALUE: BZ2_decompress:nextSym <- [DW_OP_constu 128, DW_OP_minus] [$fp+0]
	;DEBUG_VALUE: BZ2_decompress:retVal <- 0
	;DEBUG_VALUE: BZ2_decompress:gPerm <- $x25
	;DEBUG_VALUE: BZ2_decompress:gBase <- $x27
	;DEBUG_VALUE: BZ2_decompress:gLimit <- $x28
	;DEBUG_VALUE: BZ2_decompress:gMinlen <- [DW_OP_constu 120, DW_OP_minus] [$fp+0]
	;DEBUG_VALUE: BZ2_decompress:gSel <- $w30
	;DEBUG_VALUE: BZ2_decompress:zj <- $w23
	;DEBUG_VALUE: BZ2_decompress:zvec <- $w20
	;DEBUG_VALUE: BZ2_decompress:zn <- $w2
	;DEBUG_VALUE: BZ2_decompress:zt <- $w14
	;DEBUG_VALUE: BZ2_decompress:N <- $w17
	;DEBUG_VALUE: BZ2_decompress:es <- $w1
	;DEBUG_VALUE: BZ2_decompress:nblock <- $w7
	;DEBUG_VALUE: BZ2_decompress:nblockMAX <- $w4
	;DEBUG_VALUE: BZ2_decompress:groupPos <- $w5
	;DEBUG_VALUE: BZ2_decompress:groupNo <- $w15
	;DEBUG_VALUE: BZ2_decompress:EOB <- [DW_OP_constu 144, DW_OP_minus] [$fp+0]
	;DEBUG_VALUE: BZ2_decompress:nSelectors <- $w3
	;DEBUG_VALUE: BZ2_decompress:nGroups <- $w24
	;DEBUG_VALUE: BZ2_decompress:alphaSize <- $w6
	;DEBUG_VALUE: BZ2_decompress:t <- $w16
	;DEBUG_VALUE: BZ2_decompress:j <- $w21
	;DEBUG_VALUE: BZ2_decompress:i <- [DW_OP_constu 112, DW_OP_minus] [$fp+0]
	;DEBUG_VALUE: BZ2_decompress:strm <- $x26
	;DEBUG_VALUE: BZ2_decompress:s <- $x19
	.loc	1 203 111                       ; decompress.c:203:111
	sub	w8, w8, #8
	.loc	1 203 98                        ; decompress.c:203:98
	lsr	w9, w9, w8
Ltmp46:
	;DEBUG_VALUE: v <- [DW_OP_constu 255, DW_OP_and, DW_OP_stack_value] $w9
	.loc	1 203 142                       ; decompress.c:203:142
	str	w8, [x19, #36]
Ltmp47:
	.loc	1 204 11 is_stmt 1              ; decompress.c:204:11
	and	w9, w9, #0xff
Ltmp48:
	;DEBUG_VALUE: BZ2_decompress:uc <- undef
	.loc	1 204 11 is_stmt 0              ; decompress.c:204:11
	cmp	w9, #104
	b.ne	LBB0_21
	b	LBB0_18
Ltmp49:
LBB0_17:                                ; %._crit_edge2693
	;DEBUG_VALUE: BZ2_decompress:curr <- [DW_OP_constu 116, DW_OP_minus] [$fp+0]
	;DEBUG_VALUE: BZ2_decompress:nextSym <- [DW_OP_constu 128, DW_OP_minus] [$fp+0]
	;DEBUG_VALUE: BZ2_decompress:retVal <- 0
	;DEBUG_VALUE: BZ2_decompress:gPerm <- $x25
	;DEBUG_VALUE: BZ2_decompress:gBase <- $x27
	;DEBUG_VALUE: BZ2_decompress:gLimit <- $x28
	;DEBUG_VALUE: BZ2_decompress:gMinlen <- [DW_OP_constu 120, DW_OP_minus] [$fp+0]
	;DEBUG_VALUE: BZ2_decompress:gSel <- $w30
	;DEBUG_VALUE: BZ2_decompress:zj <- $w23
	;DEBUG_VALUE: BZ2_decompress:zvec <- $w20
	;DEBUG_VALUE: BZ2_decompress:zn <- $w2
	;DEBUG_VALUE: BZ2_decompress:zt <- $w14
	;DEBUG_VALUE: BZ2_decompress:N <- $w17
	;DEBUG_VALUE: BZ2_decompress:es <- $w1
	;DEBUG_VALUE: BZ2_decompress:nblock <- $w7
	;DEBUG_VALUE: BZ2_decompress:nblockMAX <- $w4
	;DEBUG_VALUE: BZ2_decompress:groupPos <- $w5
	;DEBUG_VALUE: BZ2_decompress:groupNo <- $w15
	;DEBUG_VALUE: BZ2_decompress:EOB <- [DW_OP_constu 144, DW_OP_minus] [$fp+0]
	;DEBUG_VALUE: BZ2_decompress:nSelectors <- $w3
	;DEBUG_VALUE: BZ2_decompress:nGroups <- $w24
	;DEBUG_VALUE: BZ2_decompress:alphaSize <- $w6
	;DEBUG_VALUE: BZ2_decompress:t <- $w16
	;DEBUG_VALUE: BZ2_decompress:j <- $w21
	;DEBUG_VALUE: BZ2_decompress:i <- [DW_OP_constu 112, DW_OP_minus] [$fp+0]
	;DEBUG_VALUE: BZ2_decompress:strm <- $x26
	;DEBUG_VALUE: BZ2_decompress:s <- $x19
	.loc	1 206 58 is_stmt 1              ; decompress.c:206:58
	ldr	w8, [x19, #36]
Ltmp50:
LBB0_18:
	;DEBUG_VALUE: BZ2_decompress:curr <- [DW_OP_constu 116, DW_OP_minus] [$fp+0]
	;DEBUG_VALUE: BZ2_decompress:nextSym <- [DW_OP_constu 128, DW_OP_minus] [$fp+0]
	;DEBUG_VALUE: BZ2_decompress:retVal <- 0
	;DEBUG_VALUE: BZ2_decompress:gPerm <- $x25
	;DEBUG_VALUE: BZ2_decompress:gBase <- $x27
	;DEBUG_VALUE: BZ2_decompress:gLimit <- $x28
	;DEBUG_VALUE: BZ2_decompress:gMinlen <- [DW_OP_constu 120, DW_OP_minus] [$fp+0]
	;DEBUG_VALUE: BZ2_decompress:gSel <- $w30
	;DEBUG_VALUE: BZ2_decompress:zj <- $w23
	;DEBUG_VALUE: BZ2_decompress:zvec <- $w20
	;DEBUG_VALUE: BZ2_decompress:zn <- $w2
	;DEBUG_VALUE: BZ2_decompress:zt <- $w14
	;DEBUG_VALUE: BZ2_decompress:N <- $w17
	;DEBUG_VALUE: BZ2_decompress:es <- $w1
	;DEBUG_VALUE: BZ2_decompress:nblock <- $w7
	;DEBUG_VALUE: BZ2_decompress:nblockMAX <- $w4
	;DEBUG_VALUE: BZ2_decompress:groupPos <- $w5
	;DEBUG_VALUE: BZ2_decompress:groupNo <- $w15
	;DEBUG_VALUE: BZ2_decompress:EOB <- [DW_OP_constu 144, DW_OP_minus] [$fp+0]
	;DEBUG_VALUE: BZ2_decompress:nSelectors <- $w3
	;DEBUG_VALUE: BZ2_decompress:nGroups <- $w24
	;DEBUG_VALUE: BZ2_decompress:alphaSize <- $w6
	;DEBUG_VALUE: BZ2_decompress:t <- $w16
	;DEBUG_VALUE: BZ2_decompress:j <- $w21
	;DEBUG_VALUE: BZ2_decompress:i <- [DW_OP_constu 112, DW_OP_minus] [$fp+0]
	;DEBUG_VALUE: BZ2_decompress:strm <- $x26
	;DEBUG_VALUE: BZ2_decompress:s <- $x19
	.loc	1 0 58 is_stmt 0                ; decompress.c:0:58
	mov	w9, #13
	.loc	1 206 25                        ; decompress.c:206:25
	str	w9, [x19, #8]
Ltmp51:
	.loc	1 206 55                        ; decompress.c:206:55
	cmp	w8, #8
	b.lt	LBB0_52
Ltmp52:
; %bb.19:                               ; %.._crit_edge2138_crit_edge
	;DEBUG_VALUE: BZ2_decompress:curr <- [DW_OP_constu 116, DW_OP_minus] [$fp+0]
	;DEBUG_VALUE: BZ2_decompress:nextSym <- [DW_OP_constu 128, DW_OP_minus] [$fp+0]
	;DEBUG_VALUE: BZ2_decompress:retVal <- 0
	;DEBUG_VALUE: BZ2_decompress:gPerm <- $x25
	;DEBUG_VALUE: BZ2_decompress:gBase <- $x27
	;DEBUG_VALUE: BZ2_decompress:gLimit <- $x28
	;DEBUG_VALUE: BZ2_decompress:gMinlen <- [DW_OP_constu 120, DW_OP_minus] [$fp+0]
	;DEBUG_VALUE: BZ2_decompress:gSel <- $w30
	;DEBUG_VALUE: BZ2_decompress:zj <- $w23
	;DEBUG_VALUE: BZ2_decompress:zvec <- $w20
	;DEBUG_VALUE: BZ2_decompress:zn <- $w2
	;DEBUG_VALUE: BZ2_decompress:zt <- $w14
	;DEBUG_VALUE: BZ2_decompress:N <- $w17
	;DEBUG_VALUE: BZ2_decompress:es <- $w1
	;DEBUG_VALUE: BZ2_decompress:nblock <- $w7
	;DEBUG_VALUE: BZ2_decompress:nblockMAX <- $w4
	;DEBUG_VALUE: BZ2_decompress:groupPos <- $w5
	;DEBUG_VALUE: BZ2_decompress:groupNo <- $w15
	;DEBUG_VALUE: BZ2_decompress:EOB <- [DW_OP_constu 144, DW_OP_minus] [$fp+0]
	;DEBUG_VALUE: BZ2_decompress:nSelectors <- $w3
	;DEBUG_VALUE: BZ2_decompress:nGroups <- $w24
	;DEBUG_VALUE: BZ2_decompress:alphaSize <- $w6
	;DEBUG_VALUE: BZ2_decompress:t <- $w16
	;DEBUG_VALUE: BZ2_decompress:j <- $w21
	;DEBUG_VALUE: BZ2_decompress:i <- [DW_OP_constu 112, DW_OP_minus] [$fp+0]
	;DEBUG_VALUE: BZ2_decompress:strm <- $x26
	;DEBUG_VALUE: BZ2_decompress:s <- $x19
	.loc	1 206 91                        ; decompress.c:206:91
	ldr	w9, [x19, #32]
Ltmp53:
LBB0_20:                                ; %._crit_edge2138
	;DEBUG_VALUE: BZ2_decompress:curr <- [DW_OP_constu 116, DW_OP_minus] [$fp+0]
	;DEBUG_VALUE: BZ2_decompress:nextSym <- [DW_OP_constu 128, DW_OP_minus] [$fp+0]
	;DEBUG_VALUE: BZ2_decompress:retVal <- 0
	;DEBUG_VALUE: BZ2_decompress:gPerm <- $x25
	;DEBUG_VALUE: BZ2_decompress:gBase <- $x27
	;DEBUG_VALUE: BZ2_decompress:gLimit <- $x28
	;DEBUG_VALUE: BZ2_decompress:gMinlen <- [DW_OP_constu 120, DW_OP_minus] [$fp+0]
	;DEBUG_VALUE: BZ2_decompress:gSel <- $w30
	;DEBUG_VALUE: BZ2_decompress:zj <- $w23
	;DEBUG_VALUE: BZ2_decompress:zvec <- $w20
	;DEBUG_VALUE: BZ2_decompress:zn <- $w2
	;DEBUG_VALUE: BZ2_decompress:zt <- $w14
	;DEBUG_VALUE: BZ2_decompress:N <- $w17
	;DEBUG_VALUE: BZ2_decompress:es <- $w1
	;DEBUG_VALUE: BZ2_decompress:nblock <- $w7
	;DEBUG_VALUE: BZ2_decompress:nblockMAX <- $w4
	;DEBUG_VALUE: BZ2_decompress:groupPos <- $w5
	;DEBUG_VALUE: BZ2_decompress:groupNo <- $w15
	;DEBUG_VALUE: BZ2_decompress:EOB <- [DW_OP_constu 144, DW_OP_minus] [$fp+0]
	;DEBUG_VALUE: BZ2_decompress:nSelectors <- $w3
	;DEBUG_VALUE: BZ2_decompress:nGroups <- $w24
	;DEBUG_VALUE: BZ2_decompress:alphaSize <- $w6
	;DEBUG_VALUE: BZ2_decompress:t <- $w16
	;DEBUG_VALUE: BZ2_decompress:j <- $w21
	;DEBUG_VALUE: BZ2_decompress:i <- [DW_OP_constu 112, DW_OP_minus] [$fp+0]
	;DEBUG_VALUE: BZ2_decompress:strm <- $x26
	;DEBUG_VALUE: BZ2_decompress:s <- $x19
	.loc	1 206 111                       ; decompress.c:206:111
	sub	w10, w8, #8
	.loc	1 206 98                        ; decompress.c:206:98
	lsr	w8, w9, w10
	.loc	1 206 116                       ; decompress.c:206:116
	and	w8, w8, #0xff
Ltmp54:
	;DEBUG_VALUE: v <- $w8
	.loc	1 206 142                       ; decompress.c:206:142
	stp	w10, w8, [x19, #36]
Ltmp55:
	.loc	1 207 41 is_stmt 1              ; decompress.c:207:41
	sub	w9, w8, #58
	cmn	w9, #9
	b.hs	LBB0_72
Ltmp56:
LBB0_21:
	;DEBUG_VALUE: BZ2_decompress:curr <- [DW_OP_constu 116, DW_OP_minus] [$fp+0]
	;DEBUG_VALUE: BZ2_decompress:nextSym <- [DW_OP_constu 128, DW_OP_minus] [$fp+0]
	;DEBUG_VALUE: BZ2_decompress:retVal <- 0
	;DEBUG_VALUE: BZ2_decompress:gPerm <- $x25
	;DEBUG_VALUE: BZ2_decompress:gBase <- $x27
	;DEBUG_VALUE: BZ2_decompress:gLimit <- $x28
	;DEBUG_VALUE: BZ2_decompress:gMinlen <- [DW_OP_constu 120, DW_OP_minus] [$fp+0]
	;DEBUG_VALUE: BZ2_decompress:gSel <- $w30
	;DEBUG_VALUE: BZ2_decompress:zj <- $w23
	;DEBUG_VALUE: BZ2_decompress:zvec <- $w20
	;DEBUG_VALUE: BZ2_decompress:zn <- $w2
	;DEBUG_VALUE: BZ2_decompress:zt <- $w14
	;DEBUG_VALUE: BZ2_decompress:N <- $w17
	;DEBUG_VALUE: BZ2_decompress:es <- $w1
	;DEBUG_VALUE: BZ2_decompress:nblock <- $w7
	;DEBUG_VALUE: BZ2_decompress:nblockMAX <- $w4
	;DEBUG_VALUE: BZ2_decompress:groupPos <- $w5
	;DEBUG_VALUE: BZ2_decompress:groupNo <- $w15
	;DEBUG_VALUE: BZ2_decompress:EOB <- [DW_OP_constu 144, DW_OP_minus] [$fp+0]
	;DEBUG_VALUE: BZ2_decompress:nSelectors <- $w3
	;DEBUG_VALUE: BZ2_decompress:nGroups <- $w24
	;DEBUG_VALUE: BZ2_decompress:alphaSize <- $w6
	;DEBUG_VALUE: BZ2_decompress:t <- $w16
	;DEBUG_VALUE: BZ2_decompress:j <- $w21
	;DEBUG_VALUE: BZ2_decompress:i <- [DW_OP_constu 112, DW_OP_minus] [$fp+0]
	;DEBUG_VALUE: BZ2_decompress:strm <- $x26
	;DEBUG_VALUE: BZ2_decompress:s <- $x19
	.loc	1 0 41 is_stmt 0                ; decompress.c:0:41
	mov	w0, #-5
	b	LBB0_340
Ltmp57:
LBB0_22:                                ; %._crit_edge2702
	;DEBUG_VALUE: BZ2_decompress:curr <- [DW_OP_constu 116, DW_OP_minus] [$fp+0]
	;DEBUG_VALUE: BZ2_decompress:nextSym <- [DW_OP_constu 128, DW_OP_minus] [$fp+0]
	;DEBUG_VALUE: BZ2_decompress:retVal <- 0
	;DEBUG_VALUE: BZ2_decompress:gPerm <- $x25
	;DEBUG_VALUE: BZ2_decompress:gBase <- $x27
	;DEBUG_VALUE: BZ2_decompress:gLimit <- $x28
	;DEBUG_VALUE: BZ2_decompress:gMinlen <- [DW_OP_constu 120, DW_OP_minus] [$fp+0]
	;DEBUG_VALUE: BZ2_decompress:gSel <- $w30
	;DEBUG_VALUE: BZ2_decompress:zj <- $w23
	;DEBUG_VALUE: BZ2_decompress:zvec <- $w20
	;DEBUG_VALUE: BZ2_decompress:zn <- $w2
	;DEBUG_VALUE: BZ2_decompress:zt <- $w14
	;DEBUG_VALUE: BZ2_decompress:N <- $w17
	;DEBUG_VALUE: BZ2_decompress:es <- $w1
	;DEBUG_VALUE: BZ2_decompress:nblock <- $w7
	;DEBUG_VALUE: BZ2_decompress:nblockMAX <- $w4
	;DEBUG_VALUE: BZ2_decompress:groupPos <- $w5
	;DEBUG_VALUE: BZ2_decompress:groupNo <- $w15
	;DEBUG_VALUE: BZ2_decompress:EOB <- [DW_OP_constu 144, DW_OP_minus] [$fp+0]
	;DEBUG_VALUE: BZ2_decompress:nSelectors <- $w3
	;DEBUG_VALUE: BZ2_decompress:nGroups <- $w24
	;DEBUG_VALUE: BZ2_decompress:alphaSize <- $w6
	;DEBUG_VALUE: BZ2_decompress:t <- $w16
	;DEBUG_VALUE: BZ2_decompress:j <- $w21
	;DEBUG_VALUE: BZ2_decompress:i <- [DW_OP_constu 112, DW_OP_minus] [$fp+0]
	;DEBUG_VALUE: BZ2_decompress:strm <- $x26
	;DEBUG_VALUE: BZ2_decompress:s <- $x19
	.loc	1 226 58 is_stmt 1              ; decompress.c:226:58
	ldr	w8, [x19, #36]
	b	LBB0_85
Ltmp58:
LBB0_23:                                ; %._crit_edge2708
	;DEBUG_VALUE: BZ2_decompress:curr <- [DW_OP_constu 116, DW_OP_minus] [$fp+0]
	;DEBUG_VALUE: BZ2_decompress:nextSym <- [DW_OP_constu 128, DW_OP_minus] [$fp+0]
	;DEBUG_VALUE: BZ2_decompress:retVal <- 0
	;DEBUG_VALUE: BZ2_decompress:gPerm <- $x25
	;DEBUG_VALUE: BZ2_decompress:gBase <- $x27
	;DEBUG_VALUE: BZ2_decompress:gLimit <- $x28
	;DEBUG_VALUE: BZ2_decompress:gMinlen <- [DW_OP_constu 120, DW_OP_minus] [$fp+0]
	;DEBUG_VALUE: BZ2_decompress:gSel <- $w30
	;DEBUG_VALUE: BZ2_decompress:zj <- $w23
	;DEBUG_VALUE: BZ2_decompress:zvec <- $w20
	;DEBUG_VALUE: BZ2_decompress:zn <- $w2
	;DEBUG_VALUE: BZ2_decompress:zt <- $w14
	;DEBUG_VALUE: BZ2_decompress:N <- $w17
	;DEBUG_VALUE: BZ2_decompress:es <- $w1
	;DEBUG_VALUE: BZ2_decompress:nblock <- $w7
	;DEBUG_VALUE: BZ2_decompress:nblockMAX <- $w4
	;DEBUG_VALUE: BZ2_decompress:groupPos <- $w5
	;DEBUG_VALUE: BZ2_decompress:groupNo <- $w15
	;DEBUG_VALUE: BZ2_decompress:EOB <- [DW_OP_constu 144, DW_OP_minus] [$fp+0]
	;DEBUG_VALUE: BZ2_decompress:nSelectors <- $w3
	;DEBUG_VALUE: BZ2_decompress:nGroups <- $w24
	;DEBUG_VALUE: BZ2_decompress:alphaSize <- $w6
	;DEBUG_VALUE: BZ2_decompress:t <- $w16
	;DEBUG_VALUE: BZ2_decompress:j <- $w21
	;DEBUG_VALUE: BZ2_decompress:i <- [DW_OP_constu 112, DW_OP_minus] [$fp+0]
	;DEBUG_VALUE: BZ2_decompress:strm <- $x26
	;DEBUG_VALUE: BZ2_decompress:s <- $x19
	.loc	1 228 58                        ; decompress.c:228:58
	ldr	w8, [x19, #36]
	b	LBB0_88
Ltmp59:
LBB0_24:                                ; %._crit_edge2714
	;DEBUG_VALUE: BZ2_decompress:curr <- [DW_OP_constu 116, DW_OP_minus] [$fp+0]
	;DEBUG_VALUE: BZ2_decompress:nextSym <- [DW_OP_constu 128, DW_OP_minus] [$fp+0]
	;DEBUG_VALUE: BZ2_decompress:retVal <- 0
	;DEBUG_VALUE: BZ2_decompress:gPerm <- $x25
	;DEBUG_VALUE: BZ2_decompress:gBase <- $x27
	;DEBUG_VALUE: BZ2_decompress:gLimit <- $x28
	;DEBUG_VALUE: BZ2_decompress:gMinlen <- [DW_OP_constu 120, DW_OP_minus] [$fp+0]
	;DEBUG_VALUE: BZ2_decompress:gSel <- $w30
	;DEBUG_VALUE: BZ2_decompress:zj <- $w23
	;DEBUG_VALUE: BZ2_decompress:zvec <- $w20
	;DEBUG_VALUE: BZ2_decompress:zn <- $w2
	;DEBUG_VALUE: BZ2_decompress:zt <- $w14
	;DEBUG_VALUE: BZ2_decompress:N <- $w17
	;DEBUG_VALUE: BZ2_decompress:es <- $w1
	;DEBUG_VALUE: BZ2_decompress:nblock <- $w7
	;DEBUG_VALUE: BZ2_decompress:nblockMAX <- $w4
	;DEBUG_VALUE: BZ2_decompress:groupPos <- $w5
	;DEBUG_VALUE: BZ2_decompress:groupNo <- $w15
	;DEBUG_VALUE: BZ2_decompress:EOB <- [DW_OP_constu 144, DW_OP_minus] [$fp+0]
	;DEBUG_VALUE: BZ2_decompress:nSelectors <- $w3
	;DEBUG_VALUE: BZ2_decompress:nGroups <- $w24
	;DEBUG_VALUE: BZ2_decompress:alphaSize <- $w6
	;DEBUG_VALUE: BZ2_decompress:t <- $w16
	;DEBUG_VALUE: BZ2_decompress:j <- $w21
	;DEBUG_VALUE: BZ2_decompress:i <- [DW_OP_constu 112, DW_OP_minus] [$fp+0]
	;DEBUG_VALUE: BZ2_decompress:strm <- $x26
	;DEBUG_VALUE: BZ2_decompress:s <- $x19
	.loc	1 230 58                        ; decompress.c:230:58
	ldr	w8, [x19, #36]
	b	LBB0_91
Ltmp60:
LBB0_25:                                ; %._crit_edge2720
	;DEBUG_VALUE: BZ2_decompress:curr <- [DW_OP_constu 116, DW_OP_minus] [$fp+0]
	;DEBUG_VALUE: BZ2_decompress:nextSym <- [DW_OP_constu 128, DW_OP_minus] [$fp+0]
	;DEBUG_VALUE: BZ2_decompress:retVal <- 0
	;DEBUG_VALUE: BZ2_decompress:gPerm <- $x25
	;DEBUG_VALUE: BZ2_decompress:gBase <- $x27
	;DEBUG_VALUE: BZ2_decompress:gLimit <- $x28
	;DEBUG_VALUE: BZ2_decompress:gMinlen <- [DW_OP_constu 120, DW_OP_minus] [$fp+0]
	;DEBUG_VALUE: BZ2_decompress:gSel <- $w30
	;DEBUG_VALUE: BZ2_decompress:zj <- $w23
	;DEBUG_VALUE: BZ2_decompress:zvec <- $w20
	;DEBUG_VALUE: BZ2_decompress:zn <- $w2
	;DEBUG_VALUE: BZ2_decompress:zt <- $w14
	;DEBUG_VALUE: BZ2_decompress:N <- $w17
	;DEBUG_VALUE: BZ2_decompress:es <- $w1
	;DEBUG_VALUE: BZ2_decompress:nblock <- $w7
	;DEBUG_VALUE: BZ2_decompress:nblockMAX <- $w4
	;DEBUG_VALUE: BZ2_decompress:groupPos <- $w5
	;DEBUG_VALUE: BZ2_decompress:groupNo <- $w15
	;DEBUG_VALUE: BZ2_decompress:EOB <- [DW_OP_constu 144, DW_OP_minus] [$fp+0]
	;DEBUG_VALUE: BZ2_decompress:nSelectors <- $w3
	;DEBUG_VALUE: BZ2_decompress:nGroups <- $w24
	;DEBUG_VALUE: BZ2_decompress:alphaSize <- $w6
	;DEBUG_VALUE: BZ2_decompress:t <- $w16
	;DEBUG_VALUE: BZ2_decompress:j <- $w21
	;DEBUG_VALUE: BZ2_decompress:i <- [DW_OP_constu 112, DW_OP_minus] [$fp+0]
	;DEBUG_VALUE: BZ2_decompress:strm <- $x26
	;DEBUG_VALUE: BZ2_decompress:s <- $x19
	.loc	1 232 58                        ; decompress.c:232:58
	ldr	w8, [x19, #36]
	b	LBB0_94
Ltmp61:
LBB0_26:                                ; %._crit_edge2726
	;DEBUG_VALUE: BZ2_decompress:curr <- [DW_OP_constu 116, DW_OP_minus] [$fp+0]
	;DEBUG_VALUE: BZ2_decompress:nextSym <- [DW_OP_constu 128, DW_OP_minus] [$fp+0]
	;DEBUG_VALUE: BZ2_decompress:retVal <- 0
	;DEBUG_VALUE: BZ2_decompress:gPerm <- $x25
	;DEBUG_VALUE: BZ2_decompress:gBase <- $x27
	;DEBUG_VALUE: BZ2_decompress:gLimit <- $x28
	;DEBUG_VALUE: BZ2_decompress:gMinlen <- [DW_OP_constu 120, DW_OP_minus] [$fp+0]
	;DEBUG_VALUE: BZ2_decompress:gSel <- $w30
	;DEBUG_VALUE: BZ2_decompress:zj <- $w23
	;DEBUG_VALUE: BZ2_decompress:zvec <- $w20
	;DEBUG_VALUE: BZ2_decompress:zn <- $w2
	;DEBUG_VALUE: BZ2_decompress:zt <- $w14
	;DEBUG_VALUE: BZ2_decompress:N <- $w17
	;DEBUG_VALUE: BZ2_decompress:es <- $w1
	;DEBUG_VALUE: BZ2_decompress:nblock <- $w7
	;DEBUG_VALUE: BZ2_decompress:nblockMAX <- $w4
	;DEBUG_VALUE: BZ2_decompress:groupPos <- $w5
	;DEBUG_VALUE: BZ2_decompress:groupNo <- $w15
	;DEBUG_VALUE: BZ2_decompress:EOB <- [DW_OP_constu 144, DW_OP_minus] [$fp+0]
	;DEBUG_VALUE: BZ2_decompress:nSelectors <- $w3
	;DEBUG_VALUE: BZ2_decompress:nGroups <- $w24
	;DEBUG_VALUE: BZ2_decompress:alphaSize <- $w6
	;DEBUG_VALUE: BZ2_decompress:t <- $w16
	;DEBUG_VALUE: BZ2_decompress:j <- $w21
	;DEBUG_VALUE: BZ2_decompress:i <- [DW_OP_constu 112, DW_OP_minus] [$fp+0]
	;DEBUG_VALUE: BZ2_decompress:strm <- $x26
	;DEBUG_VALUE: BZ2_decompress:s <- $x19
	.loc	1 234 58                        ; decompress.c:234:58
	ldr	w8, [x19, #36]
	b	LBB0_97
Ltmp62:
LBB0_27:                                ; %._crit_edge2735
	;DEBUG_VALUE: BZ2_decompress:curr <- [DW_OP_constu 116, DW_OP_minus] [$fp+0]
	;DEBUG_VALUE: BZ2_decompress:nextSym <- [DW_OP_constu 128, DW_OP_minus] [$fp+0]
	;DEBUG_VALUE: BZ2_decompress:retVal <- 0
	;DEBUG_VALUE: BZ2_decompress:gPerm <- $x25
	;DEBUG_VALUE: BZ2_decompress:gBase <- $x27
	;DEBUG_VALUE: BZ2_decompress:gLimit <- $x28
	;DEBUG_VALUE: BZ2_decompress:gMinlen <- [DW_OP_constu 120, DW_OP_minus] [$fp+0]
	;DEBUG_VALUE: BZ2_decompress:gSel <- $w30
	;DEBUG_VALUE: BZ2_decompress:zj <- $w23
	;DEBUG_VALUE: BZ2_decompress:zvec <- $w20
	;DEBUG_VALUE: BZ2_decompress:zn <- $w2
	;DEBUG_VALUE: BZ2_decompress:zt <- $w14
	;DEBUG_VALUE: BZ2_decompress:N <- $w17
	;DEBUG_VALUE: BZ2_decompress:es <- $w1
	;DEBUG_VALUE: BZ2_decompress:nblock <- $w7
	;DEBUG_VALUE: BZ2_decompress:nblockMAX <- $w4
	;DEBUG_VALUE: BZ2_decompress:groupPos <- $w5
	;DEBUG_VALUE: BZ2_decompress:groupNo <- $w15
	;DEBUG_VALUE: BZ2_decompress:EOB <- [DW_OP_constu 144, DW_OP_minus] [$fp+0]
	;DEBUG_VALUE: BZ2_decompress:nSelectors <- $w3
	;DEBUG_VALUE: BZ2_decompress:nGroups <- $w24
	;DEBUG_VALUE: BZ2_decompress:alphaSize <- $w6
	;DEBUG_VALUE: BZ2_decompress:t <- $w16
	;DEBUG_VALUE: BZ2_decompress:j <- $w21
	;DEBUG_VALUE: BZ2_decompress:i <- [DW_OP_constu 112, DW_OP_minus] [$fp+0]
	;DEBUG_VALUE: BZ2_decompress:strm <- $x26
	;DEBUG_VALUE: BZ2_decompress:s <- $x19
	.loc	1 244 58                        ; decompress.c:244:58
	ldr	w8, [x19, #36]
	b	LBB0_106
Ltmp63:
LBB0_28:                                ; %._crit_edge2741
	;DEBUG_VALUE: BZ2_decompress:curr <- [DW_OP_constu 116, DW_OP_minus] [$fp+0]
	;DEBUG_VALUE: BZ2_decompress:nextSym <- [DW_OP_constu 128, DW_OP_minus] [$fp+0]
	;DEBUG_VALUE: BZ2_decompress:retVal <- 0
	;DEBUG_VALUE: BZ2_decompress:gPerm <- $x25
	;DEBUG_VALUE: BZ2_decompress:gBase <- $x27
	;DEBUG_VALUE: BZ2_decompress:gLimit <- $x28
	;DEBUG_VALUE: BZ2_decompress:gMinlen <- [DW_OP_constu 120, DW_OP_minus] [$fp+0]
	;DEBUG_VALUE: BZ2_decompress:gSel <- $w30
	;DEBUG_VALUE: BZ2_decompress:zj <- $w23
	;DEBUG_VALUE: BZ2_decompress:zvec <- $w20
	;DEBUG_VALUE: BZ2_decompress:zn <- $w2
	;DEBUG_VALUE: BZ2_decompress:zt <- $w14
	;DEBUG_VALUE: BZ2_decompress:N <- $w17
	;DEBUG_VALUE: BZ2_decompress:es <- $w1
	;DEBUG_VALUE: BZ2_decompress:nblock <- $w7
	;DEBUG_VALUE: BZ2_decompress:nblockMAX <- $w4
	;DEBUG_VALUE: BZ2_decompress:groupPos <- $w5
	;DEBUG_VALUE: BZ2_decompress:groupNo <- $w15
	;DEBUG_VALUE: BZ2_decompress:EOB <- [DW_OP_constu 144, DW_OP_minus] [$fp+0]
	;DEBUG_VALUE: BZ2_decompress:nSelectors <- $w3
	;DEBUG_VALUE: BZ2_decompress:nGroups <- $w24
	;DEBUG_VALUE: BZ2_decompress:alphaSize <- $w6
	;DEBUG_VALUE: BZ2_decompress:t <- $w16
	;DEBUG_VALUE: BZ2_decompress:j <- $w21
	;DEBUG_VALUE: BZ2_decompress:i <- [DW_OP_constu 112, DW_OP_minus] [$fp+0]
	;DEBUG_VALUE: BZ2_decompress:strm <- $x26
	;DEBUG_VALUE: BZ2_decompress:s <- $x19
	.loc	1 246 58                        ; decompress.c:246:58
	ldr	w8, [x19, #36]
	b	LBB0_109
Ltmp64:
LBB0_29:                                ; %._crit_edge2747
	;DEBUG_VALUE: BZ2_decompress:curr <- [DW_OP_constu 116, DW_OP_minus] [$fp+0]
	;DEBUG_VALUE: BZ2_decompress:nextSym <- [DW_OP_constu 128, DW_OP_minus] [$fp+0]
	;DEBUG_VALUE: BZ2_decompress:retVal <- 0
	;DEBUG_VALUE: BZ2_decompress:gPerm <- $x25
	;DEBUG_VALUE: BZ2_decompress:gBase <- $x27
	;DEBUG_VALUE: BZ2_decompress:gLimit <- $x28
	;DEBUG_VALUE: BZ2_decompress:gMinlen <- [DW_OP_constu 120, DW_OP_minus] [$fp+0]
	;DEBUG_VALUE: BZ2_decompress:gSel <- $w30
	;DEBUG_VALUE: BZ2_decompress:zj <- $w23
	;DEBUG_VALUE: BZ2_decompress:zvec <- $w20
	;DEBUG_VALUE: BZ2_decompress:zn <- $w2
	;DEBUG_VALUE: BZ2_decompress:zt <- $w14
	;DEBUG_VALUE: BZ2_decompress:N <- $w17
	;DEBUG_VALUE: BZ2_decompress:es <- $w1
	;DEBUG_VALUE: BZ2_decompress:nblock <- $w7
	;DEBUG_VALUE: BZ2_decompress:nblockMAX <- $w4
	;DEBUG_VALUE: BZ2_decompress:groupPos <- $w5
	;DEBUG_VALUE: BZ2_decompress:groupNo <- $w15
	;DEBUG_VALUE: BZ2_decompress:EOB <- [DW_OP_constu 144, DW_OP_minus] [$fp+0]
	;DEBUG_VALUE: BZ2_decompress:nSelectors <- $w3
	;DEBUG_VALUE: BZ2_decompress:nGroups <- $w24
	;DEBUG_VALUE: BZ2_decompress:alphaSize <- $w6
	;DEBUG_VALUE: BZ2_decompress:t <- $w16
	;DEBUG_VALUE: BZ2_decompress:j <- $w21
	;DEBUG_VALUE: BZ2_decompress:i <- [DW_OP_constu 112, DW_OP_minus] [$fp+0]
	;DEBUG_VALUE: BZ2_decompress:strm <- $x26
	;DEBUG_VALUE: BZ2_decompress:s <- $x19
	.loc	1 248 58                        ; decompress.c:248:58
	ldr	w8, [x19, #36]
	b	LBB0_112
Ltmp65:
LBB0_30:                                ; %._crit_edge2753
	;DEBUG_VALUE: BZ2_decompress:curr <- [DW_OP_constu 116, DW_OP_minus] [$fp+0]
	;DEBUG_VALUE: BZ2_decompress:nextSym <- [DW_OP_constu 128, DW_OP_minus] [$fp+0]
	;DEBUG_VALUE: BZ2_decompress:retVal <- 0
	;DEBUG_VALUE: BZ2_decompress:gPerm <- $x25
	;DEBUG_VALUE: BZ2_decompress:gBase <- $x27
	;DEBUG_VALUE: BZ2_decompress:gLimit <- $x28
	;DEBUG_VALUE: BZ2_decompress:gMinlen <- [DW_OP_constu 120, DW_OP_minus] [$fp+0]
	;DEBUG_VALUE: BZ2_decompress:gSel <- $w30
	;DEBUG_VALUE: BZ2_decompress:zj <- $w23
	;DEBUG_VALUE: BZ2_decompress:zvec <- $w20
	;DEBUG_VALUE: BZ2_decompress:zn <- $w2
	;DEBUG_VALUE: BZ2_decompress:zt <- $w14
	;DEBUG_VALUE: BZ2_decompress:N <- $w17
	;DEBUG_VALUE: BZ2_decompress:es <- $w1
	;DEBUG_VALUE: BZ2_decompress:nblock <- $w7
	;DEBUG_VALUE: BZ2_decompress:nblockMAX <- $w4
	;DEBUG_VALUE: BZ2_decompress:groupPos <- $w5
	;DEBUG_VALUE: BZ2_decompress:groupNo <- $w15
	;DEBUG_VALUE: BZ2_decompress:EOB <- [DW_OP_constu 144, DW_OP_minus] [$fp+0]
	;DEBUG_VALUE: BZ2_decompress:nSelectors <- $w3
	;DEBUG_VALUE: BZ2_decompress:nGroups <- $w24
	;DEBUG_VALUE: BZ2_decompress:alphaSize <- $w6
	;DEBUG_VALUE: BZ2_decompress:t <- $w16
	;DEBUG_VALUE: BZ2_decompress:j <- $w21
	;DEBUG_VALUE: BZ2_decompress:i <- [DW_OP_constu 112, DW_OP_minus] [$fp+0]
	;DEBUG_VALUE: BZ2_decompress:strm <- $x26
	;DEBUG_VALUE: BZ2_decompress:s <- $x19
	.loc	1 251 58                        ; decompress.c:251:58
	ldr	w8, [x19, #36]
	b	LBB0_115
Ltmp66:
LBB0_31:                                ; %._crit_edge2759
	;DEBUG_VALUE: BZ2_decompress:curr <- [DW_OP_constu 116, DW_OP_minus] [$fp+0]
	;DEBUG_VALUE: BZ2_decompress:nextSym <- [DW_OP_constu 128, DW_OP_minus] [$fp+0]
	;DEBUG_VALUE: BZ2_decompress:retVal <- 0
	;DEBUG_VALUE: BZ2_decompress:gPerm <- $x25
	;DEBUG_VALUE: BZ2_decompress:gBase <- $x27
	;DEBUG_VALUE: BZ2_decompress:gLimit <- $x28
	;DEBUG_VALUE: BZ2_decompress:gMinlen <- [DW_OP_constu 120, DW_OP_minus] [$fp+0]
	;DEBUG_VALUE: BZ2_decompress:gSel <- $w30
	;DEBUG_VALUE: BZ2_decompress:zj <- $w23
	;DEBUG_VALUE: BZ2_decompress:zvec <- $w20
	;DEBUG_VALUE: BZ2_decompress:zn <- $w2
	;DEBUG_VALUE: BZ2_decompress:zt <- $w14
	;DEBUG_VALUE: BZ2_decompress:N <- $w17
	;DEBUG_VALUE: BZ2_decompress:es <- $w1
	;DEBUG_VALUE: BZ2_decompress:nblock <- $w7
	;DEBUG_VALUE: BZ2_decompress:nblockMAX <- $w4
	;DEBUG_VALUE: BZ2_decompress:groupPos <- $w5
	;DEBUG_VALUE: BZ2_decompress:groupNo <- $w15
	;DEBUG_VALUE: BZ2_decompress:EOB <- [DW_OP_constu 144, DW_OP_minus] [$fp+0]
	;DEBUG_VALUE: BZ2_decompress:nSelectors <- $w3
	;DEBUG_VALUE: BZ2_decompress:nGroups <- $w24
	;DEBUG_VALUE: BZ2_decompress:alphaSize <- $w6
	;DEBUG_VALUE: BZ2_decompress:t <- $w16
	;DEBUG_VALUE: BZ2_decompress:j <- $w21
	;DEBUG_VALUE: BZ2_decompress:i <- [DW_OP_constu 112, DW_OP_minus] [$fp+0]
	;DEBUG_VALUE: BZ2_decompress:strm <- $x26
	;DEBUG_VALUE: BZ2_decompress:s <- $x19
	.loc	1 254 58                        ; decompress.c:254:58
	ldr	w8, [x19, #36]
	b	LBB0_118
Ltmp67:
LBB0_32:                                ; %._crit_edge2765
	;DEBUG_VALUE: BZ2_decompress:curr <- [DW_OP_constu 116, DW_OP_minus] [$fp+0]
	;DEBUG_VALUE: BZ2_decompress:nextSym <- [DW_OP_constu 128, DW_OP_minus] [$fp+0]
	;DEBUG_VALUE: BZ2_decompress:retVal <- 0
	;DEBUG_VALUE: BZ2_decompress:gPerm <- $x25
	;DEBUG_VALUE: BZ2_decompress:gBase <- $x27
	;DEBUG_VALUE: BZ2_decompress:gLimit <- $x28
	;DEBUG_VALUE: BZ2_decompress:gMinlen <- [DW_OP_constu 120, DW_OP_minus] [$fp+0]
	;DEBUG_VALUE: BZ2_decompress:gSel <- $w30
	;DEBUG_VALUE: BZ2_decompress:zj <- $w23
	;DEBUG_VALUE: BZ2_decompress:zvec <- $w20
	;DEBUG_VALUE: BZ2_decompress:zn <- $w2
	;DEBUG_VALUE: BZ2_decompress:zt <- $w14
	;DEBUG_VALUE: BZ2_decompress:N <- $w17
	;DEBUG_VALUE: BZ2_decompress:es <- $w1
	;DEBUG_VALUE: BZ2_decompress:nblock <- $w7
	;DEBUG_VALUE: BZ2_decompress:nblockMAX <- $w4
	;DEBUG_VALUE: BZ2_decompress:groupPos <- $w5
	;DEBUG_VALUE: BZ2_decompress:groupNo <- $w15
	;DEBUG_VALUE: BZ2_decompress:EOB <- [DW_OP_constu 144, DW_OP_minus] [$fp+0]
	;DEBUG_VALUE: BZ2_decompress:nSelectors <- $w3
	;DEBUG_VALUE: BZ2_decompress:nGroups <- $w24
	;DEBUG_VALUE: BZ2_decompress:alphaSize <- $w6
	;DEBUG_VALUE: BZ2_decompress:t <- $w16
	;DEBUG_VALUE: BZ2_decompress:j <- $w21
	;DEBUG_VALUE: BZ2_decompress:i <- [DW_OP_constu 112, DW_OP_minus] [$fp+0]
	;DEBUG_VALUE: BZ2_decompress:strm <- $x26
	;DEBUG_VALUE: BZ2_decompress:s <- $x19
	.loc	1 256 58                        ; decompress.c:256:58
	ldr	w8, [x19, #36]
	b	LBB0_121
Ltmp68:
LBB0_33:                                ; %._crit_edge2771
	;DEBUG_VALUE: BZ2_decompress:curr <- [DW_OP_constu 116, DW_OP_minus] [$fp+0]
	;DEBUG_VALUE: BZ2_decompress:nextSym <- [DW_OP_constu 128, DW_OP_minus] [$fp+0]
	;DEBUG_VALUE: BZ2_decompress:retVal <- 0
	;DEBUG_VALUE: BZ2_decompress:gPerm <- $x25
	;DEBUG_VALUE: BZ2_decompress:gBase <- $x27
	;DEBUG_VALUE: BZ2_decompress:gLimit <- $x28
	;DEBUG_VALUE: BZ2_decompress:gMinlen <- [DW_OP_constu 120, DW_OP_minus] [$fp+0]
	;DEBUG_VALUE: BZ2_decompress:gSel <- $w30
	;DEBUG_VALUE: BZ2_decompress:zj <- $w23
	;DEBUG_VALUE: BZ2_decompress:zvec <- $w20
	;DEBUG_VALUE: BZ2_decompress:zn <- $w2
	;DEBUG_VALUE: BZ2_decompress:zt <- $w14
	;DEBUG_VALUE: BZ2_decompress:N <- $w17
	;DEBUG_VALUE: BZ2_decompress:es <- $w1
	;DEBUG_VALUE: BZ2_decompress:nblock <- $w7
	;DEBUG_VALUE: BZ2_decompress:nblockMAX <- $w4
	;DEBUG_VALUE: BZ2_decompress:groupPos <- $w5
	;DEBUG_VALUE: BZ2_decompress:groupNo <- $w15
	;DEBUG_VALUE: BZ2_decompress:EOB <- [DW_OP_constu 144, DW_OP_minus] [$fp+0]
	;DEBUG_VALUE: BZ2_decompress:nSelectors <- $w3
	;DEBUG_VALUE: BZ2_decompress:nGroups <- $w24
	;DEBUG_VALUE: BZ2_decompress:alphaSize <- $w6
	;DEBUG_VALUE: BZ2_decompress:t <- $w16
	;DEBUG_VALUE: BZ2_decompress:j <- $w21
	;DEBUG_VALUE: BZ2_decompress:i <- [DW_OP_constu 112, DW_OP_minus] [$fp+0]
	;DEBUG_VALUE: BZ2_decompress:strm <- $x26
	;DEBUG_VALUE: BZ2_decompress:s <- $x19
	.loc	1 258 58                        ; decompress.c:258:58
	ldr	w8, [x19, #36]
	b	LBB0_124
Ltmp69:
LBB0_34:                                ; %._crit_edge2780
	;DEBUG_VALUE: BZ2_decompress:curr <- [DW_OP_constu 116, DW_OP_minus] [$fp+0]
	;DEBUG_VALUE: BZ2_decompress:nextSym <- [DW_OP_constu 128, DW_OP_minus] [$fp+0]
	;DEBUG_VALUE: BZ2_decompress:retVal <- 0
	;DEBUG_VALUE: BZ2_decompress:gPerm <- $x25
	;DEBUG_VALUE: BZ2_decompress:gBase <- $x27
	;DEBUG_VALUE: BZ2_decompress:gLimit <- $x28
	;DEBUG_VALUE: BZ2_decompress:gMinlen <- [DW_OP_constu 120, DW_OP_minus] [$fp+0]
	;DEBUG_VALUE: BZ2_decompress:gSel <- $w30
	;DEBUG_VALUE: BZ2_decompress:zj <- $w23
	;DEBUG_VALUE: BZ2_decompress:zvec <- $w20
	;DEBUG_VALUE: BZ2_decompress:zn <- $w2
	;DEBUG_VALUE: BZ2_decompress:zt <- $w14
	;DEBUG_VALUE: BZ2_decompress:N <- $w17
	;DEBUG_VALUE: BZ2_decompress:es <- $w1
	;DEBUG_VALUE: BZ2_decompress:nblock <- $w7
	;DEBUG_VALUE: BZ2_decompress:nblockMAX <- $w4
	;DEBUG_VALUE: BZ2_decompress:groupPos <- $w5
	;DEBUG_VALUE: BZ2_decompress:groupNo <- $w15
	;DEBUG_VALUE: BZ2_decompress:EOB <- [DW_OP_constu 144, DW_OP_minus] [$fp+0]
	;DEBUG_VALUE: BZ2_decompress:nSelectors <- $w3
	;DEBUG_VALUE: BZ2_decompress:nGroups <- $w24
	;DEBUG_VALUE: BZ2_decompress:alphaSize <- $w6
	;DEBUG_VALUE: BZ2_decompress:t <- $w16
	;DEBUG_VALUE: BZ2_decompress:j <- $w21
	;DEBUG_VALUE: BZ2_decompress:i <- [DW_OP_constu 112, DW_OP_minus] [$fp+0]
	;DEBUG_VALUE: BZ2_decompress:strm <- $x26
	;DEBUG_VALUE: BZ2_decompress:s <- $x19
	.loc	1 289 58                        ; decompress.c:289:58
	ldr	w8, [x19, #36]
Ltmp70:
LBB0_35:
	;DEBUG_VALUE: BZ2_decompress:curr <- [DW_OP_constu 116, DW_OP_minus] [$fp+0]
	;DEBUG_VALUE: BZ2_decompress:nextSym <- [DW_OP_constu 128, DW_OP_minus] [$fp+0]
	;DEBUG_VALUE: BZ2_decompress:retVal <- 0
	;DEBUG_VALUE: BZ2_decompress:gMinlen <- [DW_OP_constu 120, DW_OP_minus] [$fp+0]
	;DEBUG_VALUE: BZ2_decompress:EOB <- [DW_OP_constu 144, DW_OP_minus] [$fp+0]
	;DEBUG_VALUE: BZ2_decompress:nGroups <- $w24
	;DEBUG_VALUE: BZ2_decompress:alphaSize <- $w6
	;DEBUG_VALUE: BZ2_decompress:j <- $w21
	;DEBUG_VALUE: BZ2_decompress:i <- [DW_OP_constu 112, DW_OP_minus] [$fp+0]
	;DEBUG_VALUE: BZ2_decompress:s <- $x19
	;DEBUG_VALUE: BZ2_decompress:i <- [DW_OP_constu 112, DW_OP_minus] [$fp+0]
	;DEBUG_VALUE: BZ2_decompress:j <- $w21
	;DEBUG_VALUE: BZ2_decompress:alphaSize <- $w6
	;DEBUG_VALUE: BZ2_decompress:nGroups <- $w24
	.loc	1 0 58 is_stmt 0                ; decompress.c:0:58
	mov	w9, #31
	.loc	1 289 25                        ; decompress.c:289:25
	str	w9, [x19, #8]
Ltmp71:
	.loc	1 289 55                        ; decompress.c:289:55
	cmp	w8, #15
	b.lt	LBB0_67
Ltmp72:
; %bb.36:                               ; %.._crit_edge2219_crit_edge
	;DEBUG_VALUE: BZ2_decompress:curr <- [DW_OP_constu 116, DW_OP_minus] [$fp+0]
	;DEBUG_VALUE: BZ2_decompress:nextSym <- [DW_OP_constu 128, DW_OP_minus] [$fp+0]
	;DEBUG_VALUE: BZ2_decompress:retVal <- 0
	;DEBUG_VALUE: BZ2_decompress:gMinlen <- [DW_OP_constu 120, DW_OP_minus] [$fp+0]
	;DEBUG_VALUE: BZ2_decompress:EOB <- [DW_OP_constu 144, DW_OP_minus] [$fp+0]
	;DEBUG_VALUE: BZ2_decompress:nGroups <- $w24
	;DEBUG_VALUE: BZ2_decompress:alphaSize <- $w6
	;DEBUG_VALUE: BZ2_decompress:j <- $w21
	;DEBUG_VALUE: BZ2_decompress:i <- [DW_OP_constu 112, DW_OP_minus] [$fp+0]
	;DEBUG_VALUE: BZ2_decompress:s <- $x19
	.loc	1 289 92                        ; decompress.c:289:92
	ldr	w10, [x19, #32]
Ltmp73:
LBB0_37:                                ; %._crit_edge2219
	;DEBUG_VALUE: BZ2_decompress:curr <- [DW_OP_constu 116, DW_OP_minus] [$fp+0]
	;DEBUG_VALUE: BZ2_decompress:nextSym <- [DW_OP_constu 128, DW_OP_minus] [$fp+0]
	;DEBUG_VALUE: BZ2_decompress:retVal <- 0
	;DEBUG_VALUE: BZ2_decompress:gMinlen <- [DW_OP_constu 120, DW_OP_minus] [$fp+0]
	;DEBUG_VALUE: BZ2_decompress:EOB <- [DW_OP_constu 144, DW_OP_minus] [$fp+0]
	;DEBUG_VALUE: BZ2_decompress:nGroups <- $w24
	;DEBUG_VALUE: BZ2_decompress:alphaSize <- $w6
	;DEBUG_VALUE: BZ2_decompress:j <- $w21
	;DEBUG_VALUE: BZ2_decompress:i <- [DW_OP_constu 112, DW_OP_minus] [$fp+0]
	;DEBUG_VALUE: BZ2_decompress:s <- $x19
	.loc	1 0 92                          ; decompress.c:0:92
	mov	w9, #0
	.loc	1 289 112                       ; decompress.c:289:112
	sub	w8, w8, #15
	.loc	1 289 99                        ; decompress.c:289:99
	lsr	w10, w10, w8
	.loc	1 289 145                       ; decompress.c:289:145
	str	w8, [x19, #36]
Ltmp74:
	;DEBUG_VALUE: BZ2_decompress:nSelectors <- undef
	.loc	1 289 118                       ; decompress.c:289:118
	ands	w3, w10, #0x7fff
Ltmp75:
	;DEBUG_VALUE: v <- $w3
	.loc	1 290 11 is_stmt 1              ; decompress.c:290:11
	b.ne	LBB0_352
Ltmp76:
; %bb.38:
	;DEBUG_VALUE: v <- $w3
	;DEBUG_VALUE: BZ2_decompress:curr <- [DW_OP_constu 116, DW_OP_minus] [$fp+0]
	;DEBUG_VALUE: BZ2_decompress:nextSym <- [DW_OP_constu 128, DW_OP_minus] [$fp+0]
	;DEBUG_VALUE: BZ2_decompress:retVal <- 0
	;DEBUG_VALUE: BZ2_decompress:gMinlen <- [DW_OP_constu 120, DW_OP_minus] [$fp+0]
	;DEBUG_VALUE: BZ2_decompress:EOB <- [DW_OP_constu 144, DW_OP_minus] [$fp+0]
	;DEBUG_VALUE: BZ2_decompress:nGroups <- $w24
	;DEBUG_VALUE: BZ2_decompress:alphaSize <- $w6
	;DEBUG_VALUE: BZ2_decompress:j <- $w21
	;DEBUG_VALUE: BZ2_decompress:i <- [DW_OP_constu 112, DW_OP_minus] [$fp+0]
	;DEBUG_VALUE: BZ2_decompress:s <- $x19
	.loc	1 0 11 is_stmt 0                ; decompress.c:0:11
	mov	w0, #-4
	mov	x3, x9
	b	LBB0_340
Ltmp77:
LBB0_39:                                ; %._crit_edge2823
	;DEBUG_VALUE: BZ2_decompress:curr <- [DW_OP_constu 116, DW_OP_minus] [$fp+0]
	;DEBUG_VALUE: BZ2_decompress:nextSym <- [DW_OP_constu 128, DW_OP_minus] [$fp+0]
	;DEBUG_VALUE: BZ2_decompress:retVal <- 0
	;DEBUG_VALUE: BZ2_decompress:gPerm <- $x25
	;DEBUG_VALUE: BZ2_decompress:gBase <- $x27
	;DEBUG_VALUE: BZ2_decompress:gLimit <- $x28
	;DEBUG_VALUE: BZ2_decompress:gMinlen <- [DW_OP_constu 120, DW_OP_minus] [$fp+0]
	;DEBUG_VALUE: BZ2_decompress:gSel <- $w30
	;DEBUG_VALUE: BZ2_decompress:zj <- $w23
	;DEBUG_VALUE: BZ2_decompress:zvec <- $w20
	;DEBUG_VALUE: BZ2_decompress:zn <- $w2
	;DEBUG_VALUE: BZ2_decompress:zt <- $w14
	;DEBUG_VALUE: BZ2_decompress:N <- $w17
	;DEBUG_VALUE: BZ2_decompress:es <- $w1
	;DEBUG_VALUE: BZ2_decompress:nblock <- $w7
	;DEBUG_VALUE: BZ2_decompress:nblockMAX <- $w4
	;DEBUG_VALUE: BZ2_decompress:groupPos <- $w5
	;DEBUG_VALUE: BZ2_decompress:groupNo <- $w15
	;DEBUG_VALUE: BZ2_decompress:EOB <- [DW_OP_constu 144, DW_OP_minus] [$fp+0]
	;DEBUG_VALUE: BZ2_decompress:nSelectors <- $w3
	;DEBUG_VALUE: BZ2_decompress:nGroups <- $w24
	;DEBUG_VALUE: BZ2_decompress:alphaSize <- $w6
	;DEBUG_VALUE: BZ2_decompress:t <- $w16
	;DEBUG_VALUE: BZ2_decompress:j <- $w21
	;DEBUG_VALUE: BZ2_decompress:i <- [DW_OP_constu 112, DW_OP_minus] [$fp+0]
	;DEBUG_VALUE: BZ2_decompress:strm <- $x26
	;DEBUG_VALUE: BZ2_decompress:s <- $x19
	.loc	1 330 67 is_stmt 1              ; decompress.c:330:67
	ldr	w8, [x19, #36]
	ldur	w0, [x29, #-116]                ; 4-byte Folded Reload
	b	LBB0_274
Ltmp78:
LBB0_40:                                ; %._crit_edge2811
	;DEBUG_VALUE: BZ2_decompress:curr <- [DW_OP_constu 116, DW_OP_minus] [$fp+0]
	;DEBUG_VALUE: BZ2_decompress:nextSym <- [DW_OP_constu 128, DW_OP_minus] [$fp+0]
	;DEBUG_VALUE: BZ2_decompress:retVal <- 0
	;DEBUG_VALUE: BZ2_decompress:gPerm <- $x25
	;DEBUG_VALUE: BZ2_decompress:gBase <- $x27
	;DEBUG_VALUE: BZ2_decompress:gLimit <- $x28
	;DEBUG_VALUE: BZ2_decompress:gMinlen <- [DW_OP_constu 120, DW_OP_minus] [$fp+0]
	;DEBUG_VALUE: BZ2_decompress:gSel <- $w30
	;DEBUG_VALUE: BZ2_decompress:zj <- $w23
	;DEBUG_VALUE: BZ2_decompress:zvec <- $w20
	;DEBUG_VALUE: BZ2_decompress:zn <- $w2
	;DEBUG_VALUE: BZ2_decompress:zt <- $w14
	;DEBUG_VALUE: BZ2_decompress:N <- $w17
	;DEBUG_VALUE: BZ2_decompress:es <- $w1
	;DEBUG_VALUE: BZ2_decompress:nblock <- $w7
	;DEBUG_VALUE: BZ2_decompress:nblockMAX <- $w4
	;DEBUG_VALUE: BZ2_decompress:groupPos <- $w5
	;DEBUG_VALUE: BZ2_decompress:groupNo <- $w15
	;DEBUG_VALUE: BZ2_decompress:EOB <- [DW_OP_constu 144, DW_OP_minus] [$fp+0]
	;DEBUG_VALUE: BZ2_decompress:nSelectors <- $w3
	;DEBUG_VALUE: BZ2_decompress:nGroups <- $w24
	;DEBUG_VALUE: BZ2_decompress:alphaSize <- $w6
	;DEBUG_VALUE: BZ2_decompress:t <- $w16
	;DEBUG_VALUE: BZ2_decompress:j <- $w21
	;DEBUG_VALUE: BZ2_decompress:i <- [DW_OP_constu 112, DW_OP_minus] [$fp+0]
	;DEBUG_VALUE: BZ2_decompress:strm <- $x26
	;DEBUG_VALUE: BZ2_decompress:s <- $x19
	.loc	1 379 927                       ; decompress.c:379:927
	ldr	w8, [x19, #36]
	b	LBB0_284
Ltmp79:
LBB0_41:                                ; %._crit_edge2801
	;DEBUG_VALUE: BZ2_decompress:curr <- [DW_OP_constu 116, DW_OP_minus] [$fp+0]
	;DEBUG_VALUE: BZ2_decompress:nextSym <- [DW_OP_constu 128, DW_OP_minus] [$fp+0]
	;DEBUG_VALUE: BZ2_decompress:retVal <- 0
	;DEBUG_VALUE: BZ2_decompress:gPerm <- $x25
	;DEBUG_VALUE: BZ2_decompress:gBase <- $x27
	;DEBUG_VALUE: BZ2_decompress:gLimit <- $x28
	;DEBUG_VALUE: BZ2_decompress:gMinlen <- [DW_OP_constu 120, DW_OP_minus] [$fp+0]
	;DEBUG_VALUE: BZ2_decompress:gSel <- $w30
	;DEBUG_VALUE: BZ2_decompress:zj <- $w23
	;DEBUG_VALUE: BZ2_decompress:zvec <- $w20
	;DEBUG_VALUE: BZ2_decompress:zn <- $w2
	;DEBUG_VALUE: BZ2_decompress:zt <- $w14
	;DEBUG_VALUE: BZ2_decompress:N <- $w17
	;DEBUG_VALUE: BZ2_decompress:es <- $w1
	;DEBUG_VALUE: BZ2_decompress:nblock <- $w7
	;DEBUG_VALUE: BZ2_decompress:nblockMAX <- $w4
	;DEBUG_VALUE: BZ2_decompress:groupPos <- $w5
	;DEBUG_VALUE: BZ2_decompress:groupNo <- $w15
	;DEBUG_VALUE: BZ2_decompress:EOB <- [DW_OP_constu 144, DW_OP_minus] [$fp+0]
	;DEBUG_VALUE: BZ2_decompress:nSelectors <- $w3
	;DEBUG_VALUE: BZ2_decompress:nGroups <- $w24
	;DEBUG_VALUE: BZ2_decompress:alphaSize <- $w6
	;DEBUG_VALUE: BZ2_decompress:t <- $w16
	;DEBUG_VALUE: BZ2_decompress:j <- $w21
	;DEBUG_VALUE: BZ2_decompress:i <- [DW_OP_constu 112, DW_OP_minus] [$fp+0]
	;DEBUG_VALUE: BZ2_decompress:strm <- $x26
	;DEBUG_VALUE: BZ2_decompress:s <- $x19
	.loc	1 400 936                       ; decompress.c:400:936
	ldr	w8, [x19, #36]
	b	LBB0_295
Ltmp80:
LBB0_42:                                ; %._crit_edge2792
	;DEBUG_VALUE: BZ2_decompress:curr <- [DW_OP_constu 116, DW_OP_minus] [$fp+0]
	;DEBUG_VALUE: BZ2_decompress:nextSym <- [DW_OP_constu 128, DW_OP_minus] [$fp+0]
	;DEBUG_VALUE: BZ2_decompress:retVal <- 0
	;DEBUG_VALUE: BZ2_decompress:gPerm <- $x25
	;DEBUG_VALUE: BZ2_decompress:gBase <- $x27
	;DEBUG_VALUE: BZ2_decompress:gLimit <- $x28
	;DEBUG_VALUE: BZ2_decompress:gMinlen <- [DW_OP_constu 120, DW_OP_minus] [$fp+0]
	;DEBUG_VALUE: BZ2_decompress:gSel <- $w30
	;DEBUG_VALUE: BZ2_decompress:zj <- $w23
	;DEBUG_VALUE: BZ2_decompress:zvec <- $w20
	;DEBUG_VALUE: BZ2_decompress:zn <- $w2
	;DEBUG_VALUE: BZ2_decompress:zt <- $w14
	;DEBUG_VALUE: BZ2_decompress:N <- $w17
	;DEBUG_VALUE: BZ2_decompress:es <- $w1
	;DEBUG_VALUE: BZ2_decompress:nblock <- $w7
	;DEBUG_VALUE: BZ2_decompress:nblockMAX <- $w4
	;DEBUG_VALUE: BZ2_decompress:groupPos <- $w5
	;DEBUG_VALUE: BZ2_decompress:groupNo <- $w15
	;DEBUG_VALUE: BZ2_decompress:EOB <- [DW_OP_constu 144, DW_OP_minus] [$fp+0]
	;DEBUG_VALUE: BZ2_decompress:nSelectors <- $w3
	;DEBUG_VALUE: BZ2_decompress:nGroups <- $w24
	;DEBUG_VALUE: BZ2_decompress:alphaSize <- $w6
	;DEBUG_VALUE: BZ2_decompress:t <- $w16
	;DEBUG_VALUE: BZ2_decompress:j <- $w21
	;DEBUG_VALUE: BZ2_decompress:i <- [DW_OP_constu 112, DW_OP_minus] [$fp+0]
	;DEBUG_VALUE: BZ2_decompress:strm <- $x26
	;DEBUG_VALUE: BZ2_decompress:s <- $x19
	.loc	1 489 933                       ; decompress.c:489:933
	ldr	w8, [x19, #36]
	b	LBB0_303
Ltmp81:
LBB0_43:                                ; %._crit_edge2838
	;DEBUG_VALUE: BZ2_decompress:curr <- [DW_OP_constu 116, DW_OP_minus] [$fp+0]
	;DEBUG_VALUE: BZ2_decompress:nextSym <- [DW_OP_constu 128, DW_OP_minus] [$fp+0]
	;DEBUG_VALUE: BZ2_decompress:retVal <- 0
	;DEBUG_VALUE: BZ2_decompress:gPerm <- $x25
	;DEBUG_VALUE: BZ2_decompress:gBase <- $x27
	;DEBUG_VALUE: BZ2_decompress:gLimit <- $x28
	;DEBUG_VALUE: BZ2_decompress:gMinlen <- [DW_OP_constu 120, DW_OP_minus] [$fp+0]
	;DEBUG_VALUE: BZ2_decompress:gSel <- $w30
	;DEBUG_VALUE: BZ2_decompress:zj <- $w23
	;DEBUG_VALUE: BZ2_decompress:zvec <- $w20
	;DEBUG_VALUE: BZ2_decompress:zn <- $w2
	;DEBUG_VALUE: BZ2_decompress:zt <- $w14
	;DEBUG_VALUE: BZ2_decompress:N <- $w17
	;DEBUG_VALUE: BZ2_decompress:es <- $w1
	;DEBUG_VALUE: BZ2_decompress:nblock <- $w7
	;DEBUG_VALUE: BZ2_decompress:nblockMAX <- $w4
	;DEBUG_VALUE: BZ2_decompress:groupPos <- $w5
	;DEBUG_VALUE: BZ2_decompress:groupNo <- $w15
	;DEBUG_VALUE: BZ2_decompress:EOB <- [DW_OP_constu 144, DW_OP_minus] [$fp+0]
	;DEBUG_VALUE: BZ2_decompress:nSelectors <- $w3
	;DEBUG_VALUE: BZ2_decompress:nGroups <- $w24
	;DEBUG_VALUE: BZ2_decompress:alphaSize <- $w6
	;DEBUG_VALUE: BZ2_decompress:t <- $w16
	;DEBUG_VALUE: BZ2_decompress:j <- $w21
	;DEBUG_VALUE: BZ2_decompress:i <- [DW_OP_constu 112, DW_OP_minus] [$fp+0]
	;DEBUG_VALUE: BZ2_decompress:strm <- $x26
	;DEBUG_VALUE: BZ2_decompress:s <- $x19
	.loc	1 590 58                        ; decompress.c:590:58
	ldr	w8, [x19, #36]
	b	LBB0_149
Ltmp82:
LBB0_44:                                ; %._crit_edge2844
	;DEBUG_VALUE: BZ2_decompress:curr <- [DW_OP_constu 116, DW_OP_minus] [$fp+0]
	;DEBUG_VALUE: BZ2_decompress:nextSym <- [DW_OP_constu 128, DW_OP_minus] [$fp+0]
	;DEBUG_VALUE: BZ2_decompress:retVal <- 0
	;DEBUG_VALUE: BZ2_decompress:gPerm <- $x25
	;DEBUG_VALUE: BZ2_decompress:gBase <- $x27
	;DEBUG_VALUE: BZ2_decompress:gLimit <- $x28
	;DEBUG_VALUE: BZ2_decompress:gMinlen <- [DW_OP_constu 120, DW_OP_minus] [$fp+0]
	;DEBUG_VALUE: BZ2_decompress:gSel <- $w30
	;DEBUG_VALUE: BZ2_decompress:zj <- $w23
	;DEBUG_VALUE: BZ2_decompress:zvec <- $w20
	;DEBUG_VALUE: BZ2_decompress:zn <- $w2
	;DEBUG_VALUE: BZ2_decompress:zt <- $w14
	;DEBUG_VALUE: BZ2_decompress:N <- $w17
	;DEBUG_VALUE: BZ2_decompress:es <- $w1
	;DEBUG_VALUE: BZ2_decompress:nblock <- $w7
	;DEBUG_VALUE: BZ2_decompress:nblockMAX <- $w4
	;DEBUG_VALUE: BZ2_decompress:groupPos <- $w5
	;DEBUG_VALUE: BZ2_decompress:groupNo <- $w15
	;DEBUG_VALUE: BZ2_decompress:EOB <- [DW_OP_constu 144, DW_OP_minus] [$fp+0]
	;DEBUG_VALUE: BZ2_decompress:nSelectors <- $w3
	;DEBUG_VALUE: BZ2_decompress:nGroups <- $w24
	;DEBUG_VALUE: BZ2_decompress:alphaSize <- $w6
	;DEBUG_VALUE: BZ2_decompress:t <- $w16
	;DEBUG_VALUE: BZ2_decompress:j <- $w21
	;DEBUG_VALUE: BZ2_decompress:i <- [DW_OP_constu 112, DW_OP_minus] [$fp+0]
	;DEBUG_VALUE: BZ2_decompress:strm <- $x26
	;DEBUG_VALUE: BZ2_decompress:s <- $x19
	.loc	1 592 58                        ; decompress.c:592:58
	ldr	w8, [x19, #36]
	b	LBB0_152
Ltmp83:
LBB0_45:                                ; %._crit_edge2850
	;DEBUG_VALUE: BZ2_decompress:curr <- [DW_OP_constu 116, DW_OP_minus] [$fp+0]
	;DEBUG_VALUE: BZ2_decompress:nextSym <- [DW_OP_constu 128, DW_OP_minus] [$fp+0]
	;DEBUG_VALUE: BZ2_decompress:retVal <- 0
	;DEBUG_VALUE: BZ2_decompress:gPerm <- $x25
	;DEBUG_VALUE: BZ2_decompress:gBase <- $x27
	;DEBUG_VALUE: BZ2_decompress:gLimit <- $x28
	;DEBUG_VALUE: BZ2_decompress:gMinlen <- [DW_OP_constu 120, DW_OP_minus] [$fp+0]
	;DEBUG_VALUE: BZ2_decompress:gSel <- $w30
	;DEBUG_VALUE: BZ2_decompress:zj <- $w23
	;DEBUG_VALUE: BZ2_decompress:zvec <- $w20
	;DEBUG_VALUE: BZ2_decompress:zn <- $w2
	;DEBUG_VALUE: BZ2_decompress:zt <- $w14
	;DEBUG_VALUE: BZ2_decompress:N <- $w17
	;DEBUG_VALUE: BZ2_decompress:es <- $w1
	;DEBUG_VALUE: BZ2_decompress:nblock <- $w7
	;DEBUG_VALUE: BZ2_decompress:nblockMAX <- $w4
	;DEBUG_VALUE: BZ2_decompress:groupPos <- $w5
	;DEBUG_VALUE: BZ2_decompress:groupNo <- $w15
	;DEBUG_VALUE: BZ2_decompress:EOB <- [DW_OP_constu 144, DW_OP_minus] [$fp+0]
	;DEBUG_VALUE: BZ2_decompress:nSelectors <- $w3
	;DEBUG_VALUE: BZ2_decompress:nGroups <- $w24
	;DEBUG_VALUE: BZ2_decompress:alphaSize <- $w6
	;DEBUG_VALUE: BZ2_decompress:t <- $w16
	;DEBUG_VALUE: BZ2_decompress:j <- $w21
	;DEBUG_VALUE: BZ2_decompress:i <- [DW_OP_constu 112, DW_OP_minus] [$fp+0]
	;DEBUG_VALUE: BZ2_decompress:strm <- $x26
	;DEBUG_VALUE: BZ2_decompress:s <- $x19
	.loc	1 594 58                        ; decompress.c:594:58
	ldr	w8, [x19, #36]
	b	LBB0_155
Ltmp84:
LBB0_46:                                ; %._crit_edge2856
	;DEBUG_VALUE: BZ2_decompress:curr <- [DW_OP_constu 116, DW_OP_minus] [$fp+0]
	;DEBUG_VALUE: BZ2_decompress:nextSym <- [DW_OP_constu 128, DW_OP_minus] [$fp+0]
	;DEBUG_VALUE: BZ2_decompress:retVal <- 0
	;DEBUG_VALUE: BZ2_decompress:gPerm <- $x25
	;DEBUG_VALUE: BZ2_decompress:gBase <- $x27
	;DEBUG_VALUE: BZ2_decompress:gLimit <- $x28
	;DEBUG_VALUE: BZ2_decompress:gMinlen <- [DW_OP_constu 120, DW_OP_minus] [$fp+0]
	;DEBUG_VALUE: BZ2_decompress:gSel <- $w30
	;DEBUG_VALUE: BZ2_decompress:zj <- $w23
	;DEBUG_VALUE: BZ2_decompress:zvec <- $w20
	;DEBUG_VALUE: BZ2_decompress:zn <- $w2
	;DEBUG_VALUE: BZ2_decompress:zt <- $w14
	;DEBUG_VALUE: BZ2_decompress:N <- $w17
	;DEBUG_VALUE: BZ2_decompress:es <- $w1
	;DEBUG_VALUE: BZ2_decompress:nblock <- $w7
	;DEBUG_VALUE: BZ2_decompress:nblockMAX <- $w4
	;DEBUG_VALUE: BZ2_decompress:groupPos <- $w5
	;DEBUG_VALUE: BZ2_decompress:groupNo <- $w15
	;DEBUG_VALUE: BZ2_decompress:EOB <- [DW_OP_constu 144, DW_OP_minus] [$fp+0]
	;DEBUG_VALUE: BZ2_decompress:nSelectors <- $w3
	;DEBUG_VALUE: BZ2_decompress:nGroups <- $w24
	;DEBUG_VALUE: BZ2_decompress:alphaSize <- $w6
	;DEBUG_VALUE: BZ2_decompress:t <- $w16
	;DEBUG_VALUE: BZ2_decompress:j <- $w21
	;DEBUG_VALUE: BZ2_decompress:i <- [DW_OP_constu 112, DW_OP_minus] [$fp+0]
	;DEBUG_VALUE: BZ2_decompress:strm <- $x26
	;DEBUG_VALUE: BZ2_decompress:s <- $x19
	.loc	1 596 58                        ; decompress.c:596:58
	ldr	w8, [x19, #36]
	b	LBB0_158
Ltmp85:
LBB0_47:                                ; %._crit_edge2862
	;DEBUG_VALUE: BZ2_decompress:curr <- [DW_OP_constu 116, DW_OP_minus] [$fp+0]
	;DEBUG_VALUE: BZ2_decompress:nextSym <- [DW_OP_constu 128, DW_OP_minus] [$fp+0]
	;DEBUG_VALUE: BZ2_decompress:retVal <- 0
	;DEBUG_VALUE: BZ2_decompress:gPerm <- $x25
	;DEBUG_VALUE: BZ2_decompress:gBase <- $x27
	;DEBUG_VALUE: BZ2_decompress:gLimit <- $x28
	;DEBUG_VALUE: BZ2_decompress:gMinlen <- [DW_OP_constu 120, DW_OP_minus] [$fp+0]
	;DEBUG_VALUE: BZ2_decompress:gSel <- $w30
	;DEBUG_VALUE: BZ2_decompress:zj <- $w23
	;DEBUG_VALUE: BZ2_decompress:zvec <- $w20
	;DEBUG_VALUE: BZ2_decompress:zn <- $w2
	;DEBUG_VALUE: BZ2_decompress:zt <- $w14
	;DEBUG_VALUE: BZ2_decompress:N <- $w17
	;DEBUG_VALUE: BZ2_decompress:es <- $w1
	;DEBUG_VALUE: BZ2_decompress:nblock <- $w7
	;DEBUG_VALUE: BZ2_decompress:nblockMAX <- $w4
	;DEBUG_VALUE: BZ2_decompress:groupPos <- $w5
	;DEBUG_VALUE: BZ2_decompress:groupNo <- $w15
	;DEBUG_VALUE: BZ2_decompress:EOB <- [DW_OP_constu 144, DW_OP_minus] [$fp+0]
	;DEBUG_VALUE: BZ2_decompress:nSelectors <- $w3
	;DEBUG_VALUE: BZ2_decompress:nGroups <- $w24
	;DEBUG_VALUE: BZ2_decompress:alphaSize <- $w6
	;DEBUG_VALUE: BZ2_decompress:t <- $w16
	;DEBUG_VALUE: BZ2_decompress:j <- $w21
	;DEBUG_VALUE: BZ2_decompress:i <- [DW_OP_constu 112, DW_OP_minus] [$fp+0]
	;DEBUG_VALUE: BZ2_decompress:strm <- $x26
	;DEBUG_VALUE: BZ2_decompress:s <- $x19
	.loc	1 598 58                        ; decompress.c:598:58
	ldr	w8, [x19, #36]
	b	LBB0_161
Ltmp86:
LBB0_48:                                ; %._crit_edge2868
	;DEBUG_VALUE: BZ2_decompress:curr <- [DW_OP_constu 116, DW_OP_minus] [$fp+0]
	;DEBUG_VALUE: BZ2_decompress:nextSym <- [DW_OP_constu 128, DW_OP_minus] [$fp+0]
	;DEBUG_VALUE: BZ2_decompress:retVal <- 0
	;DEBUG_VALUE: BZ2_decompress:gPerm <- $x25
	;DEBUG_VALUE: BZ2_decompress:gBase <- $x27
	;DEBUG_VALUE: BZ2_decompress:gLimit <- $x28
	;DEBUG_VALUE: BZ2_decompress:gMinlen <- [DW_OP_constu 120, DW_OP_minus] [$fp+0]
	;DEBUG_VALUE: BZ2_decompress:gSel <- $w30
	;DEBUG_VALUE: BZ2_decompress:zj <- $w23
	;DEBUG_VALUE: BZ2_decompress:zvec <- $w20
	;DEBUG_VALUE: BZ2_decompress:zn <- $w2
	;DEBUG_VALUE: BZ2_decompress:zt <- $w14
	;DEBUG_VALUE: BZ2_decompress:N <- $w17
	;DEBUG_VALUE: BZ2_decompress:es <- $w1
	;DEBUG_VALUE: BZ2_decompress:nblock <- $w7
	;DEBUG_VALUE: BZ2_decompress:nblockMAX <- $w4
	;DEBUG_VALUE: BZ2_decompress:groupPos <- $w5
	;DEBUG_VALUE: BZ2_decompress:groupNo <- $w15
	;DEBUG_VALUE: BZ2_decompress:EOB <- [DW_OP_constu 144, DW_OP_minus] [$fp+0]
	;DEBUG_VALUE: BZ2_decompress:nSelectors <- $w3
	;DEBUG_VALUE: BZ2_decompress:nGroups <- $w24
	;DEBUG_VALUE: BZ2_decompress:alphaSize <- $w6
	;DEBUG_VALUE: BZ2_decompress:t <- $w16
	;DEBUG_VALUE: BZ2_decompress:j <- $w21
	;DEBUG_VALUE: BZ2_decompress:i <- [DW_OP_constu 112, DW_OP_minus] [$fp+0]
	;DEBUG_VALUE: BZ2_decompress:strm <- $x26
	;DEBUG_VALUE: BZ2_decompress:s <- $x19
	.loc	1 602 58                        ; decompress.c:602:58
	ldr	w8, [x19, #36]
	b	LBB0_165
Ltmp87:
LBB0_49:                                ; %._crit_edge2874
	;DEBUG_VALUE: BZ2_decompress:curr <- [DW_OP_constu 116, DW_OP_minus] [$fp+0]
	;DEBUG_VALUE: BZ2_decompress:nextSym <- [DW_OP_constu 128, DW_OP_minus] [$fp+0]
	;DEBUG_VALUE: BZ2_decompress:retVal <- 0
	;DEBUG_VALUE: BZ2_decompress:gPerm <- $x25
	;DEBUG_VALUE: BZ2_decompress:gBase <- $x27
	;DEBUG_VALUE: BZ2_decompress:gLimit <- $x28
	;DEBUG_VALUE: BZ2_decompress:gMinlen <- [DW_OP_constu 120, DW_OP_minus] [$fp+0]
	;DEBUG_VALUE: BZ2_decompress:gSel <- $w30
	;DEBUG_VALUE: BZ2_decompress:zj <- $w23
	;DEBUG_VALUE: BZ2_decompress:zvec <- $w20
	;DEBUG_VALUE: BZ2_decompress:zn <- $w2
	;DEBUG_VALUE: BZ2_decompress:zt <- $w14
	;DEBUG_VALUE: BZ2_decompress:N <- $w17
	;DEBUG_VALUE: BZ2_decompress:es <- $w1
	;DEBUG_VALUE: BZ2_decompress:nblock <- $w7
	;DEBUG_VALUE: BZ2_decompress:nblockMAX <- $w4
	;DEBUG_VALUE: BZ2_decompress:groupPos <- $w5
	;DEBUG_VALUE: BZ2_decompress:groupNo <- $w15
	;DEBUG_VALUE: BZ2_decompress:EOB <- [DW_OP_constu 144, DW_OP_minus] [$fp+0]
	;DEBUG_VALUE: BZ2_decompress:nSelectors <- $w3
	;DEBUG_VALUE: BZ2_decompress:nGroups <- $w24
	;DEBUG_VALUE: BZ2_decompress:alphaSize <- $w6
	;DEBUG_VALUE: BZ2_decompress:t <- $w16
	;DEBUG_VALUE: BZ2_decompress:j <- $w21
	;DEBUG_VALUE: BZ2_decompress:i <- [DW_OP_constu 112, DW_OP_minus] [$fp+0]
	;DEBUG_VALUE: BZ2_decompress:strm <- $x26
	;DEBUG_VALUE: BZ2_decompress:s <- $x19
	.loc	1 604 58                        ; decompress.c:604:58
	ldr	w8, [x19, #36]
	b	LBB0_168
Ltmp88:
LBB0_50:                                ; %._crit_edge2880
	;DEBUG_VALUE: BZ2_decompress:curr <- [DW_OP_constu 116, DW_OP_minus] [$fp+0]
	;DEBUG_VALUE: BZ2_decompress:nextSym <- [DW_OP_constu 128, DW_OP_minus] [$fp+0]
	;DEBUG_VALUE: BZ2_decompress:retVal <- 0
	;DEBUG_VALUE: BZ2_decompress:gPerm <- $x25
	;DEBUG_VALUE: BZ2_decompress:gBase <- $x27
	;DEBUG_VALUE: BZ2_decompress:gLimit <- $x28
	;DEBUG_VALUE: BZ2_decompress:gMinlen <- [DW_OP_constu 120, DW_OP_minus] [$fp+0]
	;DEBUG_VALUE: BZ2_decompress:gSel <- $w30
	;DEBUG_VALUE: BZ2_decompress:zj <- $w23
	;DEBUG_VALUE: BZ2_decompress:zvec <- $w20
	;DEBUG_VALUE: BZ2_decompress:zn <- $w2
	;DEBUG_VALUE: BZ2_decompress:zt <- $w14
	;DEBUG_VALUE: BZ2_decompress:N <- $w17
	;DEBUG_VALUE: BZ2_decompress:es <- $w1
	;DEBUG_VALUE: BZ2_decompress:nblock <- $w7
	;DEBUG_VALUE: BZ2_decompress:nblockMAX <- $w4
	;DEBUG_VALUE: BZ2_decompress:groupPos <- $w5
	;DEBUG_VALUE: BZ2_decompress:groupNo <- $w15
	;DEBUG_VALUE: BZ2_decompress:EOB <- [DW_OP_constu 144, DW_OP_minus] [$fp+0]
	;DEBUG_VALUE: BZ2_decompress:nSelectors <- $w3
	;DEBUG_VALUE: BZ2_decompress:nGroups <- $w24
	;DEBUG_VALUE: BZ2_decompress:alphaSize <- $w6
	;DEBUG_VALUE: BZ2_decompress:t <- $w16
	;DEBUG_VALUE: BZ2_decompress:j <- $w21
	;DEBUG_VALUE: BZ2_decompress:i <- [DW_OP_constu 112, DW_OP_minus] [$fp+0]
	;DEBUG_VALUE: BZ2_decompress:strm <- $x26
	;DEBUG_VALUE: BZ2_decompress:s <- $x19
	.loc	1 606 58                        ; decompress.c:606:58
	ldr	w8, [x19, #36]
	b	LBB0_171
Ltmp89:
LBB0_51:                                ; %._crit_edge2886
	;DEBUG_VALUE: BZ2_decompress:curr <- [DW_OP_constu 116, DW_OP_minus] [$fp+0]
	;DEBUG_VALUE: BZ2_decompress:nextSym <- [DW_OP_constu 128, DW_OP_minus] [$fp+0]
	;DEBUG_VALUE: BZ2_decompress:retVal <- 0
	;DEBUG_VALUE: BZ2_decompress:gPerm <- $x25
	;DEBUG_VALUE: BZ2_decompress:gBase <- $x27
	;DEBUG_VALUE: BZ2_decompress:gLimit <- $x28
	;DEBUG_VALUE: BZ2_decompress:gMinlen <- [DW_OP_constu 120, DW_OP_minus] [$fp+0]
	;DEBUG_VALUE: BZ2_decompress:gSel <- $w30
	;DEBUG_VALUE: BZ2_decompress:zj <- $w23
	;DEBUG_VALUE: BZ2_decompress:zvec <- $w20
	;DEBUG_VALUE: BZ2_decompress:zn <- $w2
	;DEBUG_VALUE: BZ2_decompress:zt <- $w14
	;DEBUG_VALUE: BZ2_decompress:N <- $w17
	;DEBUG_VALUE: BZ2_decompress:es <- $w1
	;DEBUG_VALUE: BZ2_decompress:nblock <- $w7
	;DEBUG_VALUE: BZ2_decompress:nblockMAX <- $w4
	;DEBUG_VALUE: BZ2_decompress:groupPos <- $w5
	;DEBUG_VALUE: BZ2_decompress:groupNo <- $w15
	;DEBUG_VALUE: BZ2_decompress:EOB <- [DW_OP_constu 144, DW_OP_minus] [$fp+0]
	;DEBUG_VALUE: BZ2_decompress:nSelectors <- $w3
	;DEBUG_VALUE: BZ2_decompress:nGroups <- $w24
	;DEBUG_VALUE: BZ2_decompress:alphaSize <- $w6
	;DEBUG_VALUE: BZ2_decompress:t <- $w16
	;DEBUG_VALUE: BZ2_decompress:j <- $w21
	;DEBUG_VALUE: BZ2_decompress:i <- [DW_OP_constu 112, DW_OP_minus] [$fp+0]
	;DEBUG_VALUE: BZ2_decompress:strm <- $x26
	;DEBUG_VALUE: BZ2_decompress:s <- $x19
	.loc	1 608 58                        ; decompress.c:608:58
	ldr	w8, [x19, #36]
	b	LBB0_174
Ltmp90:
LBB0_52:                                ; %.lr.ph2137
	;DEBUG_VALUE: BZ2_decompress:curr <- [DW_OP_constu 116, DW_OP_minus] [$fp+0]
	;DEBUG_VALUE: BZ2_decompress:nextSym <- [DW_OP_constu 128, DW_OP_minus] [$fp+0]
	;DEBUG_VALUE: BZ2_decompress:retVal <- 0
	;DEBUG_VALUE: BZ2_decompress:gPerm <- $x25
	;DEBUG_VALUE: BZ2_decompress:gBase <- $x27
	;DEBUG_VALUE: BZ2_decompress:gLimit <- $x28
	;DEBUG_VALUE: BZ2_decompress:gMinlen <- [DW_OP_constu 120, DW_OP_minus] [$fp+0]
	;DEBUG_VALUE: BZ2_decompress:gSel <- $w30
	;DEBUG_VALUE: BZ2_decompress:zj <- $w23
	;DEBUG_VALUE: BZ2_decompress:zvec <- $w20
	;DEBUG_VALUE: BZ2_decompress:zn <- $w2
	;DEBUG_VALUE: BZ2_decompress:zt <- $w14
	;DEBUG_VALUE: BZ2_decompress:N <- $w17
	;DEBUG_VALUE: BZ2_decompress:es <- $w1
	;DEBUG_VALUE: BZ2_decompress:nblock <- $w7
	;DEBUG_VALUE: BZ2_decompress:nblockMAX <- $w4
	;DEBUG_VALUE: BZ2_decompress:groupPos <- $w5
	;DEBUG_VALUE: BZ2_decompress:groupNo <- $w15
	;DEBUG_VALUE: BZ2_decompress:EOB <- [DW_OP_constu 144, DW_OP_minus] [$fp+0]
	;DEBUG_VALUE: BZ2_decompress:nSelectors <- $w3
	;DEBUG_VALUE: BZ2_decompress:nGroups <- $w24
	;DEBUG_VALUE: BZ2_decompress:alphaSize <- $w6
	;DEBUG_VALUE: BZ2_decompress:t <- $w16
	;DEBUG_VALUE: BZ2_decompress:j <- $w21
	;DEBUG_VALUE: BZ2_decompress:i <- [DW_OP_constu 112, DW_OP_minus] [$fp+0]
	;DEBUG_VALUE: BZ2_decompress:strm <- $x26
	;DEBUG_VALUE: BZ2_decompress:s <- $x19
	.loc	1 206 192                       ; decompress.c:206:192
	ldr	w9, [x26, #8]
Ltmp91:
	.loc	1 206 55 is_stmt 0              ; decompress.c:206:55
	sub	w10, w9, #1
	b	LBB0_54
Ltmp92:
LBB0_53:                                ;   in Loop: Header=BB0_54 Depth=1
	;DEBUG_VALUE: BZ2_decompress:curr <- [DW_OP_constu 116, DW_OP_minus] [$fp+0]
	;DEBUG_VALUE: BZ2_decompress:nextSym <- [DW_OP_constu 128, DW_OP_minus] [$fp+0]
	;DEBUG_VALUE: BZ2_decompress:retVal <- 0
	;DEBUG_VALUE: BZ2_decompress:gPerm <- $x25
	;DEBUG_VALUE: BZ2_decompress:gBase <- $x27
	;DEBUG_VALUE: BZ2_decompress:gLimit <- $x28
	;DEBUG_VALUE: BZ2_decompress:gMinlen <- [DW_OP_constu 120, DW_OP_minus] [$fp+0]
	;DEBUG_VALUE: BZ2_decompress:gSel <- $w30
	;DEBUG_VALUE: BZ2_decompress:zj <- $w23
	;DEBUG_VALUE: BZ2_decompress:zvec <- $w20
	;DEBUG_VALUE: BZ2_decompress:zn <- $w2
	;DEBUG_VALUE: BZ2_decompress:zt <- $w14
	;DEBUG_VALUE: BZ2_decompress:N <- $w17
	;DEBUG_VALUE: BZ2_decompress:es <- $w1
	;DEBUG_VALUE: BZ2_decompress:nblock <- $w7
	;DEBUG_VALUE: BZ2_decompress:nblockMAX <- $w4
	;DEBUG_VALUE: BZ2_decompress:groupPos <- $w5
	;DEBUG_VALUE: BZ2_decompress:groupNo <- $w15
	;DEBUG_VALUE: BZ2_decompress:EOB <- [DW_OP_constu 144, DW_OP_minus] [$fp+0]
	;DEBUG_VALUE: BZ2_decompress:nSelectors <- $w3
	;DEBUG_VALUE: BZ2_decompress:nGroups <- $w24
	;DEBUG_VALUE: BZ2_decompress:alphaSize <- $w6
	;DEBUG_VALUE: BZ2_decompress:t <- $w16
	;DEBUG_VALUE: BZ2_decompress:j <- $w21
	;DEBUG_VALUE: BZ2_decompress:i <- [DW_OP_constu 112, DW_OP_minus] [$fp+0]
	;DEBUG_VALUE: BZ2_decompress:strm <- $x26
	;DEBUG_VALUE: BZ2_decompress:s <- $x19
	.loc	1 206 65                        ; decompress.c:206:65
	sub	w10, w10, #1
	cmp	w8, #8
Ltmp93:
	.loc	1 206 55                        ; decompress.c:206:55
	b.pl	LBB0_20
Ltmp94:
LBB0_54:                                ; =>This Inner Loop Header: Depth=1
	;DEBUG_VALUE: BZ2_decompress:curr <- [DW_OP_constu 116, DW_OP_minus] [$fp+0]
	;DEBUG_VALUE: BZ2_decompress:nextSym <- [DW_OP_constu 128, DW_OP_minus] [$fp+0]
	;DEBUG_VALUE: BZ2_decompress:retVal <- 0
	;DEBUG_VALUE: BZ2_decompress:gPerm <- $x25
	;DEBUG_VALUE: BZ2_decompress:gBase <- $x27
	;DEBUG_VALUE: BZ2_decompress:gLimit <- $x28
	;DEBUG_VALUE: BZ2_decompress:gMinlen <- [DW_OP_constu 120, DW_OP_minus] [$fp+0]
	;DEBUG_VALUE: BZ2_decompress:gSel <- $w30
	;DEBUG_VALUE: BZ2_decompress:zj <- $w23
	;DEBUG_VALUE: BZ2_decompress:zvec <- $w20
	;DEBUG_VALUE: BZ2_decompress:zn <- $w2
	;DEBUG_VALUE: BZ2_decompress:zt <- $w14
	;DEBUG_VALUE: BZ2_decompress:N <- $w17
	;DEBUG_VALUE: BZ2_decompress:es <- $w1
	;DEBUG_VALUE: BZ2_decompress:nblock <- $w7
	;DEBUG_VALUE: BZ2_decompress:nblockMAX <- $w4
	;DEBUG_VALUE: BZ2_decompress:groupPos <- $w5
	;DEBUG_VALUE: BZ2_decompress:groupNo <- $w15
	;DEBUG_VALUE: BZ2_decompress:EOB <- [DW_OP_constu 144, DW_OP_minus] [$fp+0]
	;DEBUG_VALUE: BZ2_decompress:nSelectors <- $w3
	;DEBUG_VALUE: BZ2_decompress:nGroups <- $w24
	;DEBUG_VALUE: BZ2_decompress:alphaSize <- $w6
	;DEBUG_VALUE: BZ2_decompress:t <- $w16
	;DEBUG_VALUE: BZ2_decompress:j <- $w21
	;DEBUG_VALUE: BZ2_decompress:i <- [DW_OP_constu 112, DW_OP_minus] [$fp+0]
	;DEBUG_VALUE: BZ2_decompress:strm <- $x26
	;DEBUG_VALUE: BZ2_decompress:s <- $x19
	.loc	1 206 183                       ; decompress.c:206:183
	cmn	w10, #1
	b.eq	LBB0_283
Ltmp95:
; %bb.55:                               ;   in Loop: Header=BB0_54 Depth=1
	;DEBUG_VALUE: BZ2_decompress:curr <- [DW_OP_constu 116, DW_OP_minus] [$fp+0]
	;DEBUG_VALUE: BZ2_decompress:nextSym <- [DW_OP_constu 128, DW_OP_minus] [$fp+0]
	;DEBUG_VALUE: BZ2_decompress:retVal <- 0
	;DEBUG_VALUE: BZ2_decompress:gPerm <- $x25
	;DEBUG_VALUE: BZ2_decompress:gBase <- $x27
	;DEBUG_VALUE: BZ2_decompress:gLimit <- $x28
	;DEBUG_VALUE: BZ2_decompress:gMinlen <- [DW_OP_constu 120, DW_OP_minus] [$fp+0]
	;DEBUG_VALUE: BZ2_decompress:gSel <- $w30
	;DEBUG_VALUE: BZ2_decompress:zj <- $w23
	;DEBUG_VALUE: BZ2_decompress:zvec <- $w20
	;DEBUG_VALUE: BZ2_decompress:zn <- $w2
	;DEBUG_VALUE: BZ2_decompress:zt <- $w14
	;DEBUG_VALUE: BZ2_decompress:N <- $w17
	;DEBUG_VALUE: BZ2_decompress:es <- $w1
	;DEBUG_VALUE: BZ2_decompress:nblock <- $w7
	;DEBUG_VALUE: BZ2_decompress:nblockMAX <- $w4
	;DEBUG_VALUE: BZ2_decompress:groupPos <- $w5
	;DEBUG_VALUE: BZ2_decompress:groupNo <- $w15
	;DEBUG_VALUE: BZ2_decompress:EOB <- [DW_OP_constu 144, DW_OP_minus] [$fp+0]
	;DEBUG_VALUE: BZ2_decompress:nSelectors <- $w3
	;DEBUG_VALUE: BZ2_decompress:nGroups <- $w24
	;DEBUG_VALUE: BZ2_decompress:alphaSize <- $w6
	;DEBUG_VALUE: BZ2_decompress:t <- $w16
	;DEBUG_VALUE: BZ2_decompress:j <- $w21
	;DEBUG_VALUE: BZ2_decompress:i <- [DW_OP_constu 112, DW_OP_minus] [$fp+0]
	;DEBUG_VALUE: BZ2_decompress:strm <- $x26
	;DEBUG_VALUE: BZ2_decompress:s <- $x19
	.loc	1 206 269                       ; decompress.c:206:269
	ldr	w11, [x19, #32]
	.loc	1 206 315                       ; decompress.c:206:315
	ldr	x12, [x26]
	.loc	1 206 295                       ; decompress.c:206:295
	ldrb	w9, [x12], #1
	.loc	1 206 282                       ; decompress.c:206:282
	bfi	w9, w11, #8, #24
	.loc	1 206 338                       ; decompress.c:206:338
	add	w8, w8, #8
	.loc	1 206 263                       ; decompress.c:206:263
	stp	w9, w8, [x19, #32]
	.loc	1 206 360                       ; decompress.c:206:360
	str	x12, [x26]
	.loc	1 206 407                       ; decompress.c:206:407
	ldr	w11, [x26, #12]
	adds	w11, w11, #1
	.loc	1 206 381                       ; decompress.c:206:381
	stp	w10, w11, [x26, #8]
	.loc	1 206 415                       ; decompress.c:206:415
	b.lo	LBB0_53
Ltmp96:
; %bb.56:                               ;   in Loop: Header=BB0_54 Depth=1
	;DEBUG_VALUE: BZ2_decompress:curr <- [DW_OP_constu 116, DW_OP_minus] [$fp+0]
	;DEBUG_VALUE: BZ2_decompress:nextSym <- [DW_OP_constu 128, DW_OP_minus] [$fp+0]
	;DEBUG_VALUE: BZ2_decompress:retVal <- 0
	;DEBUG_VALUE: BZ2_decompress:gPerm <- $x25
	;DEBUG_VALUE: BZ2_decompress:gBase <- $x27
	;DEBUG_VALUE: BZ2_decompress:gLimit <- $x28
	;DEBUG_VALUE: BZ2_decompress:gMinlen <- [DW_OP_constu 120, DW_OP_minus] [$fp+0]
	;DEBUG_VALUE: BZ2_decompress:gSel <- $w30
	;DEBUG_VALUE: BZ2_decompress:zj <- $w23
	;DEBUG_VALUE: BZ2_decompress:zvec <- $w20
	;DEBUG_VALUE: BZ2_decompress:zn <- $w2
	;DEBUG_VALUE: BZ2_decompress:zt <- $w14
	;DEBUG_VALUE: BZ2_decompress:N <- $w17
	;DEBUG_VALUE: BZ2_decompress:es <- $w1
	;DEBUG_VALUE: BZ2_decompress:nblock <- $w7
	;DEBUG_VALUE: BZ2_decompress:nblockMAX <- $w4
	;DEBUG_VALUE: BZ2_decompress:groupPos <- $w5
	;DEBUG_VALUE: BZ2_decompress:groupNo <- $w15
	;DEBUG_VALUE: BZ2_decompress:EOB <- [DW_OP_constu 144, DW_OP_minus] [$fp+0]
	;DEBUG_VALUE: BZ2_decompress:nSelectors <- $w3
	;DEBUG_VALUE: BZ2_decompress:nGroups <- $w24
	;DEBUG_VALUE: BZ2_decompress:alphaSize <- $w6
	;DEBUG_VALUE: BZ2_decompress:t <- $w16
	;DEBUG_VALUE: BZ2_decompress:j <- $w21
	;DEBUG_VALUE: BZ2_decompress:i <- [DW_OP_constu 112, DW_OP_minus] [$fp+0]
	;DEBUG_VALUE: BZ2_decompress:strm <- $x26
	;DEBUG_VALUE: BZ2_decompress:s <- $x19
	.loc	1 206 466                       ; decompress.c:206:466
	ldr	w11, [x26, #16]
	add	w11, w11, #1
	str	w11, [x26, #16]
	b	LBB0_53
Ltmp97:
LBB0_57:                                ; %.lr.ph2132
	;DEBUG_VALUE: BZ2_decompress:curr <- [DW_OP_constu 116, DW_OP_minus] [$fp+0]
	;DEBUG_VALUE: BZ2_decompress:nextSym <- [DW_OP_constu 128, DW_OP_minus] [$fp+0]
	;DEBUG_VALUE: BZ2_decompress:retVal <- 0
	;DEBUG_VALUE: BZ2_decompress:gPerm <- $x25
	;DEBUG_VALUE: BZ2_decompress:gBase <- $x27
	;DEBUG_VALUE: BZ2_decompress:gLimit <- $x28
	;DEBUG_VALUE: BZ2_decompress:gMinlen <- [DW_OP_constu 120, DW_OP_minus] [$fp+0]
	;DEBUG_VALUE: BZ2_decompress:gSel <- $w30
	;DEBUG_VALUE: BZ2_decompress:zj <- $w23
	;DEBUG_VALUE: BZ2_decompress:zvec <- $w20
	;DEBUG_VALUE: BZ2_decompress:zn <- $w2
	;DEBUG_VALUE: BZ2_decompress:zt <- $w14
	;DEBUG_VALUE: BZ2_decompress:N <- $w17
	;DEBUG_VALUE: BZ2_decompress:es <- $w1
	;DEBUG_VALUE: BZ2_decompress:nblock <- $w7
	;DEBUG_VALUE: BZ2_decompress:nblockMAX <- $w4
	;DEBUG_VALUE: BZ2_decompress:groupPos <- $w5
	;DEBUG_VALUE: BZ2_decompress:groupNo <- $w15
	;DEBUG_VALUE: BZ2_decompress:EOB <- [DW_OP_constu 144, DW_OP_minus] [$fp+0]
	;DEBUG_VALUE: BZ2_decompress:nSelectors <- $w3
	;DEBUG_VALUE: BZ2_decompress:nGroups <- $w24
	;DEBUG_VALUE: BZ2_decompress:alphaSize <- $w6
	;DEBUG_VALUE: BZ2_decompress:t <- $w16
	;DEBUG_VALUE: BZ2_decompress:j <- $w21
	;DEBUG_VALUE: BZ2_decompress:i <- [DW_OP_constu 112, DW_OP_minus] [$fp+0]
	;DEBUG_VALUE: BZ2_decompress:strm <- $x26
	;DEBUG_VALUE: BZ2_decompress:s <- $x19
	.loc	1 203 178 is_stmt 1             ; decompress.c:203:178
	ldr	w9, [x26, #8]
Ltmp98:
	.loc	1 203 55 is_stmt 0              ; decompress.c:203:55
	sub	w10, w9, #1
	b	LBB0_59
Ltmp99:
LBB0_58:                                ;   in Loop: Header=BB0_59 Depth=1
	;DEBUG_VALUE: BZ2_decompress:curr <- [DW_OP_constu 116, DW_OP_minus] [$fp+0]
	;DEBUG_VALUE: BZ2_decompress:nextSym <- [DW_OP_constu 128, DW_OP_minus] [$fp+0]
	;DEBUG_VALUE: BZ2_decompress:retVal <- 0
	;DEBUG_VALUE: BZ2_decompress:gPerm <- $x25
	;DEBUG_VALUE: BZ2_decompress:gBase <- $x27
	;DEBUG_VALUE: BZ2_decompress:gLimit <- $x28
	;DEBUG_VALUE: BZ2_decompress:gMinlen <- [DW_OP_constu 120, DW_OP_minus] [$fp+0]
	;DEBUG_VALUE: BZ2_decompress:gSel <- $w30
	;DEBUG_VALUE: BZ2_decompress:zj <- $w23
	;DEBUG_VALUE: BZ2_decompress:zvec <- $w20
	;DEBUG_VALUE: BZ2_decompress:zn <- $w2
	;DEBUG_VALUE: BZ2_decompress:zt <- $w14
	;DEBUG_VALUE: BZ2_decompress:N <- $w17
	;DEBUG_VALUE: BZ2_decompress:es <- $w1
	;DEBUG_VALUE: BZ2_decompress:nblock <- $w7
	;DEBUG_VALUE: BZ2_decompress:nblockMAX <- $w4
	;DEBUG_VALUE: BZ2_decompress:groupPos <- $w5
	;DEBUG_VALUE: BZ2_decompress:groupNo <- $w15
	;DEBUG_VALUE: BZ2_decompress:EOB <- [DW_OP_constu 144, DW_OP_minus] [$fp+0]
	;DEBUG_VALUE: BZ2_decompress:nSelectors <- $w3
	;DEBUG_VALUE: BZ2_decompress:nGroups <- $w24
	;DEBUG_VALUE: BZ2_decompress:alphaSize <- $w6
	;DEBUG_VALUE: BZ2_decompress:t <- $w16
	;DEBUG_VALUE: BZ2_decompress:j <- $w21
	;DEBUG_VALUE: BZ2_decompress:i <- [DW_OP_constu 112, DW_OP_minus] [$fp+0]
	;DEBUG_VALUE: BZ2_decompress:strm <- $x26
	;DEBUG_VALUE: BZ2_decompress:s <- $x19
	.loc	1 203 65                        ; decompress.c:203:65
	sub	w10, w10, #1
	cmp	w8, #8
Ltmp100:
	.loc	1 203 55                        ; decompress.c:203:55
	b.pl	LBB0_16
Ltmp101:
LBB0_59:                                ; =>This Inner Loop Header: Depth=1
	;DEBUG_VALUE: BZ2_decompress:curr <- [DW_OP_constu 116, DW_OP_minus] [$fp+0]
	;DEBUG_VALUE: BZ2_decompress:nextSym <- [DW_OP_constu 128, DW_OP_minus] [$fp+0]
	;DEBUG_VALUE: BZ2_decompress:retVal <- 0
	;DEBUG_VALUE: BZ2_decompress:gPerm <- $x25
	;DEBUG_VALUE: BZ2_decompress:gBase <- $x27
	;DEBUG_VALUE: BZ2_decompress:gLimit <- $x28
	;DEBUG_VALUE: BZ2_decompress:gMinlen <- [DW_OP_constu 120, DW_OP_minus] [$fp+0]
	;DEBUG_VALUE: BZ2_decompress:gSel <- $w30
	;DEBUG_VALUE: BZ2_decompress:zj <- $w23
	;DEBUG_VALUE: BZ2_decompress:zvec <- $w20
	;DEBUG_VALUE: BZ2_decompress:zn <- $w2
	;DEBUG_VALUE: BZ2_decompress:zt <- $w14
	;DEBUG_VALUE: BZ2_decompress:N <- $w17
	;DEBUG_VALUE: BZ2_decompress:es <- $w1
	;DEBUG_VALUE: BZ2_decompress:nblock <- $w7
	;DEBUG_VALUE: BZ2_decompress:nblockMAX <- $w4
	;DEBUG_VALUE: BZ2_decompress:groupPos <- $w5
	;DEBUG_VALUE: BZ2_decompress:groupNo <- $w15
	;DEBUG_VALUE: BZ2_decompress:EOB <- [DW_OP_constu 144, DW_OP_minus] [$fp+0]
	;DEBUG_VALUE: BZ2_decompress:nSelectors <- $w3
	;DEBUG_VALUE: BZ2_decompress:nGroups <- $w24
	;DEBUG_VALUE: BZ2_decompress:alphaSize <- $w6
	;DEBUG_VALUE: BZ2_decompress:t <- $w16
	;DEBUG_VALUE: BZ2_decompress:j <- $w21
	;DEBUG_VALUE: BZ2_decompress:i <- [DW_OP_constu 112, DW_OP_minus] [$fp+0]
	;DEBUG_VALUE: BZ2_decompress:strm <- $x26
	;DEBUG_VALUE: BZ2_decompress:s <- $x19
	.loc	1 203 169                       ; decompress.c:203:169
	cmn	w10, #1
	b.eq	LBB0_283
Ltmp102:
; %bb.60:                               ;   in Loop: Header=BB0_59 Depth=1
	;DEBUG_VALUE: BZ2_decompress:curr <- [DW_OP_constu 116, DW_OP_minus] [$fp+0]
	;DEBUG_VALUE: BZ2_decompress:nextSym <- [DW_OP_constu 128, DW_OP_minus] [$fp+0]
	;DEBUG_VALUE: BZ2_decompress:retVal <- 0
	;DEBUG_VALUE: BZ2_decompress:gPerm <- $x25
	;DEBUG_VALUE: BZ2_decompress:gBase <- $x27
	;DEBUG_VALUE: BZ2_decompress:gLimit <- $x28
	;DEBUG_VALUE: BZ2_decompress:gMinlen <- [DW_OP_constu 120, DW_OP_minus] [$fp+0]
	;DEBUG_VALUE: BZ2_decompress:gSel <- $w30
	;DEBUG_VALUE: BZ2_decompress:zj <- $w23
	;DEBUG_VALUE: BZ2_decompress:zvec <- $w20
	;DEBUG_VALUE: BZ2_decompress:zn <- $w2
	;DEBUG_VALUE: BZ2_decompress:zt <- $w14
	;DEBUG_VALUE: BZ2_decompress:N <- $w17
	;DEBUG_VALUE: BZ2_decompress:es <- $w1
	;DEBUG_VALUE: BZ2_decompress:nblock <- $w7
	;DEBUG_VALUE: BZ2_decompress:nblockMAX <- $w4
	;DEBUG_VALUE: BZ2_decompress:groupPos <- $w5
	;DEBUG_VALUE: BZ2_decompress:groupNo <- $w15
	;DEBUG_VALUE: BZ2_decompress:EOB <- [DW_OP_constu 144, DW_OP_minus] [$fp+0]
	;DEBUG_VALUE: BZ2_decompress:nSelectors <- $w3
	;DEBUG_VALUE: BZ2_decompress:nGroups <- $w24
	;DEBUG_VALUE: BZ2_decompress:alphaSize <- $w6
	;DEBUG_VALUE: BZ2_decompress:t <- $w16
	;DEBUG_VALUE: BZ2_decompress:j <- $w21
	;DEBUG_VALUE: BZ2_decompress:i <- [DW_OP_constu 112, DW_OP_minus] [$fp+0]
	;DEBUG_VALUE: BZ2_decompress:strm <- $x26
	;DEBUG_VALUE: BZ2_decompress:s <- $x19
	.loc	1 203 255                       ; decompress.c:203:255
	ldr	w11, [x19, #32]
	.loc	1 203 301                       ; decompress.c:203:301
	ldr	x12, [x26]
	.loc	1 203 281                       ; decompress.c:203:281
	ldrb	w9, [x12], #1
	.loc	1 203 268                       ; decompress.c:203:268
	bfi	w9, w11, #8, #24
	.loc	1 203 324                       ; decompress.c:203:324
	add	w8, w8, #8
	.loc	1 203 249                       ; decompress.c:203:249
	stp	w9, w8, [x19, #32]
	.loc	1 203 346                       ; decompress.c:203:346
	str	x12, [x26]
	.loc	1 203 393                       ; decompress.c:203:393
	ldr	w11, [x26, #12]
	adds	w11, w11, #1
	.loc	1 203 367                       ; decompress.c:203:367
	stp	w10, w11, [x26, #8]
	.loc	1 203 401                       ; decompress.c:203:401
	b.lo	LBB0_58
Ltmp103:
; %bb.61:                               ;   in Loop: Header=BB0_59 Depth=1
	;DEBUG_VALUE: BZ2_decompress:curr <- [DW_OP_constu 116, DW_OP_minus] [$fp+0]
	;DEBUG_VALUE: BZ2_decompress:nextSym <- [DW_OP_constu 128, DW_OP_minus] [$fp+0]
	;DEBUG_VALUE: BZ2_decompress:retVal <- 0
	;DEBUG_VALUE: BZ2_decompress:gPerm <- $x25
	;DEBUG_VALUE: BZ2_decompress:gBase <- $x27
	;DEBUG_VALUE: BZ2_decompress:gLimit <- $x28
	;DEBUG_VALUE: BZ2_decompress:gMinlen <- [DW_OP_constu 120, DW_OP_minus] [$fp+0]
	;DEBUG_VALUE: BZ2_decompress:gSel <- $w30
	;DEBUG_VALUE: BZ2_decompress:zj <- $w23
	;DEBUG_VALUE: BZ2_decompress:zvec <- $w20
	;DEBUG_VALUE: BZ2_decompress:zn <- $w2
	;DEBUG_VALUE: BZ2_decompress:zt <- $w14
	;DEBUG_VALUE: BZ2_decompress:N <- $w17
	;DEBUG_VALUE: BZ2_decompress:es <- $w1
	;DEBUG_VALUE: BZ2_decompress:nblock <- $w7
	;DEBUG_VALUE: BZ2_decompress:nblockMAX <- $w4
	;DEBUG_VALUE: BZ2_decompress:groupPos <- $w5
	;DEBUG_VALUE: BZ2_decompress:groupNo <- $w15
	;DEBUG_VALUE: BZ2_decompress:EOB <- [DW_OP_constu 144, DW_OP_minus] [$fp+0]
	;DEBUG_VALUE: BZ2_decompress:nSelectors <- $w3
	;DEBUG_VALUE: BZ2_decompress:nGroups <- $w24
	;DEBUG_VALUE: BZ2_decompress:alphaSize <- $w6
	;DEBUG_VALUE: BZ2_decompress:t <- $w16
	;DEBUG_VALUE: BZ2_decompress:j <- $w21
	;DEBUG_VALUE: BZ2_decompress:i <- [DW_OP_constu 112, DW_OP_minus] [$fp+0]
	;DEBUG_VALUE: BZ2_decompress:strm <- $x26
	;DEBUG_VALUE: BZ2_decompress:s <- $x19
	.loc	1 203 452                       ; decompress.c:203:452
	ldr	w11, [x26, #16]
	add	w11, w11, #1
	str	w11, [x26, #16]
	b	LBB0_58
Ltmp104:
LBB0_62:                                ; %.lr.ph2127
	;DEBUG_VALUE: BZ2_decompress:curr <- [DW_OP_constu 116, DW_OP_minus] [$fp+0]
	;DEBUG_VALUE: BZ2_decompress:nextSym <- [DW_OP_constu 128, DW_OP_minus] [$fp+0]
	;DEBUG_VALUE: BZ2_decompress:retVal <- 0
	;DEBUG_VALUE: BZ2_decompress:gPerm <- $x25
	;DEBUG_VALUE: BZ2_decompress:gBase <- $x27
	;DEBUG_VALUE: BZ2_decompress:gLimit <- $x28
	;DEBUG_VALUE: BZ2_decompress:gMinlen <- [DW_OP_constu 120, DW_OP_minus] [$fp+0]
	;DEBUG_VALUE: BZ2_decompress:gSel <- $w30
	;DEBUG_VALUE: BZ2_decompress:zj <- $w23
	;DEBUG_VALUE: BZ2_decompress:zvec <- $w20
	;DEBUG_VALUE: BZ2_decompress:zn <- $w2
	;DEBUG_VALUE: BZ2_decompress:zt <- $w14
	;DEBUG_VALUE: BZ2_decompress:N <- $w17
	;DEBUG_VALUE: BZ2_decompress:es <- $w1
	;DEBUG_VALUE: BZ2_decompress:nblock <- $w7
	;DEBUG_VALUE: BZ2_decompress:nblockMAX <- $w4
	;DEBUG_VALUE: BZ2_decompress:groupPos <- $w5
	;DEBUG_VALUE: BZ2_decompress:groupNo <- $w15
	;DEBUG_VALUE: BZ2_decompress:EOB <- [DW_OP_constu 144, DW_OP_minus] [$fp+0]
	;DEBUG_VALUE: BZ2_decompress:nSelectors <- $w3
	;DEBUG_VALUE: BZ2_decompress:nGroups <- $w24
	;DEBUG_VALUE: BZ2_decompress:alphaSize <- $w6
	;DEBUG_VALUE: BZ2_decompress:t <- $w16
	;DEBUG_VALUE: BZ2_decompress:j <- $w21
	;DEBUG_VALUE: BZ2_decompress:i <- [DW_OP_constu 112, DW_OP_minus] [$fp+0]
	;DEBUG_VALUE: BZ2_decompress:strm <- $x26
	;DEBUG_VALUE: BZ2_decompress:s <- $x19
	.loc	1 200 178 is_stmt 1             ; decompress.c:200:178
	ldr	w9, [x26, #8]
Ltmp105:
	.loc	1 200 55 is_stmt 0              ; decompress.c:200:55
	sub	w10, w9, #1
	b	LBB0_64
Ltmp106:
LBB0_63:                                ;   in Loop: Header=BB0_64 Depth=1
	;DEBUG_VALUE: BZ2_decompress:curr <- [DW_OP_constu 116, DW_OP_minus] [$fp+0]
	;DEBUG_VALUE: BZ2_decompress:nextSym <- [DW_OP_constu 128, DW_OP_minus] [$fp+0]
	;DEBUG_VALUE: BZ2_decompress:retVal <- 0
	;DEBUG_VALUE: BZ2_decompress:gPerm <- $x25
	;DEBUG_VALUE: BZ2_decompress:gBase <- $x27
	;DEBUG_VALUE: BZ2_decompress:gLimit <- $x28
	;DEBUG_VALUE: BZ2_decompress:gMinlen <- [DW_OP_constu 120, DW_OP_minus] [$fp+0]
	;DEBUG_VALUE: BZ2_decompress:gSel <- $w30
	;DEBUG_VALUE: BZ2_decompress:zj <- $w23
	;DEBUG_VALUE: BZ2_decompress:zvec <- $w20
	;DEBUG_VALUE: BZ2_decompress:zn <- $w2
	;DEBUG_VALUE: BZ2_decompress:zt <- $w14
	;DEBUG_VALUE: BZ2_decompress:N <- $w17
	;DEBUG_VALUE: BZ2_decompress:es <- $w1
	;DEBUG_VALUE: BZ2_decompress:nblock <- $w7
	;DEBUG_VALUE: BZ2_decompress:nblockMAX <- $w4
	;DEBUG_VALUE: BZ2_decompress:groupPos <- $w5
	;DEBUG_VALUE: BZ2_decompress:groupNo <- $w15
	;DEBUG_VALUE: BZ2_decompress:EOB <- [DW_OP_constu 144, DW_OP_minus] [$fp+0]
	;DEBUG_VALUE: BZ2_decompress:nSelectors <- $w3
	;DEBUG_VALUE: BZ2_decompress:nGroups <- $w24
	;DEBUG_VALUE: BZ2_decompress:alphaSize <- $w6
	;DEBUG_VALUE: BZ2_decompress:t <- $w16
	;DEBUG_VALUE: BZ2_decompress:j <- $w21
	;DEBUG_VALUE: BZ2_decompress:i <- [DW_OP_constu 112, DW_OP_minus] [$fp+0]
	;DEBUG_VALUE: BZ2_decompress:strm <- $x26
	;DEBUG_VALUE: BZ2_decompress:s <- $x19
	.loc	1 200 65                        ; decompress.c:200:65
	sub	w10, w10, #1
	cmp	w8, #8
Ltmp107:
	.loc	1 200 55                        ; decompress.c:200:55
	b.pl	LBB0_12
Ltmp108:
LBB0_64:                                ; =>This Inner Loop Header: Depth=1
	;DEBUG_VALUE: BZ2_decompress:curr <- [DW_OP_constu 116, DW_OP_minus] [$fp+0]
	;DEBUG_VALUE: BZ2_decompress:nextSym <- [DW_OP_constu 128, DW_OP_minus] [$fp+0]
	;DEBUG_VALUE: BZ2_decompress:retVal <- 0
	;DEBUG_VALUE: BZ2_decompress:gPerm <- $x25
	;DEBUG_VALUE: BZ2_decompress:gBase <- $x27
	;DEBUG_VALUE: BZ2_decompress:gLimit <- $x28
	;DEBUG_VALUE: BZ2_decompress:gMinlen <- [DW_OP_constu 120, DW_OP_minus] [$fp+0]
	;DEBUG_VALUE: BZ2_decompress:gSel <- $w30
	;DEBUG_VALUE: BZ2_decompress:zj <- $w23
	;DEBUG_VALUE: BZ2_decompress:zvec <- $w20
	;DEBUG_VALUE: BZ2_decompress:zn <- $w2
	;DEBUG_VALUE: BZ2_decompress:zt <- $w14
	;DEBUG_VALUE: BZ2_decompress:N <- $w17
	;DEBUG_VALUE: BZ2_decompress:es <- $w1
	;DEBUG_VALUE: BZ2_decompress:nblock <- $w7
	;DEBUG_VALUE: BZ2_decompress:nblockMAX <- $w4
	;DEBUG_VALUE: BZ2_decompress:groupPos <- $w5
	;DEBUG_VALUE: BZ2_decompress:groupNo <- $w15
	;DEBUG_VALUE: BZ2_decompress:EOB <- [DW_OP_constu 144, DW_OP_minus] [$fp+0]
	;DEBUG_VALUE: BZ2_decompress:nSelectors <- $w3
	;DEBUG_VALUE: BZ2_decompress:nGroups <- $w24
	;DEBUG_VALUE: BZ2_decompress:alphaSize <- $w6
	;DEBUG_VALUE: BZ2_decompress:t <- $w16
	;DEBUG_VALUE: BZ2_decompress:j <- $w21
	;DEBUG_VALUE: BZ2_decompress:i <- [DW_OP_constu 112, DW_OP_minus] [$fp+0]
	;DEBUG_VALUE: BZ2_decompress:strm <- $x26
	;DEBUG_VALUE: BZ2_decompress:s <- $x19
	.loc	1 200 169                       ; decompress.c:200:169
	cmn	w10, #1
	b.eq	LBB0_283
Ltmp109:
; %bb.65:                               ;   in Loop: Header=BB0_64 Depth=1
	;DEBUG_VALUE: BZ2_decompress:curr <- [DW_OP_constu 116, DW_OP_minus] [$fp+0]
	;DEBUG_VALUE: BZ2_decompress:nextSym <- [DW_OP_constu 128, DW_OP_minus] [$fp+0]
	;DEBUG_VALUE: BZ2_decompress:retVal <- 0
	;DEBUG_VALUE: BZ2_decompress:gPerm <- $x25
	;DEBUG_VALUE: BZ2_decompress:gBase <- $x27
	;DEBUG_VALUE: BZ2_decompress:gLimit <- $x28
	;DEBUG_VALUE: BZ2_decompress:gMinlen <- [DW_OP_constu 120, DW_OP_minus] [$fp+0]
	;DEBUG_VALUE: BZ2_decompress:gSel <- $w30
	;DEBUG_VALUE: BZ2_decompress:zj <- $w23
	;DEBUG_VALUE: BZ2_decompress:zvec <- $w20
	;DEBUG_VALUE: BZ2_decompress:zn <- $w2
	;DEBUG_VALUE: BZ2_decompress:zt <- $w14
	;DEBUG_VALUE: BZ2_decompress:N <- $w17
	;DEBUG_VALUE: BZ2_decompress:es <- $w1
	;DEBUG_VALUE: BZ2_decompress:nblock <- $w7
	;DEBUG_VALUE: BZ2_decompress:nblockMAX <- $w4
	;DEBUG_VALUE: BZ2_decompress:groupPos <- $w5
	;DEBUG_VALUE: BZ2_decompress:groupNo <- $w15
	;DEBUG_VALUE: BZ2_decompress:EOB <- [DW_OP_constu 144, DW_OP_minus] [$fp+0]
	;DEBUG_VALUE: BZ2_decompress:nSelectors <- $w3
	;DEBUG_VALUE: BZ2_decompress:nGroups <- $w24
	;DEBUG_VALUE: BZ2_decompress:alphaSize <- $w6
	;DEBUG_VALUE: BZ2_decompress:t <- $w16
	;DEBUG_VALUE: BZ2_decompress:j <- $w21
	;DEBUG_VALUE: BZ2_decompress:i <- [DW_OP_constu 112, DW_OP_minus] [$fp+0]
	;DEBUG_VALUE: BZ2_decompress:strm <- $x26
	;DEBUG_VALUE: BZ2_decompress:s <- $x19
	.loc	1 200 255                       ; decompress.c:200:255
	ldr	w11, [x19, #32]
	.loc	1 200 301                       ; decompress.c:200:301
	ldr	x12, [x26]
	.loc	1 200 281                       ; decompress.c:200:281
	ldrb	w9, [x12], #1
	.loc	1 200 268                       ; decompress.c:200:268
	bfi	w9, w11, #8, #24
	.loc	1 200 324                       ; decompress.c:200:324
	add	w8, w8, #8
	.loc	1 200 249                       ; decompress.c:200:249
	stp	w9, w8, [x19, #32]
	.loc	1 200 346                       ; decompress.c:200:346
	str	x12, [x26]
	.loc	1 200 393                       ; decompress.c:200:393
	ldr	w11, [x26, #12]
	adds	w11, w11, #1
	.loc	1 200 367                       ; decompress.c:200:367
	stp	w10, w11, [x26, #8]
	.loc	1 200 401                       ; decompress.c:200:401
	b.lo	LBB0_63
Ltmp110:
; %bb.66:                               ;   in Loop: Header=BB0_64 Depth=1
	;DEBUG_VALUE: BZ2_decompress:curr <- [DW_OP_constu 116, DW_OP_minus] [$fp+0]
	;DEBUG_VALUE: BZ2_decompress:nextSym <- [DW_OP_constu 128, DW_OP_minus] [$fp+0]
	;DEBUG_VALUE: BZ2_decompress:retVal <- 0
	;DEBUG_VALUE: BZ2_decompress:gPerm <- $x25
	;DEBUG_VALUE: BZ2_decompress:gBase <- $x27
	;DEBUG_VALUE: BZ2_decompress:gLimit <- $x28
	;DEBUG_VALUE: BZ2_decompress:gMinlen <- [DW_OP_constu 120, DW_OP_minus] [$fp+0]
	;DEBUG_VALUE: BZ2_decompress:gSel <- $w30
	;DEBUG_VALUE: BZ2_decompress:zj <- $w23
	;DEBUG_VALUE: BZ2_decompress:zvec <- $w20
	;DEBUG_VALUE: BZ2_decompress:zn <- $w2
	;DEBUG_VALUE: BZ2_decompress:zt <- $w14
	;DEBUG_VALUE: BZ2_decompress:N <- $w17
	;DEBUG_VALUE: BZ2_decompress:es <- $w1
	;DEBUG_VALUE: BZ2_decompress:nblock <- $w7
	;DEBUG_VALUE: BZ2_decompress:nblockMAX <- $w4
	;DEBUG_VALUE: BZ2_decompress:groupPos <- $w5
	;DEBUG_VALUE: BZ2_decompress:groupNo <- $w15
	;DEBUG_VALUE: BZ2_decompress:EOB <- [DW_OP_constu 144, DW_OP_minus] [$fp+0]
	;DEBUG_VALUE: BZ2_decompress:nSelectors <- $w3
	;DEBUG_VALUE: BZ2_decompress:nGroups <- $w24
	;DEBUG_VALUE: BZ2_decompress:alphaSize <- $w6
	;DEBUG_VALUE: BZ2_decompress:t <- $w16
	;DEBUG_VALUE: BZ2_decompress:j <- $w21
	;DEBUG_VALUE: BZ2_decompress:i <- [DW_OP_constu 112, DW_OP_minus] [$fp+0]
	;DEBUG_VALUE: BZ2_decompress:strm <- $x26
	;DEBUG_VALUE: BZ2_decompress:s <- $x19
	.loc	1 200 452                       ; decompress.c:200:452
	ldr	w11, [x26, #16]
	add	w11, w11, #1
	str	w11, [x26, #16]
	b	LBB0_63
Ltmp111:
LBB0_67:                                ; %.lr.ph2218
	;DEBUG_VALUE: BZ2_decompress:curr <- [DW_OP_constu 116, DW_OP_minus] [$fp+0]
	;DEBUG_VALUE: BZ2_decompress:nextSym <- [DW_OP_constu 128, DW_OP_minus] [$fp+0]
	;DEBUG_VALUE: BZ2_decompress:retVal <- 0
	;DEBUG_VALUE: BZ2_decompress:gMinlen <- [DW_OP_constu 120, DW_OP_minus] [$fp+0]
	;DEBUG_VALUE: BZ2_decompress:EOB <- [DW_OP_constu 144, DW_OP_minus] [$fp+0]
	;DEBUG_VALUE: BZ2_decompress:nGroups <- $w24
	;DEBUG_VALUE: BZ2_decompress:alphaSize <- $w6
	;DEBUG_VALUE: BZ2_decompress:j <- $w21
	;DEBUG_VALUE: BZ2_decompress:i <- [DW_OP_constu 112, DW_OP_minus] [$fp+0]
	;DEBUG_VALUE: BZ2_decompress:s <- $x19
	.loc	1 0 452                         ; decompress.c:0:452
	ldr	x9, [x19]
Ltmp112:
	.loc	1 289 190 is_stmt 1             ; decompress.c:289:190
	ldr	w10, [x9, #8]
Ltmp113:
	.loc	1 289 55 is_stmt 0              ; decompress.c:289:55
	sub	w11, w10, #1
	b	LBB0_69
Ltmp114:
LBB0_68:                                ;   in Loop: Header=BB0_69 Depth=1
	;DEBUG_VALUE: BZ2_decompress:curr <- [DW_OP_constu 116, DW_OP_minus] [$fp+0]
	;DEBUG_VALUE: BZ2_decompress:nextSym <- [DW_OP_constu 128, DW_OP_minus] [$fp+0]
	;DEBUG_VALUE: BZ2_decompress:retVal <- 0
	;DEBUG_VALUE: BZ2_decompress:gMinlen <- [DW_OP_constu 120, DW_OP_minus] [$fp+0]
	;DEBUG_VALUE: BZ2_decompress:EOB <- [DW_OP_constu 144, DW_OP_minus] [$fp+0]
	;DEBUG_VALUE: BZ2_decompress:nGroups <- $w24
	;DEBUG_VALUE: BZ2_decompress:alphaSize <- $w6
	;DEBUG_VALUE: BZ2_decompress:j <- $w21
	;DEBUG_VALUE: BZ2_decompress:i <- [DW_OP_constu 112, DW_OP_minus] [$fp+0]
	;DEBUG_VALUE: BZ2_decompress:s <- $x19
	.loc	1 289 65                        ; decompress.c:289:65
	sub	w11, w11, #1
	sub	w12, w8, #8
Ltmp115:
	.loc	1 289 55                        ; decompress.c:289:55
	cmp	w12, #6
	b.gt	LBB0_37
Ltmp116:
LBB0_69:                                ; =>This Inner Loop Header: Depth=1
	;DEBUG_VALUE: BZ2_decompress:curr <- [DW_OP_constu 116, DW_OP_minus] [$fp+0]
	;DEBUG_VALUE: BZ2_decompress:nextSym <- [DW_OP_constu 128, DW_OP_minus] [$fp+0]
	;DEBUG_VALUE: BZ2_decompress:retVal <- 0
	;DEBUG_VALUE: BZ2_decompress:gMinlen <- [DW_OP_constu 120, DW_OP_minus] [$fp+0]
	;DEBUG_VALUE: BZ2_decompress:EOB <- [DW_OP_constu 144, DW_OP_minus] [$fp+0]
	;DEBUG_VALUE: BZ2_decompress:nGroups <- $w24
	;DEBUG_VALUE: BZ2_decompress:alphaSize <- $w6
	;DEBUG_VALUE: BZ2_decompress:j <- $w21
	;DEBUG_VALUE: BZ2_decompress:i <- [DW_OP_constu 112, DW_OP_minus] [$fp+0]
	;DEBUG_VALUE: BZ2_decompress:s <- $x19
	.loc	1 289 181                       ; decompress.c:289:181
	cmn	w11, #1
	b.eq	LBB0_283
Ltmp117:
; %bb.70:                               ;   in Loop: Header=BB0_69 Depth=1
	;DEBUG_VALUE: BZ2_decompress:curr <- [DW_OP_constu 116, DW_OP_minus] [$fp+0]
	;DEBUG_VALUE: BZ2_decompress:nextSym <- [DW_OP_constu 128, DW_OP_minus] [$fp+0]
	;DEBUG_VALUE: BZ2_decompress:retVal <- 0
	;DEBUG_VALUE: BZ2_decompress:gMinlen <- [DW_OP_constu 120, DW_OP_minus] [$fp+0]
	;DEBUG_VALUE: BZ2_decompress:EOB <- [DW_OP_constu 144, DW_OP_minus] [$fp+0]
	;DEBUG_VALUE: BZ2_decompress:nGroups <- $w24
	;DEBUG_VALUE: BZ2_decompress:alphaSize <- $w6
	;DEBUG_VALUE: BZ2_decompress:j <- $w21
	;DEBUG_VALUE: BZ2_decompress:i <- [DW_OP_constu 112, DW_OP_minus] [$fp+0]
	;DEBUG_VALUE: BZ2_decompress:s <- $x19
	.loc	1 289 267                       ; decompress.c:289:267
	ldr	w12, [x19, #32]
	.loc	1 289 313                       ; decompress.c:289:313
	ldr	x13, [x9]
	.loc	1 289 293                       ; decompress.c:289:293
	ldrb	w10, [x13], #1
	.loc	1 289 280                       ; decompress.c:289:280
	bfi	w10, w12, #8, #24
	.loc	1 289 336                       ; decompress.c:289:336
	add	w8, w8, #8
	.loc	1 289 261                       ; decompress.c:289:261
	stp	w10, w8, [x19, #32]
	.loc	1 289 358                       ; decompress.c:289:358
	str	x13, [x9]
	.loc	1 289 405                       ; decompress.c:289:405
	ldr	w12, [x9, #12]
	adds	w12, w12, #1
	.loc	1 289 379                       ; decompress.c:289:379
	stp	w11, w12, [x9, #8]
	.loc	1 289 413                       ; decompress.c:289:413
	b.lo	LBB0_68
Ltmp118:
; %bb.71:                               ;   in Loop: Header=BB0_69 Depth=1
	;DEBUG_VALUE: BZ2_decompress:curr <- [DW_OP_constu 116, DW_OP_minus] [$fp+0]
	;DEBUG_VALUE: BZ2_decompress:nextSym <- [DW_OP_constu 128, DW_OP_minus] [$fp+0]
	;DEBUG_VALUE: BZ2_decompress:retVal <- 0
	;DEBUG_VALUE: BZ2_decompress:gMinlen <- [DW_OP_constu 120, DW_OP_minus] [$fp+0]
	;DEBUG_VALUE: BZ2_decompress:EOB <- [DW_OP_constu 144, DW_OP_minus] [$fp+0]
	;DEBUG_VALUE: BZ2_decompress:nGroups <- $w24
	;DEBUG_VALUE: BZ2_decompress:alphaSize <- $w6
	;DEBUG_VALUE: BZ2_decompress:j <- $w21
	;DEBUG_VALUE: BZ2_decompress:i <- [DW_OP_constu 112, DW_OP_minus] [$fp+0]
	;DEBUG_VALUE: BZ2_decompress:s <- $x19
	.loc	1 289 464                       ; decompress.c:289:464
	ldr	w12, [x9, #16]
	add	w12, w12, #1
	str	w12, [x9, #16]
	b	LBB0_68
Ltmp119:
LBB0_72:
	;DEBUG_VALUE: BZ2_decompress:curr <- [DW_OP_constu 116, DW_OP_minus] [$fp+0]
	;DEBUG_VALUE: BZ2_decompress:nextSym <- [DW_OP_constu 128, DW_OP_minus] [$fp+0]
	;DEBUG_VALUE: BZ2_decompress:retVal <- 0
	;DEBUG_VALUE: BZ2_decompress:gPerm <- $x25
	;DEBUG_VALUE: BZ2_decompress:gBase <- $x27
	;DEBUG_VALUE: BZ2_decompress:gLimit <- $x28
	;DEBUG_VALUE: BZ2_decompress:gMinlen <- [DW_OP_constu 120, DW_OP_minus] [$fp+0]
	;DEBUG_VALUE: BZ2_decompress:gSel <- $w30
	;DEBUG_VALUE: BZ2_decompress:zj <- $w23
	;DEBUG_VALUE: BZ2_decompress:zvec <- $w20
	;DEBUG_VALUE: BZ2_decompress:zn <- $w2
	;DEBUG_VALUE: BZ2_decompress:zt <- $w14
	;DEBUG_VALUE: BZ2_decompress:N <- $w17
	;DEBUG_VALUE: BZ2_decompress:es <- $w1
	;DEBUG_VALUE: BZ2_decompress:nblock <- $w7
	;DEBUG_VALUE: BZ2_decompress:nblockMAX <- $w4
	;DEBUG_VALUE: BZ2_decompress:groupPos <- $w5
	;DEBUG_VALUE: BZ2_decompress:groupNo <- $w15
	;DEBUG_VALUE: BZ2_decompress:EOB <- [DW_OP_constu 144, DW_OP_minus] [$fp+0]
	;DEBUG_VALUE: BZ2_decompress:nSelectors <- $w3
	;DEBUG_VALUE: BZ2_decompress:nGroups <- $w24
	;DEBUG_VALUE: BZ2_decompress:alphaSize <- $w6
	;DEBUG_VALUE: BZ2_decompress:t <- $w16
	;DEBUG_VALUE: BZ2_decompress:j <- $w21
	;DEBUG_VALUE: BZ2_decompress:i <- [DW_OP_constu 112, DW_OP_minus] [$fp+0]
	;DEBUG_VALUE: BZ2_decompress:strm <- $x26
	;DEBUG_VALUE: BZ2_decompress:s <- $x19
	.loc	1 0 464                         ; decompress.c:0:464
	str	w14, [sp, #148]                 ; 4-byte Folded Spill
Ltmp120:
	;DEBUG_VALUE: BZ2_decompress:zt <- [DW_OP_plus_uconst 148] [$sp+0]
	str	w16, [sp, #56]                  ; 4-byte Folded Spill
Ltmp121:
	;DEBUG_VALUE: BZ2_decompress:t <- [DW_OP_plus_uconst 56] [$sp+0]
	str	x15, [sp, #96]                  ; 8-byte Folded Spill
	str	w5, [sp, #16]                   ; 4-byte Folded Spill
Ltmp122:
	;DEBUG_VALUE: BZ2_decompress:groupPos <- [DW_OP_plus_uconst 16] [$sp+0]
	str	x7, [sp, #64]                   ; 8-byte Folded Spill
	str	w4, [sp, #88]                   ; 4-byte Folded Spill
Ltmp123:
	;DEBUG_VALUE: BZ2_decompress:nblockMAX <- [DW_OP_plus_uconst 88] [$sp+0]
	str	w3, [sp, #28]                   ; 4-byte Folded Spill
Ltmp124:
	;DEBUG_VALUE: BZ2_decompress:nSelectors <- [DW_OP_plus_uconst 28] [$sp+0]
	str	x2, [sp, #32]                   ; 8-byte Folded Spill
	str	w1, [sp, #40]                   ; 4-byte Folded Spill
Ltmp125:
	;DEBUG_VALUE: BZ2_decompress:es <- [DW_OP_plus_uconst 40] [$sp+0]
	stp	w20, w17, [sp, #128]            ; 8-byte Folded Spill
	str	x27, [sp, #120]                 ; 8-byte Folded Spill
Ltmp126:
	;DEBUG_VALUE: BZ2_decompress:gBase <- [DW_OP_plus_uconst 120] [$sp+0]
	str	x28, [sp, #136]                 ; 8-byte Folded Spill
Ltmp127:
	;DEBUG_VALUE: BZ2_decompress:gLimit <- [DW_OP_plus_uconst 136] [$sp+0]
	mov	x28, x30
	mov	x27, x24
	mov	x24, x6
Ltmp128:
	.loc	1 209 24 is_stmt 1              ; decompress.c:209:24
	sub	w9, w8, #48
	str	w9, [x19, #40]
Ltmp129:
	.loc	1 211 14                        ; decompress.c:211:14
	ldrb	w10, [x19, #44]
	.loc	1 0 0 is_stmt 0                 ; decompress.c:0:0
	ldr	x8, [x26, #56]
	ldr	x0, [x26, #72]
Ltmp130:
	.loc	1 211 11                        ; decompress.c:211:11
	cbz	w10, LBB0_80
Ltmp131:
; %bb.73:
	;DEBUG_VALUE: BZ2_decompress:gLimit <- [DW_OP_plus_uconst 136] [$sp+0]
	;DEBUG_VALUE: BZ2_decompress:gBase <- [DW_OP_plus_uconst 120] [$sp+0]
	;DEBUG_VALUE: BZ2_decompress:es <- [DW_OP_plus_uconst 40] [$sp+0]
	;DEBUG_VALUE: BZ2_decompress:nSelectors <- [DW_OP_plus_uconst 28] [$sp+0]
	;DEBUG_VALUE: BZ2_decompress:nblockMAX <- [DW_OP_plus_uconst 88] [$sp+0]
	;DEBUG_VALUE: BZ2_decompress:groupPos <- [DW_OP_plus_uconst 16] [$sp+0]
	;DEBUG_VALUE: BZ2_decompress:t <- [DW_OP_plus_uconst 56] [$sp+0]
	;DEBUG_VALUE: BZ2_decompress:zt <- [DW_OP_plus_uconst 148] [$sp+0]
	;DEBUG_VALUE: BZ2_decompress:curr <- [DW_OP_constu 116, DW_OP_minus] [$fp+0]
	;DEBUG_VALUE: BZ2_decompress:nextSym <- [DW_OP_constu 128, DW_OP_minus] [$fp+0]
	;DEBUG_VALUE: BZ2_decompress:retVal <- 0
	;DEBUG_VALUE: BZ2_decompress:gPerm <- $x25
	;DEBUG_VALUE: BZ2_decompress:gMinlen <- [DW_OP_constu 120, DW_OP_minus] [$fp+0]
	;DEBUG_VALUE: BZ2_decompress:gSel <- $w30
	;DEBUG_VALUE: BZ2_decompress:zj <- $w23
	;DEBUG_VALUE: BZ2_decompress:zvec <- $w20
	;DEBUG_VALUE: BZ2_decompress:zn <- $w2
	;DEBUG_VALUE: BZ2_decompress:N <- $w17
	;DEBUG_VALUE: BZ2_decompress:nblock <- $w7
	;DEBUG_VALUE: BZ2_decompress:groupNo <- $w15
	;DEBUG_VALUE: BZ2_decompress:EOB <- [DW_OP_constu 144, DW_OP_minus] [$fp+0]
	;DEBUG_VALUE: BZ2_decompress:alphaSize <- $w6
	;DEBUG_VALUE: BZ2_decompress:j <- $w21
	;DEBUG_VALUE: BZ2_decompress:i <- [DW_OP_constu 112, DW_OP_minus] [$fp+0]
	;DEBUG_VALUE: BZ2_decompress:strm <- $x26
	;DEBUG_VALUE: BZ2_decompress:s <- $x19
	.loc	1 0 11                          ; decompress.c:0:11
	mov	w10, #3392
	movk	w10, #3, lsl #16
Ltmp132:
	.loc	1 212 76 is_stmt 1              ; decompress.c:212:76
	mul	w1, w9, w10
	.loc	1 212 20 is_stmt 0              ; decompress.c:212:20
	mov	w2, #1
Ltmp133:
	blr	x8
Ltmp134:
	.loc	1 212 18                        ; decompress.c:212:18
	str	x0, [x19, #3160]
	.loc	1 213 19 is_stmt 1              ; decompress.c:213:19
	ldr	x8, [x26, #56]
	.loc	1 213 41 is_stmt 0              ; decompress.c:213:41
	ldr	x0, [x26, #72]
	.loc	1 213 58                        ; decompress.c:213:58
	ldr	w9, [x19, #40]
	mov	w10, #34464
	movk	w10, #1, lsl #16
	.loc	1 213 72                        ; decompress.c:213:72
	mul	w9, w9, w10
	.loc	1 213 82                        ; decompress.c:213:82
	asr	w1, w9, #1
	.loc	1 213 19                        ; decompress.c:213:19
	mov	w2, #1
	blr	x8
Ltmp135:
	mov	x8, x0
	.loc	1 213 17                        ; decompress.c:213:17
	str	x0, [x19, #3168]
Ltmp136:
	.loc	1 216 17 is_stmt 1              ; decompress.c:216:17
	ldr	x9, [x19, #3160]
	mov	w0, #-3
	mov	x6, x24
	mov	x24, x27
	mov	x30, x28
	.loc	1 216 37 is_stmt 0              ; decompress.c:216:37
	cbz	x9, LBB0_272
Ltmp137:
; %bb.74:
	;DEBUG_VALUE: BZ2_decompress:gLimit <- [DW_OP_plus_uconst 136] [$sp+0]
	;DEBUG_VALUE: BZ2_decompress:gBase <- [DW_OP_plus_uconst 120] [$sp+0]
	;DEBUG_VALUE: BZ2_decompress:es <- [DW_OP_plus_uconst 40] [$sp+0]
	;DEBUG_VALUE: BZ2_decompress:nSelectors <- [DW_OP_plus_uconst 28] [$sp+0]
	;DEBUG_VALUE: BZ2_decompress:nblockMAX <- [DW_OP_plus_uconst 88] [$sp+0]
	;DEBUG_VALUE: BZ2_decompress:groupPos <- [DW_OP_plus_uconst 16] [$sp+0]
	;DEBUG_VALUE: BZ2_decompress:t <- [DW_OP_plus_uconst 56] [$sp+0]
	;DEBUG_VALUE: BZ2_decompress:zt <- [DW_OP_plus_uconst 148] [$sp+0]
	;DEBUG_VALUE: BZ2_decompress:curr <- [DW_OP_constu 116, DW_OP_minus] [$fp+0]
	;DEBUG_VALUE: BZ2_decompress:nextSym <- [DW_OP_constu 128, DW_OP_minus] [$fp+0]
	;DEBUG_VALUE: BZ2_decompress:retVal <- 0
	;DEBUG_VALUE: BZ2_decompress:gPerm <- $x25
	;DEBUG_VALUE: BZ2_decompress:gMinlen <- [DW_OP_constu 120, DW_OP_minus] [$fp+0]
	;DEBUG_VALUE: BZ2_decompress:zj <- $w23
	;DEBUG_VALUE: BZ2_decompress:zvec <- $w20
	;DEBUG_VALUE: BZ2_decompress:EOB <- [DW_OP_constu 144, DW_OP_minus] [$fp+0]
	;DEBUG_VALUE: BZ2_decompress:j <- $w21
	;DEBUG_VALUE: BZ2_decompress:i <- [DW_OP_constu 112, DW_OP_minus] [$fp+0]
	;DEBUG_VALUE: BZ2_decompress:strm <- $x26
	;DEBUG_VALUE: BZ2_decompress:s <- $x19
	.loc	1 0 37                          ; decompress.c:0:37
	ldr	x28, [sp, #136]                 ; 8-byte Folded Reload
	ldr	x27, [sp, #120]                 ; 8-byte Folded Reload
	ldp	w20, w17, [sp, #128]            ; 8-byte Folded Reload
Ltmp138:
	ldr	w1, [sp, #40]                   ; 4-byte Folded Reload
	ldr	x2, [sp, #32]                   ; 8-byte Folded Reload
	ldr	w3, [sp, #28]                   ; 4-byte Folded Reload
	ldr	w4, [sp, #88]                   ; 4-byte Folded Reload
	ldr	x7, [sp, #64]                   ; 8-byte Folded Reload
	ldr	w5, [sp, #16]                   ; 4-byte Folded Reload
	ldr	x15, [sp, #96]                  ; 8-byte Folded Reload
	ldr	w16, [sp, #56]                  ; 4-byte Folded Reload
	ldr	w14, [sp, #148]                 ; 4-byte Folded Reload
	.loc	1 216 37                        ; decompress.c:216:37
	cbnz	x8, LBB0_81
	b	LBB0_340
Ltmp139:
LBB0_75:                                ; %.lr.ph
	;DEBUG_VALUE: BZ2_decompress:curr <- [DW_OP_constu 116, DW_OP_minus] [$fp+0]
	;DEBUG_VALUE: BZ2_decompress:nextSym <- [DW_OP_constu 128, DW_OP_minus] [$fp+0]
	;DEBUG_VALUE: BZ2_decompress:retVal <- 0
	;DEBUG_VALUE: BZ2_decompress:gPerm <- $x25
	;DEBUG_VALUE: BZ2_decompress:gBase <- $x27
	;DEBUG_VALUE: BZ2_decompress:gLimit <- $x28
	;DEBUG_VALUE: BZ2_decompress:gMinlen <- [DW_OP_constu 120, DW_OP_minus] [$fp+0]
	;DEBUG_VALUE: BZ2_decompress:gSel <- $w30
	;DEBUG_VALUE: BZ2_decompress:zj <- $w23
	;DEBUG_VALUE: BZ2_decompress:zvec <- $w20
	;DEBUG_VALUE: BZ2_decompress:zn <- $w2
	;DEBUG_VALUE: BZ2_decompress:zt <- $w14
	;DEBUG_VALUE: BZ2_decompress:N <- $w17
	;DEBUG_VALUE: BZ2_decompress:es <- $w1
	;DEBUG_VALUE: BZ2_decompress:nblock <- $w7
	;DEBUG_VALUE: BZ2_decompress:nblockMAX <- $w4
	;DEBUG_VALUE: BZ2_decompress:groupPos <- $w5
	;DEBUG_VALUE: BZ2_decompress:groupNo <- $w15
	;DEBUG_VALUE: BZ2_decompress:EOB <- [DW_OP_constu 144, DW_OP_minus] [$fp+0]
	;DEBUG_VALUE: BZ2_decompress:nSelectors <- $w3
	;DEBUG_VALUE: BZ2_decompress:nGroups <- $w24
	;DEBUG_VALUE: BZ2_decompress:alphaSize <- $w6
	;DEBUG_VALUE: BZ2_decompress:t <- $w16
	;DEBUG_VALUE: BZ2_decompress:j <- $w21
	;DEBUG_VALUE: BZ2_decompress:i <- [DW_OP_constu 112, DW_OP_minus] [$fp+0]
	;DEBUG_VALUE: BZ2_decompress:strm <- $x26
	;DEBUG_VALUE: BZ2_decompress:s <- $x19
	.loc	1 197 178 is_stmt 1             ; decompress.c:197:178
	ldr	w9, [x26, #8]
Ltmp140:
	.loc	1 197 55 is_stmt 0              ; decompress.c:197:55
	sub	w10, w9, #1
	b	LBB0_77
Ltmp141:
LBB0_76:                                ;   in Loop: Header=BB0_77 Depth=1
	;DEBUG_VALUE: BZ2_decompress:curr <- [DW_OP_constu 116, DW_OP_minus] [$fp+0]
	;DEBUG_VALUE: BZ2_decompress:nextSym <- [DW_OP_constu 128, DW_OP_minus] [$fp+0]
	;DEBUG_VALUE: BZ2_decompress:retVal <- 0
	;DEBUG_VALUE: BZ2_decompress:gPerm <- $x25
	;DEBUG_VALUE: BZ2_decompress:gBase <- $x27
	;DEBUG_VALUE: BZ2_decompress:gLimit <- $x28
	;DEBUG_VALUE: BZ2_decompress:gMinlen <- [DW_OP_constu 120, DW_OP_minus] [$fp+0]
	;DEBUG_VALUE: BZ2_decompress:gSel <- $w30
	;DEBUG_VALUE: BZ2_decompress:zj <- $w23
	;DEBUG_VALUE: BZ2_decompress:zvec <- $w20
	;DEBUG_VALUE: BZ2_decompress:zn <- $w2
	;DEBUG_VALUE: BZ2_decompress:zt <- $w14
	;DEBUG_VALUE: BZ2_decompress:N <- $w17
	;DEBUG_VALUE: BZ2_decompress:es <- $w1
	;DEBUG_VALUE: BZ2_decompress:nblock <- $w7
	;DEBUG_VALUE: BZ2_decompress:nblockMAX <- $w4
	;DEBUG_VALUE: BZ2_decompress:groupPos <- $w5
	;DEBUG_VALUE: BZ2_decompress:groupNo <- $w15
	;DEBUG_VALUE: BZ2_decompress:EOB <- [DW_OP_constu 144, DW_OP_minus] [$fp+0]
	;DEBUG_VALUE: BZ2_decompress:nSelectors <- $w3
	;DEBUG_VALUE: BZ2_decompress:nGroups <- $w24
	;DEBUG_VALUE: BZ2_decompress:alphaSize <- $w6
	;DEBUG_VALUE: BZ2_decompress:t <- $w16
	;DEBUG_VALUE: BZ2_decompress:j <- $w21
	;DEBUG_VALUE: BZ2_decompress:i <- [DW_OP_constu 112, DW_OP_minus] [$fp+0]
	;DEBUG_VALUE: BZ2_decompress:strm <- $x26
	;DEBUG_VALUE: BZ2_decompress:s <- $x19
	.loc	1 197 65                        ; decompress.c:197:65
	sub	w10, w10, #1
	cmp	w8, #8
Ltmp142:
	.loc	1 197 55                        ; decompress.c:197:55
	b.pl	LBB0_7
Ltmp143:
LBB0_77:                                ; =>This Inner Loop Header: Depth=1
	;DEBUG_VALUE: BZ2_decompress:curr <- [DW_OP_constu 116, DW_OP_minus] [$fp+0]
	;DEBUG_VALUE: BZ2_decompress:nextSym <- [DW_OP_constu 128, DW_OP_minus] [$fp+0]
	;DEBUG_VALUE: BZ2_decompress:retVal <- 0
	;DEBUG_VALUE: BZ2_decompress:gPerm <- $x25
	;DEBUG_VALUE: BZ2_decompress:gBase <- $x27
	;DEBUG_VALUE: BZ2_decompress:gLimit <- $x28
	;DEBUG_VALUE: BZ2_decompress:gMinlen <- [DW_OP_constu 120, DW_OP_minus] [$fp+0]
	;DEBUG_VALUE: BZ2_decompress:gSel <- $w30
	;DEBUG_VALUE: BZ2_decompress:zj <- $w23
	;DEBUG_VALUE: BZ2_decompress:zvec <- $w20
	;DEBUG_VALUE: BZ2_decompress:zn <- $w2
	;DEBUG_VALUE: BZ2_decompress:zt <- $w14
	;DEBUG_VALUE: BZ2_decompress:N <- $w17
	;DEBUG_VALUE: BZ2_decompress:es <- $w1
	;DEBUG_VALUE: BZ2_decompress:nblock <- $w7
	;DEBUG_VALUE: BZ2_decompress:nblockMAX <- $w4
	;DEBUG_VALUE: BZ2_decompress:groupPos <- $w5
	;DEBUG_VALUE: BZ2_decompress:groupNo <- $w15
	;DEBUG_VALUE: BZ2_decompress:EOB <- [DW_OP_constu 144, DW_OP_minus] [$fp+0]
	;DEBUG_VALUE: BZ2_decompress:nSelectors <- $w3
	;DEBUG_VALUE: BZ2_decompress:nGroups <- $w24
	;DEBUG_VALUE: BZ2_decompress:alphaSize <- $w6
	;DEBUG_VALUE: BZ2_decompress:t <- $w16
	;DEBUG_VALUE: BZ2_decompress:j <- $w21
	;DEBUG_VALUE: BZ2_decompress:i <- [DW_OP_constu 112, DW_OP_minus] [$fp+0]
	;DEBUG_VALUE: BZ2_decompress:strm <- $x26
	;DEBUG_VALUE: BZ2_decompress:s <- $x19
	.loc	1 197 169                       ; decompress.c:197:169
	cmn	w10, #1
	b.eq	LBB0_283
Ltmp144:
; %bb.78:                               ;   in Loop: Header=BB0_77 Depth=1
	;DEBUG_VALUE: BZ2_decompress:curr <- [DW_OP_constu 116, DW_OP_minus] [$fp+0]
	;DEBUG_VALUE: BZ2_decompress:nextSym <- [DW_OP_constu 128, DW_OP_minus] [$fp+0]
	;DEBUG_VALUE: BZ2_decompress:retVal <- 0
	;DEBUG_VALUE: BZ2_decompress:gPerm <- $x25
	;DEBUG_VALUE: BZ2_decompress:gBase <- $x27
	;DEBUG_VALUE: BZ2_decompress:gLimit <- $x28
	;DEBUG_VALUE: BZ2_decompress:gMinlen <- [DW_OP_constu 120, DW_OP_minus] [$fp+0]
	;DEBUG_VALUE: BZ2_decompress:gSel <- $w30
	;DEBUG_VALUE: BZ2_decompress:zj <- $w23
	;DEBUG_VALUE: BZ2_decompress:zvec <- $w20
	;DEBUG_VALUE: BZ2_decompress:zn <- $w2
	;DEBUG_VALUE: BZ2_decompress:zt <- $w14
	;DEBUG_VALUE: BZ2_decompress:N <- $w17
	;DEBUG_VALUE: BZ2_decompress:es <- $w1
	;DEBUG_VALUE: BZ2_decompress:nblock <- $w7
	;DEBUG_VALUE: BZ2_decompress:nblockMAX <- $w4
	;DEBUG_VALUE: BZ2_decompress:groupPos <- $w5
	;DEBUG_VALUE: BZ2_decompress:groupNo <- $w15
	;DEBUG_VALUE: BZ2_decompress:EOB <- [DW_OP_constu 144, DW_OP_minus] [$fp+0]
	;DEBUG_VALUE: BZ2_decompress:nSelectors <- $w3
	;DEBUG_VALUE: BZ2_decompress:nGroups <- $w24
	;DEBUG_VALUE: BZ2_decompress:alphaSize <- $w6
	;DEBUG_VALUE: BZ2_decompress:t <- $w16
	;DEBUG_VALUE: BZ2_decompress:j <- $w21
	;DEBUG_VALUE: BZ2_decompress:i <- [DW_OP_constu 112, DW_OP_minus] [$fp+0]
	;DEBUG_VALUE: BZ2_decompress:strm <- $x26
	;DEBUG_VALUE: BZ2_decompress:s <- $x19
	.loc	1 197 255                       ; decompress.c:197:255
	ldr	w11, [x19, #32]
	.loc	1 197 301                       ; decompress.c:197:301
	ldr	x12, [x26]
	.loc	1 197 281                       ; decompress.c:197:281
	ldrb	w9, [x12], #1
	.loc	1 197 268                       ; decompress.c:197:268
	bfi	w9, w11, #8, #24
	.loc	1 197 324                       ; decompress.c:197:324
	add	w8, w8, #8
	.loc	1 197 249                       ; decompress.c:197:249
	stp	w9, w8, [x19, #32]
	.loc	1 197 346                       ; decompress.c:197:346
	str	x12, [x26]
	.loc	1 197 393                       ; decompress.c:197:393
	ldr	w11, [x26, #12]
	adds	w11, w11, #1
	.loc	1 197 367                       ; decompress.c:197:367
	stp	w10, w11, [x26, #8]
	.loc	1 197 401                       ; decompress.c:197:401
	b.lo	LBB0_76
Ltmp145:
; %bb.79:                               ;   in Loop: Header=BB0_77 Depth=1
	;DEBUG_VALUE: BZ2_decompress:curr <- [DW_OP_constu 116, DW_OP_minus] [$fp+0]
	;DEBUG_VALUE: BZ2_decompress:nextSym <- [DW_OP_constu 128, DW_OP_minus] [$fp+0]
	;DEBUG_VALUE: BZ2_decompress:retVal <- 0
	;DEBUG_VALUE: BZ2_decompress:gPerm <- $x25
	;DEBUG_VALUE: BZ2_decompress:gBase <- $x27
	;DEBUG_VALUE: BZ2_decompress:gLimit <- $x28
	;DEBUG_VALUE: BZ2_decompress:gMinlen <- [DW_OP_constu 120, DW_OP_minus] [$fp+0]
	;DEBUG_VALUE: BZ2_decompress:gSel <- $w30
	;DEBUG_VALUE: BZ2_decompress:zj <- $w23
	;DEBUG_VALUE: BZ2_decompress:zvec <- $w20
	;DEBUG_VALUE: BZ2_decompress:zn <- $w2
	;DEBUG_VALUE: BZ2_decompress:zt <- $w14
	;DEBUG_VALUE: BZ2_decompress:N <- $w17
	;DEBUG_VALUE: BZ2_decompress:es <- $w1
	;DEBUG_VALUE: BZ2_decompress:nblock <- $w7
	;DEBUG_VALUE: BZ2_decompress:nblockMAX <- $w4
	;DEBUG_VALUE: BZ2_decompress:groupPos <- $w5
	;DEBUG_VALUE: BZ2_decompress:groupNo <- $w15
	;DEBUG_VALUE: BZ2_decompress:EOB <- [DW_OP_constu 144, DW_OP_minus] [$fp+0]
	;DEBUG_VALUE: BZ2_decompress:nSelectors <- $w3
	;DEBUG_VALUE: BZ2_decompress:nGroups <- $w24
	;DEBUG_VALUE: BZ2_decompress:alphaSize <- $w6
	;DEBUG_VALUE: BZ2_decompress:t <- $w16
	;DEBUG_VALUE: BZ2_decompress:j <- $w21
	;DEBUG_VALUE: BZ2_decompress:i <- [DW_OP_constu 112, DW_OP_minus] [$fp+0]
	;DEBUG_VALUE: BZ2_decompress:strm <- $x26
	;DEBUG_VALUE: BZ2_decompress:s <- $x19
	.loc	1 197 452                       ; decompress.c:197:452
	ldr	w11, [x26, #16]
	add	w11, w11, #1
	str	w11, [x26, #16]
	b	LBB0_76
Ltmp146:
LBB0_80:
	;DEBUG_VALUE: BZ2_decompress:gLimit <- [DW_OP_plus_uconst 136] [$sp+0]
	;DEBUG_VALUE: BZ2_decompress:gBase <- [DW_OP_plus_uconst 120] [$sp+0]
	;DEBUG_VALUE: BZ2_decompress:es <- [DW_OP_plus_uconst 40] [$sp+0]
	;DEBUG_VALUE: BZ2_decompress:nSelectors <- [DW_OP_plus_uconst 28] [$sp+0]
	;DEBUG_VALUE: BZ2_decompress:nblockMAX <- [DW_OP_plus_uconst 88] [$sp+0]
	;DEBUG_VALUE: BZ2_decompress:groupPos <- [DW_OP_plus_uconst 16] [$sp+0]
	;DEBUG_VALUE: BZ2_decompress:t <- [DW_OP_plus_uconst 56] [$sp+0]
	;DEBUG_VALUE: BZ2_decompress:zt <- [DW_OP_plus_uconst 148] [$sp+0]
	;DEBUG_VALUE: BZ2_decompress:curr <- [DW_OP_constu 116, DW_OP_minus] [$fp+0]
	;DEBUG_VALUE: BZ2_decompress:nextSym <- [DW_OP_constu 128, DW_OP_minus] [$fp+0]
	;DEBUG_VALUE: BZ2_decompress:retVal <- 0
	;DEBUG_VALUE: BZ2_decompress:gPerm <- $x25
	;DEBUG_VALUE: BZ2_decompress:gMinlen <- [DW_OP_constu 120, DW_OP_minus] [$fp+0]
	;DEBUG_VALUE: BZ2_decompress:gSel <- $w30
	;DEBUG_VALUE: BZ2_decompress:zj <- $w23
	;DEBUG_VALUE: BZ2_decompress:zvec <- $w20
	;DEBUG_VALUE: BZ2_decompress:zn <- $w2
	;DEBUG_VALUE: BZ2_decompress:N <- $w17
	;DEBUG_VALUE: BZ2_decompress:nblock <- $w7
	;DEBUG_VALUE: BZ2_decompress:groupNo <- $w15
	;DEBUG_VALUE: BZ2_decompress:EOB <- [DW_OP_constu 144, DW_OP_minus] [$fp+0]
	;DEBUG_VALUE: BZ2_decompress:alphaSize <- $w6
	;DEBUG_VALUE: BZ2_decompress:j <- $w21
	;DEBUG_VALUE: BZ2_decompress:i <- [DW_OP_constu 112, DW_OP_minus] [$fp+0]
	;DEBUG_VALUE: BZ2_decompress:strm <- $x26
	;DEBUG_VALUE: BZ2_decompress:s <- $x19
	.loc	1 0 452                         ; decompress.c:0:452
	mov	w10, #6784
	movk	w10, #6, lsl #16
Ltmp147:
	.loc	1 218 74 is_stmt 1              ; decompress.c:218:74
	mul	w1, w9, w10
	.loc	1 218 18 is_stmt 0              ; decompress.c:218:18
	mov	w2, #1
Ltmp148:
	blr	x8
Ltmp149:
	.loc	1 218 16                        ; decompress.c:218:16
	str	x0, [x19, #3152]
	mov	x6, x24
	mov	x24, x27
	mov	x30, x28
	ldr	x28, [sp, #136]                 ; 8-byte Folded Reload
	ldr	x27, [sp, #120]                 ; 8-byte Folded Reload
	ldp	w20, w17, [sp, #128]            ; 8-byte Folded Reload
Ltmp150:
	.loc	1 0 16                          ; decompress.c:0:16
	ldr	w1, [sp, #40]                   ; 4-byte Folded Reload
	ldr	x2, [sp, #32]                   ; 8-byte Folded Reload
	ldr	w3, [sp, #28]                   ; 4-byte Folded Reload
	ldr	w4, [sp, #88]                   ; 4-byte Folded Reload
	ldr	x7, [sp, #64]                   ; 8-byte Folded Reload
	ldr	w5, [sp, #16]                   ; 4-byte Folded Reload
	ldr	x15, [sp, #96]                  ; 8-byte Folded Reload
	ldr	w16, [sp, #56]                  ; 4-byte Folded Reload
	ldr	w14, [sp, #148]                 ; 4-byte Folded Reload
	.loc	1 219 14 is_stmt 1              ; decompress.c:219:14
	cbz	x0, LBB0_273
Ltmp151:
LBB0_81:
	;DEBUG_VALUE: BZ2_decompress:curr <- [DW_OP_constu 116, DW_OP_minus] [$fp+0]
	;DEBUG_VALUE: BZ2_decompress:nextSym <- [DW_OP_constu 128, DW_OP_minus] [$fp+0]
	;DEBUG_VALUE: BZ2_decompress:retVal <- 0
	;DEBUG_VALUE: BZ2_decompress:gPerm <- $x25
	;DEBUG_VALUE: BZ2_decompress:gMinlen <- [DW_OP_constu 120, DW_OP_minus] [$fp+0]
	;DEBUG_VALUE: BZ2_decompress:zj <- $w23
	;DEBUG_VALUE: BZ2_decompress:EOB <- [DW_OP_constu 144, DW_OP_minus] [$fp+0]
	;DEBUG_VALUE: BZ2_decompress:j <- $w21
	;DEBUG_VALUE: BZ2_decompress:i <- [DW_OP_constu 112, DW_OP_minus] [$fp+0]
	;DEBUG_VALUE: BZ2_decompress:strm <- $x26
	;DEBUG_VALUE: BZ2_decompress:s <- $x19
	.loc	1 0 14 is_stmt 0                ; decompress.c:0:14
	mov	w8, #14
	.loc	1 222 25 is_stmt 1              ; decompress.c:222:25
	str	w8, [x19, #8]
Ltmp152:
	.loc	1 222 58 is_stmt 0              ; decompress.c:222:58
	ldr	w8, [x19, #36]
Ltmp153:
	.loc	1 222 55                        ; decompress.c:222:55
	cmp	w8, #8
	b.lt	LBB0_267
Ltmp154:
; %bb.82:                               ; %.._crit_edge2143_crit_edge
	;DEBUG_VALUE: BZ2_decompress:curr <- [DW_OP_constu 116, DW_OP_minus] [$fp+0]
	;DEBUG_VALUE: BZ2_decompress:nextSym <- [DW_OP_constu 128, DW_OP_minus] [$fp+0]
	;DEBUG_VALUE: BZ2_decompress:retVal <- 0
	;DEBUG_VALUE: BZ2_decompress:gPerm <- $x25
	;DEBUG_VALUE: BZ2_decompress:gMinlen <- [DW_OP_constu 120, DW_OP_minus] [$fp+0]
	;DEBUG_VALUE: BZ2_decompress:zj <- $w23
	;DEBUG_VALUE: BZ2_decompress:EOB <- [DW_OP_constu 144, DW_OP_minus] [$fp+0]
	;DEBUG_VALUE: BZ2_decompress:j <- $w21
	;DEBUG_VALUE: BZ2_decompress:i <- [DW_OP_constu 112, DW_OP_minus] [$fp+0]
	;DEBUG_VALUE: BZ2_decompress:strm <- $x26
	;DEBUG_VALUE: BZ2_decompress:s <- $x19
	.loc	1 222 91                        ; decompress.c:222:91
	ldr	w10, [x19, #32]
Ltmp155:
LBB0_83:                                ; %._crit_edge2143
	;DEBUG_VALUE: BZ2_decompress:curr <- [DW_OP_constu 116, DW_OP_minus] [$fp+0]
	;DEBUG_VALUE: BZ2_decompress:nextSym <- [DW_OP_constu 128, DW_OP_minus] [$fp+0]
	;DEBUG_VALUE: BZ2_decompress:retVal <- 0
	;DEBUG_VALUE: BZ2_decompress:gPerm <- $x25
	;DEBUG_VALUE: BZ2_decompress:gMinlen <- [DW_OP_constu 120, DW_OP_minus] [$fp+0]
	;DEBUG_VALUE: BZ2_decompress:zj <- $w23
	;DEBUG_VALUE: BZ2_decompress:EOB <- [DW_OP_constu 144, DW_OP_minus] [$fp+0]
	;DEBUG_VALUE: BZ2_decompress:j <- $w21
	;DEBUG_VALUE: BZ2_decompress:i <- [DW_OP_constu 112, DW_OP_minus] [$fp+0]
	;DEBUG_VALUE: BZ2_decompress:strm <- $x26
	;DEBUG_VALUE: BZ2_decompress:s <- $x19
	.loc	1 222 111                       ; decompress.c:222:111
	sub	w8, w8, #8
	.loc	1 222 98                        ; decompress.c:222:98
	lsr	w9, w10, w8
Ltmp156:
	;DEBUG_VALUE: v <- [DW_OP_constu 255, DW_OP_and, DW_OP_stack_value] $w9
	.loc	1 222 142                       ; decompress.c:222:142
	str	w8, [x19, #36]
Ltmp157:
	;DEBUG_VALUE: BZ2_decompress:uc <- $w9
	.loc	1 224 11 is_stmt 1              ; decompress.c:224:11
	and	w9, w9, #0xff
Ltmp158:
	cmp	w9, #23
	b.eq	LBB0_149
Ltmp159:
; %bb.84:                               ; %._crit_edge2143
	;DEBUG_VALUE: BZ2_decompress:curr <- [DW_OP_constu 116, DW_OP_minus] [$fp+0]
	;DEBUG_VALUE: BZ2_decompress:nextSym <- [DW_OP_constu 128, DW_OP_minus] [$fp+0]
	;DEBUG_VALUE: BZ2_decompress:retVal <- 0
	;DEBUG_VALUE: BZ2_decompress:gPerm <- $x25
	;DEBUG_VALUE: BZ2_decompress:gMinlen <- [DW_OP_constu 120, DW_OP_minus] [$fp+0]
	;DEBUG_VALUE: BZ2_decompress:zj <- $w23
	;DEBUG_VALUE: BZ2_decompress:EOB <- [DW_OP_constu 144, DW_OP_minus] [$fp+0]
	;DEBUG_VALUE: BZ2_decompress:j <- $w21
	;DEBUG_VALUE: BZ2_decompress:i <- [DW_OP_constu 112, DW_OP_minus] [$fp+0]
	;DEBUG_VALUE: BZ2_decompress:strm <- $x26
	;DEBUG_VALUE: BZ2_decompress:s <- $x19
	cmp	w9, #49
	b.ne	LBB0_339
Ltmp160:
LBB0_85:
	;DEBUG_VALUE: BZ2_decompress:curr <- [DW_OP_constu 116, DW_OP_minus] [$fp+0]
	;DEBUG_VALUE: BZ2_decompress:nextSym <- [DW_OP_constu 128, DW_OP_minus] [$fp+0]
	;DEBUG_VALUE: BZ2_decompress:retVal <- 0
	;DEBUG_VALUE: BZ2_decompress:gPerm <- $x25
	;DEBUG_VALUE: BZ2_decompress:gMinlen <- [DW_OP_constu 120, DW_OP_minus] [$fp+0]
	;DEBUG_VALUE: BZ2_decompress:zj <- $w23
	;DEBUG_VALUE: BZ2_decompress:EOB <- [DW_OP_constu 144, DW_OP_minus] [$fp+0]
	;DEBUG_VALUE: BZ2_decompress:j <- $w21
	;DEBUG_VALUE: BZ2_decompress:i <- [DW_OP_constu 112, DW_OP_minus] [$fp+0]
	;DEBUG_VALUE: BZ2_decompress:strm <- $x26
	;DEBUG_VALUE: BZ2_decompress:s <- $x19
	.loc	1 0 11 is_stmt 0                ; decompress.c:0:11
	mov	w9, #15
	.loc	1 226 25 is_stmt 1              ; decompress.c:226:25
	str	w9, [x19, #8]
Ltmp161:
	.loc	1 226 55 is_stmt 0              ; decompress.c:226:55
	cmp	w8, #8
	b.lt	LBB0_257
Ltmp162:
; %bb.86:                               ; %.._crit_edge2148_crit_edge
	;DEBUG_VALUE: BZ2_decompress:curr <- [DW_OP_constu 116, DW_OP_minus] [$fp+0]
	;DEBUG_VALUE: BZ2_decompress:nextSym <- [DW_OP_constu 128, DW_OP_minus] [$fp+0]
	;DEBUG_VALUE: BZ2_decompress:retVal <- 0
	;DEBUG_VALUE: BZ2_decompress:gPerm <- $x25
	;DEBUG_VALUE: BZ2_decompress:gMinlen <- [DW_OP_constu 120, DW_OP_minus] [$fp+0]
	;DEBUG_VALUE: BZ2_decompress:zj <- $w23
	;DEBUG_VALUE: BZ2_decompress:EOB <- [DW_OP_constu 144, DW_OP_minus] [$fp+0]
	;DEBUG_VALUE: BZ2_decompress:j <- $w21
	;DEBUG_VALUE: BZ2_decompress:i <- [DW_OP_constu 112, DW_OP_minus] [$fp+0]
	;DEBUG_VALUE: BZ2_decompress:strm <- $x26
	;DEBUG_VALUE: BZ2_decompress:s <- $x19
	.loc	1 226 91                        ; decompress.c:226:91
	ldr	w10, [x19, #32]
Ltmp163:
LBB0_87:                                ; %._crit_edge2148
	;DEBUG_VALUE: BZ2_decompress:curr <- [DW_OP_constu 116, DW_OP_minus] [$fp+0]
	;DEBUG_VALUE: BZ2_decompress:nextSym <- [DW_OP_constu 128, DW_OP_minus] [$fp+0]
	;DEBUG_VALUE: BZ2_decompress:retVal <- 0
	;DEBUG_VALUE: BZ2_decompress:gPerm <- $x25
	;DEBUG_VALUE: BZ2_decompress:gMinlen <- [DW_OP_constu 120, DW_OP_minus] [$fp+0]
	;DEBUG_VALUE: BZ2_decompress:zj <- $w23
	;DEBUG_VALUE: BZ2_decompress:EOB <- [DW_OP_constu 144, DW_OP_minus] [$fp+0]
	;DEBUG_VALUE: BZ2_decompress:j <- $w21
	;DEBUG_VALUE: BZ2_decompress:i <- [DW_OP_constu 112, DW_OP_minus] [$fp+0]
	;DEBUG_VALUE: BZ2_decompress:strm <- $x26
	;DEBUG_VALUE: BZ2_decompress:s <- $x19
	.loc	1 226 111                       ; decompress.c:226:111
	sub	w8, w8, #8
	.loc	1 226 98                        ; decompress.c:226:98
	lsr	w9, w10, w8
Ltmp164:
	;DEBUG_VALUE: v <- [DW_OP_constu 255, DW_OP_and, DW_OP_stack_value] $w9
	.loc	1 226 142                       ; decompress.c:226:142
	str	w8, [x19, #36]
Ltmp165:
	.loc	1 227 11 is_stmt 1              ; decompress.c:227:11
	and	w9, w9, #0xff
Ltmp166:
	;DEBUG_VALUE: BZ2_decompress:uc <- undef
	.loc	1 227 11 is_stmt 0              ; decompress.c:227:11
	cmp	w9, #65
	b.ne	LBB0_339
Ltmp167:
LBB0_88:
	;DEBUG_VALUE: BZ2_decompress:curr <- [DW_OP_constu 116, DW_OP_minus] [$fp+0]
	;DEBUG_VALUE: BZ2_decompress:nextSym <- [DW_OP_constu 128, DW_OP_minus] [$fp+0]
	;DEBUG_VALUE: BZ2_decompress:retVal <- 0
	;DEBUG_VALUE: BZ2_decompress:gPerm <- $x25
	;DEBUG_VALUE: BZ2_decompress:gMinlen <- [DW_OP_constu 120, DW_OP_minus] [$fp+0]
	;DEBUG_VALUE: BZ2_decompress:zj <- $w23
	;DEBUG_VALUE: BZ2_decompress:EOB <- [DW_OP_constu 144, DW_OP_minus] [$fp+0]
	;DEBUG_VALUE: BZ2_decompress:j <- $w21
	;DEBUG_VALUE: BZ2_decompress:i <- [DW_OP_constu 112, DW_OP_minus] [$fp+0]
	;DEBUG_VALUE: BZ2_decompress:strm <- $x26
	;DEBUG_VALUE: BZ2_decompress:s <- $x19
	.loc	1 0 11                          ; decompress.c:0:11
	mov	w9, #16
	.loc	1 228 25 is_stmt 1              ; decompress.c:228:25
	str	w9, [x19, #8]
Ltmp168:
	.loc	1 228 55 is_stmt 0              ; decompress.c:228:55
	cmp	w8, #8
	b.lt	LBB0_247
Ltmp169:
; %bb.89:                               ; %.._crit_edge2153_crit_edge
	;DEBUG_VALUE: BZ2_decompress:curr <- [DW_OP_constu 116, DW_OP_minus] [$fp+0]
	;DEBUG_VALUE: BZ2_decompress:nextSym <- [DW_OP_constu 128, DW_OP_minus] [$fp+0]
	;DEBUG_VALUE: BZ2_decompress:retVal <- 0
	;DEBUG_VALUE: BZ2_decompress:gPerm <- $x25
	;DEBUG_VALUE: BZ2_decompress:gMinlen <- [DW_OP_constu 120, DW_OP_minus] [$fp+0]
	;DEBUG_VALUE: BZ2_decompress:zj <- $w23
	;DEBUG_VALUE: BZ2_decompress:EOB <- [DW_OP_constu 144, DW_OP_minus] [$fp+0]
	;DEBUG_VALUE: BZ2_decompress:j <- $w21
	;DEBUG_VALUE: BZ2_decompress:i <- [DW_OP_constu 112, DW_OP_minus] [$fp+0]
	;DEBUG_VALUE: BZ2_decompress:strm <- $x26
	;DEBUG_VALUE: BZ2_decompress:s <- $x19
	.loc	1 228 91                        ; decompress.c:228:91
	ldr	w10, [x19, #32]
Ltmp170:
LBB0_90:                                ; %._crit_edge2153
	;DEBUG_VALUE: BZ2_decompress:curr <- [DW_OP_constu 116, DW_OP_minus] [$fp+0]
	;DEBUG_VALUE: BZ2_decompress:nextSym <- [DW_OP_constu 128, DW_OP_minus] [$fp+0]
	;DEBUG_VALUE: BZ2_decompress:retVal <- 0
	;DEBUG_VALUE: BZ2_decompress:gPerm <- $x25
	;DEBUG_VALUE: BZ2_decompress:gMinlen <- [DW_OP_constu 120, DW_OP_minus] [$fp+0]
	;DEBUG_VALUE: BZ2_decompress:zj <- $w23
	;DEBUG_VALUE: BZ2_decompress:EOB <- [DW_OP_constu 144, DW_OP_minus] [$fp+0]
	;DEBUG_VALUE: BZ2_decompress:j <- $w21
	;DEBUG_VALUE: BZ2_decompress:i <- [DW_OP_constu 112, DW_OP_minus] [$fp+0]
	;DEBUG_VALUE: BZ2_decompress:strm <- $x26
	;DEBUG_VALUE: BZ2_decompress:s <- $x19
	.loc	1 228 111                       ; decompress.c:228:111
	sub	w8, w8, #8
	.loc	1 228 98                        ; decompress.c:228:98
	lsr	w9, w10, w8
Ltmp171:
	;DEBUG_VALUE: v <- [DW_OP_constu 255, DW_OP_and, DW_OP_stack_value] $w9
	.loc	1 228 142                       ; decompress.c:228:142
	str	w8, [x19, #36]
Ltmp172:
	.loc	1 229 11 is_stmt 1              ; decompress.c:229:11
	and	w9, w9, #0xff
Ltmp173:
	;DEBUG_VALUE: BZ2_decompress:uc <- undef
	.loc	1 229 11 is_stmt 0              ; decompress.c:229:11
	cmp	w9, #89
	b.ne	LBB0_339
Ltmp174:
LBB0_91:
	;DEBUG_VALUE: BZ2_decompress:curr <- [DW_OP_constu 116, DW_OP_minus] [$fp+0]
	;DEBUG_VALUE: BZ2_decompress:nextSym <- [DW_OP_constu 128, DW_OP_minus] [$fp+0]
	;DEBUG_VALUE: BZ2_decompress:retVal <- 0
	;DEBUG_VALUE: BZ2_decompress:gPerm <- $x25
	;DEBUG_VALUE: BZ2_decompress:gMinlen <- [DW_OP_constu 120, DW_OP_minus] [$fp+0]
	;DEBUG_VALUE: BZ2_decompress:zj <- $w23
	;DEBUG_VALUE: BZ2_decompress:EOB <- [DW_OP_constu 144, DW_OP_minus] [$fp+0]
	;DEBUG_VALUE: BZ2_decompress:j <- $w21
	;DEBUG_VALUE: BZ2_decompress:i <- [DW_OP_constu 112, DW_OP_minus] [$fp+0]
	;DEBUG_VALUE: BZ2_decompress:strm <- $x26
	;DEBUG_VALUE: BZ2_decompress:s <- $x19
	.loc	1 0 11                          ; decompress.c:0:11
	mov	w9, #17
	.loc	1 230 25 is_stmt 1              ; decompress.c:230:25
	str	w9, [x19, #8]
Ltmp175:
	.loc	1 230 55 is_stmt 0              ; decompress.c:230:55
	cmp	w8, #8
	b.lt	LBB0_237
Ltmp176:
; %bb.92:                               ; %.._crit_edge2158_crit_edge
	;DEBUG_VALUE: BZ2_decompress:curr <- [DW_OP_constu 116, DW_OP_minus] [$fp+0]
	;DEBUG_VALUE: BZ2_decompress:nextSym <- [DW_OP_constu 128, DW_OP_minus] [$fp+0]
	;DEBUG_VALUE: BZ2_decompress:retVal <- 0
	;DEBUG_VALUE: BZ2_decompress:gPerm <- $x25
	;DEBUG_VALUE: BZ2_decompress:gMinlen <- [DW_OP_constu 120, DW_OP_minus] [$fp+0]
	;DEBUG_VALUE: BZ2_decompress:zj <- $w23
	;DEBUG_VALUE: BZ2_decompress:EOB <- [DW_OP_constu 144, DW_OP_minus] [$fp+0]
	;DEBUG_VALUE: BZ2_decompress:j <- $w21
	;DEBUG_VALUE: BZ2_decompress:i <- [DW_OP_constu 112, DW_OP_minus] [$fp+0]
	;DEBUG_VALUE: BZ2_decompress:strm <- $x26
	;DEBUG_VALUE: BZ2_decompress:s <- $x19
	.loc	1 230 91                        ; decompress.c:230:91
	ldr	w10, [x19, #32]
Ltmp177:
LBB0_93:                                ; %._crit_edge2158
	;DEBUG_VALUE: BZ2_decompress:curr <- [DW_OP_constu 116, DW_OP_minus] [$fp+0]
	;DEBUG_VALUE: BZ2_decompress:nextSym <- [DW_OP_constu 128, DW_OP_minus] [$fp+0]
	;DEBUG_VALUE: BZ2_decompress:retVal <- 0
	;DEBUG_VALUE: BZ2_decompress:gPerm <- $x25
	;DEBUG_VALUE: BZ2_decompress:gMinlen <- [DW_OP_constu 120, DW_OP_minus] [$fp+0]
	;DEBUG_VALUE: BZ2_decompress:zj <- $w23
	;DEBUG_VALUE: BZ2_decompress:EOB <- [DW_OP_constu 144, DW_OP_minus] [$fp+0]
	;DEBUG_VALUE: BZ2_decompress:j <- $w21
	;DEBUG_VALUE: BZ2_decompress:i <- [DW_OP_constu 112, DW_OP_minus] [$fp+0]
	;DEBUG_VALUE: BZ2_decompress:strm <- $x26
	;DEBUG_VALUE: BZ2_decompress:s <- $x19
	.loc	1 230 111                       ; decompress.c:230:111
	sub	w8, w8, #8
	.loc	1 230 98                        ; decompress.c:230:98
	lsr	w9, w10, w8
Ltmp178:
	;DEBUG_VALUE: v <- [DW_OP_constu 255, DW_OP_and, DW_OP_stack_value] $w9
	.loc	1 230 142                       ; decompress.c:230:142
	str	w8, [x19, #36]
Ltmp179:
	.loc	1 231 11 is_stmt 1              ; decompress.c:231:11
	and	w9, w9, #0xff
Ltmp180:
	;DEBUG_VALUE: BZ2_decompress:uc <- undef
	.loc	1 231 11 is_stmt 0              ; decompress.c:231:11
	cmp	w9, #38
	b.ne	LBB0_339
Ltmp181:
LBB0_94:
	;DEBUG_VALUE: BZ2_decompress:curr <- [DW_OP_constu 116, DW_OP_minus] [$fp+0]
	;DEBUG_VALUE: BZ2_decompress:nextSym <- [DW_OP_constu 128, DW_OP_minus] [$fp+0]
	;DEBUG_VALUE: BZ2_decompress:retVal <- 0
	;DEBUG_VALUE: BZ2_decompress:gPerm <- $x25
	;DEBUG_VALUE: BZ2_decompress:gMinlen <- [DW_OP_constu 120, DW_OP_minus] [$fp+0]
	;DEBUG_VALUE: BZ2_decompress:zj <- $w23
	;DEBUG_VALUE: BZ2_decompress:EOB <- [DW_OP_constu 144, DW_OP_minus] [$fp+0]
	;DEBUG_VALUE: BZ2_decompress:j <- $w21
	;DEBUG_VALUE: BZ2_decompress:i <- [DW_OP_constu 112, DW_OP_minus] [$fp+0]
	;DEBUG_VALUE: BZ2_decompress:strm <- $x26
	;DEBUG_VALUE: BZ2_decompress:s <- $x19
	.loc	1 0 11                          ; decompress.c:0:11
	mov	w9, #18
	.loc	1 232 25 is_stmt 1              ; decompress.c:232:25
	str	w9, [x19, #8]
Ltmp182:
	.loc	1 232 55 is_stmt 0              ; decompress.c:232:55
	cmp	w8, #8
	b.lt	LBB0_227
Ltmp183:
; %bb.95:                               ; %.._crit_edge2163_crit_edge
	;DEBUG_VALUE: BZ2_decompress:curr <- [DW_OP_constu 116, DW_OP_minus] [$fp+0]
	;DEBUG_VALUE: BZ2_decompress:nextSym <- [DW_OP_constu 128, DW_OP_minus] [$fp+0]
	;DEBUG_VALUE: BZ2_decompress:retVal <- 0
	;DEBUG_VALUE: BZ2_decompress:gPerm <- $x25
	;DEBUG_VALUE: BZ2_decompress:gMinlen <- [DW_OP_constu 120, DW_OP_minus] [$fp+0]
	;DEBUG_VALUE: BZ2_decompress:zj <- $w23
	;DEBUG_VALUE: BZ2_decompress:EOB <- [DW_OP_constu 144, DW_OP_minus] [$fp+0]
	;DEBUG_VALUE: BZ2_decompress:j <- $w21
	;DEBUG_VALUE: BZ2_decompress:i <- [DW_OP_constu 112, DW_OP_minus] [$fp+0]
	;DEBUG_VALUE: BZ2_decompress:strm <- $x26
	;DEBUG_VALUE: BZ2_decompress:s <- $x19
	.loc	1 232 91                        ; decompress.c:232:91
	ldr	w10, [x19, #32]
Ltmp184:
LBB0_96:                                ; %._crit_edge2163
	;DEBUG_VALUE: BZ2_decompress:curr <- [DW_OP_constu 116, DW_OP_minus] [$fp+0]
	;DEBUG_VALUE: BZ2_decompress:nextSym <- [DW_OP_constu 128, DW_OP_minus] [$fp+0]
	;DEBUG_VALUE: BZ2_decompress:retVal <- 0
	;DEBUG_VALUE: BZ2_decompress:gPerm <- $x25
	;DEBUG_VALUE: BZ2_decompress:gMinlen <- [DW_OP_constu 120, DW_OP_minus] [$fp+0]
	;DEBUG_VALUE: BZ2_decompress:zj <- $w23
	;DEBUG_VALUE: BZ2_decompress:EOB <- [DW_OP_constu 144, DW_OP_minus] [$fp+0]
	;DEBUG_VALUE: BZ2_decompress:j <- $w21
	;DEBUG_VALUE: BZ2_decompress:i <- [DW_OP_constu 112, DW_OP_minus] [$fp+0]
	;DEBUG_VALUE: BZ2_decompress:strm <- $x26
	;DEBUG_VALUE: BZ2_decompress:s <- $x19
	.loc	1 232 111                       ; decompress.c:232:111
	sub	w8, w8, #8
	.loc	1 232 98                        ; decompress.c:232:98
	lsr	w9, w10, w8
Ltmp185:
	;DEBUG_VALUE: v <- [DW_OP_constu 255, DW_OP_and, DW_OP_stack_value] $w9
	.loc	1 232 142                       ; decompress.c:232:142
	str	w8, [x19, #36]
Ltmp186:
	.loc	1 233 11 is_stmt 1              ; decompress.c:233:11
	and	w9, w9, #0xff
Ltmp187:
	;DEBUG_VALUE: BZ2_decompress:uc <- undef
	.loc	1 233 11 is_stmt 0              ; decompress.c:233:11
	cmp	w9, #83
	b.ne	LBB0_339
Ltmp188:
LBB0_97:
	;DEBUG_VALUE: BZ2_decompress:curr <- [DW_OP_constu 116, DW_OP_minus] [$fp+0]
	;DEBUG_VALUE: BZ2_decompress:nextSym <- [DW_OP_constu 128, DW_OP_minus] [$fp+0]
	;DEBUG_VALUE: BZ2_decompress:retVal <- 0
	;DEBUG_VALUE: BZ2_decompress:gPerm <- $x25
	;DEBUG_VALUE: BZ2_decompress:gMinlen <- [DW_OP_constu 120, DW_OP_minus] [$fp+0]
	;DEBUG_VALUE: BZ2_decompress:zj <- $w23
	;DEBUG_VALUE: BZ2_decompress:EOB <- [DW_OP_constu 144, DW_OP_minus] [$fp+0]
	;DEBUG_VALUE: BZ2_decompress:j <- $w21
	;DEBUG_VALUE: BZ2_decompress:i <- [DW_OP_constu 112, DW_OP_minus] [$fp+0]
	;DEBUG_VALUE: BZ2_decompress:strm <- $x26
	;DEBUG_VALUE: BZ2_decompress:s <- $x19
	.loc	1 0 11                          ; decompress.c:0:11
	mov	w9, #19
	.loc	1 234 25 is_stmt 1              ; decompress.c:234:25
	str	w9, [x19, #8]
Ltmp189:
	.loc	1 234 55 is_stmt 0              ; decompress.c:234:55
	cmp	w8, #8
	b.lt	LBB0_217
Ltmp190:
; %bb.98:                               ; %.._crit_edge2168_crit_edge
	;DEBUG_VALUE: BZ2_decompress:curr <- [DW_OP_constu 116, DW_OP_minus] [$fp+0]
	;DEBUG_VALUE: BZ2_decompress:nextSym <- [DW_OP_constu 128, DW_OP_minus] [$fp+0]
	;DEBUG_VALUE: BZ2_decompress:retVal <- 0
	;DEBUG_VALUE: BZ2_decompress:gPerm <- $x25
	;DEBUG_VALUE: BZ2_decompress:gMinlen <- [DW_OP_constu 120, DW_OP_minus] [$fp+0]
	;DEBUG_VALUE: BZ2_decompress:zj <- $w23
	;DEBUG_VALUE: BZ2_decompress:EOB <- [DW_OP_constu 144, DW_OP_minus] [$fp+0]
	;DEBUG_VALUE: BZ2_decompress:j <- $w21
	;DEBUG_VALUE: BZ2_decompress:i <- [DW_OP_constu 112, DW_OP_minus] [$fp+0]
	;DEBUG_VALUE: BZ2_decompress:strm <- $x26
	;DEBUG_VALUE: BZ2_decompress:s <- $x19
	.loc	1 234 91                        ; decompress.c:234:91
	ldr	w10, [x19, #32]
Ltmp191:
LBB0_99:                                ; %._crit_edge2168
	;DEBUG_VALUE: BZ2_decompress:curr <- [DW_OP_constu 116, DW_OP_minus] [$fp+0]
	;DEBUG_VALUE: BZ2_decompress:nextSym <- [DW_OP_constu 128, DW_OP_minus] [$fp+0]
	;DEBUG_VALUE: BZ2_decompress:retVal <- 0
	;DEBUG_VALUE: BZ2_decompress:gPerm <- $x25
	;DEBUG_VALUE: BZ2_decompress:gMinlen <- [DW_OP_constu 120, DW_OP_minus] [$fp+0]
	;DEBUG_VALUE: BZ2_decompress:zj <- $w23
	;DEBUG_VALUE: BZ2_decompress:EOB <- [DW_OP_constu 144, DW_OP_minus] [$fp+0]
	;DEBUG_VALUE: BZ2_decompress:j <- $w21
	;DEBUG_VALUE: BZ2_decompress:i <- [DW_OP_constu 112, DW_OP_minus] [$fp+0]
	;DEBUG_VALUE: BZ2_decompress:strm <- $x26
	;DEBUG_VALUE: BZ2_decompress:s <- $x19
	.loc	1 234 111                       ; decompress.c:234:111
	sub	w8, w8, #8
	.loc	1 234 98                        ; decompress.c:234:98
	lsr	w9, w10, w8
Ltmp192:
	;DEBUG_VALUE: v <- [DW_OP_constu 255, DW_OP_and, DW_OP_stack_value] $w9
	.loc	1 234 142                       ; decompress.c:234:142
	str	w8, [x19, #36]
Ltmp193:
	.loc	1 235 11 is_stmt 1              ; decompress.c:235:11
	and	w8, w9, #0xff
Ltmp194:
	;DEBUG_VALUE: BZ2_decompress:uc <- undef
	.loc	1 235 11 is_stmt 0              ; decompress.c:235:11
	cmp	w8, #89
	b.ne	LBB0_339
Ltmp195:
; %bb.100:
	;DEBUG_VALUE: BZ2_decompress:curr <- [DW_OP_constu 116, DW_OP_minus] [$fp+0]
	;DEBUG_VALUE: BZ2_decompress:nextSym <- [DW_OP_constu 128, DW_OP_minus] [$fp+0]
	;DEBUG_VALUE: BZ2_decompress:retVal <- 0
	;DEBUG_VALUE: BZ2_decompress:gPerm <- $x25
	;DEBUG_VALUE: BZ2_decompress:gMinlen <- [DW_OP_constu 120, DW_OP_minus] [$fp+0]
	;DEBUG_VALUE: BZ2_decompress:zj <- $w23
	;DEBUG_VALUE: BZ2_decompress:EOB <- [DW_OP_constu 144, DW_OP_minus] [$fp+0]
	;DEBUG_VALUE: BZ2_decompress:j <- $w21
	;DEBUG_VALUE: BZ2_decompress:i <- [DW_OP_constu 112, DW_OP_minus] [$fp+0]
	;DEBUG_VALUE: BZ2_decompress:strm <- $x26
	;DEBUG_VALUE: BZ2_decompress:s <- $x19
	.loc	1 237 21 is_stmt 1              ; decompress.c:237:21
	ldp	w8, w9, [x19, #48]
	add	w8, w8, #1
	str	w8, [x19, #48]
	.loc	1 238 11                        ; decompress.c:238:11
	cmp	w9, #2
	b.lt	LBB0_102
Ltmp196:
; %bb.101:
	;DEBUG_VALUE: BZ2_decompress:curr <- [DW_OP_constu 116, DW_OP_minus] [$fp+0]
	;DEBUG_VALUE: BZ2_decompress:nextSym <- [DW_OP_constu 128, DW_OP_minus] [$fp+0]
	;DEBUG_VALUE: BZ2_decompress:retVal <- 0
	;DEBUG_VALUE: BZ2_decompress:gPerm <- $x25
	;DEBUG_VALUE: BZ2_decompress:gMinlen <- [DW_OP_constu 120, DW_OP_minus] [$fp+0]
	;DEBUG_VALUE: BZ2_decompress:zj <- $w23
	;DEBUG_VALUE: BZ2_decompress:EOB <- [DW_OP_constu 144, DW_OP_minus] [$fp+0]
	;DEBUG_VALUE: BZ2_decompress:j <- $w21
	;DEBUG_VALUE: BZ2_decompress:i <- [DW_OP_constu 112, DW_OP_minus] [$fp+0]
	;DEBUG_VALUE: BZ2_decompress:strm <- $x26
	;DEBUG_VALUE: BZ2_decompress:s <- $x19
	.loc	1 239 18                        ; decompress.c:239:18
Lloh2:
	adrp	x9, ___stderrp@GOTPAGE
Lloh3:
	ldr	x9, [x9, ___stderrp@GOTPAGEOFF]
Lloh4:
	ldr	x0, [x9]
	.loc	1 239 10 is_stmt 0              ; decompress.c:239:10
	str	x8, [sp]
	stp	w20, w17, [sp, #128]            ; 8-byte Folded Spill
	stp	w1, w24, [sp, #40]              ; 8-byte Folded Spill
Lloh5:
	adrp	x1, l_.str@PAGE
Lloh6:
	add	x1, x1, l_.str@PAGEOFF
	mov	x24, x6
	stp	w21, w23, [sp, #88]             ; 8-byte Folded Spill
	str	x27, [sp, #120]                 ; 8-byte Folded Spill
	str	x25, [sp, #48]                  ; 8-byte Folded Spill
Ltmp197:
	;DEBUG_VALUE: BZ2_decompress:gPerm <- [DW_OP_plus_uconst 48] [$sp+0]
	.loc	1 0 10                          ; decompress.c:0:10
	str	x28, [sp, #136]                 ; 8-byte Folded Spill
	mov	x28, x30
	mov	x27, x2
	mov	x25, x3
	mov	x21, x4
Ltmp198:
	str	x7, [sp, #64]                   ; 8-byte Folded Spill
	mov	x20, x5
	mov	x26, x15
Ltmp199:
	mov	x23, x16
Ltmp200:
	str	w14, [sp, #148]                 ; 4-byte Folded Spill
	.loc	1 239 10                        ; decompress.c:239:10
	bl	_fprintf
Ltmp201:
	.loc	1 0 10                          ; decompress.c:0:10
	ldr	w14, [sp, #148]                 ; 4-byte Folded Reload
	mov	x16, x23
	mov	x15, x26
	mov	x5, x20
	ldr	x7, [sp, #64]                   ; 8-byte Folded Reload
	mov	x4, x21
	mov	x3, x25
	mov	x2, x27
	ldp	w20, w17, [sp, #128]            ; 8-byte Folded Reload
	mov	x30, x28
	ldr	x28, [sp, #136]                 ; 8-byte Folded Reload
	ldp	w21, w23, [sp, #88]             ; 8-byte Folded Reload
	ldr	x25, [sp, #48]                  ; 8-byte Folded Reload
	ldr	x27, [sp, #120]                 ; 8-byte Folded Reload
	mov	x6, x24
	ldp	w1, w24, [sp, #40]              ; 8-byte Folded Reload
Ltmp202:
LBB0_102:
	;DEBUG_VALUE: BZ2_decompress:curr <- [DW_OP_constu 116, DW_OP_minus] [$fp+0]
	;DEBUG_VALUE: BZ2_decompress:nextSym <- [DW_OP_constu 128, DW_OP_minus] [$fp+0]
	;DEBUG_VALUE: BZ2_decompress:retVal <- 0
	;DEBUG_VALUE: BZ2_decompress:gMinlen <- [DW_OP_constu 120, DW_OP_minus] [$fp+0]
	;DEBUG_VALUE: BZ2_decompress:EOB <- [DW_OP_constu 144, DW_OP_minus] [$fp+0]
	;DEBUG_VALUE: BZ2_decompress:i <- [DW_OP_constu 112, DW_OP_minus] [$fp+0]
	;DEBUG_VALUE: BZ2_decompress:s <- $x19
	.loc	1 241 25 is_stmt 1              ; decompress.c:241:25
	str	wzr, [x19, #3176]
Ltmp203:
LBB0_103:
	;DEBUG_VALUE: BZ2_decompress:curr <- [DW_OP_constu 116, DW_OP_minus] [$fp+0]
	;DEBUG_VALUE: BZ2_decompress:nextSym <- [DW_OP_constu 128, DW_OP_minus] [$fp+0]
	;DEBUG_VALUE: BZ2_decompress:retVal <- 0
	;DEBUG_VALUE: BZ2_decompress:gMinlen <- [DW_OP_constu 120, DW_OP_minus] [$fp+0]
	;DEBUG_VALUE: BZ2_decompress:EOB <- [DW_OP_constu 144, DW_OP_minus] [$fp+0]
	;DEBUG_VALUE: BZ2_decompress:i <- [DW_OP_constu 112, DW_OP_minus] [$fp+0]
	;DEBUG_VALUE: BZ2_decompress:s <- $x19
	.loc	1 0 25 is_stmt 0                ; decompress.c:0:25
	mov	w8, #20
	.loc	1 242 25 is_stmt 1              ; decompress.c:242:25
	str	w8, [x19, #8]
Ltmp204:
	.loc	1 242 58 is_stmt 0              ; decompress.c:242:58
	ldr	w8, [x19, #36]
Ltmp205:
	.loc	1 242 55                        ; decompress.c:242:55
	cmp	w8, #8
	b.lt	LBB0_207
Ltmp206:
; %bb.104:                              ; %.._crit_edge2173_crit_edge
	;DEBUG_VALUE: BZ2_decompress:curr <- [DW_OP_constu 116, DW_OP_minus] [$fp+0]
	;DEBUG_VALUE: BZ2_decompress:nextSym <- [DW_OP_constu 128, DW_OP_minus] [$fp+0]
	;DEBUG_VALUE: BZ2_decompress:retVal <- 0
	;DEBUG_VALUE: BZ2_decompress:gMinlen <- [DW_OP_constu 120, DW_OP_minus] [$fp+0]
	;DEBUG_VALUE: BZ2_decompress:EOB <- [DW_OP_constu 144, DW_OP_minus] [$fp+0]
	;DEBUG_VALUE: BZ2_decompress:i <- [DW_OP_constu 112, DW_OP_minus] [$fp+0]
	;DEBUG_VALUE: BZ2_decompress:s <- $x19
	.loc	1 242 91                        ; decompress.c:242:91
	ldr	w10, [x19, #32]
Ltmp207:
LBB0_105:                               ; %._crit_edge2173
	;DEBUG_VALUE: BZ2_decompress:curr <- [DW_OP_constu 116, DW_OP_minus] [$fp+0]
	;DEBUG_VALUE: BZ2_decompress:nextSym <- [DW_OP_constu 128, DW_OP_minus] [$fp+0]
	;DEBUG_VALUE: BZ2_decompress:retVal <- 0
	;DEBUG_VALUE: BZ2_decompress:gMinlen <- [DW_OP_constu 120, DW_OP_minus] [$fp+0]
	;DEBUG_VALUE: BZ2_decompress:EOB <- [DW_OP_constu 144, DW_OP_minus] [$fp+0]
	;DEBUG_VALUE: BZ2_decompress:i <- [DW_OP_constu 112, DW_OP_minus] [$fp+0]
	;DEBUG_VALUE: BZ2_decompress:s <- $x19
	.loc	1 242 111                       ; decompress.c:242:111
	sub	w8, w8, #8
	.loc	1 242 98                        ; decompress.c:242:98
	lsr	w9, w10, w8
Ltmp208:
	;DEBUG_VALUE: v <- [DW_OP_constu 255, DW_OP_and, DW_OP_stack_value] $w9
	.loc	1 242 142                       ; decompress.c:242:142
	str	w8, [x19, #36]
Ltmp209:
	;DEBUG_VALUE: BZ2_decompress:uc <- [DW_OP_LLVM_convert 32 7, DW_OP_LLVM_convert 8 7, DW_OP_stack_value] $w9
	.loc	1 243 31 is_stmt 1              ; decompress.c:243:31
	ldr	w10, [x19, #3176]
	.loc	1 243 52 is_stmt 0              ; decompress.c:243:52
	bfi	w9, w10, #8, #24
Ltmp210:
	.loc	1 243 25                        ; decompress.c:243:25
	str	w9, [x19, #3176]
Ltmp211:
LBB0_106:
	;DEBUG_VALUE: BZ2_decompress:curr <- [DW_OP_constu 116, DW_OP_minus] [$fp+0]
	;DEBUG_VALUE: BZ2_decompress:nextSym <- [DW_OP_constu 128, DW_OP_minus] [$fp+0]
	;DEBUG_VALUE: BZ2_decompress:retVal <- 0
	;DEBUG_VALUE: BZ2_decompress:gMinlen <- [DW_OP_constu 120, DW_OP_minus] [$fp+0]
	;DEBUG_VALUE: BZ2_decompress:EOB <- [DW_OP_constu 144, DW_OP_minus] [$fp+0]
	;DEBUG_VALUE: BZ2_decompress:i <- [DW_OP_constu 112, DW_OP_minus] [$fp+0]
	;DEBUG_VALUE: BZ2_decompress:s <- $x19
	.loc	1 0 25                          ; decompress.c:0:25
	mov	w9, #21
	.loc	1 244 25 is_stmt 1              ; decompress.c:244:25
	str	w9, [x19, #8]
Ltmp212:
	.loc	1 244 55 is_stmt 0              ; decompress.c:244:55
	cmp	w8, #8
	b.lt	LBB0_197
Ltmp213:
; %bb.107:                              ; %.._crit_edge2178_crit_edge
	;DEBUG_VALUE: BZ2_decompress:curr <- [DW_OP_constu 116, DW_OP_minus] [$fp+0]
	;DEBUG_VALUE: BZ2_decompress:nextSym <- [DW_OP_constu 128, DW_OP_minus] [$fp+0]
	;DEBUG_VALUE: BZ2_decompress:retVal <- 0
	;DEBUG_VALUE: BZ2_decompress:gMinlen <- [DW_OP_constu 120, DW_OP_minus] [$fp+0]
	;DEBUG_VALUE: BZ2_decompress:EOB <- [DW_OP_constu 144, DW_OP_minus] [$fp+0]
	;DEBUG_VALUE: BZ2_decompress:i <- [DW_OP_constu 112, DW_OP_minus] [$fp+0]
	;DEBUG_VALUE: BZ2_decompress:s <- $x19
	.loc	1 244 91                        ; decompress.c:244:91
	ldr	w10, [x19, #32]
Ltmp214:
LBB0_108:                               ; %._crit_edge2178
	;DEBUG_VALUE: BZ2_decompress:curr <- [DW_OP_constu 116, DW_OP_minus] [$fp+0]
	;DEBUG_VALUE: BZ2_decompress:nextSym <- [DW_OP_constu 128, DW_OP_minus] [$fp+0]
	;DEBUG_VALUE: BZ2_decompress:retVal <- 0
	;DEBUG_VALUE: BZ2_decompress:gMinlen <- [DW_OP_constu 120, DW_OP_minus] [$fp+0]
	;DEBUG_VALUE: BZ2_decompress:EOB <- [DW_OP_constu 144, DW_OP_minus] [$fp+0]
	;DEBUG_VALUE: BZ2_decompress:i <- [DW_OP_constu 112, DW_OP_minus] [$fp+0]
	;DEBUG_VALUE: BZ2_decompress:s <- $x19
	.loc	1 244 111                       ; decompress.c:244:111
	sub	w8, w8, #8
	.loc	1 244 98                        ; decompress.c:244:98
	lsr	w9, w10, w8
Ltmp215:
	;DEBUG_VALUE: v <- [DW_OP_constu 255, DW_OP_and, DW_OP_stack_value] $w9
	.loc	1 244 142                       ; decompress.c:244:142
	str	w8, [x19, #36]
Ltmp216:
	;DEBUG_VALUE: BZ2_decompress:uc <- [DW_OP_LLVM_convert 32 7, DW_OP_LLVM_convert 8 7, DW_OP_stack_value] $w9
	.loc	1 245 31 is_stmt 1              ; decompress.c:245:31
	ldr	w10, [x19, #3176]
	.loc	1 245 52 is_stmt 0              ; decompress.c:245:52
	bfi	w9, w10, #8, #24
Ltmp217:
	.loc	1 245 25                        ; decompress.c:245:25
	str	w9, [x19, #3176]
Ltmp218:
LBB0_109:
	;DEBUG_VALUE: BZ2_decompress:curr <- [DW_OP_constu 116, DW_OP_minus] [$fp+0]
	;DEBUG_VALUE: BZ2_decompress:nextSym <- [DW_OP_constu 128, DW_OP_minus] [$fp+0]
	;DEBUG_VALUE: BZ2_decompress:retVal <- 0
	;DEBUG_VALUE: BZ2_decompress:gMinlen <- [DW_OP_constu 120, DW_OP_minus] [$fp+0]
	;DEBUG_VALUE: BZ2_decompress:EOB <- [DW_OP_constu 144, DW_OP_minus] [$fp+0]
	;DEBUG_VALUE: BZ2_decompress:i <- [DW_OP_constu 112, DW_OP_minus] [$fp+0]
	;DEBUG_VALUE: BZ2_decompress:s <- $x19
	.loc	1 0 25                          ; decompress.c:0:25
	mov	w9, #22
	.loc	1 246 25 is_stmt 1              ; decompress.c:246:25
	str	w9, [x19, #8]
Ltmp219:
	.loc	1 246 55 is_stmt 0              ; decompress.c:246:55
	cmp	w8, #8
	b.lt	LBB0_182
Ltmp220:
; %bb.110:                              ; %.._crit_edge2183_crit_edge
	;DEBUG_VALUE: BZ2_decompress:curr <- [DW_OP_constu 116, DW_OP_minus] [$fp+0]
	;DEBUG_VALUE: BZ2_decompress:nextSym <- [DW_OP_constu 128, DW_OP_minus] [$fp+0]
	;DEBUG_VALUE: BZ2_decompress:retVal <- 0
	;DEBUG_VALUE: BZ2_decompress:gMinlen <- [DW_OP_constu 120, DW_OP_minus] [$fp+0]
	;DEBUG_VALUE: BZ2_decompress:EOB <- [DW_OP_constu 144, DW_OP_minus] [$fp+0]
	;DEBUG_VALUE: BZ2_decompress:i <- [DW_OP_constu 112, DW_OP_minus] [$fp+0]
	;DEBUG_VALUE: BZ2_decompress:s <- $x19
	.loc	1 246 91                        ; decompress.c:246:91
	ldr	w10, [x19, #32]
Ltmp221:
LBB0_111:                               ; %._crit_edge2183
	;DEBUG_VALUE: BZ2_decompress:curr <- [DW_OP_constu 116, DW_OP_minus] [$fp+0]
	;DEBUG_VALUE: BZ2_decompress:nextSym <- [DW_OP_constu 128, DW_OP_minus] [$fp+0]
	;DEBUG_VALUE: BZ2_decompress:retVal <- 0
	;DEBUG_VALUE: BZ2_decompress:gMinlen <- [DW_OP_constu 120, DW_OP_minus] [$fp+0]
	;DEBUG_VALUE: BZ2_decompress:EOB <- [DW_OP_constu 144, DW_OP_minus] [$fp+0]
	;DEBUG_VALUE: BZ2_decompress:i <- [DW_OP_constu 112, DW_OP_minus] [$fp+0]
	;DEBUG_VALUE: BZ2_decompress:s <- $x19
	.loc	1 246 111                       ; decompress.c:246:111
	sub	w8, w8, #8
	.loc	1 246 98                        ; decompress.c:246:98
	lsr	w9, w10, w8
Ltmp222:
	;DEBUG_VALUE: v <- [DW_OP_constu 255, DW_OP_and, DW_OP_stack_value] $w9
	.loc	1 246 142                       ; decompress.c:246:142
	str	w8, [x19, #36]
Ltmp223:
	;DEBUG_VALUE: BZ2_decompress:uc <- [DW_OP_LLVM_convert 32 7, DW_OP_LLVM_convert 8 7, DW_OP_stack_value] $w9
	.loc	1 247 31 is_stmt 1              ; decompress.c:247:31
	ldr	w10, [x19, #3176]
	.loc	1 247 52 is_stmt 0              ; decompress.c:247:52
	bfi	w9, w10, #8, #24
Ltmp224:
	.loc	1 247 25                        ; decompress.c:247:25
	str	w9, [x19, #3176]
Ltmp225:
LBB0_112:
	;DEBUG_VALUE: BZ2_decompress:curr <- [DW_OP_constu 116, DW_OP_minus] [$fp+0]
	;DEBUG_VALUE: BZ2_decompress:nextSym <- [DW_OP_constu 128, DW_OP_minus] [$fp+0]
	;DEBUG_VALUE: BZ2_decompress:retVal <- 0
	;DEBUG_VALUE: BZ2_decompress:gMinlen <- [DW_OP_constu 120, DW_OP_minus] [$fp+0]
	;DEBUG_VALUE: BZ2_decompress:EOB <- [DW_OP_constu 144, DW_OP_minus] [$fp+0]
	;DEBUG_VALUE: BZ2_decompress:i <- [DW_OP_constu 112, DW_OP_minus] [$fp+0]
	;DEBUG_VALUE: BZ2_decompress:s <- $x19
	.loc	1 0 25                          ; decompress.c:0:25
	mov	w9, #23
	.loc	1 248 25 is_stmt 1              ; decompress.c:248:25
	str	w9, [x19, #8]
Ltmp226:
	.loc	1 248 55 is_stmt 0              ; decompress.c:248:55
	cmp	w8, #8
	b.lt	LBB0_144
Ltmp227:
; %bb.113:                              ; %.._crit_edge2188_crit_edge
	;DEBUG_VALUE: BZ2_decompress:curr <- [DW_OP_constu 116, DW_OP_minus] [$fp+0]
	;DEBUG_VALUE: BZ2_decompress:nextSym <- [DW_OP_constu 128, DW_OP_minus] [$fp+0]
	;DEBUG_VALUE: BZ2_decompress:retVal <- 0
	;DEBUG_VALUE: BZ2_decompress:gMinlen <- [DW_OP_constu 120, DW_OP_minus] [$fp+0]
	;DEBUG_VALUE: BZ2_decompress:EOB <- [DW_OP_constu 144, DW_OP_minus] [$fp+0]
	;DEBUG_VALUE: BZ2_decompress:i <- [DW_OP_constu 112, DW_OP_minus] [$fp+0]
	;DEBUG_VALUE: BZ2_decompress:s <- $x19
	.loc	1 248 91                        ; decompress.c:248:91
	ldr	w10, [x19, #32]
Ltmp228:
LBB0_114:                               ; %._crit_edge2188
	;DEBUG_VALUE: BZ2_decompress:curr <- [DW_OP_constu 116, DW_OP_minus] [$fp+0]
	;DEBUG_VALUE: BZ2_decompress:nextSym <- [DW_OP_constu 128, DW_OP_minus] [$fp+0]
	;DEBUG_VALUE: BZ2_decompress:retVal <- 0
	;DEBUG_VALUE: BZ2_decompress:gMinlen <- [DW_OP_constu 120, DW_OP_minus] [$fp+0]
	;DEBUG_VALUE: BZ2_decompress:EOB <- [DW_OP_constu 144, DW_OP_minus] [$fp+0]
	;DEBUG_VALUE: BZ2_decompress:i <- [DW_OP_constu 112, DW_OP_minus] [$fp+0]
	;DEBUG_VALUE: BZ2_decompress:s <- $x19
	.loc	1 248 111                       ; decompress.c:248:111
	sub	w8, w8, #8
	.loc	1 248 98                        ; decompress.c:248:98
	lsr	w9, w10, w8
Ltmp229:
	;DEBUG_VALUE: v <- [DW_OP_constu 255, DW_OP_and, DW_OP_stack_value] $w9
	.loc	1 248 142                       ; decompress.c:248:142
	str	w8, [x19, #36]
Ltmp230:
	;DEBUG_VALUE: BZ2_decompress:uc <- [DW_OP_LLVM_convert 32 7, DW_OP_LLVM_convert 8 7, DW_OP_stack_value] $w9
	.loc	1 249 31 is_stmt 1              ; decompress.c:249:31
	ldr	w10, [x19, #3176]
	.loc	1 249 52 is_stmt 0              ; decompress.c:249:52
	bfi	w9, w10, #8, #24
Ltmp231:
	.loc	1 249 25                        ; decompress.c:249:25
	str	w9, [x19, #3176]
Ltmp232:
LBB0_115:
	;DEBUG_VALUE: BZ2_decompress:curr <- [DW_OP_constu 116, DW_OP_minus] [$fp+0]
	;DEBUG_VALUE: BZ2_decompress:nextSym <- [DW_OP_constu 128, DW_OP_minus] [$fp+0]
	;DEBUG_VALUE: BZ2_decompress:retVal <- 0
	;DEBUG_VALUE: BZ2_decompress:gMinlen <- [DW_OP_constu 120, DW_OP_minus] [$fp+0]
	;DEBUG_VALUE: BZ2_decompress:EOB <- [DW_OP_constu 144, DW_OP_minus] [$fp+0]
	;DEBUG_VALUE: BZ2_decompress:i <- [DW_OP_constu 112, DW_OP_minus] [$fp+0]
	;DEBUG_VALUE: BZ2_decompress:s <- $x19
	.loc	1 0 25                          ; decompress.c:0:25
	mov	w9, #24
	.loc	1 251 25 is_stmt 1              ; decompress.c:251:25
	str	w9, [x19, #8]
Ltmp233:
	.loc	1 251 55 is_stmt 0              ; decompress.c:251:55
	cmp	w8, #1
	b.lt	LBB0_192
Ltmp234:
; %bb.116:                              ; %.._crit_edge2193_crit_edge
	;DEBUG_VALUE: BZ2_decompress:curr <- [DW_OP_constu 116, DW_OP_minus] [$fp+0]
	;DEBUG_VALUE: BZ2_decompress:nextSym <- [DW_OP_constu 128, DW_OP_minus] [$fp+0]
	;DEBUG_VALUE: BZ2_decompress:retVal <- 0
	;DEBUG_VALUE: BZ2_decompress:gMinlen <- [DW_OP_constu 120, DW_OP_minus] [$fp+0]
	;DEBUG_VALUE: BZ2_decompress:EOB <- [DW_OP_constu 144, DW_OP_minus] [$fp+0]
	;DEBUG_VALUE: BZ2_decompress:i <- [DW_OP_constu 112, DW_OP_minus] [$fp+0]
	;DEBUG_VALUE: BZ2_decompress:s <- $x19
	.loc	1 251 91                        ; decompress.c:251:91
	ldr	w10, [x19, #32]
Ltmp235:
LBB0_117:                               ; %._crit_edge2193
	;DEBUG_VALUE: BZ2_decompress:curr <- [DW_OP_constu 116, DW_OP_minus] [$fp+0]
	;DEBUG_VALUE: BZ2_decompress:nextSym <- [DW_OP_constu 128, DW_OP_minus] [$fp+0]
	;DEBUG_VALUE: BZ2_decompress:retVal <- 0
	;DEBUG_VALUE: BZ2_decompress:gMinlen <- [DW_OP_constu 120, DW_OP_minus] [$fp+0]
	;DEBUG_VALUE: BZ2_decompress:EOB <- [DW_OP_constu 144, DW_OP_minus] [$fp+0]
	;DEBUG_VALUE: BZ2_decompress:i <- [DW_OP_constu 112, DW_OP_minus] [$fp+0]
	;DEBUG_VALUE: BZ2_decompress:s <- $x19
	.loc	1 251 111                       ; decompress.c:251:111
	sub	w8, w8, #1
	.loc	1 251 98                        ; decompress.c:251:98
	lsr	w9, w10, w8
Ltmp236:
	;DEBUG_VALUE: v <- [DW_OP_constu 1, DW_OP_and, DW_OP_stack_value] $w9
	.loc	1 251 142                       ; decompress.c:251:142
	str	w8, [x19, #36]
	.loc	1 251 169                       ; decompress.c:251:169
	and	w9, w9, #0x1
Ltmp237:
	.loc	1 251 167                       ; decompress.c:251:167
	strb	w9, [x19, #20]
Ltmp238:
	.loc	1 253 18 is_stmt 1              ; decompress.c:253:18
	str	wzr, [x19, #56]
Ltmp239:
LBB0_118:
	;DEBUG_VALUE: BZ2_decompress:curr <- [DW_OP_constu 116, DW_OP_minus] [$fp+0]
	;DEBUG_VALUE: BZ2_decompress:nextSym <- [DW_OP_constu 128, DW_OP_minus] [$fp+0]
	;DEBUG_VALUE: BZ2_decompress:retVal <- 0
	;DEBUG_VALUE: BZ2_decompress:gMinlen <- [DW_OP_constu 120, DW_OP_minus] [$fp+0]
	;DEBUG_VALUE: BZ2_decompress:EOB <- [DW_OP_constu 144, DW_OP_minus] [$fp+0]
	;DEBUG_VALUE: BZ2_decompress:i <- [DW_OP_constu 112, DW_OP_minus] [$fp+0]
	;DEBUG_VALUE: BZ2_decompress:s <- $x19
	.loc	1 0 18 is_stmt 0                ; decompress.c:0:18
	mov	w9, #25
	.loc	1 254 25 is_stmt 1              ; decompress.c:254:25
	str	w9, [x19, #8]
Ltmp240:
	.loc	1 254 55 is_stmt 0              ; decompress.c:254:55
	cmp	w8, #8
	b.lt	LBB0_139
Ltmp241:
; %bb.119:                              ; %.._crit_edge2198_crit_edge
	;DEBUG_VALUE: BZ2_decompress:curr <- [DW_OP_constu 116, DW_OP_minus] [$fp+0]
	;DEBUG_VALUE: BZ2_decompress:nextSym <- [DW_OP_constu 128, DW_OP_minus] [$fp+0]
	;DEBUG_VALUE: BZ2_decompress:retVal <- 0
	;DEBUG_VALUE: BZ2_decompress:gMinlen <- [DW_OP_constu 120, DW_OP_minus] [$fp+0]
	;DEBUG_VALUE: BZ2_decompress:EOB <- [DW_OP_constu 144, DW_OP_minus] [$fp+0]
	;DEBUG_VALUE: BZ2_decompress:i <- [DW_OP_constu 112, DW_OP_minus] [$fp+0]
	;DEBUG_VALUE: BZ2_decompress:s <- $x19
	.loc	1 254 91                        ; decompress.c:254:91
	ldr	w10, [x19, #32]
Ltmp242:
LBB0_120:                               ; %._crit_edge2198
	;DEBUG_VALUE: BZ2_decompress:curr <- [DW_OP_constu 116, DW_OP_minus] [$fp+0]
	;DEBUG_VALUE: BZ2_decompress:nextSym <- [DW_OP_constu 128, DW_OP_minus] [$fp+0]
	;DEBUG_VALUE: BZ2_decompress:retVal <- 0
	;DEBUG_VALUE: BZ2_decompress:gMinlen <- [DW_OP_constu 120, DW_OP_minus] [$fp+0]
	;DEBUG_VALUE: BZ2_decompress:EOB <- [DW_OP_constu 144, DW_OP_minus] [$fp+0]
	;DEBUG_VALUE: BZ2_decompress:i <- [DW_OP_constu 112, DW_OP_minus] [$fp+0]
	;DEBUG_VALUE: BZ2_decompress:s <- $x19
	.loc	1 254 111                       ; decompress.c:254:111
	sub	w8, w8, #8
	.loc	1 254 98                        ; decompress.c:254:98
	lsr	w9, w10, w8
Ltmp243:
	;DEBUG_VALUE: v <- [DW_OP_constu 255, DW_OP_and, DW_OP_stack_value] $w9
	.loc	1 254 142                       ; decompress.c:254:142
	str	w8, [x19, #36]
Ltmp244:
	;DEBUG_VALUE: BZ2_decompress:uc <- [DW_OP_LLVM_convert 32 7, DW_OP_LLVM_convert 8 7, DW_OP_stack_value] $w9
	.loc	1 255 24 is_stmt 1              ; decompress.c:255:24
	ldr	w10, [x19, #56]
	.loc	1 255 38 is_stmt 0              ; decompress.c:255:38
	bfi	w9, w10, #8, #24
Ltmp245:
	.loc	1 255 18                        ; decompress.c:255:18
	str	w9, [x19, #56]
Ltmp246:
LBB0_121:
	;DEBUG_VALUE: BZ2_decompress:curr <- [DW_OP_constu 116, DW_OP_minus] [$fp+0]
	;DEBUG_VALUE: BZ2_decompress:nextSym <- [DW_OP_constu 128, DW_OP_minus] [$fp+0]
	;DEBUG_VALUE: BZ2_decompress:retVal <- 0
	;DEBUG_VALUE: BZ2_decompress:gMinlen <- [DW_OP_constu 120, DW_OP_minus] [$fp+0]
	;DEBUG_VALUE: BZ2_decompress:EOB <- [DW_OP_constu 144, DW_OP_minus] [$fp+0]
	;DEBUG_VALUE: BZ2_decompress:i <- [DW_OP_constu 112, DW_OP_minus] [$fp+0]
	;DEBUG_VALUE: BZ2_decompress:s <- $x19
	.loc	1 0 18                          ; decompress.c:0:18
	mov	w9, #26
	.loc	1 256 25 is_stmt 1              ; decompress.c:256:25
	str	w9, [x19, #8]
Ltmp247:
	.loc	1 256 55 is_stmt 0              ; decompress.c:256:55
	cmp	w8, #8
	b.lt	LBB0_134
Ltmp248:
; %bb.122:                              ; %.._crit_edge2203_crit_edge
	;DEBUG_VALUE: BZ2_decompress:curr <- [DW_OP_constu 116, DW_OP_minus] [$fp+0]
	;DEBUG_VALUE: BZ2_decompress:nextSym <- [DW_OP_constu 128, DW_OP_minus] [$fp+0]
	;DEBUG_VALUE: BZ2_decompress:retVal <- 0
	;DEBUG_VALUE: BZ2_decompress:gMinlen <- [DW_OP_constu 120, DW_OP_minus] [$fp+0]
	;DEBUG_VALUE: BZ2_decompress:EOB <- [DW_OP_constu 144, DW_OP_minus] [$fp+0]
	;DEBUG_VALUE: BZ2_decompress:i <- [DW_OP_constu 112, DW_OP_minus] [$fp+0]
	;DEBUG_VALUE: BZ2_decompress:s <- $x19
	.loc	1 256 91                        ; decompress.c:256:91
	ldr	w10, [x19, #32]
Ltmp249:
LBB0_123:                               ; %._crit_edge2203
	;DEBUG_VALUE: BZ2_decompress:curr <- [DW_OP_constu 116, DW_OP_minus] [$fp+0]
	;DEBUG_VALUE: BZ2_decompress:nextSym <- [DW_OP_constu 128, DW_OP_minus] [$fp+0]
	;DEBUG_VALUE: BZ2_decompress:retVal <- 0
	;DEBUG_VALUE: BZ2_decompress:gMinlen <- [DW_OP_constu 120, DW_OP_minus] [$fp+0]
	;DEBUG_VALUE: BZ2_decompress:EOB <- [DW_OP_constu 144, DW_OP_minus] [$fp+0]
	;DEBUG_VALUE: BZ2_decompress:i <- [DW_OP_constu 112, DW_OP_minus] [$fp+0]
	;DEBUG_VALUE: BZ2_decompress:s <- $x19
	.loc	1 256 111                       ; decompress.c:256:111
	sub	w8, w8, #8
	.loc	1 256 98                        ; decompress.c:256:98
	lsr	w9, w10, w8
Ltmp250:
	;DEBUG_VALUE: v <- [DW_OP_constu 255, DW_OP_and, DW_OP_stack_value] $w9
	.loc	1 256 142                       ; decompress.c:256:142
	str	w8, [x19, #36]
Ltmp251:
	;DEBUG_VALUE: BZ2_decompress:uc <- [DW_OP_LLVM_convert 32 7, DW_OP_LLVM_convert 8 7, DW_OP_stack_value] $w9
	.loc	1 257 24 is_stmt 1              ; decompress.c:257:24
	ldr	w10, [x19, #56]
	.loc	1 257 38 is_stmt 0              ; decompress.c:257:38
	bfi	w9, w10, #8, #24
Ltmp252:
	.loc	1 257 18                        ; decompress.c:257:18
	str	w9, [x19, #56]
Ltmp253:
LBB0_124:
	;DEBUG_VALUE: BZ2_decompress:curr <- [DW_OP_constu 116, DW_OP_minus] [$fp+0]
	;DEBUG_VALUE: BZ2_decompress:nextSym <- [DW_OP_constu 128, DW_OP_minus] [$fp+0]
	;DEBUG_VALUE: BZ2_decompress:retVal <- 0
	;DEBUG_VALUE: BZ2_decompress:gMinlen <- [DW_OP_constu 120, DW_OP_minus] [$fp+0]
	;DEBUG_VALUE: BZ2_decompress:EOB <- [DW_OP_constu 144, DW_OP_minus] [$fp+0]
	;DEBUG_VALUE: BZ2_decompress:i <- [DW_OP_constu 112, DW_OP_minus] [$fp+0]
	;DEBUG_VALUE: BZ2_decompress:s <- $x19
	.loc	1 0 18                          ; decompress.c:0:18
	mov	w9, #27
	.loc	1 258 25 is_stmt 1              ; decompress.c:258:25
	str	w9, [x19, #8]
Ltmp254:
	.loc	1 258 55 is_stmt 0              ; decompress.c:258:55
	cmp	w8, #8
	b.lt	LBB0_129
Ltmp255:
; %bb.125:                              ; %.._crit_edge2208_crit_edge
	;DEBUG_VALUE: BZ2_decompress:curr <- [DW_OP_constu 116, DW_OP_minus] [$fp+0]
	;DEBUG_VALUE: BZ2_decompress:nextSym <- [DW_OP_constu 128, DW_OP_minus] [$fp+0]
	;DEBUG_VALUE: BZ2_decompress:retVal <- 0
	;DEBUG_VALUE: BZ2_decompress:gMinlen <- [DW_OP_constu 120, DW_OP_minus] [$fp+0]
	;DEBUG_VALUE: BZ2_decompress:EOB <- [DW_OP_constu 144, DW_OP_minus] [$fp+0]
	;DEBUG_VALUE: BZ2_decompress:i <- [DW_OP_constu 112, DW_OP_minus] [$fp+0]
	;DEBUG_VALUE: BZ2_decompress:s <- $x19
	.loc	1 258 91                        ; decompress.c:258:91
	ldr	w10, [x19, #32]
Ltmp256:
LBB0_126:                               ; %._crit_edge2208
	;DEBUG_VALUE: BZ2_decompress:curr <- [DW_OP_constu 116, DW_OP_minus] [$fp+0]
	;DEBUG_VALUE: BZ2_decompress:nextSym <- [DW_OP_constu 128, DW_OP_minus] [$fp+0]
	;DEBUG_VALUE: BZ2_decompress:retVal <- 0
	;DEBUG_VALUE: BZ2_decompress:gMinlen <- [DW_OP_constu 120, DW_OP_minus] [$fp+0]
	;DEBUG_VALUE: BZ2_decompress:EOB <- [DW_OP_constu 144, DW_OP_minus] [$fp+0]
	;DEBUG_VALUE: BZ2_decompress:i <- [DW_OP_constu 112, DW_OP_minus] [$fp+0]
	;DEBUG_VALUE: BZ2_decompress:s <- $x19
	.loc	1 258 111                       ; decompress.c:258:111
	sub	w9, w8, #8
	.loc	1 258 98                        ; decompress.c:258:98
	lsr	w8, w10, w9
Ltmp257:
	;DEBUG_VALUE: v <- [DW_OP_constu 255, DW_OP_and, DW_OP_stack_value] $w8
	.loc	1 258 142                       ; decompress.c:258:142
	str	w9, [x19, #36]
Ltmp258:
	;DEBUG_VALUE: BZ2_decompress:uc <- [DW_OP_LLVM_convert 32 7, DW_OP_LLVM_convert 8 7, DW_OP_stack_value] $w8
	.loc	1 259 24 is_stmt 1              ; decompress.c:259:24
	ldr	w9, [x19, #56]
	.loc	1 259 38 is_stmt 0              ; decompress.c:259:38
	bfi	w8, w9, #8, #24
Ltmp259:
	.loc	1 259 18                        ; decompress.c:259:18
	str	w8, [x19, #56]
	.loc	1 261 11 is_stmt 1              ; decompress.c:261:11
	tbnz	w8, #31, LBB0_339
Ltmp260:
; %bb.127:
	;DEBUG_VALUE: BZ2_decompress:curr <- [DW_OP_constu 116, DW_OP_minus] [$fp+0]
	;DEBUG_VALUE: BZ2_decompress:nextSym <- [DW_OP_constu 128, DW_OP_minus] [$fp+0]
	;DEBUG_VALUE: BZ2_decompress:retVal <- 0
	;DEBUG_VALUE: BZ2_decompress:gMinlen <- [DW_OP_constu 120, DW_OP_minus] [$fp+0]
	;DEBUG_VALUE: BZ2_decompress:EOB <- [DW_OP_constu 144, DW_OP_minus] [$fp+0]
	;DEBUG_VALUE: BZ2_decompress:i <- [DW_OP_constu 112, DW_OP_minus] [$fp+0]
	;DEBUG_VALUE: BZ2_decompress:s <- $x19
	.loc	1 263 39                        ; decompress.c:263:39
	ldr	w9, [x19, #40]
	mov	w10, #34464
	movk	w10, #1, lsl #16
	.loc	1 263 35 is_stmt 0              ; decompress.c:263:35
	mul	w9, w9, w10
	mov	w10, #10
	.loc	1 263 27                        ; decompress.c:263:27
	orr	w9, w9, w10
Ltmp261:
	.loc	1 263 11                        ; decompress.c:263:11
	cmp	w8, w9
	b.gt	LBB0_339
Ltmp262:
; %bb.128:
	;DEBUG_VALUE: BZ2_decompress:curr <- [DW_OP_constu 116, DW_OP_minus] [$fp+0]
	;DEBUG_VALUE: BZ2_decompress:nextSym <- [DW_OP_constu 128, DW_OP_minus] [$fp+0]
	;DEBUG_VALUE: BZ2_decompress:retVal <- 0
	;DEBUG_VALUE: BZ2_decompress:gMinlen <- [DW_OP_constu 120, DW_OP_minus] [$fp+0]
	;DEBUG_VALUE: BZ2_decompress:EOB <- [DW_OP_constu 144, DW_OP_minus] [$fp+0]
	;DEBUG_VALUE: BZ2_decompress:i <- [DW_OP_constu 112, DW_OP_minus] [$fp+0]
	;DEBUG_VALUE: BZ2_decompress:s <- $x19
	.loc	1 0 11                          ; decompress.c:0:11
	mov	w8, #0
	b	LBB0_311
Ltmp263:
LBB0_129:                               ; %.lr.ph2207
	;DEBUG_VALUE: BZ2_decompress:curr <- [DW_OP_constu 116, DW_OP_minus] [$fp+0]
	;DEBUG_VALUE: BZ2_decompress:nextSym <- [DW_OP_constu 128, DW_OP_minus] [$fp+0]
	;DEBUG_VALUE: BZ2_decompress:retVal <- 0
	;DEBUG_VALUE: BZ2_decompress:gMinlen <- [DW_OP_constu 120, DW_OP_minus] [$fp+0]
	;DEBUG_VALUE: BZ2_decompress:EOB <- [DW_OP_constu 144, DW_OP_minus] [$fp+0]
	;DEBUG_VALUE: BZ2_decompress:i <- [DW_OP_constu 112, DW_OP_minus] [$fp+0]
	;DEBUG_VALUE: BZ2_decompress:s <- $x19
	ldr	x9, [x19]
Ltmp264:
	.loc	1 258 178 is_stmt 1             ; decompress.c:258:178
	ldr	w10, [x9, #8]
Ltmp265:
	.loc	1 258 55 is_stmt 0              ; decompress.c:258:55
	sub	w11, w10, #1
	b	LBB0_131
Ltmp266:
LBB0_130:                               ;   in Loop: Header=BB0_131 Depth=1
	;DEBUG_VALUE: BZ2_decompress:curr <- [DW_OP_constu 116, DW_OP_minus] [$fp+0]
	;DEBUG_VALUE: BZ2_decompress:nextSym <- [DW_OP_constu 128, DW_OP_minus] [$fp+0]
	;DEBUG_VALUE: BZ2_decompress:retVal <- 0
	;DEBUG_VALUE: BZ2_decompress:gMinlen <- [DW_OP_constu 120, DW_OP_minus] [$fp+0]
	;DEBUG_VALUE: BZ2_decompress:EOB <- [DW_OP_constu 144, DW_OP_minus] [$fp+0]
	;DEBUG_VALUE: BZ2_decompress:i <- [DW_OP_constu 112, DW_OP_minus] [$fp+0]
	;DEBUG_VALUE: BZ2_decompress:s <- $x19
	.loc	1 258 65                        ; decompress.c:258:65
	sub	w11, w11, #1
	cmp	w8, #8
Ltmp267:
	.loc	1 258 55                        ; decompress.c:258:55
	b.pl	LBB0_126
Ltmp268:
LBB0_131:                               ; =>This Inner Loop Header: Depth=1
	;DEBUG_VALUE: BZ2_decompress:curr <- [DW_OP_constu 116, DW_OP_minus] [$fp+0]
	;DEBUG_VALUE: BZ2_decompress:nextSym <- [DW_OP_constu 128, DW_OP_minus] [$fp+0]
	;DEBUG_VALUE: BZ2_decompress:retVal <- 0
	;DEBUG_VALUE: BZ2_decompress:gMinlen <- [DW_OP_constu 120, DW_OP_minus] [$fp+0]
	;DEBUG_VALUE: BZ2_decompress:EOB <- [DW_OP_constu 144, DW_OP_minus] [$fp+0]
	;DEBUG_VALUE: BZ2_decompress:i <- [DW_OP_constu 112, DW_OP_minus] [$fp+0]
	;DEBUG_VALUE: BZ2_decompress:s <- $x19
	.loc	1 258 169                       ; decompress.c:258:169
	cmn	w11, #1
	b.eq	LBB0_283
Ltmp269:
; %bb.132:                              ;   in Loop: Header=BB0_131 Depth=1
	;DEBUG_VALUE: BZ2_decompress:curr <- [DW_OP_constu 116, DW_OP_minus] [$fp+0]
	;DEBUG_VALUE: BZ2_decompress:nextSym <- [DW_OP_constu 128, DW_OP_minus] [$fp+0]
	;DEBUG_VALUE: BZ2_decompress:retVal <- 0
	;DEBUG_VALUE: BZ2_decompress:gMinlen <- [DW_OP_constu 120, DW_OP_minus] [$fp+0]
	;DEBUG_VALUE: BZ2_decompress:EOB <- [DW_OP_constu 144, DW_OP_minus] [$fp+0]
	;DEBUG_VALUE: BZ2_decompress:i <- [DW_OP_constu 112, DW_OP_minus] [$fp+0]
	;DEBUG_VALUE: BZ2_decompress:s <- $x19
	.loc	1 258 255                       ; decompress.c:258:255
	ldr	w12, [x19, #32]
	.loc	1 258 301                       ; decompress.c:258:301
	ldr	x13, [x9]
	.loc	1 258 281                       ; decompress.c:258:281
	ldrb	w10, [x13], #1
	.loc	1 258 268                       ; decompress.c:258:268
	bfi	w10, w12, #8, #24
	.loc	1 258 324                       ; decompress.c:258:324
	add	w8, w8, #8
	.loc	1 258 249                       ; decompress.c:258:249
	stp	w10, w8, [x19, #32]
	.loc	1 258 346                       ; decompress.c:258:346
	str	x13, [x9]
	.loc	1 258 393                       ; decompress.c:258:393
	ldr	w12, [x9, #12]
	adds	w12, w12, #1
	.loc	1 258 367                       ; decompress.c:258:367
	stp	w11, w12, [x9, #8]
	.loc	1 258 401                       ; decompress.c:258:401
	b.lo	LBB0_130
Ltmp270:
; %bb.133:                              ;   in Loop: Header=BB0_131 Depth=1
	;DEBUG_VALUE: BZ2_decompress:curr <- [DW_OP_constu 116, DW_OP_minus] [$fp+0]
	;DEBUG_VALUE: BZ2_decompress:nextSym <- [DW_OP_constu 128, DW_OP_minus] [$fp+0]
	;DEBUG_VALUE: BZ2_decompress:retVal <- 0
	;DEBUG_VALUE: BZ2_decompress:gMinlen <- [DW_OP_constu 120, DW_OP_minus] [$fp+0]
	;DEBUG_VALUE: BZ2_decompress:EOB <- [DW_OP_constu 144, DW_OP_minus] [$fp+0]
	;DEBUG_VALUE: BZ2_decompress:i <- [DW_OP_constu 112, DW_OP_minus] [$fp+0]
	;DEBUG_VALUE: BZ2_decompress:s <- $x19
	.loc	1 258 452                       ; decompress.c:258:452
	ldr	w12, [x9, #16]
	add	w12, w12, #1
	str	w12, [x9, #16]
	b	LBB0_130
Ltmp271:
LBB0_134:                               ; %.lr.ph2202
	;DEBUG_VALUE: BZ2_decompress:curr <- [DW_OP_constu 116, DW_OP_minus] [$fp+0]
	;DEBUG_VALUE: BZ2_decompress:nextSym <- [DW_OP_constu 128, DW_OP_minus] [$fp+0]
	;DEBUG_VALUE: BZ2_decompress:retVal <- 0
	;DEBUG_VALUE: BZ2_decompress:gMinlen <- [DW_OP_constu 120, DW_OP_minus] [$fp+0]
	;DEBUG_VALUE: BZ2_decompress:EOB <- [DW_OP_constu 144, DW_OP_minus] [$fp+0]
	;DEBUG_VALUE: BZ2_decompress:i <- [DW_OP_constu 112, DW_OP_minus] [$fp+0]
	;DEBUG_VALUE: BZ2_decompress:s <- $x19
	.loc	1 0 452                         ; decompress.c:0:452
	ldr	x9, [x19]
Ltmp272:
	.loc	1 256 178 is_stmt 1             ; decompress.c:256:178
	ldr	w10, [x9, #8]
Ltmp273:
	.loc	1 256 55 is_stmt 0              ; decompress.c:256:55
	sub	w11, w10, #1
	b	LBB0_136
Ltmp274:
LBB0_135:                               ;   in Loop: Header=BB0_136 Depth=1
	;DEBUG_VALUE: BZ2_decompress:curr <- [DW_OP_constu 116, DW_OP_minus] [$fp+0]
	;DEBUG_VALUE: BZ2_decompress:nextSym <- [DW_OP_constu 128, DW_OP_minus] [$fp+0]
	;DEBUG_VALUE: BZ2_decompress:retVal <- 0
	;DEBUG_VALUE: BZ2_decompress:gMinlen <- [DW_OP_constu 120, DW_OP_minus] [$fp+0]
	;DEBUG_VALUE: BZ2_decompress:EOB <- [DW_OP_constu 144, DW_OP_minus] [$fp+0]
	;DEBUG_VALUE: BZ2_decompress:i <- [DW_OP_constu 112, DW_OP_minus] [$fp+0]
	;DEBUG_VALUE: BZ2_decompress:s <- $x19
	.loc	1 256 65                        ; decompress.c:256:65
	sub	w11, w11, #1
	cmp	w8, #8
Ltmp275:
	.loc	1 256 55                        ; decompress.c:256:55
	b.pl	LBB0_123
Ltmp276:
LBB0_136:                               ; =>This Inner Loop Header: Depth=1
	;DEBUG_VALUE: BZ2_decompress:curr <- [DW_OP_constu 116, DW_OP_minus] [$fp+0]
	;DEBUG_VALUE: BZ2_decompress:nextSym <- [DW_OP_constu 128, DW_OP_minus] [$fp+0]
	;DEBUG_VALUE: BZ2_decompress:retVal <- 0
	;DEBUG_VALUE: BZ2_decompress:gMinlen <- [DW_OP_constu 120, DW_OP_minus] [$fp+0]
	;DEBUG_VALUE: BZ2_decompress:EOB <- [DW_OP_constu 144, DW_OP_minus] [$fp+0]
	;DEBUG_VALUE: BZ2_decompress:i <- [DW_OP_constu 112, DW_OP_minus] [$fp+0]
	;DEBUG_VALUE: BZ2_decompress:s <- $x19
	.loc	1 256 169                       ; decompress.c:256:169
	cmn	w11, #1
	b.eq	LBB0_283
Ltmp277:
; %bb.137:                              ;   in Loop: Header=BB0_136 Depth=1
	;DEBUG_VALUE: BZ2_decompress:curr <- [DW_OP_constu 116, DW_OP_minus] [$fp+0]
	;DEBUG_VALUE: BZ2_decompress:nextSym <- [DW_OP_constu 128, DW_OP_minus] [$fp+0]
	;DEBUG_VALUE: BZ2_decompress:retVal <- 0
	;DEBUG_VALUE: BZ2_decompress:gMinlen <- [DW_OP_constu 120, DW_OP_minus] [$fp+0]
	;DEBUG_VALUE: BZ2_decompress:EOB <- [DW_OP_constu 144, DW_OP_minus] [$fp+0]
	;DEBUG_VALUE: BZ2_decompress:i <- [DW_OP_constu 112, DW_OP_minus] [$fp+0]
	;DEBUG_VALUE: BZ2_decompress:s <- $x19
	.loc	1 256 255                       ; decompress.c:256:255
	ldr	w12, [x19, #32]
	.loc	1 256 301                       ; decompress.c:256:301
	ldr	x13, [x9]
	.loc	1 256 281                       ; decompress.c:256:281
	ldrb	w10, [x13], #1
	.loc	1 256 268                       ; decompress.c:256:268
	bfi	w10, w12, #8, #24
	.loc	1 256 324                       ; decompress.c:256:324
	add	w8, w8, #8
	.loc	1 256 249                       ; decompress.c:256:249
	stp	w10, w8, [x19, #32]
	.loc	1 256 346                       ; decompress.c:256:346
	str	x13, [x9]
	.loc	1 256 393                       ; decompress.c:256:393
	ldr	w12, [x9, #12]
	adds	w12, w12, #1
	.loc	1 256 367                       ; decompress.c:256:367
	stp	w11, w12, [x9, #8]
	.loc	1 256 401                       ; decompress.c:256:401
	b.lo	LBB0_135
Ltmp278:
; %bb.138:                              ;   in Loop: Header=BB0_136 Depth=1
	;DEBUG_VALUE: BZ2_decompress:curr <- [DW_OP_constu 116, DW_OP_minus] [$fp+0]
	;DEBUG_VALUE: BZ2_decompress:nextSym <- [DW_OP_constu 128, DW_OP_minus] [$fp+0]
	;DEBUG_VALUE: BZ2_decompress:retVal <- 0
	;DEBUG_VALUE: BZ2_decompress:gMinlen <- [DW_OP_constu 120, DW_OP_minus] [$fp+0]
	;DEBUG_VALUE: BZ2_decompress:EOB <- [DW_OP_constu 144, DW_OP_minus] [$fp+0]
	;DEBUG_VALUE: BZ2_decompress:i <- [DW_OP_constu 112, DW_OP_minus] [$fp+0]
	;DEBUG_VALUE: BZ2_decompress:s <- $x19
	.loc	1 256 452                       ; decompress.c:256:452
	ldr	w12, [x9, #16]
	add	w12, w12, #1
	str	w12, [x9, #16]
	b	LBB0_135
Ltmp279:
LBB0_139:                               ; %.lr.ph2197
	;DEBUG_VALUE: BZ2_decompress:curr <- [DW_OP_constu 116, DW_OP_minus] [$fp+0]
	;DEBUG_VALUE: BZ2_decompress:nextSym <- [DW_OP_constu 128, DW_OP_minus] [$fp+0]
	;DEBUG_VALUE: BZ2_decompress:retVal <- 0
	;DEBUG_VALUE: BZ2_decompress:gMinlen <- [DW_OP_constu 120, DW_OP_minus] [$fp+0]
	;DEBUG_VALUE: BZ2_decompress:EOB <- [DW_OP_constu 144, DW_OP_minus] [$fp+0]
	;DEBUG_VALUE: BZ2_decompress:i <- [DW_OP_constu 112, DW_OP_minus] [$fp+0]
	;DEBUG_VALUE: BZ2_decompress:s <- $x19
	.loc	1 0 452                         ; decompress.c:0:452
	ldr	x9, [x19]
Ltmp280:
	.loc	1 254 178 is_stmt 1             ; decompress.c:254:178
	ldr	w10, [x9, #8]
Ltmp281:
	.loc	1 254 55 is_stmt 0              ; decompress.c:254:55
	sub	w11, w10, #1
	b	LBB0_141
Ltmp282:
LBB0_140:                               ;   in Loop: Header=BB0_141 Depth=1
	;DEBUG_VALUE: BZ2_decompress:curr <- [DW_OP_constu 116, DW_OP_minus] [$fp+0]
	;DEBUG_VALUE: BZ2_decompress:nextSym <- [DW_OP_constu 128, DW_OP_minus] [$fp+0]
	;DEBUG_VALUE: BZ2_decompress:retVal <- 0
	;DEBUG_VALUE: BZ2_decompress:gMinlen <- [DW_OP_constu 120, DW_OP_minus] [$fp+0]
	;DEBUG_VALUE: BZ2_decompress:EOB <- [DW_OP_constu 144, DW_OP_minus] [$fp+0]
	;DEBUG_VALUE: BZ2_decompress:i <- [DW_OP_constu 112, DW_OP_minus] [$fp+0]
	;DEBUG_VALUE: BZ2_decompress:s <- $x19
	.loc	1 254 65                        ; decompress.c:254:65
	sub	w11, w11, #1
	cmp	w8, #8
Ltmp283:
	.loc	1 254 55                        ; decompress.c:254:55
	b.pl	LBB0_120
Ltmp284:
LBB0_141:                               ; =>This Inner Loop Header: Depth=1
	;DEBUG_VALUE: BZ2_decompress:curr <- [DW_OP_constu 116, DW_OP_minus] [$fp+0]
	;DEBUG_VALUE: BZ2_decompress:nextSym <- [DW_OP_constu 128, DW_OP_minus] [$fp+0]
	;DEBUG_VALUE: BZ2_decompress:retVal <- 0
	;DEBUG_VALUE: BZ2_decompress:gMinlen <- [DW_OP_constu 120, DW_OP_minus] [$fp+0]
	;DEBUG_VALUE: BZ2_decompress:EOB <- [DW_OP_constu 144, DW_OP_minus] [$fp+0]
	;DEBUG_VALUE: BZ2_decompress:i <- [DW_OP_constu 112, DW_OP_minus] [$fp+0]
	;DEBUG_VALUE: BZ2_decompress:s <- $x19
	.loc	1 254 169                       ; decompress.c:254:169
	cmn	w11, #1
	b.eq	LBB0_283
Ltmp285:
; %bb.142:                              ;   in Loop: Header=BB0_141 Depth=1
	;DEBUG_VALUE: BZ2_decompress:curr <- [DW_OP_constu 116, DW_OP_minus] [$fp+0]
	;DEBUG_VALUE: BZ2_decompress:nextSym <- [DW_OP_constu 128, DW_OP_minus] [$fp+0]
	;DEBUG_VALUE: BZ2_decompress:retVal <- 0
	;DEBUG_VALUE: BZ2_decompress:gMinlen <- [DW_OP_constu 120, DW_OP_minus] [$fp+0]
	;DEBUG_VALUE: BZ2_decompress:EOB <- [DW_OP_constu 144, DW_OP_minus] [$fp+0]
	;DEBUG_VALUE: BZ2_decompress:i <- [DW_OP_constu 112, DW_OP_minus] [$fp+0]
	;DEBUG_VALUE: BZ2_decompress:s <- $x19
	.loc	1 254 255                       ; decompress.c:254:255
	ldr	w12, [x19, #32]
	.loc	1 254 301                       ; decompress.c:254:301
	ldr	x13, [x9]
	.loc	1 254 281                       ; decompress.c:254:281
	ldrb	w10, [x13], #1
	.loc	1 254 268                       ; decompress.c:254:268
	bfi	w10, w12, #8, #24
	.loc	1 254 324                       ; decompress.c:254:324
	add	w8, w8, #8
	.loc	1 254 249                       ; decompress.c:254:249
	stp	w10, w8, [x19, #32]
	.loc	1 254 346                       ; decompress.c:254:346
	str	x13, [x9]
	.loc	1 254 393                       ; decompress.c:254:393
	ldr	w12, [x9, #12]
	adds	w12, w12, #1
	.loc	1 254 367                       ; decompress.c:254:367
	stp	w11, w12, [x9, #8]
	.loc	1 254 401                       ; decompress.c:254:401
	b.lo	LBB0_140
Ltmp286:
; %bb.143:                              ;   in Loop: Header=BB0_141 Depth=1
	;DEBUG_VALUE: BZ2_decompress:curr <- [DW_OP_constu 116, DW_OP_minus] [$fp+0]
	;DEBUG_VALUE: BZ2_decompress:nextSym <- [DW_OP_constu 128, DW_OP_minus] [$fp+0]
	;DEBUG_VALUE: BZ2_decompress:retVal <- 0
	;DEBUG_VALUE: BZ2_decompress:gMinlen <- [DW_OP_constu 120, DW_OP_minus] [$fp+0]
	;DEBUG_VALUE: BZ2_decompress:EOB <- [DW_OP_constu 144, DW_OP_minus] [$fp+0]
	;DEBUG_VALUE: BZ2_decompress:i <- [DW_OP_constu 112, DW_OP_minus] [$fp+0]
	;DEBUG_VALUE: BZ2_decompress:s <- $x19
	.loc	1 254 452                       ; decompress.c:254:452
	ldr	w12, [x9, #16]
	add	w12, w12, #1
	str	w12, [x9, #16]
	b	LBB0_140
Ltmp287:
LBB0_144:                               ; %.lr.ph2187
	;DEBUG_VALUE: BZ2_decompress:curr <- [DW_OP_constu 116, DW_OP_minus] [$fp+0]
	;DEBUG_VALUE: BZ2_decompress:nextSym <- [DW_OP_constu 128, DW_OP_minus] [$fp+0]
	;DEBUG_VALUE: BZ2_decompress:retVal <- 0
	;DEBUG_VALUE: BZ2_decompress:gMinlen <- [DW_OP_constu 120, DW_OP_minus] [$fp+0]
	;DEBUG_VALUE: BZ2_decompress:EOB <- [DW_OP_constu 144, DW_OP_minus] [$fp+0]
	;DEBUG_VALUE: BZ2_decompress:i <- [DW_OP_constu 112, DW_OP_minus] [$fp+0]
	;DEBUG_VALUE: BZ2_decompress:s <- $x19
	.loc	1 0 452                         ; decompress.c:0:452
	ldr	x9, [x19]
Ltmp288:
	.loc	1 248 178 is_stmt 1             ; decompress.c:248:178
	ldr	w10, [x9, #8]
Ltmp289:
	.loc	1 248 55 is_stmt 0              ; decompress.c:248:55
	sub	w11, w10, #1
	b	LBB0_146
Ltmp290:
LBB0_145:                               ;   in Loop: Header=BB0_146 Depth=1
	;DEBUG_VALUE: BZ2_decompress:curr <- [DW_OP_constu 116, DW_OP_minus] [$fp+0]
	;DEBUG_VALUE: BZ2_decompress:nextSym <- [DW_OP_constu 128, DW_OP_minus] [$fp+0]
	;DEBUG_VALUE: BZ2_decompress:retVal <- 0
	;DEBUG_VALUE: BZ2_decompress:gMinlen <- [DW_OP_constu 120, DW_OP_minus] [$fp+0]
	;DEBUG_VALUE: BZ2_decompress:EOB <- [DW_OP_constu 144, DW_OP_minus] [$fp+0]
	;DEBUG_VALUE: BZ2_decompress:i <- [DW_OP_constu 112, DW_OP_minus] [$fp+0]
	;DEBUG_VALUE: BZ2_decompress:s <- $x19
	.loc	1 248 65                        ; decompress.c:248:65
	sub	w11, w11, #1
	cmp	w8, #8
Ltmp291:
	.loc	1 248 55                        ; decompress.c:248:55
	b.pl	LBB0_114
Ltmp292:
LBB0_146:                               ; =>This Inner Loop Header: Depth=1
	;DEBUG_VALUE: BZ2_decompress:curr <- [DW_OP_constu 116, DW_OP_minus] [$fp+0]
	;DEBUG_VALUE: BZ2_decompress:nextSym <- [DW_OP_constu 128, DW_OP_minus] [$fp+0]
	;DEBUG_VALUE: BZ2_decompress:retVal <- 0
	;DEBUG_VALUE: BZ2_decompress:gMinlen <- [DW_OP_constu 120, DW_OP_minus] [$fp+0]
	;DEBUG_VALUE: BZ2_decompress:EOB <- [DW_OP_constu 144, DW_OP_minus] [$fp+0]
	;DEBUG_VALUE: BZ2_decompress:i <- [DW_OP_constu 112, DW_OP_minus] [$fp+0]
	;DEBUG_VALUE: BZ2_decompress:s <- $x19
	.loc	1 248 169                       ; decompress.c:248:169
	cmn	w11, #1
	b.eq	LBB0_283
Ltmp293:
; %bb.147:                              ;   in Loop: Header=BB0_146 Depth=1
	;DEBUG_VALUE: BZ2_decompress:curr <- [DW_OP_constu 116, DW_OP_minus] [$fp+0]
	;DEBUG_VALUE: BZ2_decompress:nextSym <- [DW_OP_constu 128, DW_OP_minus] [$fp+0]
	;DEBUG_VALUE: BZ2_decompress:retVal <- 0
	;DEBUG_VALUE: BZ2_decompress:gMinlen <- [DW_OP_constu 120, DW_OP_minus] [$fp+0]
	;DEBUG_VALUE: BZ2_decompress:EOB <- [DW_OP_constu 144, DW_OP_minus] [$fp+0]
	;DEBUG_VALUE: BZ2_decompress:i <- [DW_OP_constu 112, DW_OP_minus] [$fp+0]
	;DEBUG_VALUE: BZ2_decompress:s <- $x19
	.loc	1 248 255                       ; decompress.c:248:255
	ldr	w12, [x19, #32]
	.loc	1 248 301                       ; decompress.c:248:301
	ldr	x13, [x9]
	.loc	1 248 281                       ; decompress.c:248:281
	ldrb	w10, [x13], #1
	.loc	1 248 268                       ; decompress.c:248:268
	bfi	w10, w12, #8, #24
	.loc	1 248 324                       ; decompress.c:248:324
	add	w8, w8, #8
	.loc	1 248 249                       ; decompress.c:248:249
	stp	w10, w8, [x19, #32]
	.loc	1 248 346                       ; decompress.c:248:346
	str	x13, [x9]
	.loc	1 248 393                       ; decompress.c:248:393
	ldr	w12, [x9, #12]
	adds	w12, w12, #1
	.loc	1 248 367                       ; decompress.c:248:367
	stp	w11, w12, [x9, #8]
	.loc	1 248 401                       ; decompress.c:248:401
	b.lo	LBB0_145
Ltmp294:
; %bb.148:                              ;   in Loop: Header=BB0_146 Depth=1
	;DEBUG_VALUE: BZ2_decompress:curr <- [DW_OP_constu 116, DW_OP_minus] [$fp+0]
	;DEBUG_VALUE: BZ2_decompress:nextSym <- [DW_OP_constu 128, DW_OP_minus] [$fp+0]
	;DEBUG_VALUE: BZ2_decompress:retVal <- 0
	;DEBUG_VALUE: BZ2_decompress:gMinlen <- [DW_OP_constu 120, DW_OP_minus] [$fp+0]
	;DEBUG_VALUE: BZ2_decompress:EOB <- [DW_OP_constu 144, DW_OP_minus] [$fp+0]
	;DEBUG_VALUE: BZ2_decompress:i <- [DW_OP_constu 112, DW_OP_minus] [$fp+0]
	;DEBUG_VALUE: BZ2_decompress:s <- $x19
	.loc	1 248 452                       ; decompress.c:248:452
	ldr	w12, [x9, #16]
	add	w12, w12, #1
	str	w12, [x9, #16]
	b	LBB0_145
Ltmp295:
LBB0_149:
	;DEBUG_VALUE: BZ2_decompress:curr <- [DW_OP_constu 116, DW_OP_minus] [$fp+0]
	;DEBUG_VALUE: BZ2_decompress:nextSym <- [DW_OP_constu 128, DW_OP_minus] [$fp+0]
	;DEBUG_VALUE: BZ2_decompress:retVal <- 0
	;DEBUG_VALUE: BZ2_decompress:gPerm <- $x25
	;DEBUG_VALUE: BZ2_decompress:gMinlen <- [DW_OP_constu 120, DW_OP_minus] [$fp+0]
	;DEBUG_VALUE: BZ2_decompress:zj <- $w23
	;DEBUG_VALUE: BZ2_decompress:EOB <- [DW_OP_constu 144, DW_OP_minus] [$fp+0]
	;DEBUG_VALUE: BZ2_decompress:j <- $w21
	;DEBUG_VALUE: BZ2_decompress:i <- [DW_OP_constu 112, DW_OP_minus] [$fp+0]
	;DEBUG_VALUE: BZ2_decompress:strm <- $x26
	;DEBUG_VALUE: BZ2_decompress:s <- $x19
	.loc	1 0 452                         ; decompress.c:0:452
	mov	w9, #42
	.loc	1 590 25 is_stmt 1              ; decompress.c:590:25
	str	w9, [x19, #8]
Ltmp296:
	.loc	1 590 55 is_stmt 0              ; decompress.c:590:55
	cmp	w8, #8
	b.lt	LBB0_262
Ltmp297:
; %bb.150:                              ; %.._crit_edge2358_crit_edge
	;DEBUG_VALUE: BZ2_decompress:curr <- [DW_OP_constu 116, DW_OP_minus] [$fp+0]
	;DEBUG_VALUE: BZ2_decompress:nextSym <- [DW_OP_constu 128, DW_OP_minus] [$fp+0]
	;DEBUG_VALUE: BZ2_decompress:retVal <- 0
	;DEBUG_VALUE: BZ2_decompress:gPerm <- $x25
	;DEBUG_VALUE: BZ2_decompress:gMinlen <- [DW_OP_constu 120, DW_OP_minus] [$fp+0]
	;DEBUG_VALUE: BZ2_decompress:zj <- $w23
	;DEBUG_VALUE: BZ2_decompress:EOB <- [DW_OP_constu 144, DW_OP_minus] [$fp+0]
	;DEBUG_VALUE: BZ2_decompress:j <- $w21
	;DEBUG_VALUE: BZ2_decompress:i <- [DW_OP_constu 112, DW_OP_minus] [$fp+0]
	;DEBUG_VALUE: BZ2_decompress:strm <- $x26
	;DEBUG_VALUE: BZ2_decompress:s <- $x19
	.loc	1 590 91                        ; decompress.c:590:91
	ldr	w10, [x19, #32]
Ltmp298:
LBB0_151:                               ; %._crit_edge2358
	;DEBUG_VALUE: BZ2_decompress:curr <- [DW_OP_constu 116, DW_OP_minus] [$fp+0]
	;DEBUG_VALUE: BZ2_decompress:nextSym <- [DW_OP_constu 128, DW_OP_minus] [$fp+0]
	;DEBUG_VALUE: BZ2_decompress:retVal <- 0
	;DEBUG_VALUE: BZ2_decompress:gPerm <- $x25
	;DEBUG_VALUE: BZ2_decompress:gMinlen <- [DW_OP_constu 120, DW_OP_minus] [$fp+0]
	;DEBUG_VALUE: BZ2_decompress:zj <- $w23
	;DEBUG_VALUE: BZ2_decompress:EOB <- [DW_OP_constu 144, DW_OP_minus] [$fp+0]
	;DEBUG_VALUE: BZ2_decompress:j <- $w21
	;DEBUG_VALUE: BZ2_decompress:i <- [DW_OP_constu 112, DW_OP_minus] [$fp+0]
	;DEBUG_VALUE: BZ2_decompress:strm <- $x26
	;DEBUG_VALUE: BZ2_decompress:s <- $x19
	.loc	1 590 111                       ; decompress.c:590:111
	sub	w8, w8, #8
	.loc	1 590 98                        ; decompress.c:590:98
	lsr	w9, w10, w8
Ltmp299:
	;DEBUG_VALUE: v <- [DW_OP_constu 255, DW_OP_and, DW_OP_stack_value] $w9
	.loc	1 590 142                       ; decompress.c:590:142
	str	w8, [x19, #36]
Ltmp300:
	.loc	1 591 11 is_stmt 1              ; decompress.c:591:11
	and	w9, w9, #0xff
Ltmp301:
	;DEBUG_VALUE: BZ2_decompress:uc <- undef
	.loc	1 591 11 is_stmt 0              ; decompress.c:591:11
	cmp	w9, #114
	b.ne	LBB0_339
Ltmp302:
LBB0_152:
	;DEBUG_VALUE: BZ2_decompress:curr <- [DW_OP_constu 116, DW_OP_minus] [$fp+0]
	;DEBUG_VALUE: BZ2_decompress:nextSym <- [DW_OP_constu 128, DW_OP_minus] [$fp+0]
	;DEBUG_VALUE: BZ2_decompress:retVal <- 0
	;DEBUG_VALUE: BZ2_decompress:gPerm <- $x25
	;DEBUG_VALUE: BZ2_decompress:gMinlen <- [DW_OP_constu 120, DW_OP_minus] [$fp+0]
	;DEBUG_VALUE: BZ2_decompress:zj <- $w23
	;DEBUG_VALUE: BZ2_decompress:EOB <- [DW_OP_constu 144, DW_OP_minus] [$fp+0]
	;DEBUG_VALUE: BZ2_decompress:j <- $w21
	;DEBUG_VALUE: BZ2_decompress:i <- [DW_OP_constu 112, DW_OP_minus] [$fp+0]
	;DEBUG_VALUE: BZ2_decompress:strm <- $x26
	;DEBUG_VALUE: BZ2_decompress:s <- $x19
	.loc	1 0 11                          ; decompress.c:0:11
	mov	w9, #43
	.loc	1 592 25 is_stmt 1              ; decompress.c:592:25
	str	w9, [x19, #8]
Ltmp303:
	.loc	1 592 55 is_stmt 0              ; decompress.c:592:55
	cmp	w8, #8
	b.lt	LBB0_252
Ltmp304:
; %bb.153:                              ; %.._crit_edge2363_crit_edge
	;DEBUG_VALUE: BZ2_decompress:curr <- [DW_OP_constu 116, DW_OP_minus] [$fp+0]
	;DEBUG_VALUE: BZ2_decompress:nextSym <- [DW_OP_constu 128, DW_OP_minus] [$fp+0]
	;DEBUG_VALUE: BZ2_decompress:retVal <- 0
	;DEBUG_VALUE: BZ2_decompress:gPerm <- $x25
	;DEBUG_VALUE: BZ2_decompress:gMinlen <- [DW_OP_constu 120, DW_OP_minus] [$fp+0]
	;DEBUG_VALUE: BZ2_decompress:zj <- $w23
	;DEBUG_VALUE: BZ2_decompress:EOB <- [DW_OP_constu 144, DW_OP_minus] [$fp+0]
	;DEBUG_VALUE: BZ2_decompress:j <- $w21
	;DEBUG_VALUE: BZ2_decompress:i <- [DW_OP_constu 112, DW_OP_minus] [$fp+0]
	;DEBUG_VALUE: BZ2_decompress:strm <- $x26
	;DEBUG_VALUE: BZ2_decompress:s <- $x19
	.loc	1 592 91                        ; decompress.c:592:91
	ldr	w10, [x19, #32]
Ltmp305:
LBB0_154:                               ; %._crit_edge2363
	;DEBUG_VALUE: BZ2_decompress:curr <- [DW_OP_constu 116, DW_OP_minus] [$fp+0]
	;DEBUG_VALUE: BZ2_decompress:nextSym <- [DW_OP_constu 128, DW_OP_minus] [$fp+0]
	;DEBUG_VALUE: BZ2_decompress:retVal <- 0
	;DEBUG_VALUE: BZ2_decompress:gPerm <- $x25
	;DEBUG_VALUE: BZ2_decompress:gMinlen <- [DW_OP_constu 120, DW_OP_minus] [$fp+0]
	;DEBUG_VALUE: BZ2_decompress:zj <- $w23
	;DEBUG_VALUE: BZ2_decompress:EOB <- [DW_OP_constu 144, DW_OP_minus] [$fp+0]
	;DEBUG_VALUE: BZ2_decompress:j <- $w21
	;DEBUG_VALUE: BZ2_decompress:i <- [DW_OP_constu 112, DW_OP_minus] [$fp+0]
	;DEBUG_VALUE: BZ2_decompress:strm <- $x26
	;DEBUG_VALUE: BZ2_decompress:s <- $x19
	.loc	1 592 111                       ; decompress.c:592:111
	sub	w8, w8, #8
	.loc	1 592 98                        ; decompress.c:592:98
	lsr	w9, w10, w8
Ltmp306:
	;DEBUG_VALUE: v <- [DW_OP_constu 255, DW_OP_and, DW_OP_stack_value] $w9
	.loc	1 592 142                       ; decompress.c:592:142
	str	w8, [x19, #36]
Ltmp307:
	.loc	1 593 11 is_stmt 1              ; decompress.c:593:11
	and	w9, w9, #0xff
Ltmp308:
	;DEBUG_VALUE: BZ2_decompress:uc <- undef
	.loc	1 593 11 is_stmt 0              ; decompress.c:593:11
	cmp	w9, #69
	b.ne	LBB0_339
Ltmp309:
LBB0_155:
	;DEBUG_VALUE: BZ2_decompress:curr <- [DW_OP_constu 116, DW_OP_minus] [$fp+0]
	;DEBUG_VALUE: BZ2_decompress:nextSym <- [DW_OP_constu 128, DW_OP_minus] [$fp+0]
	;DEBUG_VALUE: BZ2_decompress:retVal <- 0
	;DEBUG_VALUE: BZ2_decompress:gPerm <- $x25
	;DEBUG_VALUE: BZ2_decompress:gMinlen <- [DW_OP_constu 120, DW_OP_minus] [$fp+0]
	;DEBUG_VALUE: BZ2_decompress:zj <- $w23
	;DEBUG_VALUE: BZ2_decompress:EOB <- [DW_OP_constu 144, DW_OP_minus] [$fp+0]
	;DEBUG_VALUE: BZ2_decompress:j <- $w21
	;DEBUG_VALUE: BZ2_decompress:i <- [DW_OP_constu 112, DW_OP_minus] [$fp+0]
	;DEBUG_VALUE: BZ2_decompress:strm <- $x26
	;DEBUG_VALUE: BZ2_decompress:s <- $x19
	.loc	1 0 11                          ; decompress.c:0:11
	mov	w9, #44
	.loc	1 594 25 is_stmt 1              ; decompress.c:594:25
	str	w9, [x19, #8]
Ltmp310:
	.loc	1 594 55 is_stmt 0              ; decompress.c:594:55
	cmp	w8, #8
	b.lt	LBB0_242
Ltmp311:
; %bb.156:                              ; %.._crit_edge2368_crit_edge
	;DEBUG_VALUE: BZ2_decompress:curr <- [DW_OP_constu 116, DW_OP_minus] [$fp+0]
	;DEBUG_VALUE: BZ2_decompress:nextSym <- [DW_OP_constu 128, DW_OP_minus] [$fp+0]
	;DEBUG_VALUE: BZ2_decompress:retVal <- 0
	;DEBUG_VALUE: BZ2_decompress:gPerm <- $x25
	;DEBUG_VALUE: BZ2_decompress:gMinlen <- [DW_OP_constu 120, DW_OP_minus] [$fp+0]
	;DEBUG_VALUE: BZ2_decompress:zj <- $w23
	;DEBUG_VALUE: BZ2_decompress:EOB <- [DW_OP_constu 144, DW_OP_minus] [$fp+0]
	;DEBUG_VALUE: BZ2_decompress:j <- $w21
	;DEBUG_VALUE: BZ2_decompress:i <- [DW_OP_constu 112, DW_OP_minus] [$fp+0]
	;DEBUG_VALUE: BZ2_decompress:strm <- $x26
	;DEBUG_VALUE: BZ2_decompress:s <- $x19
	.loc	1 594 91                        ; decompress.c:594:91
	ldr	w10, [x19, #32]
Ltmp312:
LBB0_157:                               ; %._crit_edge2368
	;DEBUG_VALUE: BZ2_decompress:curr <- [DW_OP_constu 116, DW_OP_minus] [$fp+0]
	;DEBUG_VALUE: BZ2_decompress:nextSym <- [DW_OP_constu 128, DW_OP_minus] [$fp+0]
	;DEBUG_VALUE: BZ2_decompress:retVal <- 0
	;DEBUG_VALUE: BZ2_decompress:gPerm <- $x25
	;DEBUG_VALUE: BZ2_decompress:gMinlen <- [DW_OP_constu 120, DW_OP_minus] [$fp+0]
	;DEBUG_VALUE: BZ2_decompress:zj <- $w23
	;DEBUG_VALUE: BZ2_decompress:EOB <- [DW_OP_constu 144, DW_OP_minus] [$fp+0]
	;DEBUG_VALUE: BZ2_decompress:j <- $w21
	;DEBUG_VALUE: BZ2_decompress:i <- [DW_OP_constu 112, DW_OP_minus] [$fp+0]
	;DEBUG_VALUE: BZ2_decompress:strm <- $x26
	;DEBUG_VALUE: BZ2_decompress:s <- $x19
	.loc	1 594 111                       ; decompress.c:594:111
	sub	w8, w8, #8
	.loc	1 594 98                        ; decompress.c:594:98
	lsr	w9, w10, w8
Ltmp313:
	;DEBUG_VALUE: v <- [DW_OP_constu 255, DW_OP_and, DW_OP_stack_value] $w9
	.loc	1 594 142                       ; decompress.c:594:142
	str	w8, [x19, #36]
Ltmp314:
	.loc	1 595 11 is_stmt 1              ; decompress.c:595:11
	and	w9, w9, #0xff
Ltmp315:
	;DEBUG_VALUE: BZ2_decompress:uc <- undef
	.loc	1 595 11 is_stmt 0              ; decompress.c:595:11
	cmp	w9, #56
	b.ne	LBB0_339
Ltmp316:
LBB0_158:
	;DEBUG_VALUE: BZ2_decompress:curr <- [DW_OP_constu 116, DW_OP_minus] [$fp+0]
	;DEBUG_VALUE: BZ2_decompress:nextSym <- [DW_OP_constu 128, DW_OP_minus] [$fp+0]
	;DEBUG_VALUE: BZ2_decompress:retVal <- 0
	;DEBUG_VALUE: BZ2_decompress:gPerm <- $x25
	;DEBUG_VALUE: BZ2_decompress:gMinlen <- [DW_OP_constu 120, DW_OP_minus] [$fp+0]
	;DEBUG_VALUE: BZ2_decompress:zj <- $w23
	;DEBUG_VALUE: BZ2_decompress:EOB <- [DW_OP_constu 144, DW_OP_minus] [$fp+0]
	;DEBUG_VALUE: BZ2_decompress:j <- $w21
	;DEBUG_VALUE: BZ2_decompress:i <- [DW_OP_constu 112, DW_OP_minus] [$fp+0]
	;DEBUG_VALUE: BZ2_decompress:strm <- $x26
	;DEBUG_VALUE: BZ2_decompress:s <- $x19
	.loc	1 0 11                          ; decompress.c:0:11
	mov	w9, #45
	.loc	1 596 25 is_stmt 1              ; decompress.c:596:25
	str	w9, [x19, #8]
Ltmp317:
	.loc	1 596 55 is_stmt 0              ; decompress.c:596:55
	cmp	w8, #8
	b.lt	LBB0_232
Ltmp318:
; %bb.159:                              ; %.._crit_edge2373_crit_edge
	;DEBUG_VALUE: BZ2_decompress:curr <- [DW_OP_constu 116, DW_OP_minus] [$fp+0]
	;DEBUG_VALUE: BZ2_decompress:nextSym <- [DW_OP_constu 128, DW_OP_minus] [$fp+0]
	;DEBUG_VALUE: BZ2_decompress:retVal <- 0
	;DEBUG_VALUE: BZ2_decompress:gPerm <- $x25
	;DEBUG_VALUE: BZ2_decompress:gMinlen <- [DW_OP_constu 120, DW_OP_minus] [$fp+0]
	;DEBUG_VALUE: BZ2_decompress:zj <- $w23
	;DEBUG_VALUE: BZ2_decompress:EOB <- [DW_OP_constu 144, DW_OP_minus] [$fp+0]
	;DEBUG_VALUE: BZ2_decompress:j <- $w21
	;DEBUG_VALUE: BZ2_decompress:i <- [DW_OP_constu 112, DW_OP_minus] [$fp+0]
	;DEBUG_VALUE: BZ2_decompress:strm <- $x26
	;DEBUG_VALUE: BZ2_decompress:s <- $x19
	.loc	1 596 91                        ; decompress.c:596:91
	ldr	w10, [x19, #32]
Ltmp319:
LBB0_160:                               ; %._crit_edge2373
	;DEBUG_VALUE: BZ2_decompress:curr <- [DW_OP_constu 116, DW_OP_minus] [$fp+0]
	;DEBUG_VALUE: BZ2_decompress:nextSym <- [DW_OP_constu 128, DW_OP_minus] [$fp+0]
	;DEBUG_VALUE: BZ2_decompress:retVal <- 0
	;DEBUG_VALUE: BZ2_decompress:gPerm <- $x25
	;DEBUG_VALUE: BZ2_decompress:gMinlen <- [DW_OP_constu 120, DW_OP_minus] [$fp+0]
	;DEBUG_VALUE: BZ2_decompress:zj <- $w23
	;DEBUG_VALUE: BZ2_decompress:EOB <- [DW_OP_constu 144, DW_OP_minus] [$fp+0]
	;DEBUG_VALUE: BZ2_decompress:j <- $w21
	;DEBUG_VALUE: BZ2_decompress:i <- [DW_OP_constu 112, DW_OP_minus] [$fp+0]
	;DEBUG_VALUE: BZ2_decompress:strm <- $x26
	;DEBUG_VALUE: BZ2_decompress:s <- $x19
	.loc	1 596 111                       ; decompress.c:596:111
	sub	w8, w8, #8
	.loc	1 596 98                        ; decompress.c:596:98
	lsr	w9, w10, w8
Ltmp320:
	;DEBUG_VALUE: v <- [DW_OP_constu 255, DW_OP_and, DW_OP_stack_value] $w9
	.loc	1 596 142                       ; decompress.c:596:142
	str	w8, [x19, #36]
Ltmp321:
	.loc	1 597 11 is_stmt 1              ; decompress.c:597:11
	and	w9, w9, #0xff
Ltmp322:
	;DEBUG_VALUE: BZ2_decompress:uc <- undef
	.loc	1 597 11 is_stmt 0              ; decompress.c:597:11
	cmp	w9, #80
	b.ne	LBB0_339
Ltmp323:
LBB0_161:
	;DEBUG_VALUE: BZ2_decompress:curr <- [DW_OP_constu 116, DW_OP_minus] [$fp+0]
	;DEBUG_VALUE: BZ2_decompress:nextSym <- [DW_OP_constu 128, DW_OP_minus] [$fp+0]
	;DEBUG_VALUE: BZ2_decompress:retVal <- 0
	;DEBUG_VALUE: BZ2_decompress:gPerm <- $x25
	;DEBUG_VALUE: BZ2_decompress:gMinlen <- [DW_OP_constu 120, DW_OP_minus] [$fp+0]
	;DEBUG_VALUE: BZ2_decompress:zj <- $w23
	;DEBUG_VALUE: BZ2_decompress:EOB <- [DW_OP_constu 144, DW_OP_minus] [$fp+0]
	;DEBUG_VALUE: BZ2_decompress:j <- $w21
	;DEBUG_VALUE: BZ2_decompress:i <- [DW_OP_constu 112, DW_OP_minus] [$fp+0]
	;DEBUG_VALUE: BZ2_decompress:strm <- $x26
	;DEBUG_VALUE: BZ2_decompress:s <- $x19
	.loc	1 0 11                          ; decompress.c:0:11
	mov	w9, #46
	.loc	1 598 25 is_stmt 1              ; decompress.c:598:25
	str	w9, [x19, #8]
Ltmp324:
	.loc	1 598 55 is_stmt 0              ; decompress.c:598:55
	cmp	w8, #8
	b.lt	LBB0_222
Ltmp325:
; %bb.162:                              ; %.._crit_edge2378_crit_edge
	;DEBUG_VALUE: BZ2_decompress:curr <- [DW_OP_constu 116, DW_OP_minus] [$fp+0]
	;DEBUG_VALUE: BZ2_decompress:nextSym <- [DW_OP_constu 128, DW_OP_minus] [$fp+0]
	;DEBUG_VALUE: BZ2_decompress:retVal <- 0
	;DEBUG_VALUE: BZ2_decompress:gPerm <- $x25
	;DEBUG_VALUE: BZ2_decompress:gMinlen <- [DW_OP_constu 120, DW_OP_minus] [$fp+0]
	;DEBUG_VALUE: BZ2_decompress:zj <- $w23
	;DEBUG_VALUE: BZ2_decompress:EOB <- [DW_OP_constu 144, DW_OP_minus] [$fp+0]
	;DEBUG_VALUE: BZ2_decompress:j <- $w21
	;DEBUG_VALUE: BZ2_decompress:i <- [DW_OP_constu 112, DW_OP_minus] [$fp+0]
	;DEBUG_VALUE: BZ2_decompress:strm <- $x26
	;DEBUG_VALUE: BZ2_decompress:s <- $x19
	.loc	1 598 91                        ; decompress.c:598:91
	ldr	w10, [x19, #32]
Ltmp326:
LBB0_163:                               ; %._crit_edge2378
	;DEBUG_VALUE: BZ2_decompress:curr <- [DW_OP_constu 116, DW_OP_minus] [$fp+0]
	;DEBUG_VALUE: BZ2_decompress:nextSym <- [DW_OP_constu 128, DW_OP_minus] [$fp+0]
	;DEBUG_VALUE: BZ2_decompress:retVal <- 0
	;DEBUG_VALUE: BZ2_decompress:gPerm <- $x25
	;DEBUG_VALUE: BZ2_decompress:gMinlen <- [DW_OP_constu 120, DW_OP_minus] [$fp+0]
	;DEBUG_VALUE: BZ2_decompress:zj <- $w23
	;DEBUG_VALUE: BZ2_decompress:EOB <- [DW_OP_constu 144, DW_OP_minus] [$fp+0]
	;DEBUG_VALUE: BZ2_decompress:j <- $w21
	;DEBUG_VALUE: BZ2_decompress:i <- [DW_OP_constu 112, DW_OP_minus] [$fp+0]
	;DEBUG_VALUE: BZ2_decompress:strm <- $x26
	;DEBUG_VALUE: BZ2_decompress:s <- $x19
	.loc	1 598 111                       ; decompress.c:598:111
	sub	w8, w8, #8
	.loc	1 598 98                        ; decompress.c:598:98
	lsr	w9, w10, w8
Ltmp327:
	;DEBUG_VALUE: v <- [DW_OP_constu 255, DW_OP_and, DW_OP_stack_value] $w9
	.loc	1 598 142                       ; decompress.c:598:142
	str	w8, [x19, #36]
Ltmp328:
	.loc	1 599 11 is_stmt 1              ; decompress.c:599:11
	and	w9, w9, #0xff
Ltmp329:
	;DEBUG_VALUE: BZ2_decompress:uc <- undef
	.loc	1 599 11 is_stmt 0              ; decompress.c:599:11
	cmp	w9, #144
	b.ne	LBB0_339
Ltmp330:
; %bb.164:
	;DEBUG_VALUE: BZ2_decompress:curr <- [DW_OP_constu 116, DW_OP_minus] [$fp+0]
	;DEBUG_VALUE: BZ2_decompress:nextSym <- [DW_OP_constu 128, DW_OP_minus] [$fp+0]
	;DEBUG_VALUE: BZ2_decompress:retVal <- 0
	;DEBUG_VALUE: BZ2_decompress:gPerm <- $x25
	;DEBUG_VALUE: BZ2_decompress:gMinlen <- [DW_OP_constu 120, DW_OP_minus] [$fp+0]
	;DEBUG_VALUE: BZ2_decompress:zj <- $w23
	;DEBUG_VALUE: BZ2_decompress:EOB <- [DW_OP_constu 144, DW_OP_minus] [$fp+0]
	;DEBUG_VALUE: BZ2_decompress:j <- $w21
	;DEBUG_VALUE: BZ2_decompress:i <- [DW_OP_constu 112, DW_OP_minus] [$fp+0]
	;DEBUG_VALUE: BZ2_decompress:strm <- $x26
	;DEBUG_VALUE: BZ2_decompress:s <- $x19
	.loc	1 601 28 is_stmt 1              ; decompress.c:601:28
	str	wzr, [x19, #3180]
Ltmp331:
LBB0_165:
	;DEBUG_VALUE: BZ2_decompress:curr <- [DW_OP_constu 116, DW_OP_minus] [$fp+0]
	;DEBUG_VALUE: BZ2_decompress:nextSym <- [DW_OP_constu 128, DW_OP_minus] [$fp+0]
	;DEBUG_VALUE: BZ2_decompress:retVal <- 0
	;DEBUG_VALUE: BZ2_decompress:gPerm <- $x25
	;DEBUG_VALUE: BZ2_decompress:gMinlen <- [DW_OP_constu 120, DW_OP_minus] [$fp+0]
	;DEBUG_VALUE: BZ2_decompress:zj <- $w23
	;DEBUG_VALUE: BZ2_decompress:EOB <- [DW_OP_constu 144, DW_OP_minus] [$fp+0]
	;DEBUG_VALUE: BZ2_decompress:j <- $w21
	;DEBUG_VALUE: BZ2_decompress:i <- [DW_OP_constu 112, DW_OP_minus] [$fp+0]
	;DEBUG_VALUE: BZ2_decompress:strm <- $x26
	;DEBUG_VALUE: BZ2_decompress:s <- $x19
	.loc	1 0 28 is_stmt 0                ; decompress.c:0:28
	mov	w9, #47
	.loc	1 602 25 is_stmt 1              ; decompress.c:602:25
	str	w9, [x19, #8]
Ltmp332:
	.loc	1 602 55 is_stmt 0              ; decompress.c:602:55
	cmp	w8, #8
	b.lt	LBB0_212
Ltmp333:
; %bb.166:                              ; %.._crit_edge2383_crit_edge
	;DEBUG_VALUE: BZ2_decompress:curr <- [DW_OP_constu 116, DW_OP_minus] [$fp+0]
	;DEBUG_VALUE: BZ2_decompress:nextSym <- [DW_OP_constu 128, DW_OP_minus] [$fp+0]
	;DEBUG_VALUE: BZ2_decompress:retVal <- 0
	;DEBUG_VALUE: BZ2_decompress:gPerm <- $x25
	;DEBUG_VALUE: BZ2_decompress:gMinlen <- [DW_OP_constu 120, DW_OP_minus] [$fp+0]
	;DEBUG_VALUE: BZ2_decompress:zj <- $w23
	;DEBUG_VALUE: BZ2_decompress:EOB <- [DW_OP_constu 144, DW_OP_minus] [$fp+0]
	;DEBUG_VALUE: BZ2_decompress:j <- $w21
	;DEBUG_VALUE: BZ2_decompress:i <- [DW_OP_constu 112, DW_OP_minus] [$fp+0]
	;DEBUG_VALUE: BZ2_decompress:strm <- $x26
	;DEBUG_VALUE: BZ2_decompress:s <- $x19
	.loc	1 602 91                        ; decompress.c:602:91
	ldr	w10, [x19, #32]
Ltmp334:
LBB0_167:                               ; %._crit_edge2383
	;DEBUG_VALUE: BZ2_decompress:curr <- [DW_OP_constu 116, DW_OP_minus] [$fp+0]
	;DEBUG_VALUE: BZ2_decompress:nextSym <- [DW_OP_constu 128, DW_OP_minus] [$fp+0]
	;DEBUG_VALUE: BZ2_decompress:retVal <- 0
	;DEBUG_VALUE: BZ2_decompress:gPerm <- $x25
	;DEBUG_VALUE: BZ2_decompress:gMinlen <- [DW_OP_constu 120, DW_OP_minus] [$fp+0]
	;DEBUG_VALUE: BZ2_decompress:zj <- $w23
	;DEBUG_VALUE: BZ2_decompress:EOB <- [DW_OP_constu 144, DW_OP_minus] [$fp+0]
	;DEBUG_VALUE: BZ2_decompress:j <- $w21
	;DEBUG_VALUE: BZ2_decompress:i <- [DW_OP_constu 112, DW_OP_minus] [$fp+0]
	;DEBUG_VALUE: BZ2_decompress:strm <- $x26
	;DEBUG_VALUE: BZ2_decompress:s <- $x19
	.loc	1 602 111                       ; decompress.c:602:111
	sub	w8, w8, #8
	.loc	1 602 98                        ; decompress.c:602:98
	lsr	w9, w10, w8
Ltmp335:
	;DEBUG_VALUE: v <- [DW_OP_constu 255, DW_OP_and, DW_OP_stack_value] $w9
	.loc	1 602 142                       ; decompress.c:602:142
	str	w8, [x19, #36]
Ltmp336:
	;DEBUG_VALUE: BZ2_decompress:uc <- [DW_OP_LLVM_convert 32 7, DW_OP_LLVM_convert 8 7, DW_OP_stack_value] $w9
	.loc	1 603 34 is_stmt 1              ; decompress.c:603:34
	ldr	w10, [x19, #3180]
	.loc	1 603 58 is_stmt 0              ; decompress.c:603:58
	bfi	w9, w10, #8, #24
Ltmp337:
	.loc	1 603 28                        ; decompress.c:603:28
	str	w9, [x19, #3180]
Ltmp338:
LBB0_168:
	;DEBUG_VALUE: BZ2_decompress:curr <- [DW_OP_constu 116, DW_OP_minus] [$fp+0]
	;DEBUG_VALUE: BZ2_decompress:nextSym <- [DW_OP_constu 128, DW_OP_minus] [$fp+0]
	;DEBUG_VALUE: BZ2_decompress:retVal <- 0
	;DEBUG_VALUE: BZ2_decompress:gPerm <- $x25
	;DEBUG_VALUE: BZ2_decompress:gMinlen <- [DW_OP_constu 120, DW_OP_minus] [$fp+0]
	;DEBUG_VALUE: BZ2_decompress:zj <- $w23
	;DEBUG_VALUE: BZ2_decompress:EOB <- [DW_OP_constu 144, DW_OP_minus] [$fp+0]
	;DEBUG_VALUE: BZ2_decompress:j <- $w21
	;DEBUG_VALUE: BZ2_decompress:i <- [DW_OP_constu 112, DW_OP_minus] [$fp+0]
	;DEBUG_VALUE: BZ2_decompress:strm <- $x26
	;DEBUG_VALUE: BZ2_decompress:s <- $x19
	.loc	1 0 28                          ; decompress.c:0:28
	mov	w9, #48
	.loc	1 604 25 is_stmt 1              ; decompress.c:604:25
	str	w9, [x19, #8]
Ltmp339:
	.loc	1 604 55 is_stmt 0              ; decompress.c:604:55
	cmp	w8, #8
	b.lt	LBB0_202
Ltmp340:
; %bb.169:                              ; %.._crit_edge2388_crit_edge
	;DEBUG_VALUE: BZ2_decompress:curr <- [DW_OP_constu 116, DW_OP_minus] [$fp+0]
	;DEBUG_VALUE: BZ2_decompress:nextSym <- [DW_OP_constu 128, DW_OP_minus] [$fp+0]
	;DEBUG_VALUE: BZ2_decompress:retVal <- 0
	;DEBUG_VALUE: BZ2_decompress:gPerm <- $x25
	;DEBUG_VALUE: BZ2_decompress:gMinlen <- [DW_OP_constu 120, DW_OP_minus] [$fp+0]
	;DEBUG_VALUE: BZ2_decompress:zj <- $w23
	;DEBUG_VALUE: BZ2_decompress:EOB <- [DW_OP_constu 144, DW_OP_minus] [$fp+0]
	;DEBUG_VALUE: BZ2_decompress:j <- $w21
	;DEBUG_VALUE: BZ2_decompress:i <- [DW_OP_constu 112, DW_OP_minus] [$fp+0]
	;DEBUG_VALUE: BZ2_decompress:strm <- $x26
	;DEBUG_VALUE: BZ2_decompress:s <- $x19
	.loc	1 604 91                        ; decompress.c:604:91
	ldr	w10, [x19, #32]
Ltmp341:
LBB0_170:                               ; %._crit_edge2388
	;DEBUG_VALUE: BZ2_decompress:curr <- [DW_OP_constu 116, DW_OP_minus] [$fp+0]
	;DEBUG_VALUE: BZ2_decompress:nextSym <- [DW_OP_constu 128, DW_OP_minus] [$fp+0]
	;DEBUG_VALUE: BZ2_decompress:retVal <- 0
	;DEBUG_VALUE: BZ2_decompress:gPerm <- $x25
	;DEBUG_VALUE: BZ2_decompress:gMinlen <- [DW_OP_constu 120, DW_OP_minus] [$fp+0]
	;DEBUG_VALUE: BZ2_decompress:zj <- $w23
	;DEBUG_VALUE: BZ2_decompress:EOB <- [DW_OP_constu 144, DW_OP_minus] [$fp+0]
	;DEBUG_VALUE: BZ2_decompress:j <- $w21
	;DEBUG_VALUE: BZ2_decompress:i <- [DW_OP_constu 112, DW_OP_minus] [$fp+0]
	;DEBUG_VALUE: BZ2_decompress:strm <- $x26
	;DEBUG_VALUE: BZ2_decompress:s <- $x19
	.loc	1 604 111                       ; decompress.c:604:111
	sub	w8, w8, #8
	.loc	1 604 98                        ; decompress.c:604:98
	lsr	w9, w10, w8
Ltmp342:
	;DEBUG_VALUE: v <- [DW_OP_constu 255, DW_OP_and, DW_OP_stack_value] $w9
	.loc	1 604 142                       ; decompress.c:604:142
	str	w8, [x19, #36]
Ltmp343:
	;DEBUG_VALUE: BZ2_decompress:uc <- [DW_OP_LLVM_convert 32 7, DW_OP_LLVM_convert 8 7, DW_OP_stack_value] $w9
	.loc	1 605 34 is_stmt 1              ; decompress.c:605:34
	ldr	w10, [x19, #3180]
	.loc	1 605 58 is_stmt 0              ; decompress.c:605:58
	bfi	w9, w10, #8, #24
Ltmp344:
	.loc	1 605 28                        ; decompress.c:605:28
	str	w9, [x19, #3180]
Ltmp345:
LBB0_171:
	;DEBUG_VALUE: BZ2_decompress:curr <- [DW_OP_constu 116, DW_OP_minus] [$fp+0]
	;DEBUG_VALUE: BZ2_decompress:nextSym <- [DW_OP_constu 128, DW_OP_minus] [$fp+0]
	;DEBUG_VALUE: BZ2_decompress:retVal <- 0
	;DEBUG_VALUE: BZ2_decompress:gPerm <- $x25
	;DEBUG_VALUE: BZ2_decompress:gMinlen <- [DW_OP_constu 120, DW_OP_minus] [$fp+0]
	;DEBUG_VALUE: BZ2_decompress:zj <- $w23
	;DEBUG_VALUE: BZ2_decompress:EOB <- [DW_OP_constu 144, DW_OP_minus] [$fp+0]
	;DEBUG_VALUE: BZ2_decompress:j <- $w21
	;DEBUG_VALUE: BZ2_decompress:i <- [DW_OP_constu 112, DW_OP_minus] [$fp+0]
	;DEBUG_VALUE: BZ2_decompress:strm <- $x26
	;DEBUG_VALUE: BZ2_decompress:s <- $x19
	.loc	1 0 28                          ; decompress.c:0:28
	mov	w9, #49
	.loc	1 606 25 is_stmt 1              ; decompress.c:606:25
	str	w9, [x19, #8]
Ltmp346:
	.loc	1 606 55 is_stmt 0              ; decompress.c:606:55
	cmp	w8, #8
	b.lt	LBB0_187
Ltmp347:
; %bb.172:                              ; %.._crit_edge2393_crit_edge
	;DEBUG_VALUE: BZ2_decompress:curr <- [DW_OP_constu 116, DW_OP_minus] [$fp+0]
	;DEBUG_VALUE: BZ2_decompress:nextSym <- [DW_OP_constu 128, DW_OP_minus] [$fp+0]
	;DEBUG_VALUE: BZ2_decompress:retVal <- 0
	;DEBUG_VALUE: BZ2_decompress:gPerm <- $x25
	;DEBUG_VALUE: BZ2_decompress:gMinlen <- [DW_OP_constu 120, DW_OP_minus] [$fp+0]
	;DEBUG_VALUE: BZ2_decompress:zj <- $w23
	;DEBUG_VALUE: BZ2_decompress:EOB <- [DW_OP_constu 144, DW_OP_minus] [$fp+0]
	;DEBUG_VALUE: BZ2_decompress:j <- $w21
	;DEBUG_VALUE: BZ2_decompress:i <- [DW_OP_constu 112, DW_OP_minus] [$fp+0]
	;DEBUG_VALUE: BZ2_decompress:strm <- $x26
	;DEBUG_VALUE: BZ2_decompress:s <- $x19
	.loc	1 606 91                        ; decompress.c:606:91
	ldr	w10, [x19, #32]
Ltmp348:
LBB0_173:                               ; %._crit_edge2393
	;DEBUG_VALUE: BZ2_decompress:curr <- [DW_OP_constu 116, DW_OP_minus] [$fp+0]
	;DEBUG_VALUE: BZ2_decompress:nextSym <- [DW_OP_constu 128, DW_OP_minus] [$fp+0]
	;DEBUG_VALUE: BZ2_decompress:retVal <- 0
	;DEBUG_VALUE: BZ2_decompress:gPerm <- $x25
	;DEBUG_VALUE: BZ2_decompress:gMinlen <- [DW_OP_constu 120, DW_OP_minus] [$fp+0]
	;DEBUG_VALUE: BZ2_decompress:zj <- $w23
	;DEBUG_VALUE: BZ2_decompress:EOB <- [DW_OP_constu 144, DW_OP_minus] [$fp+0]
	;DEBUG_VALUE: BZ2_decompress:j <- $w21
	;DEBUG_VALUE: BZ2_decompress:i <- [DW_OP_constu 112, DW_OP_minus] [$fp+0]
	;DEBUG_VALUE: BZ2_decompress:strm <- $x26
	;DEBUG_VALUE: BZ2_decompress:s <- $x19
	.loc	1 606 111                       ; decompress.c:606:111
	sub	w8, w8, #8
	.loc	1 606 98                        ; decompress.c:606:98
	lsr	w9, w10, w8
Ltmp349:
	;DEBUG_VALUE: v <- [DW_OP_constu 255, DW_OP_and, DW_OP_stack_value] $w9
	.loc	1 606 142                       ; decompress.c:606:142
	str	w8, [x19, #36]
Ltmp350:
	;DEBUG_VALUE: BZ2_decompress:uc <- [DW_OP_LLVM_convert 32 7, DW_OP_LLVM_convert 8 7, DW_OP_stack_value] $w9
	.loc	1 607 34 is_stmt 1              ; decompress.c:607:34
	ldr	w10, [x19, #3180]
	.loc	1 607 58 is_stmt 0              ; decompress.c:607:58
	bfi	w9, w10, #8, #24
Ltmp351:
	.loc	1 607 28                        ; decompress.c:607:28
	str	w9, [x19, #3180]
Ltmp352:
LBB0_174:
	;DEBUG_VALUE: BZ2_decompress:curr <- [DW_OP_constu 116, DW_OP_minus] [$fp+0]
	;DEBUG_VALUE: BZ2_decompress:nextSym <- [DW_OP_constu 128, DW_OP_minus] [$fp+0]
	;DEBUG_VALUE: BZ2_decompress:retVal <- 0
	;DEBUG_VALUE: BZ2_decompress:gPerm <- $x25
	;DEBUG_VALUE: BZ2_decompress:gMinlen <- [DW_OP_constu 120, DW_OP_minus] [$fp+0]
	;DEBUG_VALUE: BZ2_decompress:zj <- $w23
	;DEBUG_VALUE: BZ2_decompress:EOB <- [DW_OP_constu 144, DW_OP_minus] [$fp+0]
	;DEBUG_VALUE: BZ2_decompress:j <- $w21
	;DEBUG_VALUE: BZ2_decompress:i <- [DW_OP_constu 112, DW_OP_minus] [$fp+0]
	;DEBUG_VALUE: BZ2_decompress:strm <- $x26
	;DEBUG_VALUE: BZ2_decompress:s <- $x19
	.loc	1 0 28                          ; decompress.c:0:28
	mov	w9, #50
	.loc	1 608 25 is_stmt 1              ; decompress.c:608:25
	str	w9, [x19, #8]
Ltmp353:
	.loc	1 608 55 is_stmt 0              ; decompress.c:608:55
	cmp	w8, #8
	b.lt	LBB0_177
Ltmp354:
; %bb.175:                              ; %.._crit_edge2398_crit_edge
	;DEBUG_VALUE: BZ2_decompress:curr <- [DW_OP_constu 116, DW_OP_minus] [$fp+0]
	;DEBUG_VALUE: BZ2_decompress:nextSym <- [DW_OP_constu 128, DW_OP_minus] [$fp+0]
	;DEBUG_VALUE: BZ2_decompress:retVal <- 0
	;DEBUG_VALUE: BZ2_decompress:gPerm <- $x25
	;DEBUG_VALUE: BZ2_decompress:gMinlen <- [DW_OP_constu 120, DW_OP_minus] [$fp+0]
	;DEBUG_VALUE: BZ2_decompress:zj <- $w23
	;DEBUG_VALUE: BZ2_decompress:EOB <- [DW_OP_constu 144, DW_OP_minus] [$fp+0]
	;DEBUG_VALUE: BZ2_decompress:j <- $w21
	;DEBUG_VALUE: BZ2_decompress:i <- [DW_OP_constu 112, DW_OP_minus] [$fp+0]
	;DEBUG_VALUE: BZ2_decompress:strm <- $x26
	;DEBUG_VALUE: BZ2_decompress:s <- $x19
	.loc	1 608 91                        ; decompress.c:608:91
	ldr	w10, [x19, #32]
Ltmp355:
LBB0_176:                               ; %._crit_edge2398
	;DEBUG_VALUE: BZ2_decompress:curr <- [DW_OP_constu 116, DW_OP_minus] [$fp+0]
	;DEBUG_VALUE: BZ2_decompress:nextSym <- [DW_OP_constu 128, DW_OP_minus] [$fp+0]
	;DEBUG_VALUE: BZ2_decompress:retVal <- 0
	;DEBUG_VALUE: BZ2_decompress:gPerm <- $x25
	;DEBUG_VALUE: BZ2_decompress:gMinlen <- [DW_OP_constu 120, DW_OP_minus] [$fp+0]
	;DEBUG_VALUE: BZ2_decompress:zj <- $w23
	;DEBUG_VALUE: BZ2_decompress:EOB <- [DW_OP_constu 144, DW_OP_minus] [$fp+0]
	;DEBUG_VALUE: BZ2_decompress:j <- $w21
	;DEBUG_VALUE: BZ2_decompress:i <- [DW_OP_constu 112, DW_OP_minus] [$fp+0]
	;DEBUG_VALUE: BZ2_decompress:strm <- $x26
	;DEBUG_VALUE: BZ2_decompress:s <- $x19
	.loc	1 608 111                       ; decompress.c:608:111
	sub	w8, w8, #8
	.loc	1 608 98                        ; decompress.c:608:98
	lsr	w9, w10, w8
Ltmp356:
	;DEBUG_VALUE: v <- [DW_OP_constu 255, DW_OP_and, DW_OP_stack_value] $w9
	.loc	1 608 142                       ; decompress.c:608:142
	str	w8, [x19, #36]
Ltmp357:
	;DEBUG_VALUE: BZ2_decompress:uc <- [DW_OP_LLVM_convert 32 7, DW_OP_LLVM_convert 8 7, DW_OP_stack_value] $w9
	.loc	1 609 34 is_stmt 1              ; decompress.c:609:34
	ldr	w8, [x19, #3180]
	.loc	1 609 58 is_stmt 0              ; decompress.c:609:58
	bfi	w9, w8, #8, #24
Ltmp358:
	.loc	1 609 28                        ; decompress.c:609:28
	str	w9, [x19, #3180]
	mov	w8, #1
	.loc	1 611 16 is_stmt 1              ; decompress.c:611:16
	str	w8, [x19, #8]
	mov	w0, #4
Ltmp359:
	;DEBUG_VALUE: BZ2_decompress:retVal <- 4
	.loc	1 0 16 is_stmt 0                ; decompress.c:0:16
	b	LBB0_340
Ltmp360:
LBB0_177:                               ; %.lr.ph2397
	;DEBUG_VALUE: BZ2_decompress:curr <- [DW_OP_constu 116, DW_OP_minus] [$fp+0]
	;DEBUG_VALUE: BZ2_decompress:nextSym <- [DW_OP_constu 128, DW_OP_minus] [$fp+0]
	;DEBUG_VALUE: BZ2_decompress:retVal <- 0
	;DEBUG_VALUE: BZ2_decompress:gPerm <- $x25
	;DEBUG_VALUE: BZ2_decompress:gMinlen <- [DW_OP_constu 120, DW_OP_minus] [$fp+0]
	;DEBUG_VALUE: BZ2_decompress:zj <- $w23
	;DEBUG_VALUE: BZ2_decompress:EOB <- [DW_OP_constu 144, DW_OP_minus] [$fp+0]
	;DEBUG_VALUE: BZ2_decompress:j <- $w21
	;DEBUG_VALUE: BZ2_decompress:i <- [DW_OP_constu 112, DW_OP_minus] [$fp+0]
	;DEBUG_VALUE: BZ2_decompress:strm <- $x26
	;DEBUG_VALUE: BZ2_decompress:s <- $x19
	ldr	x9, [x19]
Ltmp361:
	.loc	1 608 178 is_stmt 1             ; decompress.c:608:178
	ldr	w10, [x9, #8]
Ltmp362:
	.loc	1 608 55 is_stmt 0              ; decompress.c:608:55
	sub	w11, w10, #1
	b	LBB0_179
Ltmp363:
LBB0_178:                               ;   in Loop: Header=BB0_179 Depth=1
	;DEBUG_VALUE: BZ2_decompress:curr <- [DW_OP_constu 116, DW_OP_minus] [$fp+0]
	;DEBUG_VALUE: BZ2_decompress:nextSym <- [DW_OP_constu 128, DW_OP_minus] [$fp+0]
	;DEBUG_VALUE: BZ2_decompress:retVal <- 0
	;DEBUG_VALUE: BZ2_decompress:gPerm <- $x25
	;DEBUG_VALUE: BZ2_decompress:gMinlen <- [DW_OP_constu 120, DW_OP_minus] [$fp+0]
	;DEBUG_VALUE: BZ2_decompress:zj <- $w23
	;DEBUG_VALUE: BZ2_decompress:EOB <- [DW_OP_constu 144, DW_OP_minus] [$fp+0]
	;DEBUG_VALUE: BZ2_decompress:j <- $w21
	;DEBUG_VALUE: BZ2_decompress:i <- [DW_OP_constu 112, DW_OP_minus] [$fp+0]
	;DEBUG_VALUE: BZ2_decompress:strm <- $x26
	;DEBUG_VALUE: BZ2_decompress:s <- $x19
	.loc	1 608 65                        ; decompress.c:608:65
	sub	w11, w11, #1
	cmp	w8, #8
Ltmp364:
	.loc	1 608 55                        ; decompress.c:608:55
	b.pl	LBB0_176
Ltmp365:
LBB0_179:                               ; =>This Inner Loop Header: Depth=1
	;DEBUG_VALUE: BZ2_decompress:curr <- [DW_OP_constu 116, DW_OP_minus] [$fp+0]
	;DEBUG_VALUE: BZ2_decompress:nextSym <- [DW_OP_constu 128, DW_OP_minus] [$fp+0]
	;DEBUG_VALUE: BZ2_decompress:retVal <- 0
	;DEBUG_VALUE: BZ2_decompress:gPerm <- $x25
	;DEBUG_VALUE: BZ2_decompress:gMinlen <- [DW_OP_constu 120, DW_OP_minus] [$fp+0]
	;DEBUG_VALUE: BZ2_decompress:zj <- $w23
	;DEBUG_VALUE: BZ2_decompress:EOB <- [DW_OP_constu 144, DW_OP_minus] [$fp+0]
	;DEBUG_VALUE: BZ2_decompress:j <- $w21
	;DEBUG_VALUE: BZ2_decompress:i <- [DW_OP_constu 112, DW_OP_minus] [$fp+0]
	;DEBUG_VALUE: BZ2_decompress:strm <- $x26
	;DEBUG_VALUE: BZ2_decompress:s <- $x19
	.loc	1 608 169                       ; decompress.c:608:169
	cmn	w11, #1
	b.eq	LBB0_283
Ltmp366:
; %bb.180:                              ;   in Loop: Header=BB0_179 Depth=1
	;DEBUG_VALUE: BZ2_decompress:curr <- [DW_OP_constu 116, DW_OP_minus] [$fp+0]
	;DEBUG_VALUE: BZ2_decompress:nextSym <- [DW_OP_constu 128, DW_OP_minus] [$fp+0]
	;DEBUG_VALUE: BZ2_decompress:retVal <- 0
	;DEBUG_VALUE: BZ2_decompress:gPerm <- $x25
	;DEBUG_VALUE: BZ2_decompress:gMinlen <- [DW_OP_constu 120, DW_OP_minus] [$fp+0]
	;DEBUG_VALUE: BZ2_decompress:zj <- $w23
	;DEBUG_VALUE: BZ2_decompress:EOB <- [DW_OP_constu 144, DW_OP_minus] [$fp+0]
	;DEBUG_VALUE: BZ2_decompress:j <- $w21
	;DEBUG_VALUE: BZ2_decompress:i <- [DW_OP_constu 112, DW_OP_minus] [$fp+0]
	;DEBUG_VALUE: BZ2_decompress:strm <- $x26
	;DEBUG_VALUE: BZ2_decompress:s <- $x19
	.loc	1 608 255                       ; decompress.c:608:255
	ldr	w12, [x19, #32]
	.loc	1 608 301                       ; decompress.c:608:301
	ldr	x13, [x9]
	.loc	1 608 281                       ; decompress.c:608:281
	ldrb	w10, [x13], #1
	.loc	1 608 268                       ; decompress.c:608:268
	bfi	w10, w12, #8, #24
	.loc	1 608 324                       ; decompress.c:608:324
	add	w8, w8, #8
	.loc	1 608 249                       ; decompress.c:608:249
	stp	w10, w8, [x19, #32]
	.loc	1 608 346                       ; decompress.c:608:346
	str	x13, [x9]
	.loc	1 608 393                       ; decompress.c:608:393
	ldr	w12, [x9, #12]
	adds	w12, w12, #1
	.loc	1 608 367                       ; decompress.c:608:367
	stp	w11, w12, [x9, #8]
	.loc	1 608 401                       ; decompress.c:608:401
	b.lo	LBB0_178
Ltmp367:
; %bb.181:                              ;   in Loop: Header=BB0_179 Depth=1
	;DEBUG_VALUE: BZ2_decompress:curr <- [DW_OP_constu 116, DW_OP_minus] [$fp+0]
	;DEBUG_VALUE: BZ2_decompress:nextSym <- [DW_OP_constu 128, DW_OP_minus] [$fp+0]
	;DEBUG_VALUE: BZ2_decompress:retVal <- 0
	;DEBUG_VALUE: BZ2_decompress:gPerm <- $x25
	;DEBUG_VALUE: BZ2_decompress:gMinlen <- [DW_OP_constu 120, DW_OP_minus] [$fp+0]
	;DEBUG_VALUE: BZ2_decompress:zj <- $w23
	;DEBUG_VALUE: BZ2_decompress:EOB <- [DW_OP_constu 144, DW_OP_minus] [$fp+0]
	;DEBUG_VALUE: BZ2_decompress:j <- $w21
	;DEBUG_VALUE: BZ2_decompress:i <- [DW_OP_constu 112, DW_OP_minus] [$fp+0]
	;DEBUG_VALUE: BZ2_decompress:strm <- $x26
	;DEBUG_VALUE: BZ2_decompress:s <- $x19
	.loc	1 608 452                       ; decompress.c:608:452
	ldr	w12, [x9, #16]
	add	w12, w12, #1
	str	w12, [x9, #16]
	b	LBB0_178
Ltmp368:
LBB0_182:                               ; %.lr.ph2182
	;DEBUG_VALUE: BZ2_decompress:curr <- [DW_OP_constu 116, DW_OP_minus] [$fp+0]
	;DEBUG_VALUE: BZ2_decompress:nextSym <- [DW_OP_constu 128, DW_OP_minus] [$fp+0]
	;DEBUG_VALUE: BZ2_decompress:retVal <- 0
	;DEBUG_VALUE: BZ2_decompress:gMinlen <- [DW_OP_constu 120, DW_OP_minus] [$fp+0]
	;DEBUG_VALUE: BZ2_decompress:EOB <- [DW_OP_constu 144, DW_OP_minus] [$fp+0]
	;DEBUG_VALUE: BZ2_decompress:i <- [DW_OP_constu 112, DW_OP_minus] [$fp+0]
	;DEBUG_VALUE: BZ2_decompress:s <- $x19
	.loc	1 0 452                         ; decompress.c:0:452
	ldr	x9, [x19]
Ltmp369:
	.loc	1 246 178 is_stmt 1             ; decompress.c:246:178
	ldr	w10, [x9, #8]
Ltmp370:
	.loc	1 246 55 is_stmt 0              ; decompress.c:246:55
	sub	w11, w10, #1
	b	LBB0_184
Ltmp371:
LBB0_183:                               ;   in Loop: Header=BB0_184 Depth=1
	;DEBUG_VALUE: BZ2_decompress:curr <- [DW_OP_constu 116, DW_OP_minus] [$fp+0]
	;DEBUG_VALUE: BZ2_decompress:nextSym <- [DW_OP_constu 128, DW_OP_minus] [$fp+0]
	;DEBUG_VALUE: BZ2_decompress:retVal <- 0
	;DEBUG_VALUE: BZ2_decompress:gMinlen <- [DW_OP_constu 120, DW_OP_minus] [$fp+0]
	;DEBUG_VALUE: BZ2_decompress:EOB <- [DW_OP_constu 144, DW_OP_minus] [$fp+0]
	;DEBUG_VALUE: BZ2_decompress:i <- [DW_OP_constu 112, DW_OP_minus] [$fp+0]
	;DEBUG_VALUE: BZ2_decompress:s <- $x19
	.loc	1 246 65                        ; decompress.c:246:65
	sub	w11, w11, #1
	cmp	w8, #8
Ltmp372:
	.loc	1 246 55                        ; decompress.c:246:55
	b.pl	LBB0_111
Ltmp373:
LBB0_184:                               ; =>This Inner Loop Header: Depth=1
	;DEBUG_VALUE: BZ2_decompress:curr <- [DW_OP_constu 116, DW_OP_minus] [$fp+0]
	;DEBUG_VALUE: BZ2_decompress:nextSym <- [DW_OP_constu 128, DW_OP_minus] [$fp+0]
	;DEBUG_VALUE: BZ2_decompress:retVal <- 0
	;DEBUG_VALUE: BZ2_decompress:gMinlen <- [DW_OP_constu 120, DW_OP_minus] [$fp+0]
	;DEBUG_VALUE: BZ2_decompress:EOB <- [DW_OP_constu 144, DW_OP_minus] [$fp+0]
	;DEBUG_VALUE: BZ2_decompress:i <- [DW_OP_constu 112, DW_OP_minus] [$fp+0]
	;DEBUG_VALUE: BZ2_decompress:s <- $x19
	.loc	1 246 169                       ; decompress.c:246:169
	cmn	w11, #1
	b.eq	LBB0_283
Ltmp374:
; %bb.185:                              ;   in Loop: Header=BB0_184 Depth=1
	;DEBUG_VALUE: BZ2_decompress:curr <- [DW_OP_constu 116, DW_OP_minus] [$fp+0]
	;DEBUG_VALUE: BZ2_decompress:nextSym <- [DW_OP_constu 128, DW_OP_minus] [$fp+0]
	;DEBUG_VALUE: BZ2_decompress:retVal <- 0
	;DEBUG_VALUE: BZ2_decompress:gMinlen <- [DW_OP_constu 120, DW_OP_minus] [$fp+0]
	;DEBUG_VALUE: BZ2_decompress:EOB <- [DW_OP_constu 144, DW_OP_minus] [$fp+0]
	;DEBUG_VALUE: BZ2_decompress:i <- [DW_OP_constu 112, DW_OP_minus] [$fp+0]
	;DEBUG_VALUE: BZ2_decompress:s <- $x19
	.loc	1 246 255                       ; decompress.c:246:255
	ldr	w12, [x19, #32]
	.loc	1 246 301                       ; decompress.c:246:301
	ldr	x13, [x9]
	.loc	1 246 281                       ; decompress.c:246:281
	ldrb	w10, [x13], #1
	.loc	1 246 268                       ; decompress.c:246:268
	bfi	w10, w12, #8, #24
	.loc	1 246 324                       ; decompress.c:246:324
	add	w8, w8, #8
	.loc	1 246 249                       ; decompress.c:246:249
	stp	w10, w8, [x19, #32]
	.loc	1 246 346                       ; decompress.c:246:346
	str	x13, [x9]
	.loc	1 246 393                       ; decompress.c:246:393
	ldr	w12, [x9, #12]
	adds	w12, w12, #1
	.loc	1 246 367                       ; decompress.c:246:367
	stp	w11, w12, [x9, #8]
	.loc	1 246 401                       ; decompress.c:246:401
	b.lo	LBB0_183
Ltmp375:
; %bb.186:                              ;   in Loop: Header=BB0_184 Depth=1
	;DEBUG_VALUE: BZ2_decompress:curr <- [DW_OP_constu 116, DW_OP_minus] [$fp+0]
	;DEBUG_VALUE: BZ2_decompress:nextSym <- [DW_OP_constu 128, DW_OP_minus] [$fp+0]
	;DEBUG_VALUE: BZ2_decompress:retVal <- 0
	;DEBUG_VALUE: BZ2_decompress:gMinlen <- [DW_OP_constu 120, DW_OP_minus] [$fp+0]
	;DEBUG_VALUE: BZ2_decompress:EOB <- [DW_OP_constu 144, DW_OP_minus] [$fp+0]
	;DEBUG_VALUE: BZ2_decompress:i <- [DW_OP_constu 112, DW_OP_minus] [$fp+0]
	;DEBUG_VALUE: BZ2_decompress:s <- $x19
	.loc	1 246 452                       ; decompress.c:246:452
	ldr	w12, [x9, #16]
	add	w12, w12, #1
	str	w12, [x9, #16]
	b	LBB0_183
Ltmp376:
LBB0_187:                               ; %.lr.ph2392
	;DEBUG_VALUE: BZ2_decompress:curr <- [DW_OP_constu 116, DW_OP_minus] [$fp+0]
	;DEBUG_VALUE: BZ2_decompress:nextSym <- [DW_OP_constu 128, DW_OP_minus] [$fp+0]
	;DEBUG_VALUE: BZ2_decompress:retVal <- 0
	;DEBUG_VALUE: BZ2_decompress:gPerm <- $x25
	;DEBUG_VALUE: BZ2_decompress:gMinlen <- [DW_OP_constu 120, DW_OP_minus] [$fp+0]
	;DEBUG_VALUE: BZ2_decompress:zj <- $w23
	;DEBUG_VALUE: BZ2_decompress:EOB <- [DW_OP_constu 144, DW_OP_minus] [$fp+0]
	;DEBUG_VALUE: BZ2_decompress:j <- $w21
	;DEBUG_VALUE: BZ2_decompress:i <- [DW_OP_constu 112, DW_OP_minus] [$fp+0]
	;DEBUG_VALUE: BZ2_decompress:strm <- $x26
	;DEBUG_VALUE: BZ2_decompress:s <- $x19
	.loc	1 0 452                         ; decompress.c:0:452
	ldr	x9, [x19]
Ltmp377:
	.loc	1 606 178 is_stmt 1             ; decompress.c:606:178
	ldr	w10, [x9, #8]
Ltmp378:
	.loc	1 606 55 is_stmt 0              ; decompress.c:606:55
	sub	w11, w10, #1
	b	LBB0_189
Ltmp379:
LBB0_188:                               ;   in Loop: Header=BB0_189 Depth=1
	;DEBUG_VALUE: BZ2_decompress:curr <- [DW_OP_constu 116, DW_OP_minus] [$fp+0]
	;DEBUG_VALUE: BZ2_decompress:nextSym <- [DW_OP_constu 128, DW_OP_minus] [$fp+0]
	;DEBUG_VALUE: BZ2_decompress:retVal <- 0
	;DEBUG_VALUE: BZ2_decompress:gPerm <- $x25
	;DEBUG_VALUE: BZ2_decompress:gMinlen <- [DW_OP_constu 120, DW_OP_minus] [$fp+0]
	;DEBUG_VALUE: BZ2_decompress:zj <- $w23
	;DEBUG_VALUE: BZ2_decompress:EOB <- [DW_OP_constu 144, DW_OP_minus] [$fp+0]
	;DEBUG_VALUE: BZ2_decompress:j <- $w21
	;DEBUG_VALUE: BZ2_decompress:i <- [DW_OP_constu 112, DW_OP_minus] [$fp+0]
	;DEBUG_VALUE: BZ2_decompress:strm <- $x26
	;DEBUG_VALUE: BZ2_decompress:s <- $x19
	.loc	1 606 65                        ; decompress.c:606:65
	sub	w11, w11, #1
	cmp	w8, #8
Ltmp380:
	.loc	1 606 55                        ; decompress.c:606:55
	b.pl	LBB0_173
Ltmp381:
LBB0_189:                               ; =>This Inner Loop Header: Depth=1
	;DEBUG_VALUE: BZ2_decompress:curr <- [DW_OP_constu 116, DW_OP_minus] [$fp+0]
	;DEBUG_VALUE: BZ2_decompress:nextSym <- [DW_OP_constu 128, DW_OP_minus] [$fp+0]
	;DEBUG_VALUE: BZ2_decompress:retVal <- 0
	;DEBUG_VALUE: BZ2_decompress:gPerm <- $x25
	;DEBUG_VALUE: BZ2_decompress:gMinlen <- [DW_OP_constu 120, DW_OP_minus] [$fp+0]
	;DEBUG_VALUE: BZ2_decompress:zj <- $w23
	;DEBUG_VALUE: BZ2_decompress:EOB <- [DW_OP_constu 144, DW_OP_minus] [$fp+0]
	;DEBUG_VALUE: BZ2_decompress:j <- $w21
	;DEBUG_VALUE: BZ2_decompress:i <- [DW_OP_constu 112, DW_OP_minus] [$fp+0]
	;DEBUG_VALUE: BZ2_decompress:strm <- $x26
	;DEBUG_VALUE: BZ2_decompress:s <- $x19
	.loc	1 606 169                       ; decompress.c:606:169
	cmn	w11, #1
	b.eq	LBB0_283
Ltmp382:
; %bb.190:                              ;   in Loop: Header=BB0_189 Depth=1
	;DEBUG_VALUE: BZ2_decompress:curr <- [DW_OP_constu 116, DW_OP_minus] [$fp+0]
	;DEBUG_VALUE: BZ2_decompress:nextSym <- [DW_OP_constu 128, DW_OP_minus] [$fp+0]
	;DEBUG_VALUE: BZ2_decompress:retVal <- 0
	;DEBUG_VALUE: BZ2_decompress:gPerm <- $x25
	;DEBUG_VALUE: BZ2_decompress:gMinlen <- [DW_OP_constu 120, DW_OP_minus] [$fp+0]
	;DEBUG_VALUE: BZ2_decompress:zj <- $w23
	;DEBUG_VALUE: BZ2_decompress:EOB <- [DW_OP_constu 144, DW_OP_minus] [$fp+0]
	;DEBUG_VALUE: BZ2_decompress:j <- $w21
	;DEBUG_VALUE: BZ2_decompress:i <- [DW_OP_constu 112, DW_OP_minus] [$fp+0]
	;DEBUG_VALUE: BZ2_decompress:strm <- $x26
	;DEBUG_VALUE: BZ2_decompress:s <- $x19
	.loc	1 606 255                       ; decompress.c:606:255
	ldr	w12, [x19, #32]
	.loc	1 606 301                       ; decompress.c:606:301
	ldr	x13, [x9]
	.loc	1 606 281                       ; decompress.c:606:281
	ldrb	w10, [x13], #1
	.loc	1 606 268                       ; decompress.c:606:268
	bfi	w10, w12, #8, #24
	.loc	1 606 324                       ; decompress.c:606:324
	add	w8, w8, #8
	.loc	1 606 249                       ; decompress.c:606:249
	stp	w10, w8, [x19, #32]
	.loc	1 606 346                       ; decompress.c:606:346
	str	x13, [x9]
	.loc	1 606 393                       ; decompress.c:606:393
	ldr	w12, [x9, #12]
	adds	w12, w12, #1
	.loc	1 606 367                       ; decompress.c:606:367
	stp	w11, w12, [x9, #8]
	.loc	1 606 401                       ; decompress.c:606:401
	b.lo	LBB0_188
Ltmp383:
; %bb.191:                              ;   in Loop: Header=BB0_189 Depth=1
	;DEBUG_VALUE: BZ2_decompress:curr <- [DW_OP_constu 116, DW_OP_minus] [$fp+0]
	;DEBUG_VALUE: BZ2_decompress:nextSym <- [DW_OP_constu 128, DW_OP_minus] [$fp+0]
	;DEBUG_VALUE: BZ2_decompress:retVal <- 0
	;DEBUG_VALUE: BZ2_decompress:gPerm <- $x25
	;DEBUG_VALUE: BZ2_decompress:gMinlen <- [DW_OP_constu 120, DW_OP_minus] [$fp+0]
	;DEBUG_VALUE: BZ2_decompress:zj <- $w23
	;DEBUG_VALUE: BZ2_decompress:EOB <- [DW_OP_constu 144, DW_OP_minus] [$fp+0]
	;DEBUG_VALUE: BZ2_decompress:j <- $w21
	;DEBUG_VALUE: BZ2_decompress:i <- [DW_OP_constu 112, DW_OP_minus] [$fp+0]
	;DEBUG_VALUE: BZ2_decompress:strm <- $x26
	;DEBUG_VALUE: BZ2_decompress:s <- $x19
	.loc	1 606 452                       ; decompress.c:606:452
	ldr	w12, [x9, #16]
	add	w12, w12, #1
	str	w12, [x9, #16]
	b	LBB0_188
Ltmp384:
LBB0_192:                               ; %.lr.ph2192
	;DEBUG_VALUE: BZ2_decompress:curr <- [DW_OP_constu 116, DW_OP_minus] [$fp+0]
	;DEBUG_VALUE: BZ2_decompress:nextSym <- [DW_OP_constu 128, DW_OP_minus] [$fp+0]
	;DEBUG_VALUE: BZ2_decompress:retVal <- 0
	;DEBUG_VALUE: BZ2_decompress:gMinlen <- [DW_OP_constu 120, DW_OP_minus] [$fp+0]
