	.file	"huffman.c"
	.text
.Ltext0:
	.file 0 "/root/rustmap/bzip2-real-test" "huffman.c"
	.p2align 4
	.globl	BZ2_hbMakeCodeLengths
	.type	BZ2_hbMakeCodeLengths, @function
BZ2_hbMakeCodeLengths:
.LVL0:
.LFB53:
	.file 1 "huffman.c"
	.loc 1 67 1 view -0
	.cfi_startproc
	.loc 1 67 1 is_stmt 0 view .LVU1
	endbr64
	pushq	%r15
	.cfi_def_cfa_offset 16
	.cfi_offset 15, -16
	pushq	%r14
	.cfi_def_cfa_offset 24
	.cfi_offset 14, -24
	pushq	%r13
	.cfi_def_cfa_offset 32
	.cfi_offset 13, -32
	pushq	%r12
	.cfi_def_cfa_offset 40
	.cfi_offset 12, -40
	pushq	%rbp
	.cfi_def_cfa_offset 48
	.cfi_offset 6, -48
	pushq	%rbx
	.cfi_def_cfa_offset 56
	.cfi_offset 3, -56
	subq	$4096, %rsp
	.cfi_def_cfa_offset 4152
	orq	$0, (%rsp)
	subq	$1176, %rsp
	.cfi_def_cfa_offset 5328
	movl	$256, %r8d
	.loc 1 67 1 view .LVU2
	movq	%rdi, 32(%rsp)
	movslq	%edx, %rdi
.LVL1:
	.loc 1 67 1 view .LVU3
	leaq	1120(%rsp), %r9
	movl	%edi, 40(%rsp)
	movl	%ecx, 44(%rsp)
	movq	%fs:40, %rax
	movq	%rax, 5256(%rsp)
	xorl	%eax, %eax
	.loc 1 72 4 is_stmt 1 view .LVU4
	.loc 1 73 4 view .LVU5
	.loc 1 75 4 view .LVU6
	.loc 1 76 4 view .LVU7
	.loc 1 77 4 view .LVU8
	.loc 1 79 4 view .LVU9
.LVL2:
	.loc 1 79 18 view .LVU10
	testl	%edi, %edi
	jle	.L6
.LVL3:
	.p2align 4,,10
	.p2align 3
.L5:
	.loc 1 80 7 view .LVU11
	.loc 1 80 26 is_stmt 0 view .LVU12
	movl	(%rsi,%rax,4), %ecx
	.loc 1 80 50 view .LVU13
	movl	%ecx, %edx
	sall	$8, %edx
	testl	%ecx, %ecx
	cmove	%r8d, %edx
	.loc 1 80 19 view .LVU14
	movl	%edx, 4(%r9,%rax,4)
	.loc 1 79 32 is_stmt 1 view .LVU15
.LVL4:
	.loc 1 79 18 view .LVU16
	addq	$1, %rax
.LVL5:
	.loc 1 79 18 is_stmt 0 view .LVU17
	cmpq	%rdi, %rax
	jne	.L5
.L6:
	.loc 1 79 18 view .LVU18
	movl	40(%rsp), %ebx
	leaq	80(%rsp), %rax
	movq	%rax, 48(%rsp)
	leaq	(%rax,%rdi,4), %rax
	movq	%rax, 24(%rsp)
	leal	-1(%rbx), %eax
	leaq	1128(%rsp,%rax,4), %rdi
.LVL6:
	.loc 1 79 18 view .LVU19
	addq	$2, %rax
	movq	%rax, 56(%rsp)
	leal	1(%rbx), %eax
	movl	%eax, 64(%rsp)
	.loc 1 103 16 view .LVU20
	leal	-1(%rbx,%rbx), %eax
	movq	%rdi, 72(%rsp)
	movl	%eax, 68(%rsp)
.LVL7:
	.p2align 4,,10
	.p2align 3
.L3:
	.loc 1 82 4 is_stmt 1 view .LVU21
	.loc 1 84 7 view .LVU22
	.loc 1 85 7 view .LVU23
	.loc 1 87 7 view .LVU24
	.loc 1 91 21 is_stmt 0 view .LVU25
	movl	40(%rsp), %eax
	.loc 1 87 15 view .LVU26
	movl	$0, 80(%rsp)
	.loc 1 88 7 is_stmt 1 view .LVU27
	.loc 1 88 17 is_stmt 0 view .LVU28
	movl	$0, 1120(%rsp)
	.loc 1 89 7 is_stmt 1 view .LVU29
	.loc 1 89 17 is_stmt 0 view .LVU30
	movl	$-2, 3184(%rsp)
	.loc 1 91 7 is_stmt 1 view .LVU31
.LVL8:
	.loc 1 91 21 view .LVU32
	testl	%eax, %eax
	jle	.L1
	movq	48(%rsp), %r11
	movq	56(%rsp), %r12
	leaq	1120(%rsp), %rbp
	leaq	3184(%rsp), %rbx
	movq	%rbp, 16(%rsp)
	movl	$1, %r8d
	movq	%rbx, 8(%rsp)
.LVL9:
	.p2align 4,,10
	.p2align 3
.L10:
.LBB2:
	.loc 1 95 91 is_stmt 0 view .LVU33
	movl	%r8d, %edx
.LBE2:
	.loc 1 94 22 view .LVU34
	movl	%r8d, (%r11,%r8,4)
.LBB3:
	.loc 1 95 68 view .LVU35
	movl	0(%rbp,%r8,4), %r9d
	movl	%r8d, %r10d
.LVL10:
	.loc 1 95 68 view .LVU36
.LBE3:
	.loc 1 92 10 is_stmt 1 view .LVU37
.LBB4:
	.loc 1 95 91 is_stmt 0 view .LVU38
	sarl	%edx
.LVL11:
	.loc 1 95 91 view .LVU39
.LBE4:
	.loc 1 92 20 view .LVU40
	movl	$-1, (%rbx,%r8,4)
	.loc 1 93 10 is_stmt 1 view .LVU41
.LVL12:
	.loc 1 94 10 view .LVU42
.LBB5:
	.loc 1 95 12 view .LVU43
	.loc 1 95 27 view .LVU44
	.loc 1 95 39 view .LVU45
	.loc 1 95 55 view .LVU46
	.loc 1 95 74 view .LVU47
	.loc 1 95 87 is_stmt 0 view .LVU48
	movslq	%edx, %rax
	movslq	80(%rsp,%rax,4), %rax
	movq	%rax, %rcx
	.loc 1 95 74 view .LVU49
	cmpl	1120(%rsp,%rax,4), %r9d
	jge	.L31
.LBE5:
	.loc 1 93 15 view .LVU50
	movslq	%r8d, %rax
	jmp	.L9
.LVL13:
	.p2align 4,,10
	.p2align 3
.L32:
.LBB6:
	.loc 1 95 91 view .LVU51
	movl	%esi, %edx
.LVL14:
.L9:
	.loc 1 95 101 is_stmt 1 discriminator 3 view .LVU52
	.loc 1 95 91 is_stmt 0 discriminator 3 view .LVU53
	movl	%edx, %esi
	.loc 1 95 110 discriminator 3 view .LVU54
	movl	%ecx, 80(%rsp,%rax,4)
	.loc 1 95 127 is_stmt 1 discriminator 3 view .LVU55
.LVL15:
	.loc 1 95 74 discriminator 3 view .LVU56
	.loc 1 95 91 is_stmt 0 discriminator 3 view .LVU57
	sarl	%esi
	.loc 1 95 87 discriminator 3 view .LVU58
	movslq	%esi, %rax
	movslq	80(%rsp,%rax,4), %rdi
	movslq	%edx, %rax
	movq	%rdi, %rcx
	.loc 1 95 74 discriminator 3 view .LVU59
	cmpl	%r9d, 1120(%rsp,%rdi,4)
	jg	.L32
.LVL16:
.L8:
	.loc 1 95 139 is_stmt 1 discriminator 4 view .LVU60
	.loc 1 95 148 is_stmt 0 discriminator 4 view .LVU61
	movslq	%edx, %rdx
.LBE6:
	.loc 1 91 21 discriminator 4 view .LVU62
	addq	$1, %r8
.LVL17:
.LBB7:
	.loc 1 95 148 discriminator 4 view .LVU63
	movl	%r10d, 80(%rsp,%rdx,4)
.LBE7:
	.loc 1 95 156 is_stmt 1 discriminator 4 view .LVU64
	.loc 1 91 36 discriminator 4 view .LVU65
.LVL18:
	.loc 1 91 21 discriminator 4 view .LVU66
	cmpq	%r12, %r8
	jne	.L10
.LVL19:
	.loc 1 109 156 view .LVU67
	.loc 1 100 20 view .LVU68
	movl	40(%rsp), %eax
	cmpl	$1, %eax
	je	.L11
	movslq	64(%rsp), %rbp
	movq	24(%rsp), %r12
	leal	-2(%rax), %r9d
	movl	%eax, %r8d
.LVL20:
	.p2align 4,,10
	.p2align 3
.L20:
	.loc 1 101 10 view .LVU69
	.loc 1 101 38 is_stmt 0 view .LVU70
	movl	(%r12), %r13d
	.loc 1 101 52 view .LVU71
	subl	$1, %r8d
.LVL21:
	.loc 1 101 13 view .LVU72
	movslq	84(%rsp), %r14
.LVL22:
	.loc 1 101 24 is_stmt 1 view .LVU73
	.loc 1 101 32 is_stmt 0 view .LVU74
	movl	%r13d, 84(%rsp)
	.loc 1 101 47 is_stmt 1 view .LVU75
.LVL23:
.LBB8:
	.loc 1 101 58 view .LVU76
	.loc 1 101 77 view .LVU77
	.loc 1 101 85 view .LVU78
	.loc 1 101 101 view .LVU79
	.loc 1 101 121 view .LVU80
	.loc 1 101 135 view .LVU81
	.loc 1 101 138 is_stmt 0 view .LVU82
	cmpl	$1, %r8d
	je	.L33
	.loc 1 101 231 view .LVU83
	movslq	%r13d, %rax
	.loc 1 101 124 view .LVU84
	movl	$2, %edx
	.loc 1 101 80 view .LVU85
	movl	$1, %ecx
	.loc 1 101 231 view .LVU86
	movl	1120(%rsp,%rax,4), %ebx
	jmp	.L14
.LVL24:
	.p2align 4,,10
	.p2align 3
.L64:
	.loc 1 101 173 view .LVU87
	movl	%edx, %eax
.LVL25:
.L13:
	.loc 1 101 221 is_stmt 1 discriminator 8 view .LVU88
	.loc 1 101 224 is_stmt 0 discriminator 8 view .LVU89
	cmpl	%esi, %ebx
	jl	.L12
.L65:
	.loc 1 101 264 is_stmt 1 discriminator 10 view .LVU90
	.loc 1 101 124 is_stmt 0 discriminator 10 view .LVU91
	leal	(%rax,%rax), %edx
	.loc 1 101 273 discriminator 10 view .LVU92
	movl	%edi, 80(%rsp,%rcx,4)
	.loc 1 101 285 is_stmt 1 discriminator 10 view .LVU93
.LVL26:
	.loc 1 101 107 discriminator 10 view .LVU94
	.loc 1 101 101 discriminator 10 view .LVU95
	.loc 1 101 121 discriminator 10 view .LVU96
	.loc 1 101 135 discriminator 10 view .LVU97
	movslq	%eax, %rcx
	.loc 1 101 138 is_stmt 0 discriminator 10 view .LVU98
	cmpl	%edx, %r8d
	jl	.L12
.LVL27:
.L14:
	.loc 1 101 158 is_stmt 1 discriminator 3 view .LVU99
	.loc 1 101 208 is_stmt 0 discriminator 3 view .LVU100
	movslq	%edx, %rax
	movslq	80(%rsp,%rax,4), %rax
	.loc 1 101 203 discriminator 3 view .LVU101
	movl	1120(%rsp,%rax,4), %esi
	.loc 1 101 208 discriminator 3 view .LVU102
	movq	%rax, %rdi
	movl	%edx, %eax
	.loc 1 101 161 discriminator 3 view .LVU103
	cmpl	%edx, %r8d
	jle	.L13
	.loc 1 101 190 discriminator 4 view .LVU104
	addl	$1, %eax
	.loc 1 101 187 discriminator 4 view .LVU105
	movslq	%eax, %r10
	movslq	80(%rsp,%r10,4), %r11
	movq	%r11, %r10
	.loc 1 101 182 discriminator 4 view .LVU106
	movl	1120(%rsp,%r11,4), %r11d
	.loc 1 101 173 discriminator 4 view .LVU107
	cmpl	%esi, %r11d
	jge	.L64
	movl	%r11d, %esi
	movl	%r10d, %edi
.LVL28:
	.loc 1 101 221 is_stmt 1 view .LVU108
	.loc 1 101 224 is_stmt 0 view .LVU109
	cmpl	%esi, %ebx
	jge	.L65
.LVL29:
	.p2align 4,,10
	.p2align 3
.L12:
	.loc 1 101 296 is_stmt 1 discriminator 9 view .LVU110
	.loc 1 101 305 is_stmt 0 discriminator 9 view .LVU111
	movl	%r13d, 80(%rsp,%rcx,4)
.LBE8:
	.loc 1 101 313 is_stmt 1 discriminator 9 view .LVU112
	.loc 1 102 10 discriminator 9 view .LVU113
	.loc 1 102 38 is_stmt 0 discriminator 9 view .LVU114
	movl	-4(%r12), %r15d
	.loc 1 102 13 discriminator 9 view .LVU115
	movslq	84(%rsp), %r13
.LVL30:
	.loc 1 102 24 is_stmt 1 discriminator 9 view .LVU116
	.loc 1 102 32 is_stmt 0 discriminator 9 view .LVU117
	movl	%r15d, 84(%rsp)
.LVL31:
	.loc 1 102 47 is_stmt 1 discriminator 9 view .LVU118
.LBB9:
	.loc 1 102 58 discriminator 9 view .LVU119
	.loc 1 102 77 discriminator 9 view .LVU120
	.loc 1 102 85 discriminator 9 view .LVU121
	.loc 1 102 101 discriminator 9 view .LVU122
	.loc 1 102 121 discriminator 9 view .LVU123
	.loc 1 102 135 discriminator 9 view .LVU124
	.loc 1 102 138 is_stmt 0 discriminator 9 view .LVU125
	cmpl	$1, %r9d
	jle	.L37
	.loc 1 102 231 view .LVU126
	movslq	%r15d, %rax
	.loc 1 102 124 view .LVU127
	movl	$2, %edx
	.loc 1 102 80 view .LVU128
	movl	$1, %ecx
	.loc 1 102 231 view .LVU129
	movl	1120(%rsp,%rax,4), %ebx
	jmp	.L17
.LVL32:
	.p2align 4,,10
	.p2align 3
.L66:
	.loc 1 102 173 view .LVU130
	movl	%edx, %eax
.LVL33:
.L16:
	.loc 1 102 221 is_stmt 1 discriminator 8 view .LVU131
	.loc 1 102 224 is_stmt 0 discriminator 8 view .LVU132
	cmpl	%esi, %ebx
	jl	.L15
.L67:
	.loc 1 102 264 is_stmt 1 discriminator 10 view .LVU133
	.loc 1 102 124 is_stmt 0 discriminator 10 view .LVU134
	leal	(%rax,%rax), %edx
	.loc 1 102 273 discriminator 10 view .LVU135
	movl	%edi, 80(%rsp,%rcx,4)
	.loc 1 102 285 is_stmt 1 discriminator 10 view .LVU136
.LVL34:
	.loc 1 102 107 discriminator 10 view .LVU137
	.loc 1 102 101 discriminator 10 view .LVU138
	.loc 1 102 121 discriminator 10 view .LVU139
	.loc 1 102 135 discriminator 10 view .LVU140
	movslq	%eax, %rcx
	.loc 1 102 138 is_stmt 0 discriminator 10 view .LVU141
	cmpl	%r9d, %edx
	jg	.L15
.LVL35:
.L17:
	.loc 1 102 158 is_stmt 1 discriminator 3 view .LVU142
	.loc 1 102 208 is_stmt 0 discriminator 3 view .LVU143
	movslq	%edx, %rax
	movslq	80(%rsp,%rax,4), %rax
	.loc 1 102 203 discriminator 3 view .LVU144
	movl	1120(%rsp,%rax,4), %esi
	.loc 1 102 208 discriminator 3 view .LVU145
	movq	%rax, %rdi
	movl	%edx, %eax
	.loc 1 102 161 discriminator 3 view .LVU146
	cmpl	%edx, %r9d
	jle	.L16
	.loc 1 102 190 discriminator 4 view .LVU147
	addl	$1, %eax
	.loc 1 102 187 discriminator 4 view .LVU148
	movslq	%eax, %r10
	movslq	80(%rsp,%r10,4), %r11
	movq	%r11, %r10
	.loc 1 102 182 discriminator 4 view .LVU149
	movl	1120(%rsp,%r11,4), %r11d
	.loc 1 102 173 discriminator 4 view .LVU150
	cmpl	%esi, %r11d
	jge	.L66
	movl	%r11d, %esi
	movl	%r10d, %edi
.LVL36:
	.loc 1 102 221 is_stmt 1 view .LVU151
	.loc 1 102 224 is_stmt 0 view .LVU152
	cmpl	%esi, %ebx
	jge	.L67
.LVL37:
	.p2align 4,,10
	.p2align 3
.L15:
	.loc 1 102 296 is_stmt 1 discriminator 9 view .LVU153
.LBE9:
	.loc 1 105 36 is_stmt 0 discriminator 9 view .LVU154
	movl	1120(%rsp,%r14,4), %eax
.LBB10:
	.loc 1 102 305 discriminator 9 view .LVU155
	movl	%r15d, 80(%rsp,%rcx,4)
.LBE10:
	.loc 1 102 313 is_stmt 1 discriminator 9 view .LVU156
	.loc 1 103 10 discriminator 9 view .LVU157
	.loc 1 103 16 is_stmt 0 discriminator 9 view .LVU158
	movl	%ebp, %edi
.LVL38:
	.loc 1 104 10 is_stmt 1 discriminator 9 view .LVU159
	.loc 1 105 64 is_stmt 0 discriminator 9 view .LVU160
	movl	1120(%rsp,%r13,4), %edx
	.loc 1 104 34 discriminator 9 view .LVU161
	movl	%ebp, 3184(%rsp,%r13,4)
	.loc 1 105 108 discriminator 9 view .LVU162
	movzbl	%al, %ecx
	.loc 1 104 21 discriminator 9 view .LVU163
	movl	%ebp, 3184(%rsp,%r14,4)
	.loc 1 105 10 is_stmt 1 discriminator 9 view .LVU164
	.loc 1 105 140 is_stmt 0 discriminator 9 view .LVU165
	movzbl	%dl, %r10d
	.loc 1 108 22 discriminator 9 view .LVU166
	movl	%ebp, -4(%r12)
	.loc 1 105 187 discriminator 9 view .LVU167
	cmpl	%ecx, %r10d
	cmovl	%ecx, %r10d
	.loc 1 105 70 discriminator 9 view .LVU168
	xorb	%dl, %dl
	.loc 1 105 42 discriminator 9 view .LVU169
	xorb	%al, %al
	.loc 1 105 55 discriminator 9 view .LVU170
	addl	%edx, %eax
.LBB11:
	.loc 1 109 91 discriminator 9 view .LVU171
	movl	%r8d, %edx
.LBE11:
	.loc 1 105 90 discriminator 9 view .LVU172
	addl	$1, %r10d
.LBB12:
	.loc 1 109 91 discriminator 9 view .LVU173
	sarl	%edx
.LBE12:
	.loc 1 105 85 discriminator 9 view .LVU174
	orl	%eax, %r10d
	.loc 1 105 25 discriminator 9 view .LVU175
	movq	16(%rsp), %rax
	movl	%r10d, (%rax,%rbp,4)
	.loc 1 106 10 is_stmt 1 discriminator 9 view .LVU176
	.loc 1 106 25 is_stmt 0 discriminator 9 view .LVU177
	movq	8(%rsp), %rax
	movl	$-1, (%rax,%rbp,4)
	.loc 1 107 10 is_stmt 1 discriminator 9 view .LVU178
.LVL39:
	.loc 1 108 10 discriminator 9 view .LVU179
.LBB13:
	.loc 1 109 12 discriminator 9 view .LVU180
	.loc 1 109 27 discriminator 9 view .LVU181
	.loc 1 109 39 discriminator 9 view .LVU182
	.loc 1 109 55 discriminator 9 view .LVU183
	.loc 1 109 74 discriminator 9 view .LVU184
	.loc 1 109 87 is_stmt 0 discriminator 9 view .LVU185
	movslq	%edx, %rax
	movslq	80(%rsp,%rax,4), %rax
	movq	%rax, %rcx
	.loc 1 109 74 discriminator 9 view .LVU186
	cmpl	1120(%rsp,%rax,4), %r10d
	jge	.L41
	.loc 1 109 74 discriminator 9 view .LVU187
.LBE13:
	.loc 1 101 52 view .LVU188
	movslq	%r8d, %rax
	jmp	.L19
.LVL40:
	.p2align 4,,10
	.p2align 3
.L42:
.LBB14:
	.loc 1 109 91 view .LVU189
	movl	%esi, %edx
.LVL41:
.L19:
	.loc 1 109 101 is_stmt 1 discriminator 3 view .LVU190
	.loc 1 109 91 is_stmt 0 discriminator 3 view .LVU191
	movl	%edx, %esi
	.loc 1 109 110 discriminator 3 view .LVU192
	movl	%ecx, 80(%rsp,%rax,4)
	.loc 1 109 127 is_stmt 1 discriminator 3 view .LVU193
.LVL42:
	.loc 1 109 74 discriminator 3 view .LVU194
	.loc 1 109 91 is_stmt 0 discriminator 3 view .LVU195
	sarl	%esi
	.loc 1 109 87 discriminator 3 view .LVU196
	movslq	%esi, %rax
	movslq	80(%rsp,%rax,4), %r11
	movslq	%edx, %rax
	movq	%r11, %rcx
	.loc 1 109 74 discriminator 3 view .LVU197
	cmpl	1120(%rsp,%r11,4), %r10d
	jl	.L42
.L18:
	.loc 1 109 139 is_stmt 1 discriminator 4 view .LVU198
	.loc 1 109 148 is_stmt 0 discriminator 4 view .LVU199
	movslq	%edx, %rdx
	.loc 1 109 148 discriminator 4 view .LVU200
.LBE14:
	.loc 1 100 20 discriminator 4 view .LVU201
	addq	$1, %rbp
	subq	$4, %r12
	subl	$1, %r9d
.LBB15:
	.loc 1 109 148 discriminator 4 view .LVU202
	movl	%edi, 80(%rsp,%rdx,4)
	.loc 1 109 148 discriminator 4 view .LVU203
.LBE15:
	.loc 1 109 156 is_stmt 1 discriminator 4 view .LVU204
	.loc 1 100 20 discriminator 4 view .LVU205
	cmpl	$1, %r8d
	jne	.L20
	.loc 1 112 9 view .LVU206
	.loc 1 112 12 is_stmt 0 view .LVU207
	cmpl	$515, 68(%rsp)
	jle	.L11
	.loc 1 112 36 is_stmt 1 view .LVU208
	movl	$2002, %edi
.LVL43:
	.loc 1 112 36 is_stmt 0 view .LVU209
	call	BZ2_bz__AssertH__fail@PLT
.LVL44:
	.loc 1 115 21 is_stmt 1 view .LVU210
.L11:
	.loc 1 115 21 is_stmt 0 view .LVU211
	movq	32(%rsp), %r8
	movl	40(%rsp), %r9d
	.loc 1 120 34 view .LVU212
	movl	$1, %ecx
	xorl	%esi, %esi
	movl	44(%rsp), %r10d
	movq	8(%rsp), %r11
	movl	$1, %edi
	.p2align 4,,10
	.p2align 3
.L22:
.LVL45:
	.loc 1 118 27 is_stmt 1 view .LVU213
	.loc 1 118 23 is_stmt 0 view .LVU214
	movslq	(%r11,%rcx,4), %rax
	.loc 1 116 12 view .LVU215
	xorl	%edx, %edx
	.loc 1 118 27 view .LVU216
	testl	%eax, %eax
	js	.L68
.LVL46:
	.p2align 4,,10
	.p2align 3
.L23:
	.loc 1 118 35 is_stmt 1 discriminator 2 view .LVU217
	.loc 1 118 50 discriminator 2 view .LVU218
	.loc 1 118 23 is_stmt 0 discriminator 2 view .LVU219
	movslq	3184(%rsp,%rax,4), %rax
.LVL47:
	.loc 1 118 51 discriminator 2 view .LVU220
	addl	$1, %edx
.LVL48:
	.loc 1 118 27 is_stmt 1 discriminator 2 view .LVU221
	testl	%eax, %eax
	jns	.L23
	.loc 1 119 19 is_stmt 0 view .LVU222
	movl	%edx, %eax
.LVL49:
.L26:
	.loc 1 119 10 is_stmt 1 view .LVU223
	.loc 1 120 34 is_stmt 0 view .LVU224
	cmpl	%edx, %r10d
	.loc 1 119 19 view .LVU225
	movb	%al, -1(%r8,%rcx)
	.loc 1 120 10 is_stmt 1 view .LVU226
	.loc 1 120 34 is_stmt 0 view .LVU227
	cmovl	%edi, %esi
.LVL50:
	.loc 1 115 36 is_stmt 1 view .LVU228
	.loc 1 115 21 view .LVU229
	addq	$1, %rcx
.LVL51:
	.loc 1 115 21 is_stmt 0 view .LVU230
	cmpl	%ecx, %r9d
	jge	.L22
	.loc 1 123 7 is_stmt 1 view .LVU231
	.loc 1 123 10 is_stmt 0 view .LVU232
	testb	%sil, %sil
	je	.L1
.LVL52:
	.loc 1 142 21 is_stmt 1 view .LVU233
	movq	72(%rsp), %rsi
.LVL53:
	.loc 1 142 21 is_stmt 0 view .LVU234
	leaq	1124(%rsp), %rdx
.LVL54:
	.p2align 4,,10
	.p2align 3
.L27:
	.loc 1 143 10 is_stmt 1 discriminator 3 view .LVU235
	.loc 1 144 10 discriminator 3 view .LVU236
	.loc 1 143 12 is_stmt 0 discriminator 3 view .LVU237
	movl	(%rdx), %eax
	.loc 1 142 21 discriminator 3 view .LVU238
	addq	$4, %rdx
.LVL55:
	.loc 1 143 12 discriminator 3 view .LVU239
	movl	%eax, %ecx
	.loc 1 144 21 discriminator 3 view .LVU240
	shrl	$31, %eax
.LVL56:
	.loc 1 143 12 discriminator 3 view .LVU241
	sarl	$8, %ecx
.LVL57:
	.loc 1 144 21 discriminator 3 view .LVU242
	addl	%ecx, %eax
	sarl	%eax
.LVL58:
	.loc 1 145 10 is_stmt 1 discriminator 3 view .LVU243
	.loc 1 144 12 is_stmt 0 discriminator 3 view .LVU244
	addl	$1, %eax
.LVL59:
	.loc 1 145 24 discriminator 3 view .LVU245
	sall	$8, %eax
.LVL60:
	.loc 1 145 24 discriminator 3 view .LVU246
	movl	%eax, -4(%rdx)
.LVL61:
	.loc 1 142 36 is_stmt 1 discriminator 3 view .LVU247
	.loc 1 142 21 discriminator 3 view .LVU248
	cmpq	%rdx, %rsi
	jne	.L27
	jmp	.L3
.LVL62:
	.p2align 4,,10
	.p2align 3
.L68:
	.loc 1 118 27 is_stmt 0 view .LVU249
	xorl	%eax, %eax
	jmp	.L26
.LVL63:
	.p2align 4,,10
	.p2align 3
.L41:
	.loc 1 101 52 view .LVU250
	movl	%r8d, %edx
	jmp	.L18
.LVL64:
	.p2align 4,,10
	.p2align 3
.L31:
	.loc 1 93 15 view .LVU251
	movl	%r8d, %edx
	jmp	.L8
.LVL65:
.L33:
.LBB16:
	.loc 1 101 80 view .LVU252
	movl	$1, %ecx
	jmp	.L12
.LVL66:
.L37:
	.loc 1 101 80 view .LVU253
.LBE16:
.LBB17:
	.loc 1 102 80 view .LVU254
	movl	$1, %ecx
	jmp	.L15
.LVL67:
.L1:
	.loc 1 102 80 view .LVU255
.LBE17:
	.loc 1 148 1 view .LVU256
	movq	5256(%rsp), %rax
	subq	%fs:40, %rax
	jne	.L69
	addq	$5272, %rsp
	.cfi_remember_state
	.cfi_def_cfa_offset 56
	popq	%rbx
	.cfi_def_cfa_offset 48
	popq	%rbp
	.cfi_def_cfa_offset 40
	popq	%r12
	.cfi_def_cfa_offset 32
	popq	%r13
	.cfi_def_cfa_offset 24
	popq	%r14
	.cfi_def_cfa_offset 16
	popq	%r15
	.cfi_def_cfa_offset 8
	ret
.L69:
	.cfi_restore_state
	call	__stack_chk_fail@PLT
.LVL68:
	.cfi_endproc
.LFE53:
	.size	BZ2_hbMakeCodeLengths, .-BZ2_hbMakeCodeLengths
	.p2align 4
	.globl	BZ2_hbAssignCodes
	.type	BZ2_hbAssignCodes, @function
BZ2_hbAssignCodes:
.LVL69:
.LFB54:
	.loc 1 157 1 is_stmt 1 view -0
	.cfi_startproc
	.loc 1 157 1 is_stmt 0 view .LVU258
	endbr64
	.loc 1 158 4 is_stmt 1 view .LVU259
	.loc 1 160 4 view .LVU260
.LVL70:
	.loc 1 161 4 view .LVU261
	.loc 1 161 23 view .LVU262
	.loc 1 157 1 is_stmt 0 view .LVU263
	movq	%rdi, %r10
	movq	%rsi, %rdi
.LVL71:
	.loc 1 161 23 view .LVU264
	cmpl	%ecx, %edx
	jg	.L70
	leal	1(%rcx), %r11d
	.loc 1 160 8 view .LVU265
	xorl	%esi, %esi
.LVL72:
	.loc 1 160 8 view .LVU266
	movslq	%r8d, %r9
.LVL73:
	.p2align 4,,10
	.p2align 3
.L72:
	.loc 1 162 21 is_stmt 1 view .LVU267
	xorl	%eax, %eax
	testl	%r8d, %r8d
	jle	.L76
.LVL74:
	.p2align 4,,10
	.p2align 3
.L74:
	.loc 1 163 10 view .LVU268
	.loc 1 163 20 is_stmt 0 view .LVU269
	movzbl	(%rdi,%rax), %ecx
	.loc 1 163 13 view .LVU270
	cmpl	%edx, %ecx
	jne	.L73
	.loc 1 163 32 is_stmt 1 discriminator 1 view .LVU271
	.loc 1 163 40 is_stmt 0 discriminator 1 view .LVU272
	movl	%esi, (%r10,%rax,4)
	.loc 1 163 47 is_stmt 1 discriminator 1 view .LVU273
	.loc 1 163 50 is_stmt 0 discriminator 1 view .LVU274
	addl	$1, %esi
.LVL75:
.L73:
	.loc 1 162 35 is_stmt 1 discriminator 2 view .LVU275
	.loc 1 162 21 discriminator 2 view .LVU276
	addq	$1, %rax
.LVL76:
	.loc 1 162 21 is_stmt 0 discriminator 2 view .LVU277
	cmpq	%rax, %r9
	jne	.L74
.L76:
	.loc 1 163 55 is_stmt 1 discriminator 2 view .LVU278
	.loc 1 164 7 discriminator 2 view .LVU279
	.loc 1 161 35 is_stmt 0 discriminator 2 view .LVU280
	addl	$1, %edx
.LVL77:
	.loc 1 164 11 discriminator 2 view .LVU281
	addl	%esi, %esi
.LVL78:
	.loc 1 161 35 is_stmt 1 discriminator 2 view .LVU282
	.loc 1 161 23 discriminator 2 view .LVU283
	cmpl	%r11d, %edx
	jne	.L72
.LVL79:
.L70:
	.loc 1 166 1 is_stmt 0 view .LVU284
	ret
	.cfi_endproc
.LFE54:
	.size	BZ2_hbAssignCodes, .-BZ2_hbAssignCodes
	.p2align 4
	.globl	BZ2_hbCreateDecodeTables
	.type	BZ2_hbCreateDecodeTables, @function
BZ2_hbCreateDecodeTables:
.LVL80:
.LFB55:
	.loc 1 177 1 is_stmt 1 view -0
	.cfi_startproc
	.loc 1 177 1 is_stmt 0 view .LVU286
	endbr64
	pushq	%r13
	.cfi_def_cfa_offset 16
	.cfi_offset 13, -16
	movq	%rsi, %r11
	.loc 1 178 4 is_stmt 1 view .LVU287
	.loc 1 180 4 view .LVU288
.LVL81:
	.loc 1 181 4 view .LVU289
	.loc 1 181 23 view .LVU290
	.loc 1 177 1 is_stmt 0 view .LVU291
	movq	%rdi, %r10
	movq	%rcx, %rsi
.LVL82:
	.loc 1 177 1 view .LVU292
	pushq	%r12
	.cfi_def_cfa_offset 24
	.cfi_offset 12, -24
	pushq	%rbp
	.cfi_def_cfa_offset 32
	.cfi_offset 6, -32
	pushq	%rbx
	.cfi_def_cfa_offset 40
	.cfi_offset 3, -40
	.loc 1 177 1 view .LVU293
	movl	%r8d, %ebx
	movl	40(%rsp), %ebp
	.loc 1 181 23 view .LVU294
	cmpl	%r9d, %r8d
	jg	.L80
	movl	%r8d, %ecx
.LVL83:
	.loc 1 181 23 view .LVU295
	movq	%rdx, %r12
	leal	1(%r9), %r13d
	.loc 1 180 7 view .LVU296
	xorl	%edi, %edi
.LVL84:
	.loc 1 180 7 view .LVU297
	movslq	%ebp, %r8
.LVL85:
	.p2align 4,,10
	.p2align 3
.L81:
	.loc 1 182 21 is_stmt 1 view .LVU298
	xorl	%eax, %eax
	testl	%ebp, %ebp
	jle	.L85
.LVL86:
	.p2align 4,,10
	.p2align 3
.L83:
	.loc 1 183 10 view .LVU299
	.loc 1 183 20 is_stmt 0 view .LVU300
	movzbl	(%rsi,%rax), %edx
	.loc 1 183 13 view .LVU301
	cmpl	%ecx, %edx
	jne	.L82
	.loc 1 183 32 is_stmt 1 discriminator 1 view .LVU302
	.loc 1 183 36 is_stmt 0 discriminator 1 view .LVU303
	movslq	%edi, %rdx
	.loc 1 183 48 discriminator 1 view .LVU304
	addl	$1, %edi
.LVL87:
	.loc 1 183 41 discriminator 1 view .LVU305
	movl	%eax, (%r12,%rdx,4)
	.loc 1 183 46 is_stmt 1 discriminator 1 view .LVU306
.LVL88:
.L82:
	.loc 1 182 35 discriminator 2 view .LVU307
	.loc 1 182 21 discriminator 2 view .LVU308
	addq	$1, %rax
.LVL89:
	.loc 1 182 21 is_stmt 0 discriminator 2 view .LVU309
	cmpq	%rax, %r8
	jne	.L83
.L85:
	.loc 1 181 35 is_stmt 1 discriminator 2 view .LVU310
	addl	$1, %ecx
.LVL90:
	.loc 1 181 23 discriminator 2 view .LVU311
	cmpl	%r13d, %ecx
	jne	.L81
.LVL91:
.L80:
	.loc 1 185 37 is_stmt 0 view .LVU312
	leaq	8(%r11), %rdi
	movq	%r11, %rcx
	xorl	%eax, %eax
	movq	$0, (%r11)
	andq	$-8, %rdi
	movq	$0, 84(%r11)
	subq	%rdi, %rcx
	addl	$92, %ecx
	shrl	$3, %ecx
	rep stosq
.LVL92:
	.loc 1 186 18 is_stmt 1 view .LVU313
	testl	%ebp, %ebp
	jle	.L86
	.loc 1 186 18 is_stmt 0 view .LVU314
	leal	-1(%rbp), %eax
	leaq	1(%rsi,%rax), %rdx
.LVL93:
	.p2align 4,,10
	.p2align 3
.L87:
	.loc 1 186 36 is_stmt 1 discriminator 3 view .LVU315
	.loc 1 186 40 is_stmt 0 discriminator 3 view .LVU316
	movzbl	(%rsi), %eax
	.loc 1 186 18 discriminator 3 view .LVU317
	addq	$1, %rsi
.LVL94:
	.loc 1 186 53 discriminator 3 view .LVU318
	addl	$1, 4(%r11,%rax,4)
	.loc 1 186 32 is_stmt 1 discriminator 3 view .LVU319
	.loc 1 186 18 discriminator 3 view .LVU320
	cmpq	%rsi, %rdx
	jne	.L87
.L86:
	.loc 1 186 18 is_stmt 0 discriminator 3 view .LVU321
	leaq	4(%r11), %rax
	leaq	92(%r11), %rcx
	.p2align 4,,10
	.p2align 3
.L88:
.LVL95:
	.loc 1 188 29 is_stmt 1 discriminator 3 view .LVU322
	.loc 1 188 37 is_stmt 0 discriminator 3 view .LVU323
	movl	-4(%rax), %edx
	addl	%edx, (%rax)
	.loc 1 188 25 is_stmt 1 discriminator 3 view .LVU324
.LVL96:
	.loc 1 188 18 discriminator 3 view .LVU325
	addq	$4, %rax
.LVL97:
	.loc 1 188 18 is_stmt 0 discriminator 3 view .LVU326
	cmpq	%rax, %rcx
	jne	.L88
	.loc 1 190 38 view .LVU327
	leaq	8(%r10), %rdi
	movq	%r10, %rcx
	xorl	%eax, %eax
.LVL98:
	.loc 1 190 38 view .LVU328
	movq	$0, (%r10)
	andq	$-8, %rdi
	movq	$0, 84(%r10)
	subq	%rdi, %rcx
	addl	$92, %ecx
	shrl	$3, %ecx
	rep stosq
.LVL99:
	.loc 1 193 23 is_stmt 1 view .LVU329
	cmpl	%r9d, %ebx
	jg	.L89
	movslq	%ebx, %rdx
.LVL100:
	.p2align 4,,10
	.p2align 3
.L90:
	.loc 1 194 7 discriminator 3 view .LVU330
	.loc 1 194 25 is_stmt 0 discriminator 3 view .LVU331
	addl	4(%r11,%rdx,4), %eax
.LVL101:
	.loc 1 194 11 discriminator 3 view .LVU332
	subl	(%r11,%rdx,4), %eax
.LVL102:
	.loc 1 195 7 is_stmt 1 discriminator 3 view .LVU333
	.loc 1 195 21 is_stmt 0 discriminator 3 view .LVU334
	leal	-1(%rax), %ecx
	.loc 1 196 11 discriminator 3 view .LVU335
	addl	%eax, %eax
.LVL103:
	.loc 1 195 21 discriminator 3 view .LVU336
	movl	%ecx, (%r10,%rdx,4)
	.loc 1 196 7 is_stmt 1 discriminator 3 view .LVU337
.LVL104:
	.loc 1 193 35 discriminator 3 view .LVU338
	.loc 1 193 23 discriminator 3 view .LVU339
	addq	$1, %rdx
.LVL105:
	.loc 1 193 23 is_stmt 0 discriminator 3 view .LVU340
	cmpl	%edx, %r9d
	jge	.L90
.LVL106:
.L89:
	.loc 1 198 4 is_stmt 1 view .LVU341
	.loc 1 198 11 is_stmt 0 view .LVU342
	leal	1(%rbx), %eax
.LVL107:
	.loc 1 198 27 is_stmt 1 view .LVU343
	cmpl	%eax, %r9d
	jl	.L79
	cltq
.LVL108:
	.p2align 4,,10
	.p2align 3
.L92:
	.loc 1 199 7 discriminator 3 view .LVU344
	.loc 1 199 30 is_stmt 0 discriminator 3 view .LVU345
	movl	-4(%r10,%rax,4), %edx
	.loc 1 199 35 discriminator 3 view .LVU346
	leal	2(%rdx,%rdx), %edx
	.loc 1 199 41 discriminator 3 view .LVU347
	subl	(%r11,%rax,4), %edx
	.loc 1 199 15 discriminator 3 view .LVU348
	movl	%edx, (%r11,%rax,4)
	.loc 1 198 39 is_stmt 1 discriminator 3 view .LVU349
.LVL109:
	.loc 1 198 27 discriminator 3 view .LVU350
	addq	$1, %rax
.LVL110:
	.loc 1 198 27 is_stmt 0 discriminator 3 view .LVU351
	cmpl	%eax, %r9d
	jge	.L92
.L79:
	.loc 1 200 1 view .LVU352
	popq	%rbx
	.cfi_def_cfa_offset 32
.LVL111:
	.loc 1 200 1 view .LVU353
	popq	%rbp
	.cfi_def_cfa_offset 24
.LVL112:
	.loc 1 200 1 view .LVU354
	popq	%r12
	.cfi_def_cfa_offset 16
	popq	%r13
	.cfi_def_cfa_offset 8
	ret
	.cfi_endproc
.LFE55:
	.size	BZ2_hbCreateDecodeTables, .-BZ2_hbCreateDecodeTables
.Letext0:
	.file 2 "bzlib_private.h"
	.section	.note.GNU-stack,"",@progbits
	.section	.note.gnu.property,"a"
	.align 8
	.long	1f - 0f
	.long	4f - 1f
	.long	5
0:
	.string	"GNU"
1:
	.align 8
	.long	0xc0000002
	.long	3f - 2f
2:
	.long	0x3
3:
	.align 8
4:
