	.section	__TEXT,__text,regular,pure_instructions
	.build_version macos, 14, 0	sdk_version 14, 2
	.file	1 "/Library/Developer/CommandLineTools/SDKs/MacOSX.sdk/usr/include/arm" "_types.h"
	.file	2 "/Library/Developer/CommandLineTools/SDKs/MacOSX.sdk/usr/include/sys" "_types.h"
	.file	3 "/Library/Developer/CommandLineTools/SDKs/MacOSX.sdk/usr/include/sys/_types" "_uid_t.h"
	.file	4 "/Users/mac/rustmap-clone/c-code/which-2.21" "bash.c"
	.file	5 "/Library/Developer/CommandLineTools/SDKs/MacOSX.sdk/usr/include/sys/_types" "_gid_t.h"
	.globl	_uidget                         ; -- Begin function uidget
	.p2align	2
_uidget:                                ; @uidget
Lfunc_begin0:
	.loc	4 83 0                          ; bash.c:83:0
	.cfi_startproc
; %bb.0:
	stp	x20, x19, [sp, #-32]!           ; 16-byte Folded Spill
	.cfi_def_cfa_offset 32
	stp	x29, x30, [sp, #16]             ; 16-byte Folded Spill
	add	x29, sp, #16
	.cfi_def_cfa w29, 16
	.cfi_offset w30, -8
	.cfi_offset w29, -16
	.cfi_offset w19, -24
	.cfi_offset w20, -32
	adrp	x8, ___llvm_gcov_ctr@PAGE
	ldr	x9, [x8, ___llvm_gcov_ctr@PAGEOFF]
	add	x9, x9, #1
	str	x9, [x8, ___llvm_gcov_ctr@PAGEOFF]
Ltmp0:
	.loc	4 86 7 prologue_end             ; bash.c:86:7
	bl	_getuid
Ltmp1:
	mov	x19, x0
Ltmp2:
	;DEBUG_VALUE: uidget:u <- $w19
	.loc	4 87 20                         ; bash.c:87:20
Lloh0:
	adrp	x8, _current_user@PAGE
Lloh1:
	ldr	w8, [x8, _current_user@PAGEOFF]
Ltmp3:
	.loc	4 87 7 is_stmt 0                ; bash.c:87:7
	cmp	w8, w0
	b.eq	LBB0_8
Ltmp4:
; %bb.1:
	;DEBUG_VALUE: uidget:u <- $w19
	.loc	4 89 29 is_stmt 1               ; bash.c:89:29
Lloh2:
	adrp	x8, _current_user@PAGE+16
Lloh3:
	ldr	x0, [x8, _current_user@PAGEOFF+16]
Ltmp5:
	.loc	4 89 16 is_stmt 0               ; bash.c:89:16
	cbz	x0, LBB0_3
Ltmp6:
; %bb.2:
	;DEBUG_VALUE: uidget:u <- $w19
	.loc	4 89 59                         ; bash.c:89:59
	adrp	x8, ___llvm_gcov_ctr@PAGE+8
	ldr	x9, [x8, ___llvm_gcov_ctr@PAGEOFF+8]
	add	x9, x9, #1
	str	x9, [x8, ___llvm_gcov_ctr@PAGEOFF+8]
	.loc	4 89 40                         ; bash.c:89:40
	bl	_free
Ltmp7:
LBB0_3:
	;DEBUG_VALUE: uidget:u <- $w19
	.loc	4 90 29 is_stmt 1               ; bash.c:90:29
Lloh4:
	adrp	x8, _current_user@PAGE+24
Lloh5:
	ldr	x0, [x8, _current_user@PAGEOFF+24]
Ltmp8:
	.loc	4 90 16 is_stmt 0               ; bash.c:90:16
	cbz	x0, LBB0_5
Ltmp9:
; %bb.4:
	;DEBUG_VALUE: uidget:u <- $w19
	.loc	4 90 55                         ; bash.c:90:55
	adrp	x8, ___llvm_gcov_ctr@PAGE+16
	ldr	x9, [x8, ___llvm_gcov_ctr@PAGEOFF+16]
	add	x9, x9, #1
	str	x9, [x8, ___llvm_gcov_ctr@PAGEOFF+16]
	.loc	4 90 36                         ; bash.c:90:36
	bl	_free
Ltmp10:
LBB0_5:
	;DEBUG_VALUE: uidget:u <- $w19
	.loc	4 91 29 is_stmt 1               ; bash.c:91:29
Lloh6:
	adrp	x8, _current_user@PAGE+32
Lloh7:
	ldr	x0, [x8, _current_user@PAGEOFF+32]
Ltmp11:
	.loc	4 91 16 is_stmt 0               ; bash.c:91:16
	cbz	x0, LBB0_7
Ltmp12:
; %bb.6:
	;DEBUG_VALUE: uidget:u <- $w19
	.loc	4 91 58                         ; bash.c:91:58
	adrp	x8, ___llvm_gcov_ctr@PAGE+24
	ldr	x9, [x8, ___llvm_gcov_ctr@PAGEOFF+24]
	add	x9, x9, #1
	str	x9, [x8, ___llvm_gcov_ctr@PAGEOFF+24]
	.loc	4 91 39                         ; bash.c:91:39
	bl	_free
Ltmp13:
LBB0_7:
	;DEBUG_VALUE: uidget:u <- $w19
	.loc	4 92 75 is_stmt 1               ; bash.c:92:75
Lloh8:
	adrp	x8, ___llvm_gcov_ctr@PAGE+32
	ldr	x9, [x8, ___llvm_gcov_ctr@PAGEOFF+32]
	add	x9, x9, #1
	str	x9, [x8, ___llvm_gcov_ctr@PAGEOFF+32]
	.loc	4 92 51 is_stmt 0               ; bash.c:92:51
Lloh9:
	adrp	x8, _current_user@PAGE+16
Lloh10:
	add	x8, x8, _current_user@PAGEOFF+16
	stp	xzr, xzr, [x8, #8]
	str	xzr, [x8]
Ltmp14:
LBB0_8:
	;DEBUG_VALUE: uidget:u <- $w19
	.loc	4 94 20 is_stmt 1               ; bash.c:94:20
Lloh11:
	adrp	x20, _current_user@PAGE
Lloh12:
	add	x20, x20, _current_user@PAGEOFF
	str	w19, [x20]
	.loc	4 95 22                         ; bash.c:95:22
	bl	_getgid
Ltmp15:
	.loc	4 95 20 is_stmt 0               ; bash.c:95:20
	str	w0, [x20, #8]
	.loc	4 96 23 is_stmt 1               ; bash.c:96:23
	bl	_geteuid
Ltmp16:
	.loc	4 96 21 is_stmt 0               ; bash.c:96:21
	str	w0, [x20, #4]
	.loc	4 97 23 is_stmt 1               ; bash.c:97:23
	bl	_getegid
Ltmp17:
	.loc	4 97 21 is_stmt 0               ; bash.c:97:21
	str	w0, [x20, #12]
	.loc	4 100 24 is_stmt 1              ; bash.c:100:24
	ldp	w8, w9, [x20]
	.loc	4 100 50 is_stmt 0              ; bash.c:100:50
	cmp	w8, w9
	b.ne	LBB0_10
Ltmp18:
; %bb.9:
	;DEBUG_VALUE: uidget:u <- $w19
	.loc	4 101 26 is_stmt 1              ; bash.c:101:26
Lloh13:
	adrp	x8, ___llvm_gcov_ctr@PAGE+40
	ldr	x9, [x8, ___llvm_gcov_ctr@PAGEOFF+40]
	add	x9, x9, #1
	str	x9, [x8, ___llvm_gcov_ctr@PAGEOFF+40]
Lloh14:
	adrp	x8, _current_user@PAGE+8
Lloh15:
	ldr	w8, [x8, _current_user@PAGEOFF+8]
	.loc	4 101 30 is_stmt 0              ; bash.c:101:30
	cmp	w8, w0
	cset	w0, ne
	b	LBB0_11
Ltmp19:
LBB0_10:
	;DEBUG_VALUE: uidget:u <- $w19
	.loc	4 0 30                          ; bash.c:0:30
	mov	w0, #1
Ltmp20:
LBB0_11:
	;DEBUG_VALUE: uidget:u <- $w19
	.loc	4 100 3 is_stmt 1               ; bash.c:100:3
	ldp	x29, x30, [sp, #16]             ; 16-byte Folded Reload
	ldp	x20, x19, [sp], #32             ; 16-byte Folded Reload
Ltmp21:
	ret
Ltmp22:
	.loh AdrpLdr	Lloh0, Lloh1
	.loh AdrpLdr	Lloh2, Lloh3
	.loh AdrpLdr	Lloh4, Lloh5
	.loh AdrpLdr	Lloh6, Lloh7
	.loh AdrpAdd	Lloh9, Lloh10
	.loh AdrpAdrp	Lloh8, Lloh9
	.loh AdrpAdd	Lloh11, Lloh12
	.loh AdrpLdr	Lloh14, Lloh15
	.loh AdrpAdrp	Lloh13, Lloh14
Lfunc_end0:
	.cfi_endproc
	.file	6 "/Library/Developer/CommandLineTools/SDKs/MacOSX.sdk/usr/include" "unistd.h"
                                        ; -- End function
	.globl	_getmaxgroups                   ; -- Begin function getmaxgroups
	.p2align	2
_getmaxgroups:                          ; @getmaxgroups
Lfunc_begin1:
	.loc	4 122 0                         ; bash.c:122:0
	.cfi_startproc
; %bb.0:
	stp	x20, x19, [sp, #-32]!           ; 16-byte Folded Spill
	.cfi_def_cfa_offset 32
	stp	x29, x30, [sp, #16]             ; 16-byte Folded Spill
	add	x29, sp, #16
	.cfi_def_cfa w29, 16
	.cfi_offset w30, -8
	.cfi_offset w29, -16
	.cfi_offset w19, -24
	.cfi_offset w20, -32
Ltmp23:
	.loc	4 125 7 prologue_end            ; bash.c:125:7
	adrp	x19, _getmaxgroups.maxgroups@PAGE
	ldr	w0, [x19, _getmaxgroups.maxgroups@PAGEOFF]
Ltmp24:
	.loc	4 125 7 is_stmt 0               ; bash.c:125:7
	cmp	w0, #1
	b.lt	LBB1_2
; %bb.1:
Ltmp25:
	.loc	4 126 12 is_stmt 1              ; bash.c:126:12
	adrp	x8, ___llvm_gcov_ctr.1@PAGE
	ldr	x9, [x8, ___llvm_gcov_ctr.1@PAGEOFF]
	add	x9, x9, #1
	str	x9, [x8, ___llvm_gcov_ctr.1@PAGEOFF]
	b	LBB1_4
Ltmp26:
LBB1_2:
	.loc	4 129 15                        ; bash.c:129:15
	adrp	x8, ___llvm_gcov_ctr.1@PAGE+8
	ldr	x9, [x8, ___llvm_gcov_ctr.1@PAGEOFF+8]
	add	x9, x9, #1
	str	x9, [x8, ___llvm_gcov_ctr.1@PAGEOFF+8]
	mov	w0, #4
	bl	_sysconf
Ltmp27:
	.loc	4 129 13 is_stmt 0              ; bash.c:129:13
	str	w0, [x19, _getmaxgroups.maxgroups@PAGEOFF]
	.loc	4 142 7 is_stmt 1               ; bash.c:142:7
	cmp	w0, #0
	b.gt	LBB1_4
; %bb.3:
Ltmp28:
	.loc	4 143 15                        ; bash.c:143:15
	adrp	x8, ___llvm_gcov_ctr.1@PAGE+16
	ldr	x9, [x8, ___llvm_gcov_ctr.1@PAGEOFF+16]
	add	x9, x9, #1
	str	x9, [x8, ___llvm_gcov_ctr.1@PAGEOFF+16]
	mov	w0, #64
	str	w0, [x19, _getmaxgroups.maxgroups@PAGEOFF]
Ltmp29:
LBB1_4:
                                        ; kill: def $w0 killed $w0 killed $x0
	.loc	4 146 1                         ; bash.c:146:1
	ldp	x29, x30, [sp, #16]             ; 16-byte Folded Reload
	ldp	x20, x19, [sp], #32             ; 16-byte Folded Reload
	ret
Ltmp30:
Lfunc_end1:
	.cfi_endproc
                                        ; -- End function
	.globl	_group_member                   ; -- Begin function group_member
	.p2align	2
_group_member:                          ; @group_member
Lfunc_begin2:
	.loc	4 210 0                         ; bash.c:210:0
	.cfi_startproc
; %bb.0:
	;DEBUG_VALUE: group_member:gid <- $w0
	;DEBUG_VALUE: group_member:gid <- $w0
	stp	x24, x23, [sp, #-64]!           ; 16-byte Folded Spill
	.cfi_def_cfa_offset 64
	stp	x22, x21, [sp, #16]             ; 16-byte Folded Spill
	stp	x20, x19, [sp, #32]             ; 16-byte Folded Spill
	stp	x29, x30, [sp, #48]             ; 16-byte Folded Spill
	add	x29, sp, #48
	.cfi_def_cfa w29, 16
	.cfi_offset w30, -8
	.cfi_offset w29, -16
	.cfi_offset w19, -24
	.cfi_offset w20, -32
	.cfi_offset w21, -40
	.cfi_offset w22, -48
	.cfi_offset w23, -56
	.cfi_offset w24, -64
Ltmp31:
	.loc	4 216 27 prologue_end           ; bash.c:216:27
	adrp	x20, _current_user@PAGE+8
	ldr	w8, [x20, _current_user@PAGEOFF+8]
	.loc	4 216 31 is_stmt 0              ; bash.c:216:31
	cmp	w8, w0
	b.eq	LBB2_2
Ltmp32:
; %bb.1:
	;DEBUG_VALUE: group_member:gid <- $w0
	.loc	4 0 31                          ; bash.c:0:31
	mov	x19, x0
Ltmp33:
	;DEBUG_VALUE: group_member:gid <- $w19
	.loc	4 216 34                        ; bash.c:216:34
Lloh16:
	adrp	x8, ___llvm_gcov_ctr.2@PAGE
	ldr	x9, [x8, ___llvm_gcov_ctr.2@PAGEOFF]
	add	x9, x9, #1
	str	x9, [x8, ___llvm_gcov_ctr.2@PAGEOFF]
	.loc	4 216 54                        ; bash.c:216:54
Lloh17:
	adrp	x8, _current_user@PAGE+12
Lloh18:
	ldr	w8, [x8, _current_user@PAGEOFF+12]
Ltmp34:
	.loc	4 216 7                         ; bash.c:216:7
	cmp	w8, w0
	b.ne	LBB2_5
Ltmp35:
LBB2_2:
	.loc	4 217 5 is_stmt 1               ; bash.c:217:5
	adrp	x8, ___llvm_gcov_ctr.2@PAGE+8
	ldr	x9, [x8, ___llvm_gcov_ctr.2@PAGEOFF+8]
	add	x9, x9, #1
	str	x9, [x8, ___llvm_gcov_ctr.2@PAGEOFF+8]
Ltmp36:
LBB2_3:
	.loc	4 0 5 is_stmt 0                 ; bash.c:0:5
	mov	w0, #1
LBB2_4:
	.loc	4 234 1 is_stmt 1               ; bash.c:234:1
	ldp	x29, x30, [sp, #48]             ; 16-byte Folded Reload
	ldp	x20, x19, [sp, #32]             ; 16-byte Folded Reload
	ldp	x22, x21, [sp, #16]             ; 16-byte Folded Reload
	ldp	x24, x23, [sp], #64             ; 16-byte Folded Reload
	ret
LBB2_5:
Ltmp37:
	;DEBUG_VALUE: group_member:gid <- $w19
	.loc	4 220 7                         ; bash.c:220:7
	adrp	x21, _ngroups@PAGE
	ldr	w0, [x21, _ngroups@PAGEOFF]
Ltmp38:
	.loc	4 220 7 is_stmt 0               ; bash.c:220:7
	cbnz	w0, LBB2_35
Ltmp39:
; %bb.6:
	;DEBUG_VALUE: group_member:gid <- $w19
	.loc	4 221 5 is_stmt 1               ; bash.c:221:5
	adrp	x8, ___llvm_gcov_ctr.2@PAGE+16
	ldr	x9, [x8, ___llvm_gcov_ctr.2@PAGEOFF+16]
	add	x9, x9, #1
	str	x9, [x8, ___llvm_gcov_ctr.2@PAGEOFF+16]
Ltmp40:
	.loc	4 154 7                         ; bash.c:154:7
	adrp	x23, _maxgroups@PAGE
	ldr	w8, [x23, _maxgroups@PAGEOFF]
Ltmp41:
	.loc	4 154 7 is_stmt 0               ; bash.c:154:7
	cbnz	w8, LBB2_12
Ltmp42:
; %bb.7:
	;DEBUG_VALUE: group_member:gid <- $w19
	.loc	4 155 17 is_stmt 1              ; bash.c:155:17
	adrp	x8, ___llvm_gcov_ctr.12@PAGE
	ldr	x9, [x8, ___llvm_gcov_ctr.12@PAGEOFF]
	add	x9, x9, #1
	str	x9, [x8, ___llvm_gcov_ctr.12@PAGEOFF]
Ltmp43:
	.loc	4 125 7                         ; bash.c:125:7
	adrp	x22, _getmaxgroups.maxgroups@PAGE
	ldr	w8, [x22, _getmaxgroups.maxgroups@PAGEOFF]
Ltmp44:
	.loc	4 125 7 is_stmt 0               ; bash.c:125:7
	cmp	w8, #1
	b.lt	LBB2_9
Ltmp45:
; %bb.8:
	;DEBUG_VALUE: group_member:gid <- $w19
	.loc	4 126 12 is_stmt 1              ; bash.c:126:12
	adrp	x9, ___llvm_gcov_ctr.1@PAGE
	ldr	x10, [x9, ___llvm_gcov_ctr.1@PAGEOFF]
	add	x10, x10, #1
	str	x10, [x9, ___llvm_gcov_ctr.1@PAGEOFF]
	b	LBB2_11
Ltmp46:
LBB2_9:
	;DEBUG_VALUE: group_member:gid <- $w19
	.loc	4 129 15                        ; bash.c:129:15
	adrp	x8, ___llvm_gcov_ctr.1@PAGE+8
	ldr	x9, [x8, ___llvm_gcov_ctr.1@PAGEOFF+8]
	add	x9, x9, #1
	str	x9, [x8, ___llvm_gcov_ctr.1@PAGEOFF+8]
	mov	w0, #4
	bl	_sysconf
Ltmp47:
	.loc	4 129 13 is_stmt 0              ; bash.c:129:13
	str	w0, [x22, _getmaxgroups.maxgroups@PAGEOFF]
	mov	x8, x0
	.loc	4 142 7 is_stmt 1               ; bash.c:142:7
	cmp	w0, #0
	b.gt	LBB2_11
Ltmp48:
; %bb.10:
	;DEBUG_VALUE: group_member:gid <- $w19
	.loc	4 143 15                        ; bash.c:143:15
	adrp	x8, ___llvm_gcov_ctr.1@PAGE+16
	ldr	x9, [x8, ___llvm_gcov_ctr.1@PAGEOFF+16]
	add	x9, x9, #1
	str	x9, [x8, ___llvm_gcov_ctr.1@PAGEOFF+16]
	mov	w8, #64
	str	w8, [x22, _getmaxgroups.maxgroups@PAGEOFF]
Ltmp49:
LBB2_11:                                ; %getmaxgroups.exit.i
	;DEBUG_VALUE: group_member:gid <- $w19
	.loc	4 155 15                        ; bash.c:155:15
	str	w8, [x23, _maxgroups@PAGEOFF]
Ltmp50:
LBB2_12:
	;DEBUG_VALUE: group_member:gid <- $w19
	.loc	4 157 11                        ; bash.c:157:11
	str	wzr, [x21, _ngroups@PAGEOFF]
	.loc	4 158 36                        ; bash.c:158:36
	adrp	x22, _group_array@PAGE
	ldr	x0, [x22, _group_array@PAGEOFF]
	.loc	4 158 59 is_stmt 0              ; bash.c:158:59
	sbfiz	x1, x8, #2, #32
	.loc	4 158 26                        ; bash.c:158:26
	bl	_xrealloc
Ltmp51:
	mov	x1, x0
	.loc	4 158 15                        ; bash.c:158:15
	str	x0, [x22, _group_array@PAGEOFF]
	.loc	4 161 24 is_stmt 1              ; bash.c:161:24
	ldr	w0, [x23, _maxgroups@PAGEOFF]
	.loc	4 161 13 is_stmt 0              ; bash.c:161:13
	bl	_getgroups
Ltmp52:
                                        ; kill: def $w0 killed $w0 def $x0
	.loc	4 161 11                        ; bash.c:161:11
	str	w0, [x21, _ngroups@PAGEOFF]
	.loc	4 166 7 is_stmt 1               ; bash.c:166:7
	cbz	w0, LBB2_15
Ltmp53:
; %bb.13:
	;DEBUG_VALUE: group_member:gid <- $w19
	.loc	4 174 10                        ; bash.c:174:10
	adrp	x8, ___llvm_gcov_ctr.12@PAGE+16
	ldr	x9, [x8, ___llvm_gcov_ctr.12@PAGEOFF+16]
	add	x9, x9, #1
	str	x9, [x8, ___llvm_gcov_ctr.12@PAGEOFF+16]
Ltmp54:
	;DEBUG_VALUE: initialize_group_array:i <- 0
	.loc	4 174 3 is_stmt 0               ; bash.c:174:3
	cmp	w0, #1
	b.lt	LBB2_21
Ltmp55:
; %bb.14:                               ; %..lr.ph.i_crit_edge
	;DEBUG_VALUE: initialize_group_array:i <- 0
	;DEBUG_VALUE: group_member:gid <- $w19
	.loc	4 0 3                           ; bash.c:0:3
	ldr	x8, [x22, _group_array@PAGEOFF]
	b	LBB2_16
Ltmp56:
LBB2_15:                                ; %.thread.i
	;DEBUG_VALUE: group_member:gid <- $w19
	.loc	4 168 37 is_stmt 1              ; bash.c:168:37
Lloh19:
	adrp	x9, ___llvm_gcov_ctr.12@PAGE+8
Lloh20:
	add	x9, x9, ___llvm_gcov_ctr.12@PAGEOFF+8
	ldr	x8, [x9]
	add	x8, x8, #1
	str	x8, [x9]
	ldr	w10, [x20, _current_user@PAGEOFF+8]
	.loc	4 168 7 is_stmt 0               ; bash.c:168:7
	ldr	x8, [x22, _group_array@PAGEOFF]
	.loc	4 168 22                        ; bash.c:168:22
	str	w10, [x8]
	mov	w0, #1
	.loc	4 169 15 is_stmt 1              ; bash.c:169:15
	str	w0, [x21, _ngroups@PAGEOFF]
Ltmp57:
	.loc	4 174 10                        ; bash.c:174:10
	ldr	x10, [x9, #8]
	add	x10, x10, #1
	str	x10, [x9, #8]
Ltmp58:
	;DEBUG_VALUE: initialize_group_array:i <- 0
LBB2_16:                                ; %.lr.ph.i
	;DEBUG_VALUE: initialize_group_array:i <- 0
	;DEBUG_VALUE: group_member:gid <- $w19
	.loc	4 0 10 is_stmt 0                ; bash.c:0:10
	mov	x10, #0
	ldr	w11, [x20, _current_user@PAGEOFF+8]
Ltmp59:
	.loc	4 174 17                        ; bash.c:174:17
	mov	w9, w0
	adrp	x12, ___llvm_gcov_ctr.12@PAGE+32
Ltmp60:
LBB2_17:                                ; =>This Inner Loop Header: Depth=1
	;DEBUG_VALUE: group_member:gid <- $w19
	;DEBUG_VALUE: initialize_group_array:i <- $x10
	.loc	4 175 36 is_stmt 1              ; bash.c:175:36
	ldr	w13, [x8, x10, lsl  #2]
Ltmp61:
	.loc	4 175 9 is_stmt 0               ; bash.c:175:9
	cmp	w11, w13
	b.eq	LBB2_20
Ltmp62:
; %bb.18:                               ;   in Loop: Header=BB2_17 Depth=1
	;DEBUG_VALUE: initialize_group_array:i <- $x10
	;DEBUG_VALUE: group_member:gid <- $w19
	.loc	4 174 29 is_stmt 1              ; bash.c:174:29
	ldr	x13, [x12, ___llvm_gcov_ctr.12@PAGEOFF+32]
	add	x13, x13, #1
	str	x13, [x12, ___llvm_gcov_ctr.12@PAGEOFF+32]
	add	x10, x10, #1
Ltmp63:
	;DEBUG_VALUE: initialize_group_array:i <- $x10
	.loc	4 174 3 is_stmt 0               ; bash.c:174:3
	cmp	x9, x10
	b.ne	LBB2_17
Ltmp64:
; %bb.19:                               ; %.loopexit26.thread.i.thread
	;DEBUG_VALUE: initialize_group_array:i <- $x10
	;DEBUG_VALUE: group_member:gid <- $w19
	.loc	4 177 23 is_stmt 1              ; bash.c:177:23
	adrp	x10, ___llvm_gcov_ctr.12@PAGE+40
Ltmp65:
	ldr	x11, [x10, ___llvm_gcov_ctr.12@PAGEOFF+40]
	add	x11, x11, #1
	str	x11, [x10, ___llvm_gcov_ctr.12@PAGEOFF+40]
	.loc	4 177 33 is_stmt 0              ; bash.c:177:33
	ldr	w10, [x23, _maxgroups@PAGEOFF]
Ltmp66:
	.loc	4 177 7                         ; bash.c:177:7
	cmp	w0, w10
	b.lt	LBB2_25
	b	LBB2_28
Ltmp67:
LBB2_20:
	;DEBUG_VALUE: initialize_group_array:i <- $x10
	;DEBUG_VALUE: group_member:gid <- $w19
	.loc	4 176 7 is_stmt 1               ; bash.c:176:7
	adrp	x8, ___llvm_gcov_ctr.12@PAGE+24
	ldr	x9, [x8, ___llvm_gcov_ctr.12@PAGEOFF+24]
	add	x9, x9, #1
	str	x9, [x8, ___llvm_gcov_ctr.12@PAGEOFF+24]
	mov	w9, #1
Ltmp68:
	.loc	4 177 20                        ; bash.c:177:20
	cmp	w10, w0
	b.eq	LBB2_22
	b	LBB2_28
Ltmp69:
LBB2_21:
	;DEBUG_VALUE: initialize_group_array:i <- 0
	;DEBUG_VALUE: group_member:gid <- $w19
	.loc	4 0 20 is_stmt 0                ; bash.c:0:20
	mov	w9, #0
	mov	w10, #0
	.loc	4 177 20                        ; bash.c:177:20
	cmp	w10, w0
	b.ne	LBB2_28
Ltmp70:
LBB2_22:                                ; %.loopexit26.thread.i
	;DEBUG_VALUE: group_member:gid <- $w19
	.loc	4 177 23                        ; bash.c:177:23
	adrp	x8, ___llvm_gcov_ctr.12@PAGE+40
	ldr	x10, [x8, ___llvm_gcov_ctr.12@PAGEOFF+40]
	add	x10, x10, #1
	str	x10, [x8, ___llvm_gcov_ctr.12@PAGEOFF+40]
	.loc	4 177 33                        ; bash.c:177:33
	ldr	w8, [x23, _maxgroups@PAGEOFF]
Ltmp71:
	.loc	4 177 7                         ; bash.c:177:7
	cmp	w0, w8
	b.ge	LBB2_28
Ltmp72:
; %bb.23:                               ; %.preheader25.i
	;DEBUG_VALUE: group_member:gid <- $w19
	;DEBUG_VALUE: initialize_group_array:i <- $w0
	.loc	4 0 7                           ; bash.c:0:7
	ldr	x8, [x22, _group_array@PAGEOFF]
	cbz	w9, LBB2_27
Ltmp73:
; %bb.24:                               ; %.preheader25.i..lr.ph34.i_crit_edge
	;DEBUG_VALUE: initialize_group_array:i <- $w0
	;DEBUG_VALUE: group_member:gid <- $w19
	.loc	4 179 7 is_stmt 1               ; bash.c:179:7
	mov	w9, w0
Ltmp74:
LBB2_25:                                ; %.lr.ph34.i
	;DEBUG_VALUE: group_member:gid <- $w19
	.loc	4 0 7 is_stmt 0                 ; bash.c:0:7
	adrp	x10, ___llvm_gcov_ctr.12@PAGE+48
Ltmp75:
LBB2_26:                                ; =>This Inner Loop Header: Depth=1
	;DEBUG_VALUE: group_member:gid <- $w19
	;DEBUG_VALUE: initialize_group_array:i <- $x9
	.loc	4 180 40 is_stmt 1              ; bash.c:180:40
	subs	x11, x9, #1
	.loc	4 180 26 is_stmt 0              ; bash.c:180:26
	ldr	w12, [x8, w11, uxtw  #2]
	.loc	4 180 24                        ; bash.c:180:24
	str	w12, [x8, x9, lsl  #2]
	.loc	4 179 33 is_stmt 1              ; bash.c:179:33
	ldr	x9, [x10, ___llvm_gcov_ctr.12@PAGEOFF+48]
Ltmp76:
	add	x9, x9, #1
	str	x9, [x10, ___llvm_gcov_ctr.12@PAGEOFF+48]
Ltmp77:
	;DEBUG_VALUE: initialize_group_array:i <- undef
	.loc	4 0 33 is_stmt 0                ; bash.c:0:33
	mov	x9, x11
Ltmp78:
	.loc	4 179 7                         ; bash.c:179:7
	b.hi	LBB2_26
Ltmp79:
LBB2_27:                                ; %._crit_edge.i
	;DEBUG_VALUE: group_member:gid <- $w19
	.loc	4 181 37 is_stmt 1              ; bash.c:181:37
	adrp	x9, ___llvm_gcov_ctr.12@PAGE+56
	ldr	x10, [x9, ___llvm_gcov_ctr.12@PAGEOFF+56]
	add	x10, x10, #1
	str	x10, [x9, ___llvm_gcov_ctr.12@PAGEOFF+56]
	ldr	w9, [x20, _current_user@PAGEOFF+8]
	.loc	4 181 22 is_stmt 0              ; bash.c:181:22
	str	w9, [x8]
	.loc	4 182 14 is_stmt 1              ; bash.c:182:14
	add	w0, w0, #1
	str	w0, [x21, _ngroups@PAGEOFF]
Ltmp80:
LBB2_28:
	;DEBUG_VALUE: group_member:gid <- $w19
	.loc	4 188 7                         ; bash.c:188:7
	ldr	x8, [x22, _group_array@PAGEOFF]
	ldr	w9, [x8]
	.loc	4 188 38 is_stmt 0              ; bash.c:188:38
	ldr	w10, [x20, _current_user@PAGEOFF+8]
Ltmp81:
	.loc	4 188 7                         ; bash.c:188:7
	cmp	w9, w10
	b.eq	LBB2_35
Ltmp82:
; %bb.29:                               ; %.preheader.i
	;DEBUG_VALUE: group_member:gid <- $w19
	;DEBUG_VALUE: initialize_group_array:i <- 0
	.loc	4 190 7 is_stmt 1               ; bash.c:190:7
	cmp	w0, #1
	b.lt	LBB2_34
Ltmp83:
; %bb.30:                               ; %.lr.ph36.preheader.i
	;DEBUG_VALUE: initialize_group_array:i <- 0
	;DEBUG_VALUE: group_member:gid <- $w19
	.loc	4 0 7 is_stmt 0                 ; bash.c:0:7
	mov	x9, #0
	.loc	4 190 7                         ; bash.c:190:7
	ubfiz	x11, x0, #2, #32
	adrp	x12, ___llvm_gcov_ctr.12@PAGE+72
Ltmp84:
LBB2_31:                                ; %.lr.ph36.i
                                        ; =>This Inner Loop Header: Depth=1
	;DEBUG_VALUE: group_member:gid <- $w19
	;DEBUG_VALUE: initialize_group_array:i <- [DW_OP_consts 4, DW_OP_div, DW_OP_stack_value] $x9
	.loc	4 191 13 is_stmt 1              ; bash.c:191:13
	ldr	w13, [x8, x9]
Ltmp85:
	.loc	4 191 13 is_stmt 0              ; bash.c:191:13
	cmp	w13, w10
	b.eq	LBB2_33
Ltmp86:
; %bb.32:                               ;   in Loop: Header=BB2_31 Depth=1
	;DEBUG_VALUE: initialize_group_array:i <- [DW_OP_consts 4, DW_OP_div, DW_OP_stack_value] $x9
	;DEBUG_VALUE: group_member:gid <- $w19
	.loc	4 190 33 is_stmt 1              ; bash.c:190:33
	ldr	x13, [x12, ___llvm_gcov_ctr.12@PAGEOFF+72]
	add	x13, x13, #1
	str	x13, [x12, ___llvm_gcov_ctr.12@PAGEOFF+72]
Ltmp87:
	;DEBUG_VALUE: initialize_group_array:i <- [DW_OP_consts 4, DW_OP_div, DW_OP_consts 1, DW_OP_plus, DW_OP_stack_value] $x9
	.loc	4 190 21 is_stmt 0              ; bash.c:190:21
	add	x9, x9, #4
Ltmp88:
	.loc	4 190 7                         ; bash.c:190:7
	cmp	x11, x9
	b.ne	LBB2_31
	b	LBB2_34
Ltmp89:
LBB2_33:
	;DEBUG_VALUE: initialize_group_array:i <- [DW_OP_consts 4, DW_OP_div, DW_OP_stack_value] $x9
	;DEBUG_VALUE: group_member:gid <- $w19
	.loc	4 192 11 is_stmt 1              ; bash.c:192:11
Lloh21:
	adrp	x10, ___llvm_gcov_ctr.12@PAGE+64
Lloh22:
	add	x10, x10, ___llvm_gcov_ctr.12@PAGEOFF+64
	ldr	x11, [x10]
	add	x11, x11, #1
	str	x11, [x10]
Ltmp90:
	.loc	4 195 28                        ; bash.c:195:28
	ldr	x11, [x10, #16]
	add	x11, x11, #1
	str	x11, [x10, #16]
	ldr	w10, [x8]
	.loc	4 195 26 is_stmt 0              ; bash.c:195:26
	str	w10, [x8, x9]
	.loc	4 196 41 is_stmt 1              ; bash.c:196:41
	ldr	w9, [x20, _current_user@PAGEOFF+8]
Ltmp91:
	.loc	4 196 26 is_stmt 0              ; bash.c:196:26
	str	w9, [x8]
Ltmp92:
LBB2_34:                                ; %.loopexit.i
	;DEBUG_VALUE: group_member:gid <- $w19
	.loc	4 198 5 is_stmt 1               ; bash.c:198:5
	adrp	x8, ___llvm_gcov_ctr.12@PAGE+88
	ldr	x9, [x8, ___llvm_gcov_ctr.12@PAGEOFF+88]
	add	x9, x9, #1
	str	x9, [x8, ___llvm_gcov_ctr.12@PAGEOFF+88]
Ltmp93:
LBB2_35:                                ; %initialize_group_array.exit
	;DEBUG_VALUE: group_member:gid <- $w19
	.loc	4 224 7                         ; bash.c:224:7
	cmp	w0, #1
	b.lt	LBB2_40
Ltmp94:
; %bb.36:                               ; %.lr.ph
	;DEBUG_VALUE: group_member:gid <- $w19
	;DEBUG_VALUE: group_member:i <- 0
	.loc	4 0 7 is_stmt 0                 ; bash.c:0:7
Lloh23:
	adrp	x8, _group_array@PAGE
Lloh24:
	ldr	x8, [x8, _group_array@PAGEOFF]
Ltmp95:
	.loc	4 228 17 is_stmt 1              ; bash.c:228:17
	mov	w9, w0
	adrp	x10, ___llvm_gcov_ctr.2@PAGE+40
Ltmp96:
LBB2_37:                                ; =>This Inner Loop Header: Depth=1
	;DEBUG_VALUE: group_member:gid <- $w19
	;DEBUG_VALUE: group_member:i <- [DW_OP_LLVM_arg 0, DW_OP_LLVM_arg 0, DW_OP_minus, DW_OP_consts 4, DW_OP_div, DW_OP_stack_value] undef
	.loc	4 229 23                        ; bash.c:229:23
	ldr	w11, [x8]
Ltmp97:
	.loc	4 229 9 is_stmt 0               ; bash.c:229:9
	cmp	w11, w19
	b.eq	LBB2_41
Ltmp98:
; %bb.38:                               ;   in Loop: Header=BB2_37 Depth=1
	;DEBUG_VALUE: group_member:gid <- $w19
	.loc	4 228 29 is_stmt 1              ; bash.c:228:29
	ldr	x11, [x10, ___llvm_gcov_ctr.2@PAGEOFF+40]
	add	x11, x11, #1
	str	x11, [x10, ___llvm_gcov_ctr.2@PAGEOFF+40]
Ltmp99:
	;DEBUG_VALUE: group_member:i <- [DW_OP_LLVM_arg 0, DW_OP_LLVM_arg 0, DW_OP_minus, DW_OP_consts 4, DW_OP_div, DW_OP_consts 1, DW_OP_plus, DW_OP_stack_value] undef
	.loc	4 228 17 is_stmt 0              ; bash.c:228:17
	add	x8, x8, #4
	subs	x9, x9, #1
Ltmp100:
	.loc	4 228 3                         ; bash.c:228:3
	b.ne	LBB2_37
Ltmp101:
; %bb.39:                               ; %._crit_edge
	;DEBUG_VALUE: group_member:gid <- $w19
	.loc	4 0 3                           ; bash.c:0:3
	mov	w0, #0
	.loc	4 233 3 is_stmt 1               ; bash.c:233:3
	adrp	x8, ___llvm_gcov_ctr.2@PAGE+48
	ldr	x9, [x8, ___llvm_gcov_ctr.2@PAGEOFF+48]
	add	x9, x9, #1
	str	x9, [x8, ___llvm_gcov_ctr.2@PAGEOFF+48]
	b	LBB2_4
Ltmp102:
LBB2_40:
	;DEBUG_VALUE: group_member:gid <- $w19
	.loc	4 0 3 is_stmt 0                 ; bash.c:0:3
	mov	w0, #0
Ltmp103:
	.loc	4 225 5 is_stmt 1               ; bash.c:225:5
	adrp	x8, ___llvm_gcov_ctr.2@PAGE+24
	ldr	x9, [x8, ___llvm_gcov_ctr.2@PAGEOFF+24]
	add	x9, x9, #1
	str	x9, [x8, ___llvm_gcov_ctr.2@PAGEOFF+24]
	b	LBB2_4
Ltmp104:
LBB2_41:
	;DEBUG_VALUE: group_member:gid <- $w19
	.loc	4 230 7                         ; bash.c:230:7
	adrp	x8, ___llvm_gcov_ctr.2@PAGE+32
	ldr	x9, [x8, ___llvm_gcov_ctr.2@PAGEOFF+32]
	add	x9, x9, #1
	str	x9, [x8, ___llvm_gcov_ctr.2@PAGEOFF+32]
	b	LBB2_3
Ltmp105:
	.loh AdrpLdr	Lloh17, Lloh18
	.loh AdrpAdrp	Lloh16, Lloh17
	.loh AdrpAdd	Lloh19, Lloh20
	.loh AdrpAdd	Lloh21, Lloh22
	.loh AdrpLdr	Lloh23, Lloh24
Lfunc_end2:
	.cfi_endproc
	.file	7 "/Users/mac/rustmap-clone/c-code/which-2.21" "./sys.h"
	.file	8 "/Library/Developer/CommandLineTools/SDKs/MacOSX.sdk/usr/include/sys/_types" "_size_t.h"
                                        ; -- End function
	.globl	_file_status                    ; -- Begin function file_status
	.p2align	2
_file_status:                           ; @file_status
Lfunc_begin3:
	.loc	4 243 0                         ; bash.c:243:0
	.cfi_startproc
; %bb.0:
	;DEBUG_VALUE: file_status:name <- $x0
	sub	sp, sp, #160
	.cfi_def_cfa_offset 160
	stp	x29, x30, [sp, #144]            ; 16-byte Folded Spill
	add	x29, sp, #144
	.cfi_def_cfa w29, 16
	.cfi_offset w30, -8
	.cfi_offset w29, -16
Ltmp106:
	.loc	4 248 7 prologue_end            ; bash.c:248:7
	mov	x1, sp
	bl	_stat
Ltmp107:
	;DEBUG_VALUE: file_status:name <- [DW_OP_LLVM_entry_value 1] $x0
	.loc	4 248 7 is_stmt 0               ; bash.c:248:7
	tbnz	w0, #31, LBB3_3
Ltmp108:
; %bb.1:
	;DEBUG_VALUE: file_status:name <- [DW_OP_LLVM_entry_value 1] $x0
	.loc	4 253 16 is_stmt 1              ; bash.c:253:16
	ldrh	w8, [sp, #4]
	.loc	4 253 25 is_stmt 0              ; bash.c:253:25
	and	w9, w8, #0xf000
Ltmp109:
	.loc	4 253 7                         ; bash.c:253:7
	cmp	w9, #4, lsl #12                 ; =16384
	b.ne	LBB3_4
Ltmp110:
; %bb.2:
	;DEBUG_VALUE: file_status:name <- [DW_OP_LLVM_entry_value 1] $x0
	.loc	4 254 5 is_stmt 1               ; bash.c:254:5
	adrp	x8, ___llvm_gcov_ctr.3@PAGE+8
	ldr	x9, [x8, ___llvm_gcov_ctr.3@PAGEOFF+8]
	add	x9, x9, #1
	str	x9, [x8, ___llvm_gcov_ctr.3@PAGEOFF+8]
	mov	w0, #17
	b	LBB3_27
Ltmp111:
LBB3_3:
	;DEBUG_VALUE: file_status:name <- [DW_OP_LLVM_entry_value 1] $x0
	.loc	4 0 5 is_stmt 0                 ; bash.c:0:5
	mov	w0, #0
Ltmp112:
	.loc	4 249 5 is_stmt 1               ; bash.c:249:5
	adrp	x8, ___llvm_gcov_ctr.3@PAGE
	ldr	x9, [x8, ___llvm_gcov_ctr.3@PAGEOFF]
	add	x9, x9, #1
	str	x9, [x8, ___llvm_gcov_ctr.3@PAGEOFF]
	b	LBB3_27
Ltmp113:
LBB3_4:
	;DEBUG_VALUE: file_status:name <- [DW_OP_LLVM_entry_value 1] $x0
	;DEBUG_VALUE: file_status:r <- 1
	.loc	4 287 20                        ; bash.c:287:20
Lloh25:
	adrp	x9, _current_user@PAGE+4
Lloh26:
	ldr	w9, [x9, _current_user@PAGEOFF+4]
Ltmp114:
	.loc	4 287 7 is_stmt 0               ; bash.c:287:7
	cbz	w9, LBB3_8
Ltmp115:
; %bb.5:
	;DEBUG_VALUE: file_status:r <- 1
	;DEBUG_VALUE: file_status:name <- [DW_OP_LLVM_entry_value 1] $x0
	.loc	4 296 34 is_stmt 1              ; bash.c:296:34
	ldr	w10, [sp, #16]
Ltmp116:
	.loc	4 296 7 is_stmt 0               ; bash.c:296:7
	cmp	w9, w10
	b.ne	LBB3_10
Ltmp117:
; %bb.6:
	;DEBUG_VALUE: file_status:r <- 1
	;DEBUG_VALUE: file_status:name <- [DW_OP_LLVM_entry_value 1] $x0
	.loc	4 298 11 is_stmt 1              ; bash.c:298:11
	tbnz	w8, #6, LBB3_13
Ltmp118:
; %bb.7:
	;DEBUG_VALUE: file_status:r <- 1
	;DEBUG_VALUE: file_status:name <- [DW_OP_LLVM_entry_value 1] $x0
	.loc	4 0 11 is_stmt 0                ; bash.c:0:11
	mov	w0, #1
Ltmp119:
	;DEBUG_VALUE: file_status:r <- $w0
	.loc	4 300 11 is_stmt 1              ; bash.c:300:11
	tbnz	w8, #8, LBB3_14
	b	LBB3_15
Ltmp120:
LBB3_8:
	;DEBUG_VALUE: file_status:r <- 1
	;DEBUG_VALUE: file_status:name <- [DW_OP_LLVM_entry_value 1] $x0
	;DEBUG_VALUE: file_status:r <- 65
	.loc	4 0 11 is_stmt 0                ; bash.c:0:11
	mov	w9, #73
Ltmp121:
	.loc	4 290 25 is_stmt 1              ; bash.c:290:25
	tst	w8, w9
Ltmp122:
	.loc	4 290 11 is_stmt 0              ; bash.c:290:11
	b.eq	LBB3_16
Ltmp123:
; %bb.9:
	;DEBUG_VALUE: file_status:r <- 65
	;DEBUG_VALUE: file_status:name <- [DW_OP_LLVM_entry_value 1] $x0
	.loc	4 291 4 is_stmt 1               ; bash.c:291:4
	adrp	x8, ___llvm_gcov_ctr.3@PAGE+16
	ldr	x9, [x8, ___llvm_gcov_ctr.3@PAGEOFF+16]
	add	x9, x9, #1
	str	x9, [x8, ___llvm_gcov_ctr.3@PAGEOFF+16]
	mov	w0, #67
Ltmp124:
	;DEBUG_VALUE: file_status:r <- 67
	.loc	4 0 4 is_stmt 0                 ; bash.c:0:4
	b	LBB3_17
Ltmp125:
LBB3_10:
	;DEBUG_VALUE: file_status:r <- 1
	;DEBUG_VALUE: file_status:name <- [DW_OP_LLVM_entry_value 1] $x0
	.loc	4 305 32 is_stmt 1              ; bash.c:305:32
	ldr	w0, [sp, #20]
	.loc	4 305 12 is_stmt 0              ; bash.c:305:12
	bl	_group_member
Ltmp126:
	.loc	4 305 12                        ; bash.c:305:12
	cbz	w0, LBB3_18
Ltmp127:
; %bb.11:
	;DEBUG_VALUE: file_status:r <- 1
	;DEBUG_VALUE: file_status:name <- [DW_OP_LLVM_entry_value 1] $x0
	.loc	4 307 17 is_stmt 1              ; bash.c:307:17
	ldrh	w8, [sp, #4]
Ltmp128:
	.loc	4 307 11 is_stmt 0              ; bash.c:307:11
	tbnz	w8, #3, LBB3_20
Ltmp129:
; %bb.12:
	;DEBUG_VALUE: file_status:r <- 1
	;DEBUG_VALUE: file_status:name <- [DW_OP_LLVM_entry_value 1] $x0
	.loc	4 0 11                          ; bash.c:0:11
	mov	w0, #1
	b	LBB3_21
Ltmp130:
LBB3_13:
	;DEBUG_VALUE: file_status:r <- 1
	;DEBUG_VALUE: file_status:name <- [DW_OP_LLVM_entry_value 1] $x0
	.loc	4 299 4 is_stmt 1               ; bash.c:299:4
	adrp	x9, ___llvm_gcov_ctr.3@PAGE+32
	ldr	x10, [x9, ___llvm_gcov_ctr.3@PAGEOFF+32]
	add	x10, x10, #1
	str	x10, [x9, ___llvm_gcov_ctr.3@PAGEOFF+32]
	mov	w0, #3
Ltmp131:
	;DEBUG_VALUE: file_status:r <- 3
	;DEBUG_VALUE: file_status:r <- $w0
	.loc	4 300 11                        ; bash.c:300:11
	tbz	w8, #8, LBB3_15
Ltmp132:
LBB3_14:
	;DEBUG_VALUE: file_status:r <- $w0
	;DEBUG_VALUE: file_status:name <- [DW_OP_LLVM_entry_value 1] $x0
	.loc	4 301 4                         ; bash.c:301:4
	adrp	x8, ___llvm_gcov_ctr.3@PAGE+40
	ldr	x9, [x8, ___llvm_gcov_ctr.3@PAGEOFF+40]
	add	x9, x9, #1
	str	x9, [x8, ___llvm_gcov_ctr.3@PAGEOFF+40]
	orr	w0, w0, #0x40
Ltmp133:
	;DEBUG_VALUE: file_status:r <- $w0
LBB3_15:
	;DEBUG_VALUE: file_status:r <- $w0
	;DEBUG_VALUE: file_status:name <- [DW_OP_LLVM_entry_value 1] $x0
	;DEBUG_VALUE: file_status:r <- $w0
	.loc	4 302 5                         ; bash.c:302:5
	adrp	x8, ___llvm_gcov_ctr.3@PAGE+48
	ldr	x9, [x8, ___llvm_gcov_ctr.3@PAGEOFF+48]
	add	x9, x9, #1
	str	x9, [x8, ___llvm_gcov_ctr.3@PAGEOFF+48]
	b	LBB3_27
Ltmp134:
LBB3_16:
	;DEBUG_VALUE: file_status:r <- 65
	;DEBUG_VALUE: file_status:name <- [DW_OP_LLVM_entry_value 1] $x0
	.loc	4 0 5 is_stmt 0                 ; bash.c:0:5
	mov	w0, #65
Ltmp135:
LBB3_17:
	;DEBUG_VALUE: file_status:name <- [DW_OP_LLVM_entry_value 1] $x0
	;DEBUG_VALUE: file_status:r <- $w0
	.loc	4 292 14 is_stmt 1              ; bash.c:292:14
	adrp	x8, ___llvm_gcov_ctr.3@PAGE+24
	ldr	x9, [x8, ___llvm_gcov_ctr.3@PAGEOFF+24]
	add	x9, x9, #1
	str	x9, [x8, ___llvm_gcov_ctr.3@PAGEOFF+24]
	b	LBB3_27
Ltmp136:
LBB3_18:
	;DEBUG_VALUE: file_status:r <- 1
	;DEBUG_VALUE: file_status:name <- [DW_OP_LLVM_entry_value 1] $x0
	.loc	4 316 17                        ; bash.c:316:17
	adrp	x8, ___llvm_gcov_ctr.3@PAGE+56
	ldr	x9, [x8, ___llvm_gcov_ctr.3@PAGEOFF+56]
	add	x9, x9, #1
	str	x9, [x8, ___llvm_gcov_ctr.3@PAGEOFF+56]
	ldrh	w8, [sp, #4]
Ltmp137:
	.loc	4 316 11 is_stmt 0              ; bash.c:316:11
	tbnz	w8, #0, LBB3_24
Ltmp138:
; %bb.19:
	;DEBUG_VALUE: file_status:r <- 1
	;DEBUG_VALUE: file_status:name <- [DW_OP_LLVM_entry_value 1] $x0
	.loc	4 0 11                          ; bash.c:0:11
	mov	w0, #1
	b	LBB3_25
Ltmp139:
LBB3_20:
	;DEBUG_VALUE: file_status:r <- 1
	;DEBUG_VALUE: file_status:name <- [DW_OP_LLVM_entry_value 1] $x0
	.loc	4 308 4 is_stmt 1               ; bash.c:308:4
	adrp	x9, ___llvm_gcov_ctr.3@PAGE+64
	ldr	x10, [x9, ___llvm_gcov_ctr.3@PAGEOFF+64]
	add	x10, x10, #1
	str	x10, [x9, ___llvm_gcov_ctr.3@PAGEOFF+64]
	mov	w0, #3
Ltmp140:
	;DEBUG_VALUE: file_status:r <- 3
LBB3_21:
	;DEBUG_VALUE: file_status:name <- [DW_OP_LLVM_entry_value 1] $x0
	;DEBUG_VALUE: file_status:r <- $w0
	.loc	4 309 11                        ; bash.c:309:11
	tbz	w8, #5, LBB3_23
Ltmp141:
; %bb.22:
	;DEBUG_VALUE: file_status:r <- $w0
	;DEBUG_VALUE: file_status:name <- [DW_OP_LLVM_entry_value 1] $x0
	.loc	4 310 4                         ; bash.c:310:4
	adrp	x8, ___llvm_gcov_ctr.3@PAGE+72
	ldr	x9, [x8, ___llvm_gcov_ctr.3@PAGEOFF+72]
	add	x9, x9, #1
	str	x9, [x8, ___llvm_gcov_ctr.3@PAGEOFF+72]
	orr	w0, w0, #0x40
Ltmp142:
	;DEBUG_VALUE: file_status:r <- $w0
LBB3_23:
	;DEBUG_VALUE: file_status:r <- $w0
	;DEBUG_VALUE: file_status:name <- [DW_OP_LLVM_entry_value 1] $x0
	;DEBUG_VALUE: file_status:r <- $w0
	.loc	4 311 5                         ; bash.c:311:5
	adrp	x8, ___llvm_gcov_ctr.3@PAGE+80
	ldr	x9, [x8, ___llvm_gcov_ctr.3@PAGEOFF+80]
	add	x9, x9, #1
	str	x9, [x8, ___llvm_gcov_ctr.3@PAGEOFF+80]
	b	LBB3_27
Ltmp143:
LBB3_24:
	;DEBUG_VALUE: file_status:r <- 1
	;DEBUG_VALUE: file_status:name <- [DW_OP_LLVM_entry_value 1] $x0
	.loc	4 317 4                         ; bash.c:317:4
	adrp	x9, ___llvm_gcov_ctr.3@PAGE+88
	ldr	x10, [x9, ___llvm_gcov_ctr.3@PAGEOFF+88]
	add	x10, x10, #1
	str	x10, [x9, ___llvm_gcov_ctr.3@PAGEOFF+88]
	mov	w0, #3
Ltmp144:
	;DEBUG_VALUE: file_status:r <- 3
LBB3_25:
	;DEBUG_VALUE: file_status:name <- [DW_OP_LLVM_entry_value 1] $x0
	;DEBUG_VALUE: file_status:r <- $w0
	.loc	4 318 11                        ; bash.c:318:11
	tbz	w8, #2, LBB3_27
Ltmp145:
; %bb.26:
	;DEBUG_VALUE: file_status:r <- $w0
	;DEBUG_VALUE: file_status:name <- [DW_OP_LLVM_entry_value 1] $x0
	.loc	4 319 4                         ; bash.c:319:4
	adrp	x8, ___llvm_gcov_ctr.3@PAGE+96
	ldr	x9, [x8, ___llvm_gcov_ctr.3@PAGEOFF+96]
	add	x9, x9, #1
	str	x9, [x8, ___llvm_gcov_ctr.3@PAGEOFF+96]
	orr	w0, w0, #0x40
Ltmp146:
	;DEBUG_VALUE: file_status:r <- $w0
LBB3_27:
	;DEBUG_VALUE: file_status:name <- [DW_OP_LLVM_entry_value 1] $x0
	.loc	4 324 1                         ; bash.c:324:1
	ldp	x29, x30, [sp, #144]            ; 16-byte Folded Reload
	add	sp, sp, #160
	ret
Ltmp147:
	.loh AdrpLdr	Lloh25, Lloh26
Lfunc_end3:
	.cfi_endproc
	.file	9 "/Library/Developer/CommandLineTools/SDKs/MacOSX.sdk/usr/include/sys" "stat.h"
	.file	10 "/Library/Developer/CommandLineTools/SDKs/MacOSX.sdk/usr/include/sys/_types" "_dev_t.h"
	.file	11 "/Library/Developer/CommandLineTools/SDKs/MacOSX.sdk/usr/include/sys/_types" "_mode_t.h"
	.file	12 "/Library/Developer/CommandLineTools/SDKs/MacOSX.sdk/usr/include/sys/_types" "_nlink_t.h"
	.file	13 "/Library/Developer/CommandLineTools/SDKs/MacOSX.sdk/usr/include/sys/_types" "_timespec.h"
	.file	14 "/Library/Developer/CommandLineTools/SDKs/MacOSX.sdk/usr/include/sys/_types" "_off_t.h"
	.file	15 "/Library/Developer/CommandLineTools/SDKs/MacOSX.sdk/usr/include/sys/_types" "_blkcnt_t.h"
	.file	16 "/Library/Developer/CommandLineTools/SDKs/MacOSX.sdk/usr/include/sys/_types" "_blksize_t.h"
                                        ; -- End function
	.globl	_absolute_program               ; -- Begin function absolute_program
	.p2align	2
_absolute_program:                      ; @absolute_program
Lfunc_begin4:
	.loc	4 332 0                         ; bash.c:332:0
	.cfi_startproc
; %bb.0:
	;DEBUG_VALUE: absolute_program:string <- $x0
	stp	x29, x30, [sp, #-16]!           ; 16-byte Folded Spill
	.cfi_def_cfa_offset 16
	mov	x29, sp
	.cfi_def_cfa w29, 16
	.cfi_offset w30, -8
	.cfi_offset w29, -16
	adrp	x8, ___llvm_gcov_ctr.4@PAGE
	ldr	x9, [x8, ___llvm_gcov_ctr.4@PAGEOFF]
	add	x9, x9, #1
	str	x9, [x8, ___llvm_gcov_ctr.4@PAGEOFF]
Ltmp148:
	.loc	4 333 19 prologue_end           ; bash.c:333:19
	mov	w1, #47
	bl	_strchr
Ltmp149:
	;DEBUG_VALUE: absolute_program:string <- [DW_OP_LLVM_entry_value 1] $x0
	.loc	4 333 40 is_stmt 0              ; bash.c:333:40
	cmp	x0, #0
	cset	w0, ne
	.loc	4 333 3                         ; bash.c:333:3
	ldp	x29, x30, [sp], #16             ; 16-byte Folded Reload
	ret
Ltmp150:
Lfunc_end4:
	.cfi_endproc
                                        ; -- End function
	.globl	_substring                      ; -- Begin function substring
	.p2align	2
_substring:                             ; @substring
Lfunc_begin5:
	.loc	4 341 0 is_stmt 1               ; bash.c:341:0
	.cfi_startproc
; %bb.0:
	;DEBUG_VALUE: substring:string <- $x0
	;DEBUG_VALUE: substring:start <- $w1
	;DEBUG_VALUE: substring:end <- $w2
	stp	x22, x21, [sp, #-48]!           ; 16-byte Folded Spill
	.cfi_def_cfa_offset 48
	stp	x20, x19, [sp, #16]             ; 16-byte Folded Spill
	stp	x29, x30, [sp, #32]             ; 16-byte Folded Spill
	add	x29, sp, #32
	.cfi_def_cfa w29, 16
	.cfi_offset w30, -8
	.cfi_offset w29, -16
	.cfi_offset w19, -24
	.cfi_offset w20, -32
	.cfi_offset w21, -40
	.cfi_offset w22, -48
                                        ; kill: def $w2 killed $w2 def $x2
                                        ; kill: def $w1 killed $w1 def $x1
	mov	x19, x0
Ltmp151:
	;DEBUG_VALUE: substring:string <- $x19
	adrp	x8, ___llvm_gcov_ctr.5@PAGE
	ldr	x9, [x8, ___llvm_gcov_ctr.5@PAGEOFF]
	add	x9, x9, #1
	str	x9, [x8, ___llvm_gcov_ctr.5@PAGEOFF]
Ltmp152:
	.loc	4 347 51 prologue_end           ; bash.c:347:51
	sxtw	x8, w2
	sxtw	x22, w1
	.loc	4 345 13                        ; bash.c:345:13
	sub	x20, x8, x22
Ltmp153:
	;DEBUG_VALUE: substring:len <- $w20
	.loc	4 346 33                        ; bash.c:346:33
	add	w8, w20, #1
	.loc	4 346 29 is_stmt 0              ; bash.c:346:29
	sxtw	x0, w8
	.loc	4 346 20                        ; bash.c:346:20
	bl	_xmalloc
Ltmp154:
	;DEBUG_VALUE: substring:end <- [DW_OP_LLVM_entry_value 1] $w2
	;DEBUG_VALUE: substring:start <- [DW_OP_LLVM_entry_value 1] $w1
	mov	x21, x0
Ltmp155:
	;DEBUG_VALUE: substring:result <- $x21
	.loc	4 347 42 is_stmt 1              ; bash.c:347:42
	add	x1, x19, x22
	.loc	4 347 3 is_stmt 0               ; bash.c:347:3
	mov	x2, x20
	bl	_memcpy
Ltmp156:
	.loc	4 348 15 is_stmt 1              ; bash.c:348:15
	strb	wzr, [x21, x20]
	.loc	4 349 3                         ; bash.c:349:3
	mov	x0, x21
	ldp	x29, x30, [sp, #32]             ; 16-byte Folded Reload
	ldp	x20, x19, [sp, #16]             ; 16-byte Folded Reload
Ltmp157:
	;DEBUG_VALUE: substring:string <- [DW_OP_LLVM_entry_value 1] $x0
	ldp	x22, x21, [sp], #48             ; 16-byte Folded Reload
Ltmp158:
	ret
Ltmp159:
Lfunc_end5:
	.cfi_endproc
                                        ; -- End function
	.globl	_get_next_path_element          ; -- Begin function get_next_path_element
	.p2align	2
_get_next_path_element:                 ; @get_next_path_element
Lfunc_begin6:
	.loc	4 405 0                         ; bash.c:405:0
	.cfi_startproc
; %bb.0:
	;DEBUG_VALUE: get_next_path_element:path_list <- $x0
	;DEBUG_VALUE: get_next_path_element:path_index_pointer <- $x1
	;DEBUG_VALUE: extract_colon_unit:string <- $x0
	;DEBUG_VALUE: extract_colon_unit:p_index <- $x1
	;DEBUG_VALUE: get_next_path_element:path_index_pointer <- $x1
	;DEBUG_VALUE: extract_colon_unit:p_index <- $x1
	;DEBUG_VALUE: extract_colon_unit:string <- $x0
	;DEBUG_VALUE: get_next_path_element:path_list <- $x0
	stp	x22, x21, [sp, #-48]!           ; 16-byte Folded Spill
	.cfi_def_cfa_offset 48
	stp	x20, x19, [sp, #16]             ; 16-byte Folded Spill
	stp	x29, x30, [sp, #32]             ; 16-byte Folded Spill
	add	x29, sp, #32
	.cfi_def_cfa w29, 16
	.cfi_offset w30, -8
	.cfi_offset w29, -16
	.cfi_offset w19, -24
	.cfi_offset w20, -32
	.cfi_offset w21, -40
	.cfi_offset w22, -48
Ltmp160:
	.loc	4 362 7 prologue_end            ; bash.c:362:7
	cbz	x0, LBB6_10
Ltmp161:
; %bb.1:
	;DEBUG_VALUE: extract_colon_unit:p_index <- $x1
	;DEBUG_VALUE: extract_colon_unit:string <- $x0
	;DEBUG_VALUE: get_next_path_element:path_index_pointer <- $x1
	;DEBUG_VALUE: get_next_path_element:path_list <- $x0
	.loc	4 0 7 is_stmt 0                 ; bash.c:0:7
	mov	x19, x1
Ltmp162:
	;DEBUG_VALUE: extract_colon_unit:p_index <- $x19
	;DEBUG_VALUE: get_next_path_element:path_index_pointer <- $x19
	mov	x20, x0
Ltmp163:
	;DEBUG_VALUE: get_next_path_element:path_list <- $x20
	;DEBUG_VALUE: extract_colon_unit:string <- $x20
	.loc	4 365 9 is_stmt 1               ; bash.c:365:9
	bl	_strlen
Ltmp164:
	;DEBUG_VALUE: extract_colon_unit:len <- $w0
	.loc	4 366 7                         ; bash.c:366:7
	ldr	w8, [x19]
Ltmp165:
	.loc	4 366 7 is_stmt 0               ; bash.c:366:7
	cmp	w8, w0
	b.ge	LBB6_11
Ltmp166:
; %bb.2:
	;DEBUG_VALUE: extract_colon_unit:len <- $w0
	;DEBUG_VALUE: extract_colon_unit:string <- $x20
	;DEBUG_VALUE: get_next_path_element:path_list <- $x20
	;DEBUG_VALUE: get_next_path_element:path_index_pointer <- $x19
	;DEBUG_VALUE: extract_colon_unit:p_index <- $x19
	;DEBUG_VALUE: extract_colon_unit:i <- $w8
	.loc	4 376 9 is_stmt 1               ; bash.c:376:9
	cbz	w8, LBB6_5
Ltmp167:
; %bb.3:
	;DEBUG_VALUE: extract_colon_unit:i <- $w8
	;DEBUG_VALUE: extract_colon_unit:len <- $w0
	;DEBUG_VALUE: extract_colon_unit:string <- $x20
	;DEBUG_VALUE: get_next_path_element:path_list <- $x20
	;DEBUG_VALUE: get_next_path_element:path_index_pointer <- $x19
	;DEBUG_VALUE: extract_colon_unit:p_index <- $x19
	.loc	4 0 0 is_stmt 0                 ; bash.c:0:0
	sxtw	x9, w8
Ltmp168:
	.loc	4 376 12                        ; bash.c:376:12
	adrp	x10, ___llvm_gcov_ctr.7@PAGE+16
	ldr	x11, [x10, ___llvm_gcov_ctr.7@PAGEOFF+16]
	add	x11, x11, #1
	str	x11, [x10, ___llvm_gcov_ctr.7@PAGEOFF+16]
	ldrb	w9, [x20, x9]
Ltmp169:
	.loc	4 376 7                         ; bash.c:376:7
	cmp	w9, #58
	b.ne	LBB6_5
Ltmp170:
; %bb.4:
	;DEBUG_VALUE: extract_colon_unit:i <- $w8
	;DEBUG_VALUE: extract_colon_unit:len <- $w0
	;DEBUG_VALUE: extract_colon_unit:string <- $x20
	;DEBUG_VALUE: get_next_path_element:path_list <- $x20
	;DEBUG_VALUE: get_next_path_element:path_index_pointer <- $x19
	;DEBUG_VALUE: extract_colon_unit:p_index <- $x19
	.loc	4 377 6 is_stmt 1               ; bash.c:377:6
	adrp	x9, ___llvm_gcov_ctr.7@PAGE+24
	ldr	x10, [x9, ___llvm_gcov_ctr.7@PAGEOFF+24]
	add	x10, x10, #1
	str	x10, [x9, ___llvm_gcov_ctr.7@PAGEOFF+24]
	add	w8, w8, #1
Ltmp171:
	;DEBUG_VALUE: extract_colon_unit:i <- $w8
LBB6_5:
	;DEBUG_VALUE: extract_colon_unit:i <- $w8
	;DEBUG_VALUE: extract_colon_unit:len <- $w0
	;DEBUG_VALUE: extract_colon_unit:string <- $x20
	;DEBUG_VALUE: get_next_path_element:path_list <- $x20
	;DEBUG_VALUE: get_next_path_element:path_index_pointer <- $x19
	;DEBUG_VALUE: extract_colon_unit:p_index <- $x19
	;DEBUG_VALUE: extract_colon_unit:i <- $w8
	;DEBUG_VALUE: extract_colon_unit:start <- $w8
	.loc	4 379 19                        ; bash.c:379:19
	mov	x9, x8
	sxtw	x9, w9
	add	x21, x20, x9
	ldrb	w10, [x21]
	.loc	4 379 29 is_stmt 0              ; bash.c:379:29
	cbz	w10, LBB6_13
Ltmp172:
; %bb.6:                                ; %.lr.ph.preheader.i
	;DEBUG_VALUE: extract_colon_unit:start <- $w8
	;DEBUG_VALUE: extract_colon_unit:i <- $w8
	;DEBUG_VALUE: extract_colon_unit:len <- $w0
	;DEBUG_VALUE: extract_colon_unit:string <- $x20
	;DEBUG_VALUE: get_next_path_element:path_list <- $x20
	;DEBUG_VALUE: get_next_path_element:path_index_pointer <- $x19
	;DEBUG_VALUE: extract_colon_unit:p_index <- $x19
	.loc	4 379 32                        ; bash.c:379:32
	adrp	x11, ___llvm_gcov_ctr.7@PAGE+32
	ldr	x10, [x11, ___llvm_gcov_ctr.7@PAGEOFF+32]
Ltmp173:
	.loc	4 379 3                         ; bash.c:379:3
	add	x12, x10, #1
	adrp	x13, ___llvm_gcov_ctr.7@PAGE+40
	mov	x14, x9
Ltmp174:
LBB6_7:                                 ; %.lr.ph.i
                                        ; =>This Inner Loop Header: Depth=1
	;DEBUG_VALUE: extract_colon_unit:start <- $w8
	;DEBUG_VALUE: extract_colon_unit:len <- $w0
	;DEBUG_VALUE: extract_colon_unit:string <- $x20
	;DEBUG_VALUE: get_next_path_element:path_list <- $x20
	;DEBUG_VALUE: get_next_path_element:path_index_pointer <- $x19
	;DEBUG_VALUE: extract_colon_unit:p_index <- $x19
	;DEBUG_VALUE: extract_colon_unit:i <- $x14
	.loc	4 379 32                        ; bash.c:379:32
	str	x12, [x11, ___llvm_gcov_ctr.7@PAGEOFF+32]
	ldrb	w10, [x20, x14]
Ltmp175:
	.loc	4 379 3                         ; bash.c:379:3
	cmp	w10, #58
	b.eq	LBB6_14
Ltmp176:
; %bb.8:                                ;   in Loop: Header=BB6_7 Depth=1
	;DEBUG_VALUE: extract_colon_unit:i <- $x14
	;DEBUG_VALUE: extract_colon_unit:start <- $w8
	;DEBUG_VALUE: extract_colon_unit:len <- $w0
	;DEBUG_VALUE: extract_colon_unit:string <- $x20
	;DEBUG_VALUE: get_next_path_element:path_list <- $x20
	;DEBUG_VALUE: get_next_path_element:path_index_pointer <- $x19
	;DEBUG_VALUE: extract_colon_unit:p_index <- $x19
	.loc	4 379 51                        ; bash.c:379:51
	ldr	x10, [x13, ___llvm_gcov_ctr.7@PAGEOFF+40]
	add	x10, x10, #1
	str	x10, [x13, ___llvm_gcov_ctr.7@PAGEOFF+40]
	add	x10, x14, #1
Ltmp177:
	;DEBUG_VALUE: extract_colon_unit:i <- $x10
	.loc	4 379 19                        ; bash.c:379:19
	add	x14, x20, x14
	ldrb	w15, [x14, #1]
	.loc	4 379 29                        ; bash.c:379:29
	add	x12, x12, #1
	mov	x14, x10
	cbnz	w15, LBB6_7
Ltmp178:
; %bb.9:                                ; %.critedge.isplit
	;DEBUG_VALUE: extract_colon_unit:i <- $x10
	;DEBUG_VALUE: extract_colon_unit:start <- $w8
	;DEBUG_VALUE: extract_colon_unit:len <- $w0
	;DEBUG_VALUE: extract_colon_unit:string <- $x20
	;DEBUG_VALUE: get_next_path_element:path_list <- $x20
	;DEBUG_VALUE: get_next_path_element:path_index_pointer <- $x19
	;DEBUG_VALUE: extract_colon_unit:p_index <- $x19
	.loc	4 0 0                           ; bash.c:0:0
	add	x11, x20, x10
	b	LBB6_15
Ltmp179:
LBB6_10:
	;DEBUG_VALUE: extract_colon_unit:p_index <- $x1
	;DEBUG_VALUE: extract_colon_unit:string <- $x0
	;DEBUG_VALUE: get_next_path_element:path_index_pointer <- $x1
	;DEBUG_VALUE: get_next_path_element:path_list <- $x0
	.loc	4 363 5 is_stmt 1               ; bash.c:363:5
	adrp	x8, ___llvm_gcov_ctr.7@PAGE
	ldr	x9, [x8, ___llvm_gcov_ctr.7@PAGEOFF]
	add	x9, x9, #1
	str	x9, [x8, ___llvm_gcov_ctr.7@PAGEOFF]
	b	LBB6_12
Ltmp180:
LBB6_11:
	;DEBUG_VALUE: extract_colon_unit:len <- $w0
	;DEBUG_VALUE: extract_colon_unit:string <- $x20
	;DEBUG_VALUE: get_next_path_element:path_list <- $x20
	;DEBUG_VALUE: get_next_path_element:path_index_pointer <- $x19
	;DEBUG_VALUE: extract_colon_unit:p_index <- $x19
	.loc	4 367 5                         ; bash.c:367:5
	adrp	x8, ___llvm_gcov_ctr.7@PAGE+8
	ldr	x9, [x8, ___llvm_gcov_ctr.7@PAGEOFF+8]
	add	x9, x9, #1
	str	x9, [x8, ___llvm_gcov_ctr.7@PAGEOFF+8]
Ltmp181:
LBB6_12:
	.loc	4 0 5 is_stmt 0                 ; bash.c:0:5
	mov	x19, #0
Ltmp182:
	.loc	4 411 13 is_stmt 1              ; bash.c:411:13
	adrp	x8, ___llvm_gcov_ctr.6@PAGE+8
	ldr	x9, [x8, ___llvm_gcov_ctr.6@PAGEOFF+8]
	add	x9, x9, #1
	str	x9, [x8, ___llvm_gcov_ctr.6@PAGEOFF+8]
	b	LBB6_21
Ltmp183:
LBB6_13:                                ; %.critedge.thread.i
	;DEBUG_VALUE: extract_colon_unit:start <- $w8
	;DEBUG_VALUE: extract_colon_unit:i <- $w8
	;DEBUG_VALUE: extract_colon_unit:len <- $w0
	;DEBUG_VALUE: extract_colon_unit:string <- $x20
	;DEBUG_VALUE: get_next_path_element:path_list <- $x20
	;DEBUG_VALUE: get_next_path_element:path_index_pointer <- $x19
	;DEBUG_VALUE: extract_colon_unit:p_index <- $x19
	.loc	4 382 12                        ; bash.c:382:12
	str	w8, [x19]
	mov	x11, x21
	b	LBB6_16
Ltmp184:
LBB6_14:                                ; %.lr.ph.i..critedge.i_crit_edge
	;DEBUG_VALUE: extract_colon_unit:i <- $x14
	;DEBUG_VALUE: extract_colon_unit:start <- $w8
	;DEBUG_VALUE: extract_colon_unit:len <- $w0
	;DEBUG_VALUE: extract_colon_unit:string <- $x20
	;DEBUG_VALUE: get_next_path_element:path_list <- $x20
	;DEBUG_VALUE: get_next_path_element:path_index_pointer <- $x19
	;DEBUG_VALUE: extract_colon_unit:p_index <- $x19
	.loc	4 379 3                         ; bash.c:379:3
	add	x11, x20, x14
	mov	x10, x14
Ltmp185:
LBB6_15:                                ; %.critedge.i
	;DEBUG_VALUE: extract_colon_unit:start <- $w8
	;DEBUG_VALUE: extract_colon_unit:len <- $w0
	;DEBUG_VALUE: extract_colon_unit:string <- $x20
	;DEBUG_VALUE: get_next_path_element:path_list <- $x20
	;DEBUG_VALUE: get_next_path_element:path_index_pointer <- $x19
	;DEBUG_VALUE: extract_colon_unit:p_index <- $x19
	.loc	4 382 12                        ; bash.c:382:12
	str	w10, [x19]
	.loc	4 384 7                         ; bash.c:384:7
	cmp	w8, w10
	b.ne	LBB6_19
Ltmp186:
LBB6_16:
	;DEBUG_VALUE: extract_colon_unit:start <- $w8
	;DEBUG_VALUE: extract_colon_unit:len <- $w0
	;DEBUG_VALUE: extract_colon_unit:string <- $x20
	;DEBUG_VALUE: get_next_path_element:path_list <- $x20
	;DEBUG_VALUE: get_next_path_element:path_index_pointer <- $x19
	;DEBUG_VALUE: extract_colon_unit:p_index <- $x19
	.loc	4 386 11                        ; bash.c:386:11
	ldrb	w8, [x11]
Ltmp187:
	.loc	4 386 11 is_stmt 0              ; bash.c:386:11
	cbz	w8, LBB6_18
Ltmp188:
; %bb.17:
	;DEBUG_VALUE: extract_colon_unit:len <- $w0
	;DEBUG_VALUE: extract_colon_unit:string <- $x20
	;DEBUG_VALUE: get_next_path_element:path_list <- $x20
	;DEBUG_VALUE: get_next_path_element:path_index_pointer <- $x19
	;DEBUG_VALUE: extract_colon_unit:p_index <- $x19
	.loc	4 387 11 is_stmt 1              ; bash.c:387:11
	adrp	x8, ___llvm_gcov_ctr.7@PAGE+48
	ldr	x9, [x8, ___llvm_gcov_ctr.7@PAGEOFF+48]
	add	x9, x9, #1
	str	x9, [x8, ___llvm_gcov_ctr.7@PAGEOFF+48]
	.loc	4 387 19 is_stmt 0              ; bash.c:387:19
	ldr	w8, [x19]
	add	w8, w8, #1
	str	w8, [x19]
Ltmp189:
LBB6_18:
	;DEBUG_VALUE: extract_colon_unit:len <- $w0
	;DEBUG_VALUE: extract_colon_unit:string <- $x20
	;DEBUG_VALUE: get_next_path_element:path_list <- $x20
	;DEBUG_VALUE: get_next_path_element:path_index_pointer <- $x19
	;DEBUG_VALUE: extract_colon_unit:p_index <- $x19
	.loc	4 389 23 is_stmt 1              ; bash.c:389:23
	adrp	x8, ___llvm_gcov_ctr.7@PAGE+56
	ldr	x9, [x8, ___llvm_gcov_ctr.7@PAGEOFF+56]
	add	x9, x9, #1
	str	x9, [x8, ___llvm_gcov_ctr.7@PAGEOFF+56]
	mov	w0, #1
Ltmp190:
	bl	_xmalloc
Ltmp191:
	;DEBUG_VALUE: extract_colon_unit:value <- $x0
	.loc	4 0 23 is_stmt 0                ; bash.c:0:23
	mov	x19, x0
Ltmp192:
	;DEBUG_VALUE: get_next_path_element:path_index_pointer <- [DW_OP_LLVM_entry_value 1] $x1
	b	LBB6_20
Ltmp193:
LBB6_19:
	;DEBUG_VALUE: extract_colon_unit:start <- $w8
	;DEBUG_VALUE: extract_colon_unit:len <- $w0
	;DEBUG_VALUE: extract_colon_unit:string <- $x20
	;DEBUG_VALUE: get_next_path_element:path_list <- $x20
	;DEBUG_VALUE: get_next_path_element:path_index_pointer <- $x19
	;DEBUG_VALUE: extract_colon_unit:p_index <- $x19
	.loc	4 393 24 is_stmt 1              ; bash.c:393:24
Lloh27:
	adrp	x8, ___llvm_gcov_ctr.7@PAGE+64
Ltmp194:
	ldr	x11, [x8, ___llvm_gcov_ctr.7@PAGEOFF+64]
	add	x11, x11, #1
	str	x11, [x8, ___llvm_gcov_ctr.7@PAGEOFF+64]
Lloh28:
	adrp	x8, ___llvm_gcov_ctr.5@PAGE
	ldr	x11, [x8, ___llvm_gcov_ctr.5@PAGEOFF]
	add	x11, x11, #1
	str	x11, [x8, ___llvm_gcov_ctr.5@PAGEOFF]
Ltmp195:
	;DEBUG_VALUE: substring:end <- $w10
	;DEBUG_VALUE: substring:start <- undef
	;DEBUG_VALUE: substring:string <- undef
                                        ; kill: def $w10 killed $w10 killed $x10 def $x10
	.loc	4 347 51                        ; bash.c:347:51
	sxtw	x8, w10
	.loc	4 345 13                        ; bash.c:345:13
	sub	x20, x8, x9
Ltmp196:
	;DEBUG_VALUE: get_next_path_element:path_list <- [DW_OP_LLVM_entry_value 1] $x0
	;DEBUG_VALUE: substring:len <- $w20
	.loc	4 346 33                        ; bash.c:346:33
	add	w8, w20, #1
	.loc	4 346 29 is_stmt 0              ; bash.c:346:29
	sxtw	x0, w8
Ltmp197:
	.loc	4 346 20                        ; bash.c:346:20
	bl	_xmalloc
Ltmp198:
	mov	x19, x0
Ltmp199:
	;DEBUG_VALUE: get_next_path_element:path_index_pointer <- [DW_OP_LLVM_entry_value 1] $x1
	;DEBUG_VALUE: substring:result <- $x19
	;DEBUG_VALUE: extract_colon_unit:value <- $x19
	.loc	4 347 3 is_stmt 1               ; bash.c:347:3
	mov	x1, x21
	mov	x2, x20
	bl	_memcpy
Ltmp200:
	.loc	4 348 3                         ; bash.c:348:3
	add	x0, x19, x20
Ltmp201:
LBB6_20:                                ; %extract_colon_unit.exit
	;DEBUG_VALUE: get_next_path_element:path_index_pointer <- [DW_OP_LLVM_entry_value 1] $x1
	;DEBUG_VALUE: get_next_path_element:path <- $x19
	.loc	4 0 0 is_stmt 0                 ; bash.c:0:0
	strb	wzr, [x0]
Ltmp202:
	.loc	4 413 8 is_stmt 1               ; bash.c:413:8
	adrp	x8, ___llvm_gcov_ctr.6@PAGE
	ldr	x9, [x8, ___llvm_gcov_ctr.6@PAGEOFF]
	add	x9, x9, #1
	str	x9, [x8, ___llvm_gcov_ctr.6@PAGEOFF]
	.loc	4 413 7 is_stmt 0               ; bash.c:413:7
	ldrb	w8, [x19]
Ltmp203:
	.loc	4 413 7                         ; bash.c:413:7
	cbz	w8, LBB6_23
Ltmp204:
LBB6_21:
	.loc	4 420 1 is_stmt 1               ; bash.c:420:1
	mov	x0, x19
LBB6_22:
	ldp	x29, x30, [sp, #32]             ; 16-byte Folded Reload
	ldp	x20, x19, [sp, #16]             ; 16-byte Folded Reload
	ldp	x22, x21, [sp], #48             ; 16-byte Folded Reload
	ret
LBB6_23:
Ltmp205:
	;DEBUG_VALUE: get_next_path_element:path <- $x19
	;DEBUG_VALUE: get_next_path_element:path_index_pointer <- [DW_OP_LLVM_entry_value 1] $x1
	.loc	4 415 13                        ; bash.c:415:13
	adrp	x8, ___llvm_gcov_ctr.6@PAGE+16
	ldr	x9, [x8, ___llvm_gcov_ctr.6@PAGEOFF+16]
	add	x9, x9, #1
	str	x9, [x8, ___llvm_gcov_ctr.6@PAGEOFF+16]
	.loc	4 415 7 is_stmt 0               ; bash.c:415:7
	mov	x0, x19
	bl	_free
Ltmp206:
	.loc	4 416 46 is_stmt 1              ; bash.c:416:46
	mov	w0, #2
	bl	_xmalloc
Ltmp207:
	;DEBUG_VALUE: get_next_path_element:path <- $x0
	.loc	4 0 46 is_stmt 0                ; bash.c:0:46
	mov	w8, #46
	.loc	4 416 22                        ; bash.c:416:22
	strh	w8, [x0]
	b	LBB6_22
Ltmp208:
	.loh AdrpAdrp	Lloh27, Lloh28
Lfunc_end6:
	.cfi_endproc
                                        ; -- End function
	.globl	_make_full_pathname             ; -- Begin function make_full_pathname
	.p2align	2
_make_full_pathname:                    ; @make_full_pathname
Lfunc_begin7:
	.loc	4 427 0 is_stmt 1               ; bash.c:427:0
	.cfi_startproc
; %bb.0:
	;DEBUG_VALUE: make_full_pathname:path <- $x0
	;DEBUG_VALUE: make_full_pathname:name <- $x1
	;DEBUG_VALUE: make_full_pathname:name_len <- $w2
	stp	x22, x21, [sp, #-48]!           ; 16-byte Folded Spill
	.cfi_def_cfa_offset 48
	stp	x20, x19, [sp, #16]             ; 16-byte Folded Spill
	stp	x29, x30, [sp, #32]             ; 16-byte Folded Spill
	add	x29, sp, #32
	.cfi_def_cfa w29, 16
	.cfi_offset w30, -8
	.cfi_offset w29, -16
	.cfi_offset w19, -24
	.cfi_offset w20, -32
	.cfi_offset w21, -40
	.cfi_offset w22, -48
	mov	x19, x2
Ltmp209:
	;DEBUG_VALUE: make_full_pathname:name_len <- $w19
	mov	x20, x1
Ltmp210:
	;DEBUG_VALUE: make_full_pathname:name <- $x20
	mov	x21, x0
Ltmp211:
	;DEBUG_VALUE: make_full_pathname:path <- $x21
	adrp	x8, ___llvm_gcov_ctr.8@PAGE
	ldr	x9, [x8, ___llvm_gcov_ctr.8@PAGEOFF]
	add	x9, x9, #1
	str	x9, [x8, ___llvm_gcov_ctr.8@PAGEOFF]
Ltmp212:
	.loc	4 431 14 prologue_end           ; bash.c:431:14
	bl	_strlen
Ltmp213:
	mov	x22, x0
Ltmp214:
	;DEBUG_VALUE: make_full_pathname:path_len <- $w22
	.loc	4 432 35                        ; bash.c:432:35
	add	w8, w19, w22
	.loc	4 432 46 is_stmt 0              ; bash.c:432:46
	add	w8, w8, #2
	.loc	4 432 33                        ; bash.c:432:33
	sxtw	x0, w8
	.loc	4 432 24                        ; bash.c:432:24
	bl	_xmalloc
Ltmp215:
	mov	x19, x0
Ltmp216:
	;DEBUG_VALUE: make_full_pathname:full_path <- $x19
	.loc	4 433 3 is_stmt 1               ; bash.c:433:3
	mov	x1, x21
	bl	_strcpy
Ltmp217:
	.loc	4 434 3                         ; bash.c:434:3
	add	x0, x0, w22, sxtw
	mov	w8, #47
	.loc	4 434 23 is_stmt 0              ; bash.c:434:23
	strb	w8, [x0], #1
	.loc	4 435 3 is_stmt 1               ; bash.c:435:3
	mov	x1, x20
Ltmp218:
	;DEBUG_VALUE: make_full_pathname:name <- $x1
	bl	_strcpy
Ltmp219:
	.loc	4 436 3                         ; bash.c:436:3
	mov	x0, x19
	ldp	x29, x30, [sp, #32]             ; 16-byte Folded Reload
	ldp	x20, x19, [sp, #16]             ; 16-byte Folded Reload
Ltmp220:
	ldp	x22, x21, [sp], #48             ; 16-byte Folded Reload
Ltmp221:
	;DEBUG_VALUE: make_full_pathname:path <- [DW_OP_LLVM_entry_value 1] $x0
	ret
Ltmp222:
Lfunc_end7:
	.cfi_endproc
                                        ; -- End function
	.globl	_get_current_user_info          ; -- Begin function get_current_user_info
	.p2align	2
_get_current_user_info:                 ; @get_current_user_info
Lfunc_begin8:
	.loc	4 442 0                         ; bash.c:442:0
	.cfi_startproc
; %bb.0:
	stp	x20, x19, [sp, #-32]!           ; 16-byte Folded Spill
	.cfi_def_cfa_offset 32
	stp	x29, x30, [sp, #16]             ; 16-byte Folded Spill
	add	x29, sp, #16
	.cfi_def_cfa w29, 16
	.cfi_offset w30, -8
	.cfi_offset w29, -16
	.cfi_offset w19, -24
	.cfi_offset w20, -32
	adrp	x8, ___llvm_gcov_ctr.9@PAGE
	ldr	x9, [x8, ___llvm_gcov_ctr.9@PAGEOFF]
	add	x9, x9, #1
	str	x9, [x8, ___llvm_gcov_ctr.9@PAGEOFF]
Ltmp223:
	.loc	4 446 20 prologue_end           ; bash.c:446:20
	adrp	x20, _current_user@PAGE+16
	ldr	x8, [x20, _current_user@PAGEOFF+16]
Ltmp224:
	.loc	4 446 7 is_stmt 0               ; bash.c:446:7
	cbz	x8, LBB8_2
; %bb.1:
	.loc	4 470 1 is_stmt 1               ; bash.c:470:1
	ldp	x29, x30, [sp, #16]             ; 16-byte Folded Reload
	ldp	x20, x19, [sp], #32             ; 16-byte Folded Reload
	ret
LBB8_2:
Ltmp225:
	.loc	4 451 38                        ; bash.c:451:38
Lloh29:
	adrp	x8, _current_user@PAGE
Lloh30:
	ldr	w0, [x8, _current_user@PAGEOFF]
	.loc	4 451 15 is_stmt 0              ; bash.c:451:15
	bl	_getpwuid
Ltmp226:
	;DEBUG_VALUE: get_current_user_info:entry <- $x0
	.loc	4 453 11 is_stmt 1              ; bash.c:453:11
	cbz	x0, LBB8_6
Ltmp227:
; %bb.3:
	;DEBUG_VALUE: get_current_user_info:entry <- $x0
	.loc	4 0 0 is_stmt 0                 ; bash.c:0:0
	mov	x19, x0
Ltmp228:
	;DEBUG_VALUE: get_current_user_info:entry <- $x19
	.loc	4 455 95 is_stmt 1              ; bash.c:455:95
	ldr	x0, [x0]
	.loc	4 455 80 is_stmt 0              ; bash.c:455:80
	bl	_strlen
Ltmp229:
	.loc	4 455 78                        ; bash.c:455:78
	add	x0, x0, #1
	.loc	4 455 68                        ; bash.c:455:68
	bl	_xmalloc
Ltmp230:
	.loc	4 455 114                       ; bash.c:455:114
	ldr	x1, [x19]
	.loc	4 455 44                        ; bash.c:455:44
	bl	_strcpy
Ltmp231:
	.loc	4 455 34                        ; bash.c:455:34
	str	x0, [x20, _current_user@PAGEOFF+16]
	.loc	4 456 40 is_stmt 1              ; bash.c:456:40
	ldr	x0, [x19, #56]
	.loc	4 456 49 is_stmt 0              ; bash.c:456:49
	cbz	x0, LBB8_7
Ltmp232:
; %bb.4:
	;DEBUG_VALUE: get_current_user_info:entry <- $x19
	.loc	4 456 52                        ; bash.c:456:52
	adrp	x8, ___llvm_gcov_ctr.9@PAGE+8
	ldr	x9, [x8, ___llvm_gcov_ctr.9@PAGEOFF+8]
	add	x9, x9, #1
	str	x9, [x8, ___llvm_gcov_ctr.9@PAGEOFF+8]
	ldrb	w8, [x0]
	.loc	4 456 32                        ; bash.c:456:32
	cbz	w8, LBB8_7
Ltmp233:
; %bb.5:
	;DEBUG_VALUE: get_current_user_info:entry <- $x19
	.loc	4 457 87 is_stmt 1              ; bash.c:457:87
	adrp	x8, ___llvm_gcov_ctr.9@PAGE+16
	ldr	x9, [x8, ___llvm_gcov_ctr.9@PAGEOFF+16]
	add	x9, x9, #1
	str	x9, [x8, ___llvm_gcov_ctr.9@PAGEOFF+16]
	.loc	4 457 79 is_stmt 0              ; bash.c:457:79
	bl	_strlen
Ltmp234:
	.loc	4 457 77                        ; bash.c:457:77
	add	x0, x0, #1
	.loc	4 457 67                        ; bash.c:457:67
	bl	_xmalloc
Ltmp235:
	.loc	4 457 114                       ; bash.c:457:114
	ldr	x1, [x19, #56]
	.loc	4 457 43                        ; bash.c:457:43
	bl	_strcpy
Ltmp236:
	.loc	4 0 43                          ; bash.c:0:43
	b	LBB8_8
Ltmp237:
LBB8_6:
	;DEBUG_VALUE: get_current_user_info:entry <- $x0
	.loc	4 463 34 is_stmt 1              ; bash.c:463:34
Lloh31:
	adrp	x8, ___llvm_gcov_ctr.9@PAGE+32
	ldr	x9, [x8, ___llvm_gcov_ctr.9@PAGEOFF+32]
	add	x9, x9, #1
	str	x9, [x8, ___llvm_gcov_ctr.9@PAGEOFF+32]
Lloh32:
	adrp	x19, _current_user@PAGE+16
Lloh33:
	add	x19, x19, _current_user@PAGEOFF+16
Lloh34:
	adrp	x8, l_.str.2@PAGE
Lloh35:
	add	x8, x8, l_.str.2@PAGEOFF
	str	x8, [x19]
	.loc	4 464 68                        ; bash.c:464:68
	mov	w0, #16
Ltmp238:
	bl	_xmalloc
Ltmp239:
	.loc	4 464 128 is_stmt 0             ; bash.c:464:128
	ldr	x1, [x19]
	.loc	4 464 44                        ; bash.c:464:44
	bl	_strcpy
Ltmp240:
	.loc	4 464 34                        ; bash.c:464:34
	str	x0, [x19]
	.loc	4 465 64 is_stmt 1              ; bash.c:465:64
	mov	w0, #8
	bl	_xmalloc
Ltmp241:
	.loc	4 0 64 is_stmt 0                ; bash.c:0:64
	mov	x8, #25135
	movk	x8, #28265, lsl #16
	movk	x8, #29487, lsl #32
	movk	x8, #104, lsl #48
	.loc	4 465 40                        ; bash.c:465:40
	str	x8, [x0]
	.loc	4 465 30                        ; bash.c:465:30
	str	x0, [x19, #8]
	.loc	4 466 67 is_stmt 1              ; bash.c:466:67
	mov	w0, #2
	bl	_xmalloc
Ltmp242:
	.loc	4 0 67 is_stmt 0                ; bash.c:0:67
	mov	w8, #47
	.loc	4 466 43                        ; bash.c:466:43
	strh	w8, [x0]
	b	LBB8_9
Ltmp243:
LBB8_7:
	;DEBUG_VALUE: get_current_user_info:entry <- $x19
	.loc	4 458 67 is_stmt 1              ; bash.c:458:67
	adrp	x8, ___llvm_gcov_ctr.9@PAGE+24
	ldr	x9, [x8, ___llvm_gcov_ctr.9@PAGEOFF+24]
	add	x9, x9, #1
	str	x9, [x8, ___llvm_gcov_ctr.9@PAGEOFF+24]
	mov	w0, #8
	bl	_xmalloc
Ltmp244:
	.loc	4 0 67 is_stmt 0                ; bash.c:0:67
	mov	x8, #25135
	movk	x8, #28265, lsl #16
	movk	x8, #29487, lsl #32
	movk	x8, #104, lsl #48
	.loc	4 458 43                        ; bash.c:458:43
	str	x8, [x0]
Ltmp245:
LBB8_8:
	;DEBUG_VALUE: get_current_user_info:entry <- $x19
	.loc	4 456 30 is_stmt 1              ; bash.c:456:30
	adrp	x8, _current_user@PAGE+24
	str	x0, [x8, _current_user@PAGEOFF+24]
	.loc	4 459 94                        ; bash.c:459:94
	ldr	x0, [x19, #48]
	.loc	4 459 79 is_stmt 0              ; bash.c:459:79
	bl	_strlen
Ltmp246:
	.loc	4 459 77                        ; bash.c:459:77
	add	x0, x0, #1
	.loc	4 459 67                        ; bash.c:459:67
	bl	_xmalloc
Ltmp247:
	.loc	4 459 112                       ; bash.c:459:112
	ldr	x1, [x19, #48]
	.loc	4 459 43                        ; bash.c:459:43
	bl	_strcpy
Ltmp248:
LBB8_9:
	.loc	4 0 0                           ; bash.c:0:0
	adrp	x8, _current_user@PAGE+32
	str	x0, [x8, _current_user@PAGEOFF+32]
Ltmp249:
	.loc	4 468 7 is_stmt 1               ; bash.c:468:7
	ldp	x29, x30, [sp, #16]             ; 16-byte Folded Reload
	ldp	x20, x19, [sp], #32             ; 16-byte Folded Reload
Ltmp250:
	b	_endpwent
Ltmp251:
	.loh AdrpLdr	Lloh29, Lloh30
	.loh AdrpAdd	Lloh34, Lloh35
	.loh AdrpAdd	Lloh32, Lloh33
	.loh AdrpAdrp	Lloh31, Lloh34
Lfunc_end8:
	.cfi_endproc
	.file	17 "/Library/Developer/CommandLineTools/SDKs/MacOSX.sdk/usr/include" "pwd.h"
                                        ; -- End function
	.globl	_sh_get_env_value               ; -- Begin function sh_get_env_value
	.p2align	2
_sh_get_env_value:                      ; @sh_get_env_value
Lfunc_begin9:
	.loc	4 474 0                         ; bash.c:474:0
	.cfi_startproc
; %bb.0:
	;DEBUG_VALUE: sh_get_env_value:v <- $x0
	adrp	x8, ___llvm_gcov_ctr.10@PAGE
	ldr	x9, [x8, ___llvm_gcov_ctr.10@PAGEOFF]
	add	x9, x9, #1
	str	x9, [x8, ___llvm_gcov_ctr.10@PAGEOFF]
Ltmp252:
	.loc	4 475 10 prologue_end           ; bash.c:475:10
	b	_getenv
Ltmp253:
Lfunc_end9:
	.cfi_endproc
	.file	18 "/Library/Developer/CommandLineTools/SDKs/MacOSX.sdk/usr/include" "stdlib.h"
                                        ; -- End function
	.globl	_sh_get_home_dir                ; -- Begin function sh_get_home_dir
	.p2align	2
_sh_get_home_dir:                       ; @sh_get_home_dir
Lfunc_begin10:
	.loc	4 479 0                         ; bash.c:479:0
	.cfi_startproc
; %bb.0:
	stp	x20, x19, [sp, #-32]!           ; 16-byte Folded Spill
	.cfi_def_cfa_offset 32
	stp	x29, x30, [sp, #16]             ; 16-byte Folded Spill
	add	x29, sp, #16
	.cfi_def_cfa w29, 16
	.cfi_offset w30, -8
	.cfi_offset w29, -16
	.cfi_offset w19, -24
	.cfi_offset w20, -32
Ltmp254:
	.loc	4 480 20 prologue_end           ; bash.c:480:20
	adrp	x8, ___llvm_gcov_ctr.11@PAGE
	ldr	x9, [x8, ___llvm_gcov_ctr.11@PAGEOFF]
	add	x9, x9, #1
	str	x9, [x8, ___llvm_gcov_ctr.11@PAGEOFF]
	adrp	x19, _current_user@PAGE+32
	ldr	x0, [x19, _current_user@PAGEOFF+32]
Ltmp255:
	.loc	4 480 7 is_stmt 0               ; bash.c:480:7
	cbnz	x0, LBB10_2
; %bb.1:
Ltmp256:
	.loc	4 481 5 is_stmt 1               ; bash.c:481:5
	adrp	x8, ___llvm_gcov_ctr.11@PAGE+8
	ldr	x9, [x8, ___llvm_gcov_ctr.11@PAGEOFF+8]
	add	x9, x9, #1
	str	x9, [x8, ___llvm_gcov_ctr.11@PAGEOFF+8]
	bl	_get_current_user_info
Ltmp257:
	.loc	4 482 23                        ; bash.c:482:23
	ldr	x0, [x19, _current_user@PAGEOFF+32]
LBB10_2:
	.loc	4 482 3 is_stmt 0               ; bash.c:482:3
	ldp	x29, x30, [sp, #16]             ; 16-byte Folded Reload
	ldp	x20, x19, [sp], #32             ; 16-byte Folded Reload
	ret
Ltmp258:
Lfunc_end10:
	.cfi_endproc
                                        ; -- End function
	.p2align	2                               ; -- Begin function __llvm_gcov_writeout
___llvm_gcov_writeout:                  ; @__llvm_gcov_writeout
Lfunc_begin11:
	.cfi_startproc
; %bb.0:                                ; %entry
	stp	x22, x21, [sp, #-48]!           ; 16-byte Folded Spill
	.cfi_def_cfa_offset 48
	stp	x20, x19, [sp, #16]             ; 16-byte Folded Spill
	stp	x29, x30, [sp, #32]             ; 16-byte Folded Spill
	add	x29, sp, #32
	.cfi_def_cfa w29, 16
	.cfi_offset w30, -8
	.cfi_offset w29, -16
	.cfi_offset w19, -24
	.cfi_offset w20, -32
	.cfi_offset w21, -40
	.cfi_offset w22, -48
Lloh36:
	adrp	x0, l___unnamed_1@PAGE
Lloh37:
	add	x0, x0, l___unnamed_1@PAGEOFF
	mov	w1, #14378
	movk	w1, #13360, lsl #16
	mov	w2, #63497
	movk	w2, #54527, lsl #16
	bl	_llvm_gcda_start_file
	mov	x19, #0
Lloh38:
	adrp	x20, ___llvm_internal_gcov_emit_function_args.0@PAGE+8
Lloh39:
	add	x20, x20, ___llvm_internal_gcov_emit_function_args.0@PAGEOFF+8
Lloh40:
	adrp	x21, ___llvm_internal_gcov_emit_arcs_args.0@PAGE
Lloh41:
	add	x21, x21, ___llvm_internal_gcov_emit_arcs_args.0@PAGEOFF
LBB11_1:                                ; %counter.loop.header
                                        ; =>This Inner Loop Header: Depth=1
	ldp	w0, w1, [x20, #-8]
	ldr	w2, [x20], #12
	bl	_llvm_gcda_emit_function
	add	x8, x21, x19
	ldr	w0, [x8]
	ldr	x1, [x8, #8]
	bl	_llvm_gcda_emit_arcs
	add	x19, x19, #16
	cmp	x19, #208
	b.ne	LBB11_1
; %bb.2:                                ; %file.loop.latch
	bl	_llvm_gcda_summary_info
	ldp	x29, x30, [sp, #32]             ; 16-byte Folded Reload
	ldp	x20, x19, [sp, #16]             ; 16-byte Folded Reload
	ldp	x22, x21, [sp], #48             ; 16-byte Folded Reload
	b	_llvm_gcda_end_file
	.loh AdrpAdd	Lloh40, Lloh41
	.loh AdrpAdd	Lloh38, Lloh39
	.loh AdrpAdd	Lloh36, Lloh37
Lfunc_end11:
	.cfi_endproc
                                        ; -- End function
	.p2align	2                               ; -- Begin function __llvm_gcov_reset
___llvm_gcov_reset:                     ; @__llvm_gcov_reset
Lfunc_begin12:
	.cfi_startproc
; %bb.0:                                ; %entry
Lloh42:
	adrp	x8, ___llvm_gcov_ctr@PAGE
Lloh43:
	add	x8, x8, ___llvm_gcov_ctr@PAGEOFF
	movi.2d	v0, #0000000000000000
	stp	q0, q0, [x8, #16]
	str	q0, [x8]
Lloh44:
	adrp	x8, ___llvm_gcov_ctr.1@PAGE
Lloh45:
	add	x8, x8, ___llvm_gcov_ctr.1@PAGEOFF
	stp	xzr, xzr, [x8, #8]
	str	xzr, [x8]
Lloh46:
	adrp	x8, ___llvm_gcov_ctr.2@PAGE
Lloh47:
	add	x8, x8, ___llvm_gcov_ctr.2@PAGEOFF
	stp	q0, q0, [x8]
	str	q0, [x8, #32]
	str	xzr, [x8, #48]
Lloh48:
	adrp	x8, ___llvm_gcov_ctr.3@PAGE
Lloh49:
	add	x8, x8, ___llvm_gcov_ctr.3@PAGEOFF
	stp	q0, q0, [x8]
	stp	q0, q0, [x8, #32]
	stp	q0, q0, [x8, #64]
	str	xzr, [x8, #96]
Lloh50:
	adrp	x8, ___llvm_gcov_ctr.4@PAGE
	str	xzr, [x8, ___llvm_gcov_ctr.4@PAGEOFF]
Lloh51:
	adrp	x8, ___llvm_gcov_ctr.5@PAGE
	str	xzr, [x8, ___llvm_gcov_ctr.5@PAGEOFF]
Lloh52:
	adrp	x8, ___llvm_gcov_ctr.6@PAGE
Lloh53:
	add	x8, x8, ___llvm_gcov_ctr.6@PAGEOFF
	stp	xzr, xzr, [x8]
	str	xzr, [x8, #16]
Lloh54:
	adrp	x8, ___llvm_gcov_ctr.7@PAGE
Lloh55:
	add	x8, x8, ___llvm_gcov_ctr.7@PAGEOFF
	str	xzr, [x8, #64]
	stp	q0, q0, [x8, #32]
	stp	q0, q0, [x8]
Lloh56:
	adrp	x8, ___llvm_gcov_ctr.9@PAGE
Lloh57:
	add	x8, x8, ___llvm_gcov_ctr.9@PAGEOFF
	adrp	x9, ___llvm_gcov_ctr.8@PAGE
	str	xzr, [x9, ___llvm_gcov_ctr.8@PAGEOFF]
	str	xzr, [x8, #32]
	stp	q0, q0, [x8]
Lloh58:
	adrp	x8, ___llvm_gcov_ctr.10@PAGE
	str	xzr, [x8, ___llvm_gcov_ctr.10@PAGEOFF]
Lloh59:
	adrp	x8, ___llvm_gcov_ctr.11@PAGE
Lloh60:
	add	x8, x8, ___llvm_gcov_ctr.11@PAGEOFF
	stp	xzr, xzr, [x8]
Lloh61:
	adrp	x8, ___llvm_gcov_ctr.12@PAGE
Lloh62:
	add	x8, x8, ___llvm_gcov_ctr.12@PAGEOFF
	stp	q0, q0, [x8, #64]
	stp	q0, q0, [x8, #32]
	stp	q0, q0, [x8]
	ret
	.loh AdrpAdd	Lloh61, Lloh62
	.loh AdrpAdd	Lloh59, Lloh60
	.loh AdrpAdrp	Lloh58, Lloh59
	.loh AdrpAdd	Lloh56, Lloh57
	.loh AdrpAdd	Lloh54, Lloh55
	.loh AdrpAdd	Lloh52, Lloh53
	.loh AdrpAdrp	Lloh51, Lloh52
	.loh AdrpAdrp	Lloh50, Lloh51
	.loh AdrpAdd	Lloh48, Lloh49
	.loh AdrpAdd	Lloh46, Lloh47
	.loh AdrpAdd	Lloh44, Lloh45
	.loh AdrpAdd	Lloh42, Lloh43
Lfunc_end12:
	.cfi_endproc
                                        ; -- End function
	.p2align	2                               ; -- Begin function __llvm_gcov_init
___llvm_gcov_init:                      ; @__llvm_gcov_init
Lfunc_begin13:
	.cfi_startproc
; %bb.0:                                ; %entry
Lloh63:
	adrp	x0, ___llvm_gcov_writeout@PAGE
Lloh64:
	add	x0, x0, ___llvm_gcov_writeout@PAGEOFF
Lloh65:
	adrp	x1, ___llvm_gcov_reset@PAGE
Lloh66:
	add	x1, x1, ___llvm_gcov_reset@PAGEOFF
	b	_llvm_gcov_init
	.loh AdrpAdd	Lloh65, Lloh66
	.loh AdrpAdd	Lloh63, Lloh64
Lfunc_end13:
	.cfi_endproc
                                        ; -- End function
	.section	__DATA,__data
	.globl	_current_user                   ; @current_user
	.p2align	3, 0x0
_current_user:
	.long	4294967295                      ; 0xffffffff
	.long	4294967295                      ; 0xffffffff
	.long	4294967295                      ; 0xffffffff
	.long	4294967295                      ; 0xffffffff
	.quad	0
	.quad	0
	.quad	0

	.p2align	2, 0x0                          ; @getmaxgroups.maxgroups
_getmaxgroups.maxgroups:
	.long	4294967295                      ; 0xffffffff

.zerofill __DATA,__bss,_ngroups,4,2     ; @ngroups
.zerofill __DATA,__bss,_group_array,8,3 ; @group_array
	.section	__TEXT,__cstring,cstring_literals
l_.str.2:                               ; @.str.2
	.asciz	"I have no name!"

.zerofill __DATA,__bss,_maxgroups,4,2   ; @maxgroups
.zerofill __DATA,__bss,___llvm_gcov_ctr,48,4 ; @__llvm_gcov_ctr
.zerofill __DATA,__bss,___llvm_gcov_ctr.1,24,4 ; @__llvm_gcov_ctr.1
.zerofill __DATA,__bss,___llvm_gcov_ctr.2,56,4 ; @__llvm_gcov_ctr.2
.zerofill __DATA,__bss,___llvm_gcov_ctr.3,104,4 ; @__llvm_gcov_ctr.3
.zerofill __DATA,__bss,___llvm_gcov_ctr.4,8,3 ; @__llvm_gcov_ctr.4
.zerofill __DATA,__bss,___llvm_gcov_ctr.5,8,3 ; @__llvm_gcov_ctr.5
.zerofill __DATA,__bss,___llvm_gcov_ctr.6,24,4 ; @__llvm_gcov_ctr.6
.zerofill __DATA,__bss,___llvm_gcov_ctr.7,72,4 ; @__llvm_gcov_ctr.7
.zerofill __DATA,__bss,___llvm_gcov_ctr.8,8,3 ; @__llvm_gcov_ctr.8
.zerofill __DATA,__bss,___llvm_gcov_ctr.9,40,4 ; @__llvm_gcov_ctr.9
.zerofill __DATA,__bss,___llvm_gcov_ctr.10,8,3 ; @__llvm_gcov_ctr.10
.zerofill __DATA,__bss,___llvm_gcov_ctr.11,16,3 ; @__llvm_gcov_ctr.11
.zerofill __DATA,__bss,___llvm_gcov_ctr.12,96,4 ; @__llvm_gcov_ctr.12
l___unnamed_1:                          ; @0
	.asciz	"/Users/mac/rustmap-clone/c-code/which-2.21/bash.gcda"

	.section	__TEXT,__const
	.p2align	4, 0x0                          ; @__llvm_internal_gcov_emit_function_args.0
___llvm_internal_gcov_emit_function_args.0:
	.long	0                               ; 0x0
	.long	1856378190                      ; 0x6ea6154e
	.long	3573544969                      ; 0xd4fff809
	.long	1                               ; 0x1
	.long	2623745981                      ; 0x9c632fbd
	.long	3573544969                      ; 0xd4fff809
	.long	2                               ; 0x2
	.long	1215671289                      ; 0x4875abf9
	.long	3573544969                      ; 0xd4fff809
	.long	3                               ; 0x3
	.long	2240458803                      ; 0x858ab033
	.long	3573544969                      ; 0xd4fff809
	.long	4                               ; 0x4
	.long	2471468846                      ; 0x934f9f2e
	.long	3573544969                      ; 0xd4fff809
	.long	5                               ; 0x5
	.long	2444973826                      ; 0x91bb5702
	.long	3573544969                      ; 0xd4fff809
	.long	6                               ; 0x6
	.long	3323342232                      ; 0xc6162d98
	.long	3573544969                      ; 0xd4fff809
	.long	7                               ; 0x7
	.long	4153343468                      ; 0xf78efdec
	.long	3573544969                      ; 0xd4fff809
	.long	8                               ; 0x8
	.long	3422389587                      ; 0xcbfd8553
	.long	3573544969                      ; 0xd4fff809
	.long	9                               ; 0x9
	.long	1684962547                      ; 0x646e7cf3
	.long	3573544969                      ; 0xd4fff809
	.long	10                              ; 0xa
	.long	3301567347                      ; 0xc4c9eb73
	.long	3573544969                      ; 0xd4fff809
	.long	11                              ; 0xb
	.long	1518075053                      ; 0x5a7bfcad
	.long	3573544969                      ; 0xd4fff809
	.long	12                              ; 0xc
	.long	2306476661                      ; 0x897a0a75
	.long	3573544969                      ; 0xd4fff809

	.section	__DATA,__const
	.p2align	4, 0x0                          ; @__llvm_internal_gcov_emit_arcs_args.0
___llvm_internal_gcov_emit_arcs_args.0:
	.long	6                               ; 0x6
	.space	4
	.quad	___llvm_gcov_ctr
	.long	3                               ; 0x3
	.space	4
	.quad	___llvm_gcov_ctr.1
	.long	7                               ; 0x7
	.space	4
	.quad	___llvm_gcov_ctr.2
	.long	13                              ; 0xd
	.space	4
	.quad	___llvm_gcov_ctr.3
	.long	1                               ; 0x1
	.space	4
	.quad	___llvm_gcov_ctr.4
	.long	1                               ; 0x1
	.space	4
	.quad	___llvm_gcov_ctr.5
	.long	3                               ; 0x3
	.space	4
	.quad	___llvm_gcov_ctr.6
	.long	9                               ; 0x9
	.space	4
	.quad	___llvm_gcov_ctr.7
	.long	1                               ; 0x1
	.space	4
	.quad	___llvm_gcov_ctr.8
	.long	5                               ; 0x5
	.space	4
	.quad	___llvm_gcov_ctr.9
	.long	1                               ; 0x1
	.space	4
	.quad	___llvm_gcov_ctr.10
	.long	2                               ; 0x2
	.space	4
	.quad	___llvm_gcov_ctr.11
	.long	12                              ; 0xc
	.space	4
	.quad	___llvm_gcov_ctr.12

	.section	__DATA,__mod_init_func,mod_init_funcs
	.p2align	3, 0x0
	.quad	___llvm_gcov_init