	.section	__TEXT,__text,regular,pure_instructions
	.build_version macos, 14, 0	sdk_version 14, 2
	.file	1 "/Users/mac/rustmap-clone/c-code/which-2.21" "which.c"
	.file	2 "/Library/Developer/CommandLineTools/SDKs/MacOSX.sdk/usr/include/arm" "_types.h"
	.file	3 "/Library/Developer/CommandLineTools/SDKs/MacOSX.sdk/usr/include/sys" "_types.h"
	.file	4 "/Library/Developer/CommandLineTools/SDKs/MacOSX.sdk/usr/include/sys/_types" "_uid_t.h"
	.file	5 "/Library/Developer/CommandLineTools/SDKs/MacOSX.sdk/usr/include/sys/_types" "_size_t.h"
	.globl	_func_search                    ; -- Begin function func_search
	.p2align	2
_func_search:                           ; @func_search
Lfunc_begin0:
	.loc	1 263 0                         ; which.c:263:0
	.cfi_startproc
; %bb.0:
	;DEBUG_VALUE: func_search:indent <- $w0
	;DEBUG_VALUE: func_search:cmd <- $x1
	;DEBUG_VALUE: func_search:function_start_type <- $w3
	;DEBUG_VALUE: func_search:function_start_type <- $w3
	;DEBUG_VALUE: func_search:cmd <- $x1
	;DEBUG_VALUE: func_search:func_list <- undef
	;DEBUG_VALUE: func_search:indent <- $w0
	sub	sp, sp, #96
	.cfi_def_cfa_offset 96
	stp	x26, x25, [sp, #16]             ; 16-byte Folded Spill
	stp	x24, x23, [sp, #32]             ; 16-byte Folded Spill
	stp	x22, x21, [sp, #48]             ; 16-byte Folded Spill
	stp	x20, x19, [sp, #64]             ; 16-byte Folded Spill
	stp	x29, x30, [sp, #80]             ; 16-byte Folded Spill
	add	x29, sp, #80
	.cfi_def_cfa w29, 16
	.cfi_offset w30, -8
	.cfi_offset w29, -16
	.cfi_offset w19, -24
	.cfi_offset w20, -32
	.cfi_offset w21, -40
	.cfi_offset w22, -48
	.cfi_offset w23, -56
	.cfi_offset w24, -64
	.cfi_offset w25, -72
	.cfi_offset w26, -80
Ltmp0:
	;DEBUG_VALUE: func_search:i <- 0
Lloh0:
	adrp	x8, _func_count@PAGE
Lloh1:
	ldr	w8, [x8, _func_count@PAGEOFF]
Ltmp1:
	.loc	1 265 3 prologue_end            ; which.c:265:3
	cmp	w8, #1
	b.lt	LBB0_4
Ltmp2:
; %bb.1:                                ; %.lr.ph
	;DEBUG_VALUE: func_search:i <- 0
	;DEBUG_VALUE: func_search:function_start_type <- $w3
	;DEBUG_VALUE: func_search:cmd <- $x1
	;DEBUG_VALUE: func_search:indent <- $w0
	.loc	1 0 3 is_stmt 0                 ; which.c:0:3
	mov	x21, x3
Ltmp3:
	;DEBUG_VALUE: func_search:function_start_type <- $w21
	mov	x20, x1
Ltmp4:
	;DEBUG_VALUE: func_search:cmd <- $x20
	mov	x19, x0
Ltmp5:
	;DEBUG_VALUE: func_search:indent <- $w19
	mov	x22, #0
	adrp	x23, _functions@PAGE
	ldr	x24, [x23, _functions@PAGEOFF]
	.loc	1 265 3                         ; which.c:265:3
	lsl	x25, x8, #5
	adrp	x26, ___llvm_gcov_ctr@PAGE+40
Ltmp6:
LBB0_2:                                 ; =>This Inner Loop Header: Depth=1
	;DEBUG_VALUE: func_search:indent <- $w19
	;DEBUG_VALUE: func_search:cmd <- $x20
	;DEBUG_VALUE: func_search:function_start_type <- $w21
	;DEBUG_VALUE: func_search:i <- [DW_OP_consts 32, DW_OP_div, DW_OP_stack_value] $x22
	.loc	1 267 30 is_stmt 1              ; which.c:267:30
	ldr	x0, [x24, x22]
	.loc	1 267 10 is_stmt 0              ; which.c:267:10
	mov	x1, x20
	bl	_strcmp
Ltmp7:
	.loc	1 267 9                         ; which.c:267:9
	cbz	w0, LBB0_5
Ltmp8:
; %bb.3:                                ;   in Loop: Header=BB0_2 Depth=1
	;DEBUG_VALUE: func_search:i <- [DW_OP_consts 32, DW_OP_div, DW_OP_stack_value] $x22
	;DEBUG_VALUE: func_search:indent <- $w19
	;DEBUG_VALUE: func_search:cmd <- $x20
	;DEBUG_VALUE: func_search:function_start_type <- $w21
	.loc	1 265 31 is_stmt 1              ; which.c:265:31
	ldr	x8, [x26, ___llvm_gcov_ctr@PAGEOFF+40]
	add	x8, x8, #1
	str	x8, [x26, ___llvm_gcov_ctr@PAGEOFF+40]
Ltmp9:
	;DEBUG_VALUE: func_search:i <- [DW_OP_consts 32, DW_OP_div, DW_OP_consts 1, DW_OP_plus, DW_OP_stack_value] $x22
	.loc	1 265 17 is_stmt 0              ; which.c:265:17
	add	x22, x22, #32
Ltmp10:
	.loc	1 265 3                         ; which.c:265:3
	cmp	x25, x22
	b.ne	LBB0_2
Ltmp11:
LBB0_4:                                 ; %._crit_edge
	.loc	1 0 3                           ; which.c:0:3
	mov	w0, #0
	.loc	1 285 3 is_stmt 1               ; which.c:285:3
	adrp	x8, ___llvm_gcov_ctr@PAGE+48
	ldr	x9, [x8, ___llvm_gcov_ctr@PAGEOFF+48]
	add	x9, x9, #1
	str	x9, [x8, ___llvm_gcov_ctr@PAGEOFF+48]
	b	LBB0_16
LBB0_5:
Ltmp12:
	;DEBUG_VALUE: func_search:i <- [DW_OP_consts 32, DW_OP_div, DW_OP_stack_value] $x22
	;DEBUG_VALUE: func_search:indent <- $w19
	;DEBUG_VALUE: func_search:cmd <- $x20
	;DEBUG_VALUE: func_search:function_start_type <- $w21
	.loc	1 0 3 is_stmt 0                 ; which.c:0:3
Lloh2:
	adrp	x24, ___stdoutp@GOTPAGE
Lloh3:
	ldr	x24, [x24, ___stdoutp@GOTPAGEOFF]
Ltmp13:
	.loc	1 270 11 is_stmt 1              ; which.c:270:11
	cbz	w19, LBB0_7
Ltmp14:
; %bb.6:
	;DEBUG_VALUE: func_search:i <- [DW_OP_consts 32, DW_OP_div, DW_OP_stack_value] $x22
	;DEBUG_VALUE: func_search:indent <- $w19
	;DEBUG_VALUE: func_search:cmd <- $x20
	;DEBUG_VALUE: func_search:function_start_type <- $w21
	.loc	1 271 21                        ; which.c:271:21
	adrp	x8, ___llvm_gcov_ctr@PAGE
	ldr	x9, [x8, ___llvm_gcov_ctr@PAGEOFF]
	add	x9, x9, #1
	str	x9, [x8, ___llvm_gcov_ctr@PAGEOFF]
	ldr	x1, [x24]
	.loc	1 271 9 is_stmt 0               ; which.c:271:9
	mov	w0, #9
	bl	_fputc
Ltmp15:
LBB0_7:
	;DEBUG_VALUE: func_search:i <- [DW_OP_consts 32, DW_OP_div, DW_OP_stack_value] $x22
	;DEBUG_VALUE: func_search:indent <- $w19
	;DEBUG_VALUE: func_search:cmd <- $x20
	;DEBUG_VALUE: func_search:function_start_type <- $w21
	.loc	1 272 11 is_stmt 1              ; which.c:272:11
	cmp	w21, #1
	b.ne	LBB0_9
Ltmp16:
; %bb.8:
	;DEBUG_VALUE: func_search:i <- [DW_OP_consts 32, DW_OP_div, DW_OP_stack_value] $x22
	;DEBUG_VALUE: func_search:indent <- $w19
	;DEBUG_VALUE: func_search:cmd <- $x20
	;DEBUG_VALUE: func_search:function_start_type <- $w21
	.loc	1 273 10                        ; which.c:273:10
	adrp	x8, ___llvm_gcov_ctr@PAGE+8
	ldr	x9, [x8, ___llvm_gcov_ctr@PAGEOFF+8]
	add	x9, x9, #1
	str	x9, [x8, ___llvm_gcov_ctr@PAGEOFF+8]
Lloh4:
	adrp	x1, l_.str@PAGE
Lloh5:
	add	x1, x1, l_.str@PAGEOFF
	b	LBB0_10
Ltmp17:
LBB0_9:
	;DEBUG_VALUE: func_search:i <- [DW_OP_consts 32, DW_OP_div, DW_OP_stack_value] $x22
	;DEBUG_VALUE: func_search:indent <- $w19
	;DEBUG_VALUE: func_search:cmd <- $x20
	;DEBUG_VALUE: func_search:function_start_type <- $w21
	.loc	1 275 10                        ; which.c:275:10
	adrp	x8, ___llvm_gcov_ctr@PAGE+16
	ldr	x9, [x8, ___llvm_gcov_ctr@PAGEOFF+16]
	add	x9, x9, #1
	str	x9, [x8, ___llvm_gcov_ctr@PAGEOFF+16]
Lloh6:
	adrp	x1, l_.str.1@PAGE
Lloh7:
	add	x1, x1, l_.str.1@PAGEOFF
Ltmp18:
LBB0_10:
	;DEBUG_VALUE: func_search:i <- [DW_OP_consts 32, DW_OP_div, DW_OP_stack_value] $x22
	;DEBUG_VALUE: func_search:indent <- $w19
	;DEBUG_VALUE: func_search:cmd <- $x20
	;DEBUG_VALUE: func_search:function_start_type <- $w21
	.loc	1 0 0 is_stmt 0                 ; which.c:0:0
	ldr	x0, [x24]
	str	x20, [sp]
	bl	_fprintf
Ltmp19:
	;DEBUG_VALUE: j <- 0
	.loc	1 276 23 is_stmt 1              ; which.c:276:23
	ldr	x8, [x23, _functions@PAGEOFF]
	.loc	1 276 36 is_stmt 0              ; which.c:276:36
	add	x9, x8, x22
	ldr	w9, [x9, #24]
Ltmp20:
	.loc	1 276 7                         ; which.c:276:7
	cmp	w9, #1
	b.lt	LBB0_15
Ltmp21:
; %bb.11:                               ; %.lr.ph26.preheader
	;DEBUG_VALUE: j <- 0
	;DEBUG_VALUE: func_search:i <- [DW_OP_consts 32, DW_OP_div, DW_OP_stack_value] $x22
	;DEBUG_VALUE: func_search:indent <- $w19
	;DEBUG_VALUE: func_search:cmd <- $x20
	;DEBUG_VALUE: func_search:function_start_type <- $w21
	.loc	1 0 7                           ; which.c:0:7
	mov	x20, #0
Ltmp22:
	;DEBUG_VALUE: func_search:cmd <- [DW_OP_LLVM_entry_value 1] $x1
	adrp	x21, ___llvm_gcov_ctr@PAGE+24
Ltmp23:
	adrp	x25, ___llvm_gcov_ctr@PAGE+32
	b	LBB0_13
Ltmp24:
LBB0_12:                                ;   in Loop: Header=BB0_13 Depth=1
	;DEBUG_VALUE: j <- $x20
	;DEBUG_VALUE: func_search:cmd <- [DW_OP_LLVM_entry_value 1] $x1
	;DEBUG_VALUE: func_search:i <- [DW_OP_consts 32, DW_OP_div, DW_OP_stack_value] $x22
	;DEBUG_VALUE: func_search:indent <- $w19
	.loc	1 280 28 is_stmt 1              ; which.c:280:28
	add	x8, x8, x22
	ldr	x8, [x8, #16]
	.loc	1 280 15 is_stmt 0              ; which.c:280:15
	ldr	x0, [x8, x20, lsl  #3]
	.loc	1 280 38                        ; which.c:280:38
	ldr	x1, [x24]
	.loc	1 280 9                         ; which.c:280:9
	bl	_fputs
Ltmp25:
	.loc	1 276 48 is_stmt 1              ; which.c:276:48
	add	x20, x20, #1
Ltmp26:
	;DEBUG_VALUE: j <- $x20
	.loc	1 276 23 is_stmt 0              ; which.c:276:23
	ldr	x8, [x23, _functions@PAGEOFF]
	.loc	1 276 36                        ; which.c:276:36
	add	x9, x8, x22
	ldrsw	x9, [x9, #24]
Ltmp27:
	.loc	1 276 7                         ; which.c:276:7
	cmp	x20, x9
	b.ge	LBB0_15
Ltmp28:
LBB0_13:                                ; %.lr.ph26
                                        ; =>This Inner Loop Header: Depth=1
	;DEBUG_VALUE: func_search:cmd <- [DW_OP_LLVM_entry_value 1] $x1
	;DEBUG_VALUE: func_search:i <- [DW_OP_consts 32, DW_OP_div, DW_OP_stack_value] $x22
	;DEBUG_VALUE: func_search:indent <- $w19
	;DEBUG_VALUE: j <- $x20
	.loc	1 278 6 is_stmt 1               ; which.c:278:6
	ldr	x9, [x21, ___llvm_gcov_ctr@PAGEOFF+24]
	add	x9, x9, #1
	str	x9, [x21, ___llvm_gcov_ctr@PAGEOFF+24]
Ltmp29:
	.loc	1 278 6 is_stmt 0               ; which.c:278:6
	cbz	w19, LBB0_12
Ltmp30:
; %bb.14:                               ;   in Loop: Header=BB0_13 Depth=1
	;DEBUG_VALUE: j <- $x20
	;DEBUG_VALUE: func_search:cmd <- [DW_OP_LLVM_entry_value 1] $x1
	;DEBUG_VALUE: func_search:i <- [DW_OP_consts 32, DW_OP_div, DW_OP_stack_value] $x22
	;DEBUG_VALUE: func_search:indent <- $w19
	.loc	1 279 16 is_stmt 1              ; which.c:279:16
	ldr	x8, [x25, ___llvm_gcov_ctr@PAGEOFF+32]
	add	x8, x8, #1
	str	x8, [x25, ___llvm_gcov_ctr@PAGEOFF+32]
	ldr	x1, [x24]
	.loc	1 279 4 is_stmt 0               ; which.c:279:4
	mov	w0, #9
	bl	_fputc
Ltmp31:
	.loc	1 280 15 is_stmt 1              ; which.c:280:15
	ldr	x8, [x23, _functions@PAGEOFF]
	b	LBB0_12
Ltmp32:
LBB0_15:
	;DEBUG_VALUE: func_search:i <- [DW_OP_consts 32, DW_OP_div, DW_OP_stack_value] $x22
	;DEBUG_VALUE: func_search:indent <- $w19
	.loc	1 0 15 is_stmt 0                ; which.c:0:15
	mov	w0, #1
Ltmp33:
LBB0_16:                                ; %.loopexit
	.loc	1 286 1 is_stmt 1               ; which.c:286:1
	ldp	x29, x30, [sp, #80]             ; 16-byte Folded Reload
	ldp	x20, x19, [sp, #64]             ; 16-byte Folded Reload
	ldp	x22, x21, [sp, #48]             ; 16-byte Folded Reload
	ldp	x24, x23, [sp, #32]             ; 16-byte Folded Reload
	ldp	x26, x25, [sp, #16]             ; 16-byte Folded Reload
	add	sp, sp, #96
	ret
Ltmp34:
	.loh AdrpLdr	Lloh0, Lloh1
	.loh AdrpLdrGot	Lloh2, Lloh3
	.loh AdrpAdd	Lloh4, Lloh5
	.loh AdrpAdd	Lloh6, Lloh7
Lfunc_end0:
	.cfi_endproc
	.file	6 "/Library/Developer/CommandLineTools/SDKs/MacOSX.sdk/usr/include" "stdio.h"
	.file	7 "/Library/Developer/CommandLineTools/SDKs/MacOSX.sdk/usr/include" "_stdio.h"
                                        ; -- End function
	.globl	_path_search                    ; -- Begin function path_search
	.p2align	2
_path_search:                           ; @path_search
Lfunc_begin1:
	.loc	1 289 0                         ; which.c:289:0
	.cfi_startproc
; %bb.0:
	;DEBUG_VALUE: path_search:indent <- $w0
	;DEBUG_VALUE: path_search:cmd <- $x1
	;DEBUG_VALUE: path_search:path_list <- $x2
	;DEBUG_VALUE: path_search:path_list <- $x2
	;DEBUG_VALUE: path_search:cmd <- $x1
	sub	sp, sp, #176
	.cfi_def_cfa_offset 176
	stp	x28, x27, [sp, #80]             ; 16-byte Folded Spill
	stp	x26, x25, [sp, #96]             ; 16-byte Folded Spill
	stp	x24, x23, [sp, #112]            ; 16-byte Folded Spill
	stp	x22, x21, [sp, #128]            ; 16-byte Folded Spill
	stp	x20, x19, [sp, #144]            ; 16-byte Folded Spill
	stp	x29, x30, [sp, #160]            ; 16-byte Folded Spill
	add	x29, sp, #160
	.cfi_def_cfa w29, 16
	.cfi_offset w30, -8
	.cfi_offset w29, -16
	.cfi_offset w19, -24
	.cfi_offset w20, -32
	.cfi_offset w21, -40
	.cfi_offset w22, -48
	.cfi_offset w23, -56
	.cfi_offset w24, -64
	.cfi_offset w25, -72
	.cfi_offset w26, -80
	.cfi_offset w27, -88
	.cfi_offset w28, -96
	adrp	x8, ___llvm_gcov_ctr.1@PAGE
	ldr	x9, [x8, ___llvm_gcov_ctr.1@PAGEOFF]
	add	x9, x9, #1
	str	x9, [x8, ___llvm_gcov_ctr.1@PAGEOFF]
Ltmp35:
	;DEBUG_VALUE: path_search:found_something <- 0
	;DEBUG_VALUE: path_search:result <- 0
	.loc	1 293 17 prologue_end           ; which.c:293:17
	cbz	x2, LBB1_86
Ltmp36:
; %bb.1:
	;DEBUG_VALUE: path_search:result <- 0
	;DEBUG_VALUE: path_search:found_something <- 0
	;DEBUG_VALUE: path_search:path_list <- $x2
	;DEBUG_VALUE: path_search:cmd <- $x1
	;DEBUG_VALUE: path_search:indent <- $w0
	.loc	1 0 17 is_stmt 0                ; which.c:0:17
	mov	x19, x2
Ltmp37:
	;DEBUG_VALUE: path_search:path_list <- $x19
	;DEBUG_VALUE: path_search:cmd <- $x1
	.loc	1 293 21                        ; which.c:293:21
	adrp	x8, ___llvm_gcov_ctr.1@PAGE+8
	ldr	x9, [x8, ___llvm_gcov_ctr.1@PAGEOFF+8]
	add	x9, x9, #1
	str	x9, [x8, ___llvm_gcov_ctr.1@PAGEOFF+8]
	.loc	1 293 20                        ; which.c:293:20
	ldrb	w8, [x2]
Ltmp38:
	.loc	1 293 7                         ; which.c:293:7
	cbz	w8, LBB1_86
Ltmp39:
; %bb.2:
	;DEBUG_VALUE: path_search:path_list <- $x19
	;DEBUG_VALUE: path_search:result <- 0
	;DEBUG_VALUE: path_search:found_something <- 0
	;DEBUG_VALUE: path_search:cmd <- $x1
	;DEBUG_VALUE: path_search:indent <- $w0
	.loc	1 0 7                           ; which.c:0:7
	mov	x20, x1
Ltmp40:
	;DEBUG_VALUE: path_search:cmd <- $x20
	;DEBUG_VALUE: path_index <- 0
	str	w0, [sp, #20]                   ; 4-byte Folded Spill
Ltmp41:
	;DEBUG_VALUE: path_search:indent <- [DW_OP_plus_uconst 20] [$sp+0]
	str	wzr, [sp, #44]                  ; 4-byte Folded Spill
	adrp	x8, _show_all@PAGE
Ltmp42:
	.loc	1 296 9 is_stmt 1               ; which.c:296:9
	str	wzr, [sp, #76]
	adrp	x23, ___llvm_gcov_ctr.2@PAGE
	adrp	x21, _absolute_path_given@PAGE
	adrp	x22, ___llvm_gcov_ctr.2@PAGE+48
	adrp	x27, ___llvm_gcov_ctr.5@PAGE
	mov	w9, #1
	dup.2d	v0, x9
	str	q0, [sp, #48]                   ; 16-byte Folded Spill
Lloh8:
	adrp	x25, ___llvm_gcov_ctr.2@PAGE+128
Lloh9:
	add	x25, x25, ___llvm_gcov_ctr.2@PAGEOFF+128
	adrp	x24, ___llvm_gcov_ctr.2@PAGE+56
	stp	x1, x19, [sp, #24]              ; 16-byte Folded Spill
Ltmp43:
LBB1_3:                                 ; =>This Loop Header: Depth=1
                                        ;     Child Loop BB1_14 Depth 2
                                        ;     Child Loop BB1_41 Depth 2
                                        ;       Child Loop BB1_53 Depth 3
	;DEBUG_VALUE: path_search:indent <- [DW_OP_plus_uconst 20] [$sp+0]
	;DEBUG_VALUE: path_search:found_something <- [DW_OP_plus_uconst 44] [$sp+0]
	.loc	1 299 14                        ; which.c:299:14
	ldrb	w8, [x8, _show_all@PAGEOFF]
Ltmp44:
	;DEBUG_VALUE: next <- $w8
	;DEBUG_VALUE: path_index <- [DW_OP_plus_uconst 76, DW_OP_deref] $sp
	.loc	1 0 14 is_stmt 0                ; which.c:0:14
	str	w8, [sp, #40]                   ; 4-byte Folded Spill
Ltmp45:
	;DEBUG_VALUE: next <- [DW_OP_plus_uconst 40] [$sp+0]
	;DEBUG_VALUE: next <- [DW_OP_plus_uconst 40] [$sp+0]
	;DEBUG_VALUE: find_command_in_path:found <- 0
	;DEBUG_VALUE: find_command_in_path:path_index <- [DW_OP_plus_uconst 76, DW_OP_stack_value] $sp
	;DEBUG_VALUE: find_command_in_path:path_list <- $x19
	;DEBUG_VALUE: find_command_in_path:name <- $x20
	;DEBUG_VALUE: next <- [DW_OP_plus_uconst 40] [$sp+0]
	.loc	1 82 14 is_stmt 1               ; which.c:82:14
	mov	x0, x20
	bl	_strlen
Ltmp46:
	mov	x26, x0
Ltmp47:
	;DEBUG_VALUE: find_command_in_path:name_len <- undef
	.loc	1 84 8                          ; which.c:84:8
	mov	x0, x20
	bl	_absolute_program
Ltmp48:
	.loc	1 84 7 is_stmt 0                ; which.c:84:7
	cbz	w0, LBB1_12
Ltmp49:
; %bb.4:                                ;   in Loop: Header=BB1_3 Depth=1
	;DEBUG_VALUE: next <- [DW_OP_plus_uconst 40] [$sp+0]
	;DEBUG_VALUE: find_command_in_path:name <- $x20
	;DEBUG_VALUE: find_command_in_path:path_list <- $x19
	;DEBUG_VALUE: find_command_in_path:path_index <- [DW_OP_plus_uconst 76, DW_OP_stack_value] $sp
	;DEBUG_VALUE: find_command_in_path:found <- 0
	;DEBUG_VALUE: path_index <- [DW_OP_plus_uconst 76, DW_OP_deref] $sp
	;DEBUG_VALUE: path_search:found_something <- [DW_OP_plus_uconst 44] [$sp+0]
	;DEBUG_VALUE: path_search:indent <- [DW_OP_plus_uconst 20] [$sp+0]
	.loc	1 89 25 is_stmt 1               ; which.c:89:25
	mov	w8, #1
	strb	w8, [x21, _absolute_path_given@PAGEOFF]
	adrp	x23, _abs_path@PAGE
Ltmp50:
	.loc	1 91 9                          ; which.c:91:9
	ldr	x0, [x23, _abs_path@PAGEOFF]
Ltmp51:
	.loc	1 91 9 is_stmt 0                ; which.c:91:9
	cbz	x0, LBB1_6
Ltmp52:
; %bb.5:                                ;   in Loop: Header=BB1_3 Depth=1
	;DEBUG_VALUE: next <- [DW_OP_plus_uconst 40] [$sp+0]
	;DEBUG_VALUE: find_command_in_path:name <- $x20
	;DEBUG_VALUE: find_command_in_path:path_list <- $x19
	;DEBUG_VALUE: find_command_in_path:path_index <- [DW_OP_plus_uconst 76, DW_OP_stack_value] $sp
	;DEBUG_VALUE: find_command_in_path:found <- 0
	;DEBUG_VALUE: path_index <- [DW_OP_plus_uconst 76, DW_OP_deref] $sp
	;DEBUG_VALUE: path_search:found_something <- [DW_OP_plus_uconst 44] [$sp+0]
	;DEBUG_VALUE: path_search:indent <- [DW_OP_plus_uconst 20] [$sp+0]
	.loc	1 0 9                           ; which.c:0:9
	adrp	x9, ___llvm_gcov_ctr.2@PAGE+8
Ltmp53:
	.loc	1 92 12 is_stmt 1               ; which.c:92:12
	ldr	x8, [x9, ___llvm_gcov_ctr.2@PAGEOFF+8]
	add	x8, x8, #1
	str	x8, [x9, ___llvm_gcov_ctr.2@PAGEOFF+8]
	.loc	1 92 7 is_stmt 0                ; which.c:92:7
	bl	_free
Ltmp54:
LBB1_6:                                 ;   in Loop: Header=BB1_3 Depth=1
	;DEBUG_VALUE: next <- [DW_OP_plus_uconst 40] [$sp+0]
	;DEBUG_VALUE: find_command_in_path:name <- $x20
	;DEBUG_VALUE: find_command_in_path:path_list <- $x19
	;DEBUG_VALUE: find_command_in_path:path_index <- [DW_OP_plus_uconst 76, DW_OP_stack_value] $sp
	;DEBUG_VALUE: find_command_in_path:found <- 0
	;DEBUG_VALUE: path_index <- [DW_OP_plus_uconst 76, DW_OP_deref] $sp
	;DEBUG_VALUE: path_search:found_something <- [DW_OP_plus_uconst 44] [$sp+0]
	;DEBUG_VALUE: path_search:indent <- [DW_OP_plus_uconst 20] [$sp+0]
	.loc	1 94 9 is_stmt 1                ; which.c:94:9
	ldrb	w8, [x20]
	.loc	1 94 22 is_stmt 0               ; which.c:94:22
	cmp	w8, #46
	b.eq	LBB1_9
Ltmp55:
; %bb.7:                                ;   in Loop: Header=BB1_3 Depth=1
	;DEBUG_VALUE: next <- [DW_OP_plus_uconst 40] [$sp+0]
	;DEBUG_VALUE: find_command_in_path:name <- $x20
	;DEBUG_VALUE: find_command_in_path:path_list <- $x19
	;DEBUG_VALUE: find_command_in_path:path_index <- [DW_OP_plus_uconst 76, DW_OP_stack_value] $sp
	;DEBUG_VALUE: find_command_in_path:found <- 0
	;DEBUG_VALUE: path_index <- [DW_OP_plus_uconst 76, DW_OP_deref] $sp
	;DEBUG_VALUE: path_search:found_something <- [DW_OP_plus_uconst 44] [$sp+0]
	;DEBUG_VALUE: path_search:indent <- [DW_OP_plus_uconst 20] [$sp+0]
	.loc	1 0 22                          ; which.c:0:22
	adrp	x9, ___llvm_gcov_ctr.2@PAGE+16
	.loc	1 94 26                         ; which.c:94:26
	ldr	x8, [x9, ___llvm_gcov_ctr.2@PAGEOFF+16]
	add	x8, x8, #1
	str	x8, [x9, ___llvm_gcov_ctr.2@PAGEOFF+16]
	.loc	1 94 25                         ; which.c:94:25
	ldrb	w8, [x20]
	.loc	1 94 38                         ; which.c:94:38
	cmp	w8, #47
	b.eq	LBB1_9
Ltmp56:
; %bb.8:                                ;   in Loop: Header=BB1_3 Depth=1
	;DEBUG_VALUE: next <- [DW_OP_plus_uconst 40] [$sp+0]
	;DEBUG_VALUE: find_command_in_path:name <- $x20
	;DEBUG_VALUE: find_command_in_path:path_list <- $x19
	;DEBUG_VALUE: find_command_in_path:path_index <- [DW_OP_plus_uconst 76, DW_OP_stack_value] $sp
	;DEBUG_VALUE: find_command_in_path:found <- 0
	;DEBUG_VALUE: path_index <- [DW_OP_plus_uconst 76, DW_OP_deref] $sp
	;DEBUG_VALUE: path_search:found_something <- [DW_OP_plus_uconst 44] [$sp+0]
	;DEBUG_VALUE: path_search:indent <- [DW_OP_plus_uconst 20] [$sp+0]
	.loc	1 0 38                          ; which.c:0:38
	adrp	x9, ___llvm_gcov_ctr.2@PAGE+24
	.loc	1 94 42                         ; which.c:94:42
	ldr	x8, [x9, ___llvm_gcov_ctr.2@PAGEOFF+24]
	add	x8, x8, #1
	str	x8, [x9, ___llvm_gcov_ctr.2@PAGEOFF+24]
	.loc	1 94 41                         ; which.c:94:41
	ldrb	w8, [x20]
Ltmp57:
	.loc	1 94 9                          ; which.c:94:9
	cmp	w8, #126
	b.ne	LBB1_34
Ltmp58:
LBB1_9:                                 ;   in Loop: Header=BB1_3 Depth=1
	;DEBUG_VALUE: next <- [DW_OP_plus_uconst 40] [$sp+0]
	;DEBUG_VALUE: find_command_in_path:name <- $x20
	;DEBUG_VALUE: find_command_in_path:path_list <- $x19
	;DEBUG_VALUE: find_command_in_path:path_index <- [DW_OP_plus_uconst 76, DW_OP_stack_value] $sp
	;DEBUG_VALUE: find_command_in_path:found <- 0
	;DEBUG_VALUE: path_index <- [DW_OP_plus_uconst 76, DW_OP_deref] $sp
	;DEBUG_VALUE: path_search:found_something <- [DW_OP_plus_uconst 44] [$sp+0]
	;DEBUG_VALUE: path_search:indent <- [DW_OP_plus_uconst 20] [$sp+0]
	.loc	1 0 9                           ; which.c:0:9
	adrp	x9, ___llvm_gcov_ctr.2@PAGE+40
Ltmp59:
	.loc	1 102 38 is_stmt 1              ; which.c:102:38
	ldr	x8, [x9, ___llvm_gcov_ctr.2@PAGEOFF+40]
	add	x8, x8, #1
	str	x8, [x9, ___llvm_gcov_ctr.2@PAGEOFF+40]
	.loc	1 102 34 is_stmt 0              ; which.c:102:34
	add	w8, w26, #1
	sxtw	x0, w8
	ldr	x8, [x27, ___llvm_gcov_ctr.5@PAGEOFF]
	add	x8, x8, #1
	str	x8, [x27, ___llvm_gcov_ctr.5@PAGEOFF]
Ltmp60:
	;DEBUG_VALUE: xmalloc:size <- $x0
	.loc	1 680 15 is_stmt 1              ; which.c:680:15
	bl	_malloc
Ltmp61:
	;DEBUG_VALUE: xmalloc:ptr <- $x0
	.loc	1 681 7                         ; which.c:681:7
	cbz	x0, LBB1_91
Ltmp62:
; %bb.10:                               ; %xmalloc.exit79.i
                                        ;   in Loop: Header=BB1_3 Depth=1
	;DEBUG_VALUE: next <- [DW_OP_plus_uconst 40] [$sp+0]
	;DEBUG_VALUE: find_command_in_path:name <- $x20
	;DEBUG_VALUE: find_command_in_path:path_list <- $x19
	;DEBUG_VALUE: find_command_in_path:path_index <- [DW_OP_plus_uconst 76, DW_OP_stack_value] $sp
	;DEBUG_VALUE: find_command_in_path:found <- 0
	;DEBUG_VALUE: path_index <- [DW_OP_plus_uconst 76, DW_OP_deref] $sp
	;DEBUG_VALUE: path_search:found_something <- [DW_OP_plus_uconst 44] [$sp+0]
	;DEBUG_VALUE: path_search:indent <- [DW_OP_plus_uconst 20] [$sp+0]
	.loc	1 102 16                        ; which.c:102:16
	str	x0, [x23, _abs_path@PAGEOFF]
	.loc	1 103 7                         ; which.c:103:7
	mov	x1, x20
	bl	_strcpy
Ltmp63:
LBB1_11:                                ;   in Loop: Header=BB1_3 Depth=1
	;DEBUG_VALUE: next <- [DW_OP_plus_uconst 40] [$sp+0]
	;DEBUG_VALUE: find_command_in_path:name <- $x20
	;DEBUG_VALUE: find_command_in_path:path_list <- $x19
	;DEBUG_VALUE: find_command_in_path:path_index <- [DW_OP_plus_uconst 76, DW_OP_stack_value] $sp
	;DEBUG_VALUE: find_command_in_path:found <- 0
	;DEBUG_VALUE: path_index <- [DW_OP_plus_uconst 76, DW_OP_deref] $sp
	;DEBUG_VALUE: path_search:found_something <- [DW_OP_plus_uconst 44] [$sp+0]
	;DEBUG_VALUE: path_search:indent <- [DW_OP_plus_uconst 20] [$sp+0]
	.loc	1 106 17                        ; which.c:106:17
	ldr	x19, [x23, _abs_path@PAGEOFF]
Ltmp64:
	;DEBUG_VALUE: path_search:path_list <- [DW_OP_LLVM_entry_value 1] $x2
	;DEBUG_VALUE: find_command_in_path:path_list <- $x19
	.loc	1 107 9                         ; which.c:107:9
	mov	x0, x19
	mov	w1, #47
	bl	_strrchr
Ltmp65:
	mov	x20, x0
Ltmp66:
	;DEBUG_VALUE: p <- $x20
	.loc	1 108 10                        ; which.c:108:10
	strb	wzr, [x20], #1
Ltmp67:
	;DEBUG_VALUE: p <- $x20
	;DEBUG_VALUE: find_command_in_path:name <- $x20
	;DEBUG_VALUE: find_command_in_path:name <- $x20
	;DEBUG_VALUE: find_command_in_path:path_list <- $x19
	;DEBUG_VALUE: find_command_in_path:found <- 0
	;DEBUG_VALUE: find_command_in_path:name_len <- undef
	.loc	1 0 10 is_stmt 0                ; which.c:0:10
	cbnz	x19, LBB1_14
	b	LBB1_88
Ltmp68:
LBB1_12:                                ;   in Loop: Header=BB1_3 Depth=1
	;DEBUG_VALUE: next <- [DW_OP_plus_uconst 40] [$sp+0]
	;DEBUG_VALUE: find_command_in_path:name <- $x20
	;DEBUG_VALUE: find_command_in_path:path_list <- $x19
	;DEBUG_VALUE: find_command_in_path:path_index <- [DW_OP_plus_uconst 76, DW_OP_stack_value] $sp
	;DEBUG_VALUE: find_command_in_path:found <- 0
	;DEBUG_VALUE: path_index <- [DW_OP_plus_uconst 76, DW_OP_deref] $sp
	;DEBUG_VALUE: path_search:found_something <- [DW_OP_plus_uconst 44] [$sp+0]
	;DEBUG_VALUE: path_search:indent <- [DW_OP_plus_uconst 20] [$sp+0]
	.loc	1 85 25 is_stmt 1               ; which.c:85:25
	ldr	x8, [x23, ___llvm_gcov_ctr.2@PAGEOFF]
	add	x8, x8, #1
	str	x8, [x23, ___llvm_gcov_ctr.2@PAGEOFF]
	strb	wzr, [x21, _absolute_path_given@PAGEOFF]
	;DEBUG_VALUE: find_command_in_path:name <- $x20
	;DEBUG_VALUE: find_command_in_path:path_list <- $x19
	;DEBUG_VALUE: find_command_in_path:found <- 0
Ltmp69:
	;DEBUG_VALUE: find_command_in_path:name_len <- undef
	.loc	1 0 25 is_stmt 0                ; which.c:0:25
	cbnz	x19, LBB1_14
	b	LBB1_88
Ltmp70:
LBB1_13:                                ;   in Loop: Header=BB1_14 Depth=2
	;DEBUG_VALUE: find_command_in_path:status <- $w0
	;DEBUG_VALUE: find_command_in_path:full_path <- $x23
	;DEBUG_VALUE: path <- $x28
	;DEBUG_VALUE: next <- [DW_OP_plus_uconst 40] [$sp+0]
	;DEBUG_VALUE: find_command_in_path:name <- $x20
	;DEBUG_VALUE: find_command_in_path:path_list <- $x19
	;DEBUG_VALUE: find_command_in_path:path_index <- [DW_OP_plus_uconst 76, DW_OP_stack_value] $sp
	;DEBUG_VALUE: find_command_in_path:found <- 0
	;DEBUG_VALUE: path_index <- [DW_OP_plus_uconst 76, DW_OP_deref] $sp
	;DEBUG_VALUE: path_search:found_something <- [DW_OP_plus_uconst 44] [$sp+0]
	;DEBUG_VALUE: path_search:indent <- [DW_OP_plus_uconst 20] [$sp+0]
	.loc	1 159 10 is_stmt 1              ; which.c:159:10
	ldr	x8, [x25]
	add	x8, x8, #1
	str	x8, [x25]
	.loc	1 159 5 is_stmt 0               ; which.c:159:5
	mov	x0, x23
Ltmp71:
	bl	_free
Ltmp72:
	;DEBUG_VALUE: find_command_in_path:found <- 0
	.loc	1 112 3 is_stmt 1               ; which.c:112:3
	ldr	x8, [x25, #16]
	add	x8, x8, #1
	str	x8, [x25, #16]
Ltmp73:
LBB1_14:                                ; %.lr.ph.i.preheader
                                        ;   Parent Loop BB1_3 Depth=1
                                        ; =>  This Inner Loop Header: Depth=2
	;DEBUG_VALUE: next <- [DW_OP_plus_uconst 40] [$sp+0]
	;DEBUG_VALUE: find_command_in_path:name <- $x20
	;DEBUG_VALUE: find_command_in_path:path_list <- $x19
	;DEBUG_VALUE: find_command_in_path:path_index <- [DW_OP_plus_uconst 76, DW_OP_stack_value] $sp
	;DEBUG_VALUE: find_command_in_path:found <- 0
	;DEBUG_VALUE: path_index <- [DW_OP_plus_uconst 76, DW_OP_deref] $sp
	;DEBUG_VALUE: path_search:found_something <- [DW_OP_plus_uconst 44] [$sp+0]
	;DEBUG_VALUE: path_search:indent <- [DW_OP_plus_uconst 20] [$sp+0]
	;DEBUG_VALUE: find_command_in_path:name_len <- undef
	.loc	1 112 23 is_stmt 0              ; which.c:112:23
	ldr	x8, [x22, ___llvm_gcov_ctr.2@PAGEOFF+48]
	add	x8, x8, #1
	str	x8, [x22, ___llvm_gcov_ctr.2@PAGEOFF+48]
	.loc	1 112 33                        ; which.c:112:33
	ldrsw	x8, [sp, #76]
	.loc	1 112 23                        ; which.c:112:23
	ldrb	w8, [x19, x8]
	.loc	1 112 3                         ; which.c:112:3
	cbz	w8, LBB1_88
Ltmp74:
; %bb.15:                               ; %.lr.ph
                                        ;   in Loop: Header=BB1_14 Depth=2
	;DEBUG_VALUE: next <- [DW_OP_plus_uconst 40] [$sp+0]
	;DEBUG_VALUE: find_command_in_path:name <- $x20
	;DEBUG_VALUE: find_command_in_path:path_list <- $x19
	;DEBUG_VALUE: find_command_in_path:path_index <- [DW_OP_plus_uconst 76, DW_OP_stack_value] $sp
	;DEBUG_VALUE: find_command_in_path:found <- 0
	;DEBUG_VALUE: path_index <- [DW_OP_plus_uconst 76, DW_OP_deref] $sp
	;DEBUG_VALUE: path_search:found_something <- [DW_OP_plus_uconst 44] [$sp+0]
	;DEBUG_VALUE: path_search:indent <- [DW_OP_plus_uconst 20] [$sp+0]
	.loc	1 116 9 is_stmt 1               ; which.c:116:9
	ldrb	w8, [x21, _absolute_path_given@PAGEOFF]
Ltmp75:
	.loc	1 116 9 is_stmt 0               ; which.c:116:9
	cmp	w8, #1
	b.ne	LBB1_18
Ltmp76:
; %bb.16:                               ;   in Loop: Header=BB1_14 Depth=2
	;DEBUG_VALUE: next <- [DW_OP_plus_uconst 40] [$sp+0]
	;DEBUG_VALUE: find_command_in_path:name <- $x20
	;DEBUG_VALUE: find_command_in_path:path_list <- $x19
	;DEBUG_VALUE: find_command_in_path:path_index <- [DW_OP_plus_uconst 76, DW_OP_stack_value] $sp
	;DEBUG_VALUE: find_command_in_path:found <- 0
	;DEBUG_VALUE: path_index <- [DW_OP_plus_uconst 76, DW_OP_deref] $sp
	;DEBUG_VALUE: path_search:found_something <- [DW_OP_plus_uconst 44] [$sp+0]
	;DEBUG_VALUE: path_search:indent <- [DW_OP_plus_uconst 20] [$sp+0]
	.loc	1 118 58 is_stmt 1              ; which.c:118:58
	mov	x0, x19
	bl	_strlen
Ltmp77:
	.loc	1 118 56 is_stmt 0              ; which.c:118:56
	add	x0, x0, #1
	ldr	x8, [x27, ___llvm_gcov_ctr.5@PAGEOFF]
	add	x8, x8, #1
	str	x8, [x27, ___llvm_gcov_ctr.5@PAGEOFF]
Ltmp78:
	;DEBUG_VALUE: xmalloc:size <- $x0
	.loc	1 680 15 is_stmt 1              ; which.c:680:15
	bl	_malloc
Ltmp79:
	;DEBUG_VALUE: xmalloc:ptr <- $x0
	.loc	1 681 7                         ; which.c:681:7
	cbz	x0, LBB1_91
Ltmp80:
; %bb.17:                               ; %.thread.i
                                        ;   in Loop: Header=BB1_14 Depth=2
	;DEBUG_VALUE: next <- [DW_OP_plus_uconst 40] [$sp+0]
	;DEBUG_VALUE: find_command_in_path:name <- $x20
	;DEBUG_VALUE: find_command_in_path:path_list <- $x19
	;DEBUG_VALUE: find_command_in_path:path_index <- [DW_OP_plus_uconst 76, DW_OP_stack_value] $sp
	;DEBUG_VALUE: find_command_in_path:found <- 0
	;DEBUG_VALUE: path_index <- [DW_OP_plus_uconst 76, DW_OP_deref] $sp
	;DEBUG_VALUE: path_search:found_something <- [DW_OP_plus_uconst 44] [$sp+0]
	;DEBUG_VALUE: path_search:indent <- [DW_OP_plus_uconst 20] [$sp+0]
	.loc	1 0 0 is_stmt 0                 ; which.c:0:0
	mov	x23, x0
	;DEBUG_VALUE: xmalloc:ptr <- $x23
	.loc	1 118 22 is_stmt 1              ; which.c:118:22
	mov	x1, x19
	bl	_strcpy
Ltmp81:
	;DEBUG_VALUE: path <- $x23
	.loc	1 119 21                        ; which.c:119:21
	bl	_strlen
Ltmp82:
	.loc	1 119 19 is_stmt 0              ; which.c:119:19
	str	w0, [sp, #76]
	b	LBB1_19
Ltmp83:
LBB1_18:                                ;   in Loop: Header=BB1_14 Depth=2
	;DEBUG_VALUE: next <- [DW_OP_plus_uconst 40] [$sp+0]
	;DEBUG_VALUE: find_command_in_path:name <- $x20
	;DEBUG_VALUE: find_command_in_path:path_list <- $x19
	;DEBUG_VALUE: find_command_in_path:path_index <- [DW_OP_plus_uconst 76, DW_OP_stack_value] $sp
	;DEBUG_VALUE: find_command_in_path:found <- 0
	;DEBUG_VALUE: path_index <- [DW_OP_plus_uconst 76, DW_OP_deref] $sp
	;DEBUG_VALUE: path_search:found_something <- [DW_OP_plus_uconst 44] [$sp+0]
	;DEBUG_VALUE: path_search:indent <- [DW_OP_plus_uconst 20] [$sp+0]
	.loc	1 122 36 is_stmt 1              ; which.c:122:36
	ldr	x8, [x24, ___llvm_gcov_ctr.2@PAGEOFF+56]
	add	x8, x8, #1
	str	x8, [x24, ___llvm_gcov_ctr.2@PAGEOFF+56]
	.loc	1 122 14 is_stmt 0              ; which.c:122:14
	add	x1, sp, #76
	mov	x0, x19
	bl	_get_next_path_element
Ltmp84:
	mov	x23, x0
Ltmp85:
	;DEBUG_VALUE: path <- $x23
	.loc	1 124 9 is_stmt 1               ; which.c:124:9
	cbz	x0, LBB1_87
Ltmp86:
LBB1_19:                                ;   in Loop: Header=BB1_14 Depth=2
	;DEBUG_VALUE: path <- $x23
	;DEBUG_VALUE: next <- [DW_OP_plus_uconst 40] [$sp+0]
	;DEBUG_VALUE: find_command_in_path:name <- $x20
	;DEBUG_VALUE: find_command_in_path:path_list <- $x19
	;DEBUG_VALUE: find_command_in_path:path_index <- [DW_OP_plus_uconst 76, DW_OP_stack_value] $sp
	;DEBUG_VALUE: find_command_in_path:found <- 0
	;DEBUG_VALUE: path_index <- [DW_OP_plus_uconst 76, DW_OP_deref] $sp
	;DEBUG_VALUE: path_search:found_something <- [DW_OP_plus_uconst 44] [$sp+0]
	;DEBUG_VALUE: path_search:indent <- [DW_OP_plus_uconst 20] [$sp+0]
	.loc	1 127 9                         ; which.c:127:9
	ldrb	w8, [x23]
Ltmp87:
	.loc	1 127 9 is_stmt 0               ; which.c:127:9
	cmp	w8, #126
	b.ne	LBB1_22
Ltmp88:
; %bb.20:                               ;   in Loop: Header=BB1_14 Depth=2
	;DEBUG_VALUE: path <- $x23
	;DEBUG_VALUE: next <- [DW_OP_plus_uconst 40] [$sp+0]
	;DEBUG_VALUE: find_command_in_path:name <- $x20
	;DEBUG_VALUE: find_command_in_path:path_list <- $x19
	;DEBUG_VALUE: find_command_in_path:path_index <- [DW_OP_plus_uconst 76, DW_OP_stack_value] $sp
	;DEBUG_VALUE: find_command_in_path:found <- 0
	;DEBUG_VALUE: path_index <- [DW_OP_plus_uconst 76, DW_OP_deref] $sp
	;DEBUG_VALUE: path_search:found_something <- [DW_OP_plus_uconst 44] [$sp+0]
	;DEBUG_VALUE: path_search:indent <- [DW_OP_plus_uconst 20] [$sp+0]
	.loc	1 129 17 is_stmt 1              ; which.c:129:17
	mov	x0, x23
	bl	_tilde_expand
Ltmp89:
	mov	x28, x0
Ltmp90:
	;DEBUG_VALUE: t <- $x28
	;DEBUG_VALUE: path <- $x28
	.loc	1 130 7                         ; which.c:130:7
	mov	x0, x23
	bl	_free
Ltmp91:
	.loc	1 133 11                        ; which.c:133:11
Lloh10:
	adrp	x8, _skip_tilde@PAGE
Lloh11:
	ldr	w8, [x8, _skip_tilde@PAGEOFF]
Ltmp92:
	.loc	1 133 11 is_stmt 0              ; which.c:133:11
	cbz	w8, LBB1_23
Ltmp93:
; %bb.21:                               ;   in Loop: Header=BB1_14 Depth=2
	;DEBUG_VALUE: t <- $x28
	;DEBUG_VALUE: path <- $x28
	;DEBUG_VALUE: next <- [DW_OP_plus_uconst 40] [$sp+0]
	;DEBUG_VALUE: find_command_in_path:name <- $x20
	;DEBUG_VALUE: find_command_in_path:path_list <- $x19
	;DEBUG_VALUE: find_command_in_path:path_index <- [DW_OP_plus_uconst 76, DW_OP_stack_value] $sp
	;DEBUG_VALUE: find_command_in_path:found <- 0
	;DEBUG_VALUE: path_index <- [DW_OP_plus_uconst 76, DW_OP_deref] $sp
	;DEBUG_VALUE: path_search:found_something <- [DW_OP_plus_uconst 44] [$sp+0]
	;DEBUG_VALUE: path_search:indent <- [DW_OP_plus_uconst 20] [$sp+0]
	.loc	1 0 11                          ; which.c:0:11
	adrp	x9, ___llvm_gcov_ctr.2@PAGE+72
Ltmp94:
	.loc	1 135 7 is_stmt 1               ; which.c:135:7
	ldr	x8, [x9, ___llvm_gcov_ctr.2@PAGEOFF+72]
	add	x8, x8, #1
	str	x8, [x9, ___llvm_gcov_ctr.2@PAGEOFF+72]
	b	LBB1_27
Ltmp95:
LBB1_22:                                ;   in Loop: Header=BB1_14 Depth=2
	;DEBUG_VALUE: path <- $x23
	;DEBUG_VALUE: next <- [DW_OP_plus_uconst 40] [$sp+0]
	;DEBUG_VALUE: find_command_in_path:name <- $x20
	;DEBUG_VALUE: find_command_in_path:path_list <- $x19
	;DEBUG_VALUE: find_command_in_path:path_index <- [DW_OP_plus_uconst 76, DW_OP_stack_value] $sp
	;DEBUG_VALUE: find_command_in_path:found <- 0
	;DEBUG_VALUE: path_index <- [DW_OP_plus_uconst 76, DW_OP_deref] $sp
	;DEBUG_VALUE: path_search:found_something <- [DW_OP_plus_uconst 44] [$sp+0]
	;DEBUG_VALUE: path_search:indent <- [DW_OP_plus_uconst 20] [$sp+0]
	.loc	1 0 7 is_stmt 0                 ; which.c:0:7
	mov	x28, x23
Ltmp96:
	;DEBUG_VALUE: path <- $x28
	;DEBUG_VALUE: path <- $x28
	b	LBB1_24
Ltmp97:
LBB1_23:                                ;   in Loop: Header=BB1_14 Depth=2
	;DEBUG_VALUE: path <- $x28
	;DEBUG_VALUE: next <- [DW_OP_plus_uconst 40] [$sp+0]
	;DEBUG_VALUE: find_command_in_path:name <- $x20
	;DEBUG_VALUE: find_command_in_path:path_list <- $x19
	;DEBUG_VALUE: find_command_in_path:path_index <- [DW_OP_plus_uconst 76, DW_OP_stack_value] $sp
	;DEBUG_VALUE: find_command_in_path:found <- 0
	;DEBUG_VALUE: path_index <- [DW_OP_plus_uconst 76, DW_OP_deref] $sp
	;DEBUG_VALUE: path_search:found_something <- [DW_OP_plus_uconst 44] [$sp+0]
	;DEBUG_VALUE: path_search:indent <- [DW_OP_plus_uconst 20] [$sp+0]
	adrp	x8, ___llvm_gcov_ctr.2@PAGE+80
	.loc	1 138 5 is_stmt 1               ; which.c:138:5
	ldr	q0, [x8, ___llvm_gcov_ctr.2@PAGEOFF+80]
	ldr	q1, [sp, #48]                   ; 16-byte Folded Reload
	add.2d	v0, v0, v1
	str	q0, [x8, ___llvm_gcov_ctr.2@PAGEOFF+80]
Ltmp98:
LBB1_24:                                ;   in Loop: Header=BB1_14 Depth=2
	;DEBUG_VALUE: path <- $x28
	;DEBUG_VALUE: next <- [DW_OP_plus_uconst 40] [$sp+0]
	;DEBUG_VALUE: find_command_in_path:name <- $x20
	;DEBUG_VALUE: find_command_in_path:path_list <- $x19
	;DEBUG_VALUE: find_command_in_path:path_index <- [DW_OP_plus_uconst 76, DW_OP_stack_value] $sp
	;DEBUG_VALUE: find_command_in_path:found <- 0
	;DEBUG_VALUE: path_index <- [DW_OP_plus_uconst 76, DW_OP_deref] $sp
	;DEBUG_VALUE: path_search:found_something <- [DW_OP_plus_uconst 44] [$sp+0]
	;DEBUG_VALUE: path_search:indent <- [DW_OP_plus_uconst 20] [$sp+0]
	;DEBUG_VALUE: path <- $x28
	.loc	1 140 9                         ; which.c:140:9
Lloh12:
	adrp	x8, _skip_dot@PAGE
Lloh13:
	ldr	w8, [x8, _skip_dot@PAGEOFF]
	.loc	1 140 18 is_stmt 0              ; which.c:140:18
	cbz	w8, LBB1_28
Ltmp99:
; %bb.25:                               ;   in Loop: Header=BB1_14 Depth=2
	;DEBUG_VALUE: path <- $x28
	;DEBUG_VALUE: next <- [DW_OP_plus_uconst 40] [$sp+0]
	;DEBUG_VALUE: find_command_in_path:name <- $x20
	;DEBUG_VALUE: find_command_in_path:path_list <- $x19
	;DEBUG_VALUE: find_command_in_path:path_index <- [DW_OP_plus_uconst 76, DW_OP_stack_value] $sp
	;DEBUG_VALUE: find_command_in_path:found <- 0
	;DEBUG_VALUE: path_index <- [DW_OP_plus_uconst 76, DW_OP_deref] $sp
	;DEBUG_VALUE: path_search:found_something <- [DW_OP_plus_uconst 44] [$sp+0]
	;DEBUG_VALUE: path_search:indent <- [DW_OP_plus_uconst 20] [$sp+0]
	.loc	1 0 18                          ; which.c:0:18
	adrp	x9, ___llvm_gcov_ctr.2@PAGE+96
	.loc	1 140 22                        ; which.c:140:22
	ldr	x8, [x9, ___llvm_gcov_ctr.2@PAGEOFF+96]
	add	x8, x8, #1
	str	x8, [x9, ___llvm_gcov_ctr.2@PAGEOFF+96]
	.loc	1 140 21                        ; which.c:140:21
	ldrb	w8, [x28]
Ltmp100:
	.loc	1 140 9                         ; which.c:140:9
	cmp	w8, #47
	b.eq	LBB1_29
Ltmp101:
; %bb.26:                               ;   in Loop: Header=BB1_14 Depth=2
	;DEBUG_VALUE: path <- $x28
	;DEBUG_VALUE: next <- [DW_OP_plus_uconst 40] [$sp+0]
	;DEBUG_VALUE: find_command_in_path:name <- $x20
	;DEBUG_VALUE: find_command_in_path:path_list <- $x19
	;DEBUG_VALUE: find_command_in_path:path_index <- [DW_OP_plus_uconst 76, DW_OP_stack_value] $sp
	;DEBUG_VALUE: find_command_in_path:found <- 0
	;DEBUG_VALUE: path_index <- [DW_OP_plus_uconst 76, DW_OP_deref] $sp
	;DEBUG_VALUE: path_search:found_something <- [DW_OP_plus_uconst 44] [$sp+0]
	;DEBUG_VALUE: path_search:indent <- [DW_OP_plus_uconst 20] [$sp+0]
	.loc	1 0 9                           ; which.c:0:9
	adrp	x9, ___llvm_gcov_ctr.2@PAGE+104
Ltmp102:
	.loc	1 142 12 is_stmt 1              ; which.c:142:12
	ldr	x8, [x9, ___llvm_gcov_ctr.2@PAGEOFF+104]
	add	x8, x8, #1
	str	x8, [x9, ___llvm_gcov_ctr.2@PAGEOFF+104]
Ltmp103:
LBB1_27:                                ; %.backedge.i
                                        ;   in Loop: Header=BB1_14 Depth=2
	;DEBUG_VALUE: path <- $x28
	;DEBUG_VALUE: next <- [DW_OP_plus_uconst 40] [$sp+0]
	;DEBUG_VALUE: find_command_in_path:name <- $x20
	;DEBUG_VALUE: find_command_in_path:path_list <- $x19
	;DEBUG_VALUE: find_command_in_path:path_index <- [DW_OP_plus_uconst 76, DW_OP_stack_value] $sp
	;DEBUG_VALUE: find_command_in_path:found <- 0
	;DEBUG_VALUE: path_index <- [DW_OP_plus_uconst 76, DW_OP_deref] $sp
	;DEBUG_VALUE: path_search:found_something <- [DW_OP_plus_uconst 44] [$sp+0]
	;DEBUG_VALUE: path_search:indent <- [DW_OP_plus_uconst 20] [$sp+0]
	.loc	1 0 0 is_stmt 0                 ; which.c:0:0
	mov	x0, x28
	bl	_free
Ltmp104:
	b	LBB1_14
Ltmp105:
LBB1_28:                                ; %._crit_edge97.i
                                        ;   in Loop: Header=BB1_14 Depth=2
	;DEBUG_VALUE: path <- $x28
	;DEBUG_VALUE: next <- [DW_OP_plus_uconst 40] [$sp+0]
	;DEBUG_VALUE: find_command_in_path:name <- $x20
	;DEBUG_VALUE: find_command_in_path:path_list <- $x19
	;DEBUG_VALUE: find_command_in_path:path_index <- [DW_OP_plus_uconst 76, DW_OP_stack_value] $sp
	;DEBUG_VALUE: find_command_in_path:found <- 0
	;DEBUG_VALUE: path_index <- [DW_OP_plus_uconst 76, DW_OP_deref] $sp
	;DEBUG_VALUE: path_search:found_something <- [DW_OP_plus_uconst 44] [$sp+0]
	;DEBUG_VALUE: path_search:indent <- [DW_OP_plus_uconst 20] [$sp+0]
	.loc	1 146 35 is_stmt 1              ; which.c:146:35
	ldrb	w8, [x28]
Ltmp106:
LBB1_29:                                ;   in Loop: Header=BB1_14 Depth=2
	;DEBUG_VALUE: path <- $x28
	;DEBUG_VALUE: next <- [DW_OP_plus_uconst 40] [$sp+0]
	;DEBUG_VALUE: find_command_in_path:name <- $x20
	;DEBUG_VALUE: find_command_in_path:path_list <- $x19
	;DEBUG_VALUE: find_command_in_path:path_index <- [DW_OP_plus_uconst 76, DW_OP_stack_value] $sp
	;DEBUG_VALUE: find_command_in_path:found <- 0
	;DEBUG_VALUE: path_index <- [DW_OP_plus_uconst 76, DW_OP_deref] $sp
	;DEBUG_VALUE: path_search:found_something <- [DW_OP_plus_uconst 44] [$sp+0]
	;DEBUG_VALUE: path_search:indent <- [DW_OP_plus_uconst 20] [$sp+0]
	.loc	1 146 41 is_stmt 0              ; which.c:146:41
	cmp	w8, #46
	cset	w8, eq
	.loc	1 146 32                        ; which.c:146:32
	adrp	x9, _found_path_starts_with_dot@PAGE
	str	w8, [x9, _found_path_starts_with_dot@PAGEOFF]
	.loc	1 148 17 is_stmt 1              ; which.c:148:17
	mov	x0, x28
	mov	x1, x20
	mov	x2, x26
	bl	_make_full_pathname
Ltmp107:
	mov	x23, x0
Ltmp108:
	;DEBUG_VALUE: find_command_in_path:full_path <- $x23
	.loc	1 149 5                         ; which.c:149:5
	mov	x0, x28
	bl	_free
Ltmp109:
	.loc	1 151 14                        ; which.c:151:14
	mov	x0, x23
	bl	_file_status
Ltmp110:
	;DEBUG_VALUE: find_command_in_path:status <- $w0
	.loc	1 153 24                        ; which.c:153:24
	tbz	w0, #0, LBB1_13
Ltmp111:
; %bb.30:                               ;   in Loop: Header=BB1_14 Depth=2
	;DEBUG_VALUE: find_command_in_path:status <- $w0
	;DEBUG_VALUE: find_command_in_path:full_path <- $x23
	;DEBUG_VALUE: path <- $x28
	;DEBUG_VALUE: next <- [DW_OP_plus_uconst 40] [$sp+0]
	;DEBUG_VALUE: find_command_in_path:name <- $x20
	;DEBUG_VALUE: find_command_in_path:path_list <- $x19
	;DEBUG_VALUE: find_command_in_path:path_index <- [DW_OP_plus_uconst 76, DW_OP_stack_value] $sp
	;DEBUG_VALUE: find_command_in_path:found <- 0
	;DEBUG_VALUE: path_index <- [DW_OP_plus_uconst 76, DW_OP_deref] $sp
	;DEBUG_VALUE: path_search:found_something <- [DW_OP_plus_uconst 44] [$sp+0]
	;DEBUG_VALUE: path_search:indent <- [DW_OP_plus_uconst 20] [$sp+0]
	.loc	1 0 24 is_stmt 0                ; which.c:0:24
	adrp	x9, ___llvm_gcov_ctr.2@PAGE+112
	.loc	1 153 28                        ; which.c:153:28
	ldr	x8, [x9, ___llvm_gcov_ctr.2@PAGEOFF+112]
	add	x8, x8, #1
	str	x8, [x9, ___llvm_gcov_ctr.2@PAGEOFF+112]
Ltmp112:
	.loc	1 153 9                         ; which.c:153:9
	tbz	w0, #1, LBB1_13
Ltmp113:
; %bb.31:                               ; %find_command_in_path.exit
                                        ;   in Loop: Header=BB1_3 Depth=1
	;DEBUG_VALUE: find_command_in_path:status <- $w0
	;DEBUG_VALUE: find_command_in_path:full_path <- $x23
	;DEBUG_VALUE: path <- $x28
	;DEBUG_VALUE: next <- [DW_OP_plus_uconst 40] [$sp+0]
	;DEBUG_VALUE: find_command_in_path:name <- $x20
	;DEBUG_VALUE: find_command_in_path:path_list <- $x19
	;DEBUG_VALUE: find_command_in_path:path_index <- [DW_OP_plus_uconst 76, DW_OP_stack_value] $sp
	;DEBUG_VALUE: find_command_in_path:found <- 0
	;DEBUG_VALUE: path_index <- [DW_OP_plus_uconst 76, DW_OP_deref] $sp
	;DEBUG_VALUE: path_search:found_something <- [DW_OP_plus_uconst 44] [$sp+0]
	;DEBUG_VALUE: path_search:indent <- [DW_OP_plus_uconst 20] [$sp+0]
	.loc	1 0 9                           ; which.c:0:9
	adrp	x9, ___llvm_gcov_ctr.2@PAGE+120
Ltmp114:
	.loc	1 155 15 is_stmt 1              ; which.c:155:15
	ldr	x8, [x9, ___llvm_gcov_ctr.2@PAGEOFF+120]
	add	x8, x8, #1
	str	x8, [x9, ___llvm_gcov_ctr.2@PAGEOFF+120]
Ltmp115:
	;DEBUG_VALUE: find_command_in_path:found <- $x23
	;DEBUG_VALUE: path_search:result <- $x23
	.loc	1 301 11                        ; which.c:301:11
	cbz	x23, LBB1_88
Ltmp116:
; %bb.32:                               ;   in Loop: Header=BB1_3 Depth=1
	;DEBUG_VALUE: path_search:result <- $x23
	;DEBUG_VALUE: next <- [DW_OP_plus_uconst 40] [$sp+0]
	;DEBUG_VALUE: path_index <- [DW_OP_plus_uconst 76, DW_OP_deref] $sp
	;DEBUG_VALUE: path_search:found_something <- [DW_OP_plus_uconst 44] [$sp+0]
	;DEBUG_VALUE: path_search:indent <- [DW_OP_plus_uconst 20] [$sp+0]
	;DEBUG_VALUE: path_clean_up:path <- $x23
	;DEBUG_VALUE: path_clean_up:p1 <- $x23
	;DEBUG_VALUE: path_clean_up:saw_slash <- 0
	;DEBUG_VALUE: path_clean_up:saw_slash_dot <- 0
	;DEBUG_VALUE: path_clean_up:saw_slash_dot_dot <- 0
	.loc	1 204 7                         ; which.c:204:7
	ldrb	w8, [x23]
Ltmp117:
	;DEBUG_VALUE: path_clean_up:p2 <- undef
	.loc	1 204 7 is_stmt 0               ; which.c:204:7
	cmp	w8, #47
	b.ne	LBB1_36
Ltmp118:
; %bb.33:                               ;   in Loop: Header=BB1_3 Depth=1
	;DEBUG_VALUE: path_clean_up:saw_slash_dot_dot <- 0
	;DEBUG_VALUE: path_clean_up:saw_slash_dot <- 0
	;DEBUG_VALUE: path_clean_up:saw_slash <- 0
	;DEBUG_VALUE: path_clean_up:p1 <- $x23
	;DEBUG_VALUE: path_clean_up:path <- $x23
	;DEBUG_VALUE: path_search:result <- $x23
	;DEBUG_VALUE: next <- [DW_OP_plus_uconst 40] [$sp+0]
	;DEBUG_VALUE: path_index <- [DW_OP_plus_uconst 76, DW_OP_deref] $sp
	;DEBUG_VALUE: path_search:found_something <- [DW_OP_plus_uconst 44] [$sp+0]
	;DEBUG_VALUE: path_search:indent <- [DW_OP_plus_uconst 20] [$sp+0]
	.loc	1 0 7                           ; which.c:0:7
	mov	w9, #0
Lloh14:
	adrp	x19, _path_clean_up.result@PAGE
Lloh15:
	add	x19, x19, _path_clean_up.result@PAGEOFF
	mov	x11, x19
	b	LBB1_37
Ltmp119:
LBB1_34:                                ;   in Loop: Header=BB1_3 Depth=1
	;DEBUG_VALUE: next <- [DW_OP_plus_uconst 40] [$sp+0]
	;DEBUG_VALUE: find_command_in_path:name <- $x20
	;DEBUG_VALUE: find_command_in_path:path_list <- $x19
	;DEBUG_VALUE: find_command_in_path:path_index <- [DW_OP_plus_uconst 76, DW_OP_stack_value] $sp
	;DEBUG_VALUE: find_command_in_path:found <- 0
	;DEBUG_VALUE: path_index <- [DW_OP_plus_uconst 76, DW_OP_deref] $sp
	;DEBUG_VALUE: path_search:found_something <- [DW_OP_plus_uconst 44] [$sp+0]
	;DEBUG_VALUE: path_search:indent <- [DW_OP_plus_uconst 20] [$sp+0]
	adrp	x9, ___llvm_gcov_ctr.2@PAGE+32
Ltmp120:
	.loc	1 96 38 is_stmt 1               ; which.c:96:38
	ldr	x8, [x9, ___llvm_gcov_ctr.2@PAGEOFF+32]
	add	x8, x8, #1
	str	x8, [x9, ___llvm_gcov_ctr.2@PAGEOFF+32]
	.loc	1 96 34 is_stmt 0               ; which.c:96:34
	add	w8, w26, #3
	sxtw	x0, w8
	ldr	x8, [x27, ___llvm_gcov_ctr.5@PAGEOFF]
	add	x8, x8, #1
	str	x8, [x27, ___llvm_gcov_ctr.5@PAGEOFF]
Ltmp121:
	;DEBUG_VALUE: xmalloc:size <- $x0
	.loc	1 680 15 is_stmt 1              ; which.c:680:15
	bl	_malloc
Ltmp122:
	;DEBUG_VALUE: xmalloc:ptr <- $x0
	.loc	1 681 7                         ; which.c:681:7
	cbz	x0, LBB1_91
Ltmp123:
; %bb.35:                               ; %xmalloc.exit.i
                                        ;   in Loop: Header=BB1_3 Depth=1
	;DEBUG_VALUE: next <- [DW_OP_plus_uconst 40] [$sp+0]
	;DEBUG_VALUE: find_command_in_path:name <- $x20
	;DEBUG_VALUE: find_command_in_path:path_list <- $x19
	;DEBUG_VALUE: find_command_in_path:path_index <- [DW_OP_plus_uconst 76, DW_OP_stack_value] $sp
	;DEBUG_VALUE: find_command_in_path:found <- 0
	;DEBUG_VALUE: path_index <- [DW_OP_plus_uconst 76, DW_OP_deref] $sp
	;DEBUG_VALUE: path_search:found_something <- [DW_OP_plus_uconst 44] [$sp+0]
	;DEBUG_VALUE: path_search:indent <- [DW_OP_plus_uconst 20] [$sp+0]
	.loc	1 96 16                         ; which.c:96:16
	str	x0, [x23, _abs_path@PAGEOFF]
	.loc	1 97 7                          ; which.c:97:7
	mov	w8, #12078
	strh	w8, [x0]
	strb	wzr, [x0, #2]
	.loc	1 98 7                          ; which.c:98:7
	mov	x1, x20
	bl	_strcat
Ltmp124:
	.loc	1 0 7 is_stmt 0                 ; which.c:0:7
	b	LBB1_11
Ltmp125:
LBB1_36:                                ;   in Loop: Header=BB1_3 Depth=1
	;DEBUG_VALUE: path_clean_up:saw_slash_dot_dot <- 0
	;DEBUG_VALUE: path_clean_up:saw_slash_dot <- 0
	;DEBUG_VALUE: path_clean_up:saw_slash <- 0
	;DEBUG_VALUE: path_clean_up:p1 <- $x23
	;DEBUG_VALUE: path_clean_up:path <- $x23
	;DEBUG_VALUE: path_search:result <- $x23
	;DEBUG_VALUE: next <- [DW_OP_plus_uconst 40] [$sp+0]
	;DEBUG_VALUE: path_index <- [DW_OP_plus_uconst 76, DW_OP_deref] $sp
	;DEBUG_VALUE: path_search:found_something <- [DW_OP_plus_uconst 44] [$sp+0]
	;DEBUG_VALUE: path_search:indent <- [DW_OP_plus_uconst 20] [$sp+0]
	adrp	x9, ___llvm_gcov_ctr.3@PAGE
Ltmp126:
	.loc	1 206 5 is_stmt 1               ; which.c:206:5
	ldr	x8, [x9, ___llvm_gcov_ctr.3@PAGEOFF]
	add	x8, x8, #1
	str	x8, [x9, ___llvm_gcov_ctr.3@PAGEOFF]
	bl	_get_current_working_directory
Ltmp127:
	.loc	1 0 5 is_stmt 0                 ; which.c:0:5
Lloh16:
	adrp	x19, _path_clean_up.result@PAGE
Lloh17:
	add	x19, x19, _path_clean_up.result@PAGEOFF
	.loc	1 207 5 is_stmt 1               ; which.c:207:5
	mov	x0, x19
Lloh18:
	adrp	x1, _cwd@PAGE
Lloh19:
	add	x1, x1, _cwd@PAGEOFF
	mov	w2, #256
	bl	___strcpy_chk
Ltmp128:
	;DEBUG_VALUE: path_clean_up:saw_slash <- 1
	.loc	1 209 18                        ; which.c:209:18
Lloh20:
	adrp	x8, _cwdlen@PAGE
Lloh21:
	ldr	x8, [x8, _cwdlen@PAGEOFF]
	.loc	1 209 11 is_stmt 0              ; which.c:209:11
	add	x11, x19, x8
Ltmp129:
	;DEBUG_VALUE: path_clean_up:p2 <- $x11
	.loc	1 0 11                          ; which.c:0:11
	mov	w9, #1
Ltmp130:
LBB1_37:                                ;   in Loop: Header=BB1_3 Depth=1
	;DEBUG_VALUE: path_clean_up:saw_slash_dot_dot <- 0
	;DEBUG_VALUE: path_clean_up:saw_slash_dot <- 0
	;DEBUG_VALUE: path_clean_up:p1 <- $x23
	;DEBUG_VALUE: path_clean_up:path <- $x23
	;DEBUG_VALUE: path_search:result <- $x23
	;DEBUG_VALUE: next <- [DW_OP_plus_uconst 40] [$sp+0]
	;DEBUG_VALUE: path_index <- [DW_OP_plus_uconst 76, DW_OP_deref] $sp
	;DEBUG_VALUE: path_search:found_something <- [DW_OP_plus_uconst 44] [$sp+0]
	;DEBUG_VALUE: path_search:indent <- [DW_OP_plus_uconst 20] [$sp+0]
	adrp	x15, ___llvm_gcov_ctr.3@PAGE+40
	adrp	x16, ___llvm_gcov_ctr.3@PAGE+120
	adrp	x17, ___llvm_gcov_ctr.3@PAGE+112
	adrp	x0, ___llvm_gcov_ctr.3@PAGE+104
	adrp	x1, ___llvm_gcov_ctr.3@PAGE+64
	adrp	x2, ___llvm_gcov_ctr.3@PAGE+80
	adrp	x3, ___llvm_gcov_ctr.3@PAGE+88
	adrp	x4, ___llvm_gcov_ctr.3@PAGE+48
	adrp	x6, ___llvm_gcov_ctr.3@PAGE+16
Ltmp131:
	;DEBUG_VALUE: path_clean_up:saw_slash <- $w9
	;DEBUG_VALUE: path_clean_up:p2 <- $x11
	mov	x8, #0
	mov	w10, #0
	mov	w13, #0
	adrp	x14, ___llvm_gcov_ctr.3@PAGE+8
	.loc	1 212 3 is_stmt 1               ; which.c:212:3
	ldr	x12, [x14, ___llvm_gcov_ctr.3@PAGEOFF+8]
	add	x12, x12, #1
	str	x12, [x14, ___llvm_gcov_ctr.3@PAGEOFF+8]
	b	LBB1_41
Ltmp132:
LBB1_38:                                ;   in Loop: Header=BB1_41 Depth=2
	;DEBUG_VALUE: path_clean_up:p1 <- $x12
	;DEBUG_VALUE: path_clean_up:saw_slash_dot <- $w10
	;DEBUG_VALUE: path_clean_up:saw_slash <- $w9
	;DEBUG_VALUE: path_clean_up:p2 <- $x11
	;DEBUG_VALUE: path_clean_up:path <- $x23
	;DEBUG_VALUE: path_search:result <- $x23
	;DEBUG_VALUE: next <- [DW_OP_plus_uconst 40] [$sp+0]
	;DEBUG_VALUE: path_index <- [DW_OP_plus_uconst 76, DW_OP_deref] $sp
	;DEBUG_VALUE: path_search:found_something <- [DW_OP_plus_uconst 44] [$sp+0]
	;DEBUG_VALUE: path_search:indent <- [DW_OP_plus_uconst 20] [$sp+0]
	.loc	1 0 3 is_stmt 0                 ; which.c:0:3
	mov	w13, #0
Ltmp133:
	;DEBUG_VALUE: path_clean_up:saw_slash_dot_dot <- $w13
	.loc	1 239 31 is_stmt 1              ; which.c:239:31
	cbz	w9, LBB1_59
Ltmp134:
LBB1_39:                                ;   in Loop: Header=BB1_41 Depth=2
	;DEBUG_VALUE: path_clean_up:p1 <- $x12
	;DEBUG_VALUE: path_clean_up:saw_slash_dot_dot <- $w13
	;DEBUG_VALUE: path_clean_up:saw_slash <- $w9
	;DEBUG_VALUE: path_clean_up:p2 <- $x11
	;DEBUG_VALUE: path_clean_up:path <- $x23
	;DEBUG_VALUE: path_search:result <- $x23
	;DEBUG_VALUE: next <- [DW_OP_plus_uconst 40] [$sp+0]
	;DEBUG_VALUE: path_index <- [DW_OP_plus_uconst 76, DW_OP_deref] $sp
	;DEBUG_VALUE: path_search:found_something <- [DW_OP_plus_uconst 44] [$sp+0]
	;DEBUG_VALUE: path_search:indent <- [DW_OP_plus_uconst 20] [$sp+0]
	.loc	1 239 36 is_stmt 0              ; which.c:239:36
	ldr	x9, [x17, ___llvm_gcov_ctr.3@PAGEOFF+112]
Ltmp135:
	add	x9, x9, #1
	str	x9, [x17, ___llvm_gcov_ctr.3@PAGEOFF+112]
	.loc	1 239 35                        ; which.c:239:35
	ldrb	w9, [x12]
	.loc	1 239 39                        ; which.c:239:39
	cmp	w9, #46
	cset	w10, eq
Ltmp136:
LBB1_40:                                ;   in Loop: Header=BB1_41 Depth=2
	;DEBUG_VALUE: path_clean_up:p1 <- $x12
	;DEBUG_VALUE: path_clean_up:saw_slash_dot_dot <- $w13
	;DEBUG_VALUE: path_clean_up:p2 <- $x11
	;DEBUG_VALUE: path_clean_up:path <- $x23
	;DEBUG_VALUE: path_search:result <- $x23
	;DEBUG_VALUE: next <- [DW_OP_plus_uconst 40] [$sp+0]
	;DEBUG_VALUE: path_index <- [DW_OP_plus_uconst 76, DW_OP_deref] $sp
	;DEBUG_VALUE: path_search:found_something <- [DW_OP_plus_uconst 44] [$sp+0]
	;DEBUG_VALUE: path_search:indent <- [DW_OP_plus_uconst 20] [$sp+0]
	.loc	1 239 31                        ; which.c:239:31
	ldr	x9, [x16, ___llvm_gcov_ctr.3@PAGEOFF+120]
	add	x9, x9, #1
	str	x9, [x16, ___llvm_gcov_ctr.3@PAGEOFF+120]
Ltmp137:
	;DEBUG_VALUE: path_clean_up:saw_slash_dot <- $w10
	.loc	1 240 18 is_stmt 1              ; which.c:240:18
	ldrb	w12, [x12]
Ltmp138:
	.loc	1 240 22 is_stmt 0              ; which.c:240:22
	cmp	w12, #47
	cset	w9, eq
Ltmp139:
	;DEBUG_VALUE: path_clean_up:saw_slash <- $w9
	.loc	1 242 13 is_stmt 1              ; which.c:242:13
	add	x8, x8, #1
Ltmp140:
	;DEBUG_VALUE: path_clean_up:p1 <- [DW_OP_LLVM_arg 0, DW_OP_LLVM_arg 1, DW_OP_constu 1, DW_OP_mul, DW_OP_plus, DW_OP_stack_value] $x23, $x8
	.loc	1 241 3                         ; which.c:241:3
	cbz	w12, LBB1_75
Ltmp141:
LBB1_41:                                ;   Parent Loop BB1_3 Depth=1
                                        ; =>  This Loop Header: Depth=2
                                        ;       Child Loop BB1_53 Depth 3
	;DEBUG_VALUE: path_clean_up:saw_slash <- $w9
	;DEBUG_VALUE: path_clean_up:p2 <- $x11
	;DEBUG_VALUE: path_clean_up:path <- $x23
	;DEBUG_VALUE: path_search:result <- $x23
	;DEBUG_VALUE: next <- [DW_OP_plus_uconst 40] [$sp+0]
	;DEBUG_VALUE: path_index <- [DW_OP_plus_uconst 76, DW_OP_deref] $sp
	;DEBUG_VALUE: path_search:found_something <- [DW_OP_plus_uconst 44] [$sp+0]
	;DEBUG_VALUE: path_search:indent <- [DW_OP_plus_uconst 20] [$sp+0]
	.loc	1 0 0 is_stmt 0                 ; which.c:0:0
	add	x12, x23, x8
	;DEBUG_VALUE: path_clean_up:p2 <- $x11
Ltmp142:
	;DEBUG_VALUE: path_clean_up:saw_slash_dot_dot <- $w13
	;DEBUG_VALUE: path_clean_up:saw_slash_dot <- $w10
	;DEBUG_VALUE: path_clean_up:saw_slash <- $w9
	;DEBUG_VALUE: path_clean_up:p1 <- $x12
	.loc	1 218 20 is_stmt 1              ; which.c:218:20
	cbz	w9, LBB1_45
Ltmp143:
; %bb.42:                               ;   in Loop: Header=BB1_41 Depth=2
	;DEBUG_VALUE: path_clean_up:p1 <- $x12
	;DEBUG_VALUE: path_clean_up:saw_slash_dot <- $w10
	;DEBUG_VALUE: path_clean_up:saw_slash_dot_dot <- $w13
	;DEBUG_VALUE: path_clean_up:saw_slash <- $w9
	;DEBUG_VALUE: path_clean_up:p2 <- $x11
	;DEBUG_VALUE: path_clean_up:path <- $x23
	;DEBUG_VALUE: path_search:result <- $x23
	;DEBUG_VALUE: next <- [DW_OP_plus_uconst 40] [$sp+0]
	;DEBUG_VALUE: path_index <- [DW_OP_plus_uconst 76, DW_OP_deref] $sp
	;DEBUG_VALUE: path_search:found_something <- [DW_OP_plus_uconst 44] [$sp+0]
	;DEBUG_VALUE: path_search:indent <- [DW_OP_plus_uconst 20] [$sp+0]
	.loc	1 218 24 is_stmt 0              ; which.c:218:24
	ldr	x14, [x6, ___llvm_gcov_ctr.3@PAGEOFF+16]
	add	x14, x14, #1
	str	x14, [x6, ___llvm_gcov_ctr.3@PAGEOFF+16]
	.loc	1 218 23                        ; which.c:218:23
	ldrb	w14, [x12]
	.loc	1 218 34                        ; which.c:218:34
	cmp	w14, #47
	b.ne	LBB1_45
Ltmp144:
; %bb.43:                               ;   in Loop: Header=BB1_41 Depth=2
	;DEBUG_VALUE: path_clean_up:p1 <- $x12
	;DEBUG_VALUE: path_clean_up:saw_slash_dot <- $w10
	;DEBUG_VALUE: path_clean_up:saw_slash_dot_dot <- $w13
	;DEBUG_VALUE: path_clean_up:saw_slash <- $w9
	;DEBUG_VALUE: path_clean_up:p2 <- $x11
	;DEBUG_VALUE: path_clean_up:path <- $x23
	;DEBUG_VALUE: path_search:result <- $x23
	;DEBUG_VALUE: next <- [DW_OP_plus_uconst 40] [$sp+0]
	;DEBUG_VALUE: path_index <- [DW_OP_plus_uconst 76, DW_OP_deref] $sp
	;DEBUG_VALUE: path_search:found_something <- [DW_OP_plus_uconst 44] [$sp+0]
	;DEBUG_VALUE: path_search:indent <- [DW_OP_plus_uconst 20] [$sp+0]
	.loc	1 0 34                          ; which.c:0:34
	adrp	x5, ___llvm_gcov_ctr.3@PAGE+24
	.loc	1 218 38                        ; which.c:218:38
	ldr	x14, [x5, ___llvm_gcov_ctr.3@PAGEOFF+24]
	add	x14, x14, #1
	str	x14, [x5, ___llvm_gcov_ctr.3@PAGEOFF+24]
	.loc	1 218 53                        ; which.c:218:53
	cmp	x8, #1
	b.ne	LBB1_46
Ltmp145:
; %bb.44:                               ;   in Loop: Header=BB1_41 Depth=2
	;DEBUG_VALUE: path_clean_up:p1 <- $x12
	;DEBUG_VALUE: path_clean_up:saw_slash_dot <- $w10
	;DEBUG_VALUE: path_clean_up:saw_slash_dot_dot <- $w13
	;DEBUG_VALUE: path_clean_up:saw_slash <- $w9
	;DEBUG_VALUE: path_clean_up:p2 <- $x11
	;DEBUG_VALUE: path_clean_up:path <- $x23
	;DEBUG_VALUE: path_search:result <- $x23
	;DEBUG_VALUE: next <- [DW_OP_plus_uconst 40] [$sp+0]
	;DEBUG_VALUE: path_index <- [DW_OP_plus_uconst 76, DW_OP_deref] $sp
	;DEBUG_VALUE: path_search:found_something <- [DW_OP_plus_uconst 44] [$sp+0]
	;DEBUG_VALUE: path_search:indent <- [DW_OP_plus_uconst 20] [$sp+0]
	.loc	1 0 53                          ; which.c:0:53
	adrp	x5, ___llvm_gcov_ctr.3@PAGE+32
	.loc	1 218 56                        ; which.c:218:56
	ldr	x14, [x5, ___llvm_gcov_ctr.3@PAGEOFF+32]
	add	x14, x14, #1
	str	x14, [x5, ___llvm_gcov_ctr.3@PAGEOFF+32]
	ldrb	w14, [x12, #1]
Ltmp146:
	.loc	1 218 9                         ; which.c:218:9
	cmp	w14, #47
	b.eq	LBB1_46
Ltmp147:
LBB1_45:                                ;   in Loop: Header=BB1_41 Depth=2
	;DEBUG_VALUE: path_clean_up:p1 <- $x12
	;DEBUG_VALUE: path_clean_up:saw_slash_dot <- $w10
	;DEBUG_VALUE: path_clean_up:saw_slash_dot_dot <- $w13
	;DEBUG_VALUE: path_clean_up:saw_slash <- $w9
	;DEBUG_VALUE: path_clean_up:p2 <- $x11
	;DEBUG_VALUE: path_clean_up:path <- $x23
	;DEBUG_VALUE: path_search:result <- $x23
	;DEBUG_VALUE: next <- [DW_OP_plus_uconst 40] [$sp+0]
	;DEBUG_VALUE: path_index <- [DW_OP_plus_uconst 76, DW_OP_deref] $sp
	;DEBUG_VALUE: path_search:found_something <- [DW_OP_plus_uconst 44] [$sp+0]
	;DEBUG_VALUE: path_search:indent <- [DW_OP_plus_uconst 20] [$sp+0]
	.loc	1 219 16 is_stmt 1              ; which.c:219:16
	ldr	x14, [x15, ___llvm_gcov_ctr.3@PAGEOFF+40]
	add	x14, x14, #1
	str	x14, [x15, ___llvm_gcov_ctr.3@PAGEOFF+40]
	.loc	1 219 15 is_stmt 0              ; which.c:219:15
	ldrb	w14, [x12]
	.loc	1 219 13                        ; which.c:219:13
	strb	w14, [x11], #1
Ltmp148:
	;DEBUG_VALUE: path_clean_up:p2 <- $x11
LBB1_46:                                ;   in Loop: Header=BB1_41 Depth=2
	;DEBUG_VALUE: path_clean_up:p1 <- $x12
	;DEBUG_VALUE: path_clean_up:saw_slash_dot <- $w10
	;DEBUG_VALUE: path_clean_up:saw_slash_dot_dot <- $w13
	;DEBUG_VALUE: path_clean_up:saw_slash <- $w9
	;DEBUG_VALUE: path_clean_up:p2 <- $x11
	;DEBUG_VALUE: path_clean_up:path <- $x23
	;DEBUG_VALUE: path_search:result <- $x23
	;DEBUG_VALUE: next <- [DW_OP_plus_uconst 40] [$sp+0]
	;DEBUG_VALUE: path_index <- [DW_OP_plus_uconst 76, DW_OP_deref] $sp
	;DEBUG_VALUE: path_search:found_something <- [DW_OP_plus_uconst 44] [$sp+0]
	;DEBUG_VALUE: path_search:indent <- [DW_OP_plus_uconst 20] [$sp+0]
	;DEBUG_VALUE: path_clean_up:p2 <- $x11
	.loc	1 220 23 is_stmt 1              ; which.c:220:23
	cbz	w10, LBB1_49
Ltmp149:
; %bb.47:                               ;   in Loop: Header=BB1_41 Depth=2
	;DEBUG_VALUE: path_clean_up:p1 <- $x12
	;DEBUG_VALUE: path_clean_up:saw_slash_dot <- $w10
	;DEBUG_VALUE: path_clean_up:saw_slash_dot_dot <- $w13
	;DEBUG_VALUE: path_clean_up:saw_slash <- $w9
	;DEBUG_VALUE: path_clean_up:p2 <- $x11
	;DEBUG_VALUE: path_clean_up:path <- $x23
	;DEBUG_VALUE: path_search:result <- $x23
	;DEBUG_VALUE: next <- [DW_OP_plus_uconst 40] [$sp+0]
	;DEBUG_VALUE: path_index <- [DW_OP_plus_uconst 76, DW_OP_deref] $sp
	;DEBUG_VALUE: path_search:found_something <- [DW_OP_plus_uconst 44] [$sp+0]
	;DEBUG_VALUE: path_search:indent <- [DW_OP_plus_uconst 20] [$sp+0]
	.loc	1 220 28 is_stmt 0              ; which.c:220:28
	ldr	x14, [x4, ___llvm_gcov_ctr.3@PAGEOFF+48]
	add	x14, x14, #1
	str	x14, [x4, ___llvm_gcov_ctr.3@PAGEOFF+48]
	.loc	1 220 27                        ; which.c:220:27
	ldrb	w14, [x12]
Ltmp150:
	.loc	1 220 9                         ; which.c:220:9
	cmp	w14, #47
	b.ne	LBB1_49
Ltmp151:
; %bb.48:                               ;   in Loop: Header=BB1_41 Depth=2
	;DEBUG_VALUE: path_clean_up:p1 <- $x12
	;DEBUG_VALUE: path_clean_up:saw_slash_dot <- $w10
	;DEBUG_VALUE: path_clean_up:saw_slash_dot_dot <- $w13
	;DEBUG_VALUE: path_clean_up:saw_slash <- $w9
	;DEBUG_VALUE: path_clean_up:p2 <- $x11
	;DEBUG_VALUE: path_clean_up:path <- $x23
	;DEBUG_VALUE: path_search:result <- $x23
	;DEBUG_VALUE: next <- [DW_OP_plus_uconst 40] [$sp+0]
	;DEBUG_VALUE: path_index <- [DW_OP_plus_uconst 76, DW_OP_deref] $sp
	;DEBUG_VALUE: path_search:found_something <- [DW_OP_plus_uconst 44] [$sp+0]
	;DEBUG_VALUE: path_search:indent <- [DW_OP_plus_uconst 20] [$sp+0]
	.loc	1 0 9                           ; which.c:0:9
	adrp	x5, ___llvm_gcov_ctr.3@PAGE+56
Ltmp152:
	.loc	1 221 10 is_stmt 1              ; which.c:221:10
	ldr	x14, [x5, ___llvm_gcov_ctr.3@PAGEOFF+56]
	add	x14, x14, #1
	str	x14, [x5, ___llvm_gcov_ctr.3@PAGEOFF+56]
	sub	x11, x11, #2
Ltmp153:
	;DEBUG_VALUE: path_clean_up:p2 <- $x11
LBB1_49:                                ;   in Loop: Header=BB1_41 Depth=2
	;DEBUG_VALUE: path_clean_up:p1 <- $x12
	;DEBUG_VALUE: path_clean_up:saw_slash_dot <- $w10
	;DEBUG_VALUE: path_clean_up:saw_slash_dot_dot <- $w13
	;DEBUG_VALUE: path_clean_up:saw_slash <- $w9
	;DEBUG_VALUE: path_clean_up:p2 <- $x11
	;DEBUG_VALUE: path_clean_up:path <- $x23
	;DEBUG_VALUE: path_search:result <- $x23
	;DEBUG_VALUE: next <- [DW_OP_plus_uconst 40] [$sp+0]
	;DEBUG_VALUE: path_index <- [DW_OP_plus_uconst 76, DW_OP_deref] $sp
	;DEBUG_VALUE: path_search:found_something <- [DW_OP_plus_uconst 44] [$sp+0]
	;DEBUG_VALUE: path_search:indent <- [DW_OP_plus_uconst 20] [$sp+0]
	;DEBUG_VALUE: path_clean_up:p2 <- $x11
	.loc	1 222 27                        ; which.c:222:27
	cbz	w13, LBB1_57
Ltmp154:
; %bb.50:                               ;   in Loop: Header=BB1_41 Depth=2
	;DEBUG_VALUE: path_clean_up:p1 <- $x12
	;DEBUG_VALUE: path_clean_up:saw_slash_dot <- $w10
	;DEBUG_VALUE: path_clean_up:saw_slash_dot_dot <- $w13
	;DEBUG_VALUE: path_clean_up:saw_slash <- $w9
	;DEBUG_VALUE: path_clean_up:p2 <- $x11
	;DEBUG_VALUE: path_clean_up:path <- $x23
	;DEBUG_VALUE: path_search:result <- $x23
	;DEBUG_VALUE: next <- [DW_OP_plus_uconst 40] [$sp+0]
	;DEBUG_VALUE: path_index <- [DW_OP_plus_uconst 76, DW_OP_deref] $sp
	;DEBUG_VALUE: path_search:found_something <- [DW_OP_plus_uconst 44] [$sp+0]
	;DEBUG_VALUE: path_search:indent <- [DW_OP_plus_uconst 20] [$sp+0]
	.loc	1 222 32 is_stmt 0              ; which.c:222:32
	ldr	x13, [x1, ___llvm_gcov_ctr.3@PAGEOFF+64]
Ltmp155:
	add	x13, x13, #1
	str	x13, [x1, ___llvm_gcov_ctr.3@PAGEOFF+64]
	.loc	1 222 31                        ; which.c:222:31
	ldrb	w13, [x12]
Ltmp156:
	.loc	1 222 9                         ; which.c:222:9
	cmp	w13, #47
	b.ne	LBB1_57
Ltmp157:
; %bb.51:                               ; %.preheader.i.preheader
                                        ;   in Loop: Header=BB1_41 Depth=2
	;DEBUG_VALUE: path_clean_up:p1 <- $x12
	;DEBUG_VALUE: path_clean_up:saw_slash_dot <- $w10
	;DEBUG_VALUE: path_clean_up:saw_slash <- $w9
	;DEBUG_VALUE: path_clean_up:p2 <- $x11
	;DEBUG_VALUE: path_clean_up:path <- $x23
	;DEBUG_VALUE: path_search:result <- $x23
	;DEBUG_VALUE: next <- [DW_OP_plus_uconst 40] [$sp+0]
	;DEBUG_VALUE: path_index <- [DW_OP_plus_uconst 76, DW_OP_deref] $sp
	;DEBUG_VALUE: path_search:found_something <- [DW_OP_plus_uconst 44] [$sp+0]
	;DEBUG_VALUE: path_search:indent <- [DW_OP_plus_uconst 20] [$sp+0]
	.loc	1 0 9                           ; which.c:0:9
	mov	w13, #0
Ltmp158:
	.loc	1 225 7 is_stmt 1               ; which.c:225:7
	sub	x11, x11, #1
Ltmp159:
	.loc	1 0 7 is_stmt 0                 ; which.c:0:7
	b	LBB1_53
Ltmp160:
LBB1_52:                                ;   in Loop: Header=BB1_53 Depth=3
	;DEBUG_VALUE: cnt <- $w13
	;DEBUG_VALUE: path_clean_up:p1 <- $x12
	;DEBUG_VALUE: path_clean_up:saw_slash_dot <- $w10
	;DEBUG_VALUE: path_clean_up:saw_slash <- $w9
	;DEBUG_VALUE: path_clean_up:p2 <- $x11
	;DEBUG_VALUE: path_clean_up:path <- $x23
	;DEBUG_VALUE: path_search:result <- $x23
	;DEBUG_VALUE: next <- [DW_OP_plus_uconst 40] [$sp+0]
	;DEBUG_VALUE: path_index <- [DW_OP_plus_uconst 76, DW_OP_deref] $sp
	;DEBUG_VALUE: path_search:found_something <- [DW_OP_plus_uconst 44] [$sp+0]
	;DEBUG_VALUE: path_search:indent <- [DW_OP_plus_uconst 20] [$sp+0]
	;DEBUG_VALUE: cnt <- $w13
	.loc	1 234 7 is_stmt 1               ; which.c:234:7
	ldr	x14, [x3, ___llvm_gcov_ctr.3@PAGEOFF+88]
	add	x14, x14, #1
	str	x14, [x3, ___llvm_gcov_ctr.3@PAGEOFF+88]
	sub	x11, x11, #1
Ltmp161:
	cmp	w13, #3
	b.eq	LBB1_56
Ltmp162:
LBB1_53:                                ; %.preheader.i
                                        ;   Parent Loop BB1_3 Depth=1
                                        ;     Parent Loop BB1_41 Depth=2
                                        ; =>    This Inner Loop Header: Depth=3
	;DEBUG_VALUE: path_clean_up:p1 <- $x12
	;DEBUG_VALUE: path_clean_up:saw_slash_dot <- $w10
	;DEBUG_VALUE: path_clean_up:saw_slash <- $w9
	;DEBUG_VALUE: path_clean_up:path <- $x23
	;DEBUG_VALUE: path_search:result <- $x23
	;DEBUG_VALUE: next <- [DW_OP_plus_uconst 40] [$sp+0]
	;DEBUG_VALUE: path_index <- [DW_OP_plus_uconst 76, DW_OP_deref] $sp
	;DEBUG_VALUE: path_search:found_something <- [DW_OP_plus_uconst 44] [$sp+0]
	;DEBUG_VALUE: path_search:indent <- [DW_OP_plus_uconst 20] [$sp+0]
	;DEBUG_VALUE: path_clean_up:p2 <- $x11
	;DEBUG_VALUE: cnt <- $w13
	.loc	1 227 6                         ; which.c:227:6
	cmp	x11, x19
	b.lo	LBB1_60
Ltmp163:
; %bb.54:                               ;   in Loop: Header=BB1_53 Depth=3
	;DEBUG_VALUE: cnt <- $w13
	;DEBUG_VALUE: path_clean_up:p1 <- $x12
	;DEBUG_VALUE: path_clean_up:saw_slash_dot <- $w10
	;DEBUG_VALUE: path_clean_up:saw_slash <- $w9
	;DEBUG_VALUE: path_clean_up:p2 <- $x11
	;DEBUG_VALUE: path_clean_up:path <- $x23
	;DEBUG_VALUE: path_search:result <- $x23
	;DEBUG_VALUE: next <- [DW_OP_plus_uconst 40] [$sp+0]
	;DEBUG_VALUE: path_index <- [DW_OP_plus_uconst 76, DW_OP_deref] $sp
	;DEBUG_VALUE: path_search:found_something <- [DW_OP_plus_uconst 44] [$sp+0]
	;DEBUG_VALUE: path_search:indent <- [DW_OP_plus_uconst 20] [$sp+0]
	.loc	1 232 6                         ; which.c:232:6
	ldrb	w14, [x11]
Ltmp164:
	.loc	1 232 6 is_stmt 0               ; which.c:232:6
	cmp	w14, #47
	b.ne	LBB1_52
Ltmp165:
; %bb.55:                               ;   in Loop: Header=BB1_53 Depth=3
	;DEBUG_VALUE: cnt <- $w13
	;DEBUG_VALUE: path_clean_up:p1 <- $x12
	;DEBUG_VALUE: path_clean_up:saw_slash_dot <- $w10
	;DEBUG_VALUE: path_clean_up:saw_slash <- $w9
	;DEBUG_VALUE: path_clean_up:p2 <- $x11
	;DEBUG_VALUE: path_clean_up:path <- $x23
	;DEBUG_VALUE: path_search:result <- $x23
	;DEBUG_VALUE: next <- [DW_OP_plus_uconst 40] [$sp+0]
	;DEBUG_VALUE: path_index <- [DW_OP_plus_uconst 76, DW_OP_deref] $sp
	;DEBUG_VALUE: path_search:found_something <- [DW_OP_plus_uconst 44] [$sp+0]
	;DEBUG_VALUE: path_search:indent <- [DW_OP_plus_uconst 20] [$sp+0]
	.loc	1 233 4 is_stmt 1               ; which.c:233:4
	ldr	x14, [x2, ___llvm_gcov_ctr.3@PAGEOFF+80]
	add	x14, x14, #1
	str	x14, [x2, ___llvm_gcov_ctr.3@PAGEOFF+80]
	add	w13, w13, #1
Ltmp166:
	;DEBUG_VALUE: cnt <- $w13
	.loc	1 0 4 is_stmt 0                 ; which.c:0:4
	b	LBB1_52
Ltmp167:
LBB1_56:                                ;   in Loop: Header=BB1_41 Depth=2
	;DEBUG_VALUE: cnt <- $w13
	;DEBUG_VALUE: path_clean_up:p1 <- $x12
	;DEBUG_VALUE: path_clean_up:saw_slash_dot <- $w10
	;DEBUG_VALUE: path_clean_up:saw_slash <- $w9
	;DEBUG_VALUE: path_clean_up:path <- $x23
	;DEBUG_VALUE: path_search:result <- $x23
	;DEBUG_VALUE: next <- [DW_OP_plus_uconst 40] [$sp+0]
	;DEBUG_VALUE: path_index <- [DW_OP_plus_uconst 76, DW_OP_deref] $sp
	;DEBUG_VALUE: path_search:found_something <- [DW_OP_plus_uconst 44] [$sp+0]
	;DEBUG_VALUE: path_search:indent <- [DW_OP_plus_uconst 20] [$sp+0]
	adrp	x14, ___llvm_gcov_ctr.3@PAGE+96
	.loc	1 236 7 is_stmt 1               ; which.c:236:7
	ldr	x13, [x14, ___llvm_gcov_ctr.3@PAGEOFF+96]
Ltmp168:
	add	x13, x13, #1
	str	x13, [x14, ___llvm_gcov_ctr.3@PAGEOFF+96]
Ltmp169:
	;DEBUG_VALUE: path_clean_up:p2 <- undef
	.loc	1 0 7 is_stmt 0                 ; which.c:0:7
	add	x11, x11, #2
Ltmp170:
LBB1_57:                                ;   in Loop: Header=BB1_41 Depth=2
	;DEBUG_VALUE: path_clean_up:p1 <- $x12
	;DEBUG_VALUE: path_clean_up:saw_slash_dot <- $w10
	;DEBUG_VALUE: path_clean_up:saw_slash <- $w9
	;DEBUG_VALUE: path_clean_up:path <- $x23
	;DEBUG_VALUE: path_search:result <- $x23
	;DEBUG_VALUE: next <- [DW_OP_plus_uconst 40] [$sp+0]
	;DEBUG_VALUE: path_index <- [DW_OP_plus_uconst 76, DW_OP_deref] $sp
	;DEBUG_VALUE: path_search:found_something <- [DW_OP_plus_uconst 44] [$sp+0]
	;DEBUG_VALUE: path_search:indent <- [DW_OP_plus_uconst 20] [$sp+0]
	;DEBUG_VALUE: path_clean_up:p2 <- $x11
	.loc	1 238 39 is_stmt 1              ; which.c:238:39
	cbz	w10, LBB1_38
Ltmp171:
; %bb.58:                               ;   in Loop: Header=BB1_41 Depth=2
	;DEBUG_VALUE: path_clean_up:p1 <- $x12
	;DEBUG_VALUE: path_clean_up:saw_slash_dot <- $w10
	;DEBUG_VALUE: path_clean_up:saw_slash <- $w9
	;DEBUG_VALUE: path_clean_up:p2 <- $x11
	;DEBUG_VALUE: path_clean_up:path <- $x23
	;DEBUG_VALUE: path_search:result <- $x23
	;DEBUG_VALUE: next <- [DW_OP_plus_uconst 40] [$sp+0]
	;DEBUG_VALUE: path_index <- [DW_OP_plus_uconst 76, DW_OP_deref] $sp
	;DEBUG_VALUE: path_search:found_something <- [DW_OP_plus_uconst 44] [$sp+0]
	;DEBUG_VALUE: path_search:indent <- [DW_OP_plus_uconst 20] [$sp+0]
	.loc	1 238 44 is_stmt 0              ; which.c:238:44
	ldr	x10, [x0, ___llvm_gcov_ctr.3@PAGEOFF+104]
Ltmp172:
	add	x10, x10, #1
	str	x10, [x0, ___llvm_gcov_ctr.3@PAGEOFF+104]
	.loc	1 238 43                        ; which.c:238:43
	ldrb	w10, [x12]
	.loc	1 238 47                        ; which.c:238:47
	cmp	w10, #46
	cset	w13, eq
Ltmp173:
	;DEBUG_VALUE: path_clean_up:saw_slash_dot_dot <- $w13
	.loc	1 239 31 is_stmt 1              ; which.c:239:31
	cbnz	w9, LBB1_39
Ltmp174:
LBB1_59:                                ;   in Loop: Header=BB1_41 Depth=2
	;DEBUG_VALUE: path_clean_up:p1 <- $x12
	;DEBUG_VALUE: path_clean_up:saw_slash_dot_dot <- $w13
	;DEBUG_VALUE: path_clean_up:saw_slash <- $w9
	;DEBUG_VALUE: path_clean_up:p2 <- $x11
	;DEBUG_VALUE: path_clean_up:path <- $x23
	;DEBUG_VALUE: path_search:result <- $x23
	;DEBUG_VALUE: next <- [DW_OP_plus_uconst 40] [$sp+0]
	;DEBUG_VALUE: path_index <- [DW_OP_plus_uconst 76, DW_OP_deref] $sp
	;DEBUG_VALUE: path_search:found_something <- [DW_OP_plus_uconst 44] [$sp+0]
	;DEBUG_VALUE: path_search:indent <- [DW_OP_plus_uconst 20] [$sp+0]
	.loc	1 0 31 is_stmt 0                ; which.c:0:31
	mov	w10, #0
	b	LBB1_40
Ltmp175:
LBB1_60:                                ; %.thread.i66
                                        ;   in Loop: Header=BB1_3 Depth=1
	;DEBUG_VALUE: cnt <- $w13
	;DEBUG_VALUE: path_clean_up:p1 <- $x12
	;DEBUG_VALUE: path_clean_up:saw_slash_dot <- $w10
	;DEBUG_VALUE: path_clean_up:saw_slash <- $w9
	;DEBUG_VALUE: path_clean_up:p2 <- $x11
	;DEBUG_VALUE: path_clean_up:path <- $x23
	;DEBUG_VALUE: path_search:result <- $x23
	;DEBUG_VALUE: next <- [DW_OP_plus_uconst 40] [$sp+0]
	;DEBUG_VALUE: path_index <- [DW_OP_plus_uconst 76, DW_OP_deref] $sp
	;DEBUG_VALUE: path_search:found_something <- [DW_OP_plus_uconst 44] [$sp+0]
	;DEBUG_VALUE: path_search:indent <- [DW_OP_plus_uconst 20] [$sp+0]
	adrp	x9, ___llvm_gcov_ctr.3@PAGE+72
Ltmp176:
	.loc	1 229 36 is_stmt 1              ; which.c:229:36
	ldr	x8, [x9, ___llvm_gcov_ctr.3@PAGEOFF+72]
	add	x8, x8, #1
	str	x8, [x9, ___llvm_gcov_ctr.3@PAGEOFF+72]
	.loc	1 229 4 is_stmt 0               ; which.c:229:4
	mov	x0, x19
	mov	x1, x23
	mov	w2, #256
	bl	___strcpy_chk
Ltmp177:
	;DEBUG_VALUE: path_clean_up:p2 <- undef
LBB1_61:                                ; %path_clean_up.exit
                                        ;   in Loop: Header=BB1_3 Depth=1
	;DEBUG_VALUE: path_search:result <- $x23
	;DEBUG_VALUE: next <- [DW_OP_plus_uconst 40] [$sp+0]
	;DEBUG_VALUE: path_index <- [DW_OP_plus_uconst 76, DW_OP_deref] $sp
	;DEBUG_VALUE: path_search:found_something <- [DW_OP_plus_uconst 44] [$sp+0]
	;DEBUG_VALUE: path_search:indent <- [DW_OP_plus_uconst 20] [$sp+0]
	.loc	1 304 17 is_stmt 1              ; which.c:304:17
Lloh22:
	adrp	x8, _show_tilde@PAGE
Lloh23:
	ldr	w8, [x8, _show_tilde@PAGEOFF]
Ltmp178:
	;DEBUG_VALUE: full_path <- undef
	.loc	1 304 28 is_stmt 0              ; which.c:304:28
	cbnz	w8, LBB1_63
Ltmp179:
; %bb.62:                               ;   in Loop: Header=BB1_3 Depth=1
	;DEBUG_VALUE: path_search:result <- $x23
	;DEBUG_VALUE: next <- [DW_OP_plus_uconst 40] [$sp+0]
	;DEBUG_VALUE: path_index <- [DW_OP_plus_uconst 76, DW_OP_deref] $sp
	;DEBUG_VALUE: path_search:found_something <- [DW_OP_plus_uconst 44] [$sp+0]
	;DEBUG_VALUE: path_search:indent <- [DW_OP_plus_uconst 20] [$sp+0]
	.loc	1 0 28                          ; which.c:0:28
	adrp	x9, ___llvm_gcov_ctr.1@PAGE+16
	.loc	1 304 31                        ; which.c:304:31
	ldr	x8, [x9, ___llvm_gcov_ctr.1@PAGEOFF+16]
	add	x8, x8, #1
	str	x8, [x9, ___llvm_gcov_ctr.1@PAGEOFF+16]
Lloh24:
	adrp	x8, _skip_tilde@PAGE
Lloh25:
	ldr	w8, [x8, _skip_tilde@PAGEOFF]
	.loc	1 304 43                        ; which.c:304:43
	cbz	w8, LBB1_76
Ltmp180:
LBB1_63:                                ;   in Loop: Header=BB1_3 Depth=1
	;DEBUG_VALUE: path_search:result <- $x23
	;DEBUG_VALUE: next <- [DW_OP_plus_uconst 40] [$sp+0]
	;DEBUG_VALUE: path_index <- [DW_OP_plus_uconst 76, DW_OP_deref] $sp
	;DEBUG_VALUE: path_search:found_something <- [DW_OP_plus_uconst 44] [$sp+0]
	;DEBUG_VALUE: path_search:indent <- [DW_OP_plus_uconst 20] [$sp+0]
	.loc	1 0 43                          ; which.c:0:43
	adrp	x9, ___llvm_gcov_ctr.1@PAGE+24
	.loc	1 304 55                        ; which.c:304:55
	ldr	x8, [x9, ___llvm_gcov_ctr.1@PAGEOFF+24]
	add	x8, x8, #1
	str	x8, [x9, ___llvm_gcov_ctr.1@PAGEOFF+24]
	.loc	1 304 72                        ; which.c:304:72
Lloh26:
	adrp	x8, _homelen@PAGE
Lloh27:
	ldr	x2, [x8, _homelen@PAGEOFF]
	.loc	1 304 47                        ; which.c:304:47
	mov	x0, x19
Lloh28:
	adrp	x1, _home@PAGE
Lloh29:
	add	x1, x1, _home@PAGEOFF
	bl	_strncmp
Ltmp181:
	.loc	1 304 46                        ; which.c:304:46
	cmp	w0, #0
	cset	w20, eq
Ltmp182:
	;DEBUG_VALUE: in_home <- [DW_OP_LLVM_convert 1 7, DW_OP_LLVM_convert 32 7, DW_OP_stack_value] $w20
	.loc	1 0 46                          ; which.c:0:46
	ldr	w8, [sp, #20]                   ; 4-byte Folded Reload
	.loc	1 305 6 is_stmt 1               ; which.c:305:6
	cbz	w8, LBB1_65
Ltmp183:
LBB1_64:                                ;   in Loop: Header=BB1_3 Depth=1
	;DEBUG_VALUE: in_home <- [DW_OP_LLVM_convert 1 7, DW_OP_LLVM_convert 32 7, DW_OP_stack_value] $w20
	;DEBUG_VALUE: path_search:result <- $x23
	;DEBUG_VALUE: next <- [DW_OP_plus_uconst 40] [$sp+0]
	;DEBUG_VALUE: path_index <- [DW_OP_plus_uconst 76, DW_OP_deref] $sp
	;DEBUG_VALUE: path_search:found_something <- [DW_OP_plus_uconst 44] [$sp+0]
	;DEBUG_VALUE: path_search:indent <- [DW_OP_plus_uconst 20] [$sp+0]
	.loc	1 0 6 is_stmt 0                 ; which.c:0:6
	adrp	x9, ___llvm_gcov_ctr.1@PAGE+32
Ltmp184:
	.loc	1 306 12 is_stmt 1              ; which.c:306:12
	ldr	x8, [x9, ___llvm_gcov_ctr.1@PAGEOFF+32]
	add	x8, x8, #1
	str	x8, [x9, ___llvm_gcov_ctr.1@PAGEOFF+32]
Lloh30:
	adrp	x8, ___stdoutp@GOTPAGE
Lloh31:
	ldr	x8, [x8, ___stdoutp@GOTPAGEOFF]
Lloh32:
	ldr	x1, [x8]
	.loc	1 306 4 is_stmt 0               ; which.c:306:4
	mov	w0, #9
	bl	_fputc
Ltmp185:
LBB1_65:                                ;   in Loop: Header=BB1_3 Depth=1
	;DEBUG_VALUE: in_home <- [DW_OP_LLVM_convert 1 7, DW_OP_LLVM_convert 32 7, DW_OP_stack_value] $w20
	;DEBUG_VALUE: path_search:result <- $x23
	;DEBUG_VALUE: next <- [DW_OP_plus_uconst 40] [$sp+0]
	;DEBUG_VALUE: path_index <- [DW_OP_plus_uconst 76, DW_OP_deref] $sp
	;DEBUG_VALUE: path_search:found_something <- [DW_OP_plus_uconst 44] [$sp+0]
	;DEBUG_VALUE: path_search:indent <- [DW_OP_plus_uconst 20] [$sp+0]
	.loc	1 307 8 is_stmt 1               ; which.c:307:8
Lloh33:
	adrp	x8, _skip_tilde@PAGE
Lloh34:
	ldr	w26, [x8, _skip_tilde@PAGEOFF]
	.loc	1 307 19 is_stmt 0              ; which.c:307:19
	cbz	w26, LBB1_69
Ltmp186:
; %bb.66:                               ;   in Loop: Header=BB1_3 Depth=1
	;DEBUG_VALUE: in_home <- [DW_OP_LLVM_convert 1 7, DW_OP_LLVM_convert 32 7, DW_OP_stack_value] $w20
	;DEBUG_VALUE: path_search:result <- $x23
	;DEBUG_VALUE: next <- [DW_OP_plus_uconst 40] [$sp+0]
	;DEBUG_VALUE: path_index <- [DW_OP_plus_uconst 76, DW_OP_deref] $sp
	;DEBUG_VALUE: path_search:found_something <- [DW_OP_plus_uconst 44] [$sp+0]
	;DEBUG_VALUE: path_search:indent <- [DW_OP_plus_uconst 20] [$sp+0]
	.loc	1 0 19                          ; which.c:0:19
	adrp	x9, ___llvm_gcov_ctr.1@PAGE+40
	.loc	1 307 22                        ; which.c:307:22
	ldr	x8, [x9, ___llvm_gcov_ctr.1@PAGEOFF+40]
	add	x8, x8, #1
	str	x8, [x9, ___llvm_gcov_ctr.1@PAGEOFF+40]
	.loc	1 307 31                        ; which.c:307:31
	tbnz	w20, #0, LBB1_68
Ltmp187:
; %bb.67:                               ;   in Loop: Header=BB1_3 Depth=1
	;DEBUG_VALUE: in_home <- [DW_OP_LLVM_convert 1 7, DW_OP_LLVM_convert 32 7, DW_OP_stack_value] $w20
	;DEBUG_VALUE: path_search:result <- $x23
	;DEBUG_VALUE: next <- [DW_OP_plus_uconst 40] [$sp+0]
	;DEBUG_VALUE: path_index <- [DW_OP_plus_uconst 76, DW_OP_deref] $sp
	;DEBUG_VALUE: path_search:found_something <- [DW_OP_plus_uconst 44] [$sp+0]
	;DEBUG_VALUE: path_search:indent <- [DW_OP_plus_uconst 20] [$sp+0]
	.loc	1 0 31                          ; which.c:0:31
Lloh35:
	adrp	x8, _show_dot@PAGE
Lloh36:
	ldr	w8, [x8, _show_dot@PAGEOFF]
	.loc	1 307 31                        ; which.c:307:31
	cbnz	w8, LBB1_70
Ltmp188:
LBB1_68:                                ; %._crit_edge.thread
                                        ;   in Loop: Header=BB1_3 Depth=1
	;DEBUG_VALUE: in_home <- [DW_OP_LLVM_convert 1 7, DW_OP_LLVM_convert 32 7, DW_OP_stack_value] $w20
	;DEBUG_VALUE: path_search:result <- $x23
	;DEBUG_VALUE: next <- [DW_OP_plus_uconst 40] [$sp+0]
	;DEBUG_VALUE: path_index <- [DW_OP_plus_uconst 76, DW_OP_deref] $sp
	;DEBUG_VALUE: path_search:found_something <- [DW_OP_plus_uconst 44] [$sp+0]
	;DEBUG_VALUE: path_search:indent <- [DW_OP_plus_uconst 20] [$sp+0]
	.loc	1 312 11 is_stmt 1              ; which.c:312:11
	tbnz	w20, #0, LBB1_74
	b	LBB1_83
Ltmp189:
LBB1_69:                                ;   in Loop: Header=BB1_3 Depth=1
	;DEBUG_VALUE: in_home <- [DW_OP_LLVM_convert 1 7, DW_OP_LLVM_convert 32 7, DW_OP_stack_value] $w20
	;DEBUG_VALUE: path_search:result <- $x23
	;DEBUG_VALUE: next <- [DW_OP_plus_uconst 40] [$sp+0]
	;DEBUG_VALUE: path_index <- [DW_OP_plus_uconst 76, DW_OP_deref] $sp
	;DEBUG_VALUE: path_search:found_something <- [DW_OP_plus_uconst 44] [$sp+0]
	;DEBUG_VALUE: path_search:indent <- [DW_OP_plus_uconst 20] [$sp+0]
	.loc	1 307 34                        ; which.c:307:34
Lloh37:
	adrp	x8, _show_dot@PAGE
Lloh38:
	ldr	w8, [x8, _show_dot@PAGEOFF]
	.loc	1 307 43 is_stmt 0              ; which.c:307:43
	cbz	w8, LBB1_77
Ltmp190:
LBB1_70:                                ;   in Loop: Header=BB1_3 Depth=1
	;DEBUG_VALUE: in_home <- [DW_OP_LLVM_convert 1 7, DW_OP_LLVM_convert 32 7, DW_OP_stack_value] $w20
	;DEBUG_VALUE: path_search:result <- $x23
	;DEBUG_VALUE: next <- [DW_OP_plus_uconst 40] [$sp+0]
	;DEBUG_VALUE: path_index <- [DW_OP_plus_uconst 76, DW_OP_deref] $sp
	;DEBUG_VALUE: path_search:found_something <- [DW_OP_plus_uconst 44] [$sp+0]
	;DEBUG_VALUE: path_search:indent <- [DW_OP_plus_uconst 20] [$sp+0]
	.loc	1 0 43                          ; which.c:0:43
	adrp	x9, ___llvm_gcov_ctr.1@PAGE+48
	.loc	1 307 46                        ; which.c:307:46
	ldr	x8, [x9, ___llvm_gcov_ctr.1@PAGEOFF+48]
	add	x8, x8, #1
	str	x8, [x9, ___llvm_gcov_ctr.1@PAGEOFF+48]
Lloh39:
	adrp	x8, _found_path_starts_with_dot@PAGE
Lloh40:
	ldr	w8, [x8, _found_path_starts_with_dot@PAGEOFF]
	mov	x28, x19
	.loc	1 307 73                        ; which.c:307:73
	cbz	w8, LBB1_72
Ltmp191:
; %bb.71:                               ;   in Loop: Header=BB1_3 Depth=1
	;DEBUG_VALUE: in_home <- [DW_OP_LLVM_convert 1 7, DW_OP_LLVM_convert 32 7, DW_OP_stack_value] $w20
	;DEBUG_VALUE: path_search:result <- $x23
	;DEBUG_VALUE: next <- [DW_OP_plus_uconst 40] [$sp+0]
	;DEBUG_VALUE: path_index <- [DW_OP_plus_uconst 76, DW_OP_deref] $sp
	;DEBUG_VALUE: path_search:found_something <- [DW_OP_plus_uconst 44] [$sp+0]
	;DEBUG_VALUE: path_search:indent <- [DW_OP_plus_uconst 20] [$sp+0]
	.loc	1 0 73                          ; which.c:0:73
	adrp	x9, ___llvm_gcov_ctr.1@PAGE+56
	.loc	1 307 85                        ; which.c:307:85
	ldr	x8, [x9, ___llvm_gcov_ctr.1@PAGEOFF+56]
	add	x8, x8, #1
	str	x8, [x9, ___llvm_gcov_ctr.1@PAGEOFF+56]
	.loc	1 307 101                       ; which.c:307:101
Lloh41:
	adrp	x8, _cwdlen@PAGE
Lloh42:
	ldr	x19, [x8, _cwdlen@PAGEOFF]
	.loc	1 307 77                        ; which.c:307:77
	mov	x0, x28
Lloh43:
	adrp	x1, _cwd@PAGE
Lloh44:
	add	x1, x1, _cwd@PAGEOFF
	mov	x2, x19
	bl	_strncmp
Ltmp192:
	.loc	1 307 6                         ; which.c:307:6
	cbz	w0, LBB1_80
Ltmp193:
LBB1_72:                                ; %._crit_edge
                                        ;   in Loop: Header=BB1_3 Depth=1
	;DEBUG_VALUE: in_home <- [DW_OP_LLVM_convert 1 7, DW_OP_LLVM_convert 32 7, DW_OP_stack_value] $w20
	;DEBUG_VALUE: path_search:result <- $x23
	;DEBUG_VALUE: next <- [DW_OP_plus_uconst 40] [$sp+0]
	;DEBUG_VALUE: path_index <- [DW_OP_plus_uconst 76, DW_OP_deref] $sp
	;DEBUG_VALUE: path_search:found_something <- [DW_OP_plus_uconst 44] [$sp+0]
	;DEBUG_VALUE: path_search:indent <- [DW_OP_plus_uconst 20] [$sp+0]
	.loc	1 0 6                           ; which.c:0:6
	mov	x19, x28
Ltmp194:
	.loc	1 312 11 is_stmt 1              ; which.c:312:11
	tbz	w20, #0, LBB1_83
Ltmp195:
; %bb.73:                               ;   in Loop: Header=BB1_3 Depth=1
	;DEBUG_VALUE: in_home <- [DW_OP_LLVM_convert 1 7, DW_OP_LLVM_convert 32 7, DW_OP_stack_value] $w20
	;DEBUG_VALUE: path_search:result <- $x23
	;DEBUG_VALUE: next <- [DW_OP_plus_uconst 40] [$sp+0]
	;DEBUG_VALUE: path_index <- [DW_OP_plus_uconst 76, DW_OP_deref] $sp
	;DEBUG_VALUE: path_search:found_something <- [DW_OP_plus_uconst 44] [$sp+0]
	;DEBUG_VALUE: path_search:indent <- [DW_OP_plus_uconst 20] [$sp+0]
	.loc	1 314 8                         ; which.c:314:8
	cbz	w26, LBB1_78
Ltmp196:
LBB1_74:                                ; %.thread
                                        ;   in Loop: Header=BB1_3 Depth=1
	;DEBUG_VALUE: in_home <- [DW_OP_LLVM_convert 1 7, DW_OP_LLVM_convert 32 7, DW_OP_stack_value] $w20
	;DEBUG_VALUE: path_search:result <- $x23
	;DEBUG_VALUE: next <- [DW_OP_plus_uconst 40] [$sp+0]
	;DEBUG_VALUE: path_index <- [DW_OP_plus_uconst 76, DW_OP_deref] $sp
	;DEBUG_VALUE: path_search:found_something <- [DW_OP_plus_uconst 44] [$sp+0]
	;DEBUG_VALUE: path_search:indent <- [DW_OP_plus_uconst 20] [$sp+0]
	.loc	1 0 8 is_stmt 0                 ; which.c:0:8
	adrp	x9, ___llvm_gcov_ctr.1@PAGE+72
Ltmp197:
	.loc	1 316 11 is_stmt 1              ; which.c:316:11
	ldr	x8, [x9, ___llvm_gcov_ctr.1@PAGEOFF+72]
	add	x8, x8, #1
	str	x8, [x9, ___llvm_gcov_ctr.1@PAGEOFF+72]
Ltmp198:
	;DEBUG_VALUE: next <- 1
	.loc	1 317 6                         ; which.c:317:6
	mov	x0, x23
	bl	_free
Ltmp199:
	.loc	1 0 6 is_stmt 0                 ; which.c:0:6
	mov	w9, #1
	;DEBUG_VALUE: path_search:found_something <- [DW_OP_plus_uconst 44] [$sp+0]
	ldr	x20, [sp, #24]                  ; 8-byte Folded Reload
Ltmp200:
	b	LBB1_85
Ltmp201:
LBB1_75:                                ;   in Loop: Header=BB1_3 Depth=1
	;DEBUG_VALUE: path_clean_up:p1 <- [DW_OP_LLVM_arg 0, DW_OP_LLVM_arg 1, DW_OP_constu 1, DW_OP_mul, DW_OP_plus, DW_OP_stack_value] $x23, $x8
	;DEBUG_VALUE: path_clean_up:saw_slash_dot <- $w10
	;DEBUG_VALUE: path_clean_up:saw_slash_dot_dot <- $w13
	;DEBUG_VALUE: path_clean_up:saw_slash <- $w9
	;DEBUG_VALUE: path_clean_up:p2 <- $x11
	;DEBUG_VALUE: path_clean_up:path <- $x23
	;DEBUG_VALUE: path_search:result <- $x23
	;DEBUG_VALUE: next <- [DW_OP_plus_uconst 40] [$sp+0]
	;DEBUG_VALUE: path_index <- [DW_OP_plus_uconst 76, DW_OP_deref] $sp
	;DEBUG_VALUE: path_search:found_something <- [DW_OP_plus_uconst 44] [$sp+0]
	;DEBUG_VALUE: path_search:indent <- [DW_OP_plus_uconst 20] [$sp+0]
	adrp	x9, ___llvm_gcov_ctr.3@PAGE+128
Ltmp202:
	.loc	1 244 3 is_stmt 1               ; which.c:244:3
	ldr	x8, [x9, ___llvm_gcov_ctr.3@PAGEOFF+128]
Ltmp203:
	add	x8, x8, #1
	str	x8, [x9, ___llvm_gcov_ctr.3@PAGEOFF+128]
	b	LBB1_61
Ltmp204:
LBB1_76:                                ;   in Loop: Header=BB1_3 Depth=1
	;DEBUG_VALUE: path_search:result <- $x23
	;DEBUG_VALUE: next <- [DW_OP_plus_uconst 40] [$sp+0]
	;DEBUG_VALUE: path_index <- [DW_OP_plus_uconst 76, DW_OP_deref] $sp
	;DEBUG_VALUE: path_search:found_something <- [DW_OP_plus_uconst 44] [$sp+0]
	;DEBUG_VALUE: path_search:indent <- [DW_OP_plus_uconst 20] [$sp+0]
	.loc	1 0 3 is_stmt 0                 ; which.c:0:3
	mov	w20, #0
Ltmp205:
	;DEBUG_VALUE: in_home <- [DW_OP_LLVM_convert 1 7, DW_OP_LLVM_convert 32 7, DW_OP_stack_value] $w20
	ldr	w8, [sp, #20]                   ; 4-byte Folded Reload
	.loc	1 305 6 is_stmt 1               ; which.c:305:6
	cbnz	w8, LBB1_64
	b	LBB1_65
Ltmp206:
LBB1_77:                                ; %._crit_edge.thread77
                                        ;   in Loop: Header=BB1_3 Depth=1
	;DEBUG_VALUE: in_home <- [DW_OP_LLVM_convert 1 7, DW_OP_LLVM_convert 32 7, DW_OP_stack_value] $w20
	;DEBUG_VALUE: path_search:result <- $x23
	;DEBUG_VALUE: next <- [DW_OP_plus_uconst 40] [$sp+0]
	;DEBUG_VALUE: path_index <- [DW_OP_plus_uconst 76, DW_OP_deref] $sp
	;DEBUG_VALUE: path_search:found_something <- [DW_OP_plus_uconst 44] [$sp+0]
	;DEBUG_VALUE: path_search:indent <- [DW_OP_plus_uconst 20] [$sp+0]
	.loc	1 312 11                        ; which.c:312:11
	tbz	w20, #0, LBB1_83
Ltmp207:
LBB1_78:                                ; %.thread78
                                        ;   in Loop: Header=BB1_3 Depth=1
	;DEBUG_VALUE: in_home <- [DW_OP_LLVM_convert 1 7, DW_OP_LLVM_convert 32 7, DW_OP_stack_value] $w20
	;DEBUG_VALUE: path_search:result <- $x23
	;DEBUG_VALUE: next <- [DW_OP_plus_uconst 40] [$sp+0]
	;DEBUG_VALUE: path_index <- [DW_OP_plus_uconst 76, DW_OP_deref] $sp
	;DEBUG_VALUE: path_search:found_something <- [DW_OP_plus_uconst 44] [$sp+0]
	;DEBUG_VALUE: path_search:indent <- [DW_OP_plus_uconst 20] [$sp+0]
	.loc	1 320 8                         ; which.c:320:8
Lloh45:
	adrp	x8, _show_tilde@PAGE
Lloh46:
	ldr	w8, [x8, _show_tilde@PAGEOFF]
Ltmp208:
	.loc	1 320 8 is_stmt 0               ; which.c:320:8
	cbz	w8, LBB1_81
Ltmp209:
; %bb.79:                               ;   in Loop: Header=BB1_3 Depth=1
	;DEBUG_VALUE: in_home <- [DW_OP_LLVM_convert 1 7, DW_OP_LLVM_convert 32 7, DW_OP_stack_value] $w20
	;DEBUG_VALUE: path_search:result <- $x23
	;DEBUG_VALUE: next <- [DW_OP_plus_uconst 40] [$sp+0]
	;DEBUG_VALUE: path_index <- [DW_OP_plus_uconst 76, DW_OP_deref] $sp
	;DEBUG_VALUE: path_search:found_something <- [DW_OP_plus_uconst 44] [$sp+0]
	;DEBUG_VALUE: path_search:indent <- [DW_OP_plus_uconst 20] [$sp+0]
	.loc	1 0 8                           ; which.c:0:8
Lloh47:
	adrp	x9, ___llvm_gcov_ctr.1@PAGE+80
Ltmp210:
	.loc	1 322 19 is_stmt 1              ; which.c:322:19
	ldr	x8, [x9, ___llvm_gcov_ctr.1@PAGEOFF+80]
	add	x8, x8, #1
	str	x8, [x9, ___llvm_gcov_ctr.1@PAGEOFF+80]
Lloh48:
	adrp	x8, _homelen@PAGE
Lloh49:
	ldr	x8, [x8, _homelen@PAGEOFF]
	.loc	1 322 16 is_stmt 0              ; which.c:322:16
Lloh50:
	adrp	x9, _path_clean_up.result@PAGE
Lloh51:
	add	x9, x9, _path_clean_up.result@PAGEOFF
	add	x19, x9, x8
Ltmp211:
	;DEBUG_VALUE: full_path <- $x19
	.loc	1 323 14 is_stmt 1              ; which.c:323:14
Lloh52:
	adrp	x8, ___stdoutp@GOTPAGE
Lloh53:
	ldr	x8, [x8, ___stdoutp@GOTPAGEOFF]
Lloh54:
	ldr	x3, [x8]
	.loc	1 323 6 is_stmt 0               ; which.c:323:6
Lloh55:
	adrp	x0, l_.str.4@PAGE
Lloh56:
	add	x0, x0, l_.str.4@PAGEOFF
	mov	w1, #2
	mov	w2, #1
	bl	_fwrite
Ltmp212:
	.loc	1 0 6                           ; which.c:0:6
	b	LBB1_82
Ltmp213:
LBB1_80:                                ;   in Loop: Header=BB1_3 Depth=1
	;DEBUG_VALUE: in_home <- [DW_OP_LLVM_convert 1 7, DW_OP_LLVM_convert 32 7, DW_OP_stack_value] $w20
	;DEBUG_VALUE: path_search:result <- $x23
	;DEBUG_VALUE: next <- [DW_OP_plus_uconst 40] [$sp+0]
	;DEBUG_VALUE: path_index <- [DW_OP_plus_uconst 76, DW_OP_deref] $sp
	;DEBUG_VALUE: path_search:found_something <- [DW_OP_plus_uconst 44] [$sp+0]
	;DEBUG_VALUE: path_search:indent <- [DW_OP_plus_uconst 20] [$sp+0]
	adrp	x9, ___llvm_gcov_ctr.1@PAGE+64
Ltmp214:
	.loc	1 309 17 is_stmt 1              ; which.c:309:17
	ldr	x8, [x9, ___llvm_gcov_ctr.1@PAGEOFF+64]
	add	x8, x8, #1
	str	x8, [x9, ___llvm_gcov_ctr.1@PAGEOFF+64]
	.loc	1 309 14 is_stmt 0              ; which.c:309:14
	add	x19, x28, x19
Ltmp215:
	;DEBUG_VALUE: full_path <- $x19
	.loc	1 310 12 is_stmt 1              ; which.c:310:12
Lloh57:
	adrp	x8, ___stdoutp@GOTPAGE
Lloh58:
	ldr	x8, [x8, ___stdoutp@GOTPAGEOFF]
Lloh59:
	ldr	x3, [x8]
	.loc	1 310 4 is_stmt 0               ; which.c:310:4
Lloh60:
	adrp	x0, l_.str.3@PAGE
Lloh61:
	add	x0, x0, l_.str.3@PAGEOFF
	mov	w1, #2
	mov	w2, #1
	bl	_fwrite
Ltmp216:
	.loc	1 0 4                           ; which.c:0:4
	b	LBB1_84
Ltmp217:
LBB1_81:                                ;   in Loop: Header=BB1_3 Depth=1
	;DEBUG_VALUE: in_home <- [DW_OP_LLVM_convert 1 7, DW_OP_LLVM_convert 32 7, DW_OP_stack_value] $w20
	;DEBUG_VALUE: path_search:result <- $x23
	;DEBUG_VALUE: next <- [DW_OP_plus_uconst 40] [$sp+0]
	;DEBUG_VALUE: path_index <- [DW_OP_plus_uconst 76, DW_OP_deref] $sp
	;DEBUG_VALUE: path_search:found_something <- [DW_OP_plus_uconst 44] [$sp+0]
	;DEBUG_VALUE: path_search:indent <- [DW_OP_plus_uconst 20] [$sp+0]
Lloh62:
	adrp	x19, _path_clean_up.result@PAGE
Lloh63:
	add	x19, x19, _path_clean_up.result@PAGEOFF
Ltmp218:
LBB1_82:                                ;   in Loop: Header=BB1_3 Depth=1
	;DEBUG_VALUE: in_home <- [DW_OP_LLVM_convert 1 7, DW_OP_LLVM_convert 32 7, DW_OP_stack_value] $w20
	;DEBUG_VALUE: path_search:result <- $x23
	;DEBUG_VALUE: next <- [DW_OP_plus_uconst 40] [$sp+0]
	;DEBUG_VALUE: path_index <- [DW_OP_plus_uconst 76, DW_OP_deref] $sp
	;DEBUG_VALUE: path_search:found_something <- [DW_OP_plus_uconst 44] [$sp+0]
	;DEBUG_VALUE: path_search:indent <- [DW_OP_plus_uconst 20] [$sp+0]
	;DEBUG_VALUE: full_path <- $x19
	adrp	x9, ___llvm_gcov_ctr.1@PAGE+88
Ltmp219:
	.loc	1 325 2 is_stmt 1               ; which.c:325:2
	ldr	x8, [x9, ___llvm_gcov_ctr.1@PAGEOFF+88]
	add	x8, x8, #1
	str	x8, [x9, ___llvm_gcov_ctr.1@PAGEOFF+88]
Ltmp220:
LBB1_83:                                ;   in Loop: Header=BB1_3 Depth=1
	;DEBUG_VALUE: in_home <- [DW_OP_LLVM_convert 1 7, DW_OP_LLVM_convert 32 7, DW_OP_stack_value] $w20
	;DEBUG_VALUE: path_search:result <- $x23
	;DEBUG_VALUE: next <- [DW_OP_plus_uconst 40] [$sp+0]
	;DEBUG_VALUE: path_index <- [DW_OP_plus_uconst 76, DW_OP_deref] $sp
	;DEBUG_VALUE: path_search:found_something <- [DW_OP_plus_uconst 44] [$sp+0]
	;DEBUG_VALUE: path_search:indent <- [DW_OP_plus_uconst 20] [$sp+0]
	;DEBUG_VALUE: full_path <- $x19
	.loc	1 0 2 is_stmt 0                 ; which.c:0:2
	adrp	x9, ___llvm_gcov_ctr.1@PAGE+96
	ldr	x8, [x9, ___llvm_gcov_ctr.1@PAGEOFF+96]
	add	x8, x8, #1
	str	x8, [x9, ___llvm_gcov_ctr.1@PAGEOFF+96]
Ltmp221:
LBB1_84:                                ;   in Loop: Header=BB1_3 Depth=1
	;DEBUG_VALUE: full_path <- $x19
	;DEBUG_VALUE: in_home <- [DW_OP_LLVM_convert 1 7, DW_OP_LLVM_convert 32 7, DW_OP_stack_value] $w20
	;DEBUG_VALUE: path_search:result <- $x23
	;DEBUG_VALUE: next <- [DW_OP_plus_uconst 40] [$sp+0]
	;DEBUG_VALUE: path_index <- [DW_OP_plus_uconst 76, DW_OP_deref] $sp
	;DEBUG_VALUE: path_search:found_something <- [DW_OP_plus_uconst 44] [$sp+0]
	;DEBUG_VALUE: path_search:indent <- [DW_OP_plus_uconst 20] [$sp+0]
	ldr	x20, [sp, #24]                  ; 8-byte Folded Reload
Ltmp222:
	;DEBUG_VALUE: full_path <- $x19
	.loc	1 326 10 is_stmt 1              ; which.c:326:10
Lloh64:
	adrp	x8, ___stdoutp@GOTPAGE
Lloh65:
	ldr	x8, [x8, ___stdoutp@GOTPAGEOFF]
Lloh66:
	ldr	x0, [x8]
	.loc	1 326 2 is_stmt 0               ; which.c:326:2
	str	x19, [sp]
Lloh67:
	adrp	x1, l_.str.5@PAGE
Lloh68:
	add	x1, x1, l_.str.5@PAGEOFF
	bl	_fprintf
Ltmp223:
	.loc	1 327 2 is_stmt 1               ; which.c:327:2
	mov	x0, x23
	bl	_free
Ltmp224:
	;DEBUG_VALUE: next <- 1
	;DEBUG_VALUE: path_search:found_something <- undef
	.loc	1 0 2 is_stmt 0                 ; which.c:0:2
	adrp	x9, ___llvm_gcov_ctr.1@PAGE+120
Ltmp225:
	.loc	1 332 5 is_stmt 1               ; which.c:332:5
	ldr	x8, [x9, ___llvm_gcov_ctr.1@PAGEOFF+120]
	add	x8, x8, #1
	str	x8, [x9, ___llvm_gcov_ctr.1@PAGEOFF+120]
	mov	w8, #1
	str	w8, [sp, #44]                   ; 4-byte Folded Spill
	ldr	w9, [sp, #40]                   ; 4-byte Folded Reload
Ltmp226:
LBB1_85:                                ;   in Loop: Header=BB1_3 Depth=1
	;DEBUG_VALUE: next <- 1
	;DEBUG_VALUE: path_search:result <- $x23
	;DEBUG_VALUE: path_index <- [DW_OP_plus_uconst 76, DW_OP_deref] $sp
	;DEBUG_VALUE: path_search:indent <- [DW_OP_plus_uconst 20] [$sp+0]
	.loc	1 0 5 is_stmt 0                 ; which.c:0:5
	ldr	x19, [sp, #32]                  ; 8-byte Folded Reload
	adrp	x8, _show_all@PAGE
	adrp	x23, ___llvm_gcov_ctr.2@PAGE
Ltmp227:
	.loc	1 332 5                         ; which.c:332:5
	cbnz	w9, LBB1_3
	b	LBB1_89
Ltmp228:
LBB1_86:
	;DEBUG_VALUE: path_search:result <- 0
	;DEBUG_VALUE: path_search:found_something <- 0
	;DEBUG_VALUE: path_search:cmd <- $x1
	;DEBUG_VALUE: path_search:indent <- $w0
	.loc	1 0 5                           ; which.c:0:5
	mov	w0, #0
Ltmp229:
	;DEBUG_VALUE: path_search:indent <- [DW_OP_LLVM_entry_value 1] $w0
	b	LBB1_90
Ltmp230:
LBB1_87:
	;DEBUG_VALUE: path <- $x23
	;DEBUG_VALUE: next <- [DW_OP_plus_uconst 40] [$sp+0]
	;DEBUG_VALUE: find_command_in_path:name <- $x20
	;DEBUG_VALUE: find_command_in_path:path_list <- $x19
	;DEBUG_VALUE: find_command_in_path:path_index <- [DW_OP_plus_uconst 76, DW_OP_stack_value] $sp
	;DEBUG_VALUE: find_command_in_path:found <- 0
	;DEBUG_VALUE: path_index <- [DW_OP_plus_uconst 76, DW_OP_deref] $sp
	;DEBUG_VALUE: path_search:found_something <- [DW_OP_plus_uconst 44] [$sp+0]
	;DEBUG_VALUE: path_search:indent <- [DW_OP_plus_uconst 20] [$sp+0]
	adrp	x8, ___llvm_gcov_ctr.2@PAGE+64
	ldr	x9, [x8, ___llvm_gcov_ctr.2@PAGEOFF+64]
	add	x9, x9, #1
	str	x9, [x8, ___llvm_gcov_ctr.2@PAGEOFF+64]
Ltmp231:
LBB1_88:                                ; %find_command_in_path.exit.thread
	;DEBUG_VALUE: next <- [DW_OP_plus_uconst 40] [$sp+0]
	;DEBUG_VALUE: path_index <- [DW_OP_plus_uconst 76, DW_OP_deref] $sp
	;DEBUG_VALUE: path_search:found_something <- [DW_OP_plus_uconst 44] [$sp+0]
	;DEBUG_VALUE: path_search:indent <- [DW_OP_plus_uconst 20] [$sp+0]
	.loc	1 331 2 is_stmt 1               ; which.c:331:2
	adrp	x8, ___llvm_gcov_ctr.1@PAGE+112
	ldr	x9, [x8, ___llvm_gcov_ctr.1@PAGEOFF+112]
	add	x9, x9, #1
	str	x9, [x8, ___llvm_gcov_ctr.1@PAGEOFF+112]
Ltmp232:
LBB1_89:                                ; %.loopexit
	;DEBUG_VALUE: path_search:indent <- [DW_OP_plus_uconst 20] [$sp+0]
	;DEBUG_VALUE: path_search:found_something <- [DW_OP_plus_uconst 44] [$sp+0]
	.loc	1 334 3                         ; which.c:334:3
	adrp	x8, ___llvm_gcov_ctr.1@PAGE+128
	ldr	x9, [x8, ___llvm_gcov_ctr.1@PAGEOFF+128]
	add	x9, x9, #1
	str	x9, [x8, ___llvm_gcov_ctr.1@PAGEOFF+128]
	ldr	w0, [sp, #44]                   ; 4-byte Folded Reload
Ltmp233:
	;DEBUG_VALUE: path_search:found_something <- $w0
LBB1_90:
	;DEBUG_VALUE: path_search:found_something <- $w0
	.loc	1 336 3                         ; which.c:336:3
	ldp	x29, x30, [sp, #160]            ; 16-byte Folded Reload
	ldp	x20, x19, [sp, #144]            ; 16-byte Folded Reload
	ldp	x22, x21, [sp, #128]            ; 16-byte Folded Reload
	ldp	x24, x23, [sp, #112]            ; 16-byte Folded Reload
	ldp	x26, x25, [sp, #96]             ; 16-byte Folded Reload
	ldp	x28, x27, [sp, #80]             ; 16-byte Folded Reload
	add	sp, sp, #176
	ret
Ltmp234:
LBB1_91:
	;DEBUG_VALUE: next <- [DW_OP_plus_uconst 40] [$sp+0]
	;DEBUG_VALUE: find_command_in_path:name <- $x20
	;DEBUG_VALUE: find_command_in_path:path_list <- $x19
	;DEBUG_VALUE: find_command_in_path:path_index <- [DW_OP_plus_uconst 76, DW_OP_stack_value] $sp
	;DEBUG_VALUE: find_command_in_path:found <- 0
	;DEBUG_VALUE: path_index <- [DW_OP_plus_uconst 76, DW_OP_deref] $sp
	;DEBUG_VALUE: path_search:found_something <- [DW_OP_plus_uconst 44] [$sp+0]
	;DEBUG_VALUE: path_search:indent <- [DW_OP_plus_uconst 20] [$sp+0]
	.loc	1 0 0 is_stmt 0                 ; which.c:0:0
Lloh69:
	adrp	x8, ___llvm_gcov_ctr.5@PAGE+8
	ldr	x9, [x8, ___llvm_gcov_ctr.5@PAGEOFF+8]
	add	x9, x9, #1
	str	x9, [x8, ___llvm_gcov_ctr.5@PAGEOFF+8]
Lloh70:
	adrp	x8, ___stderrp@GOTPAGE
Lloh71:
	ldr	x8, [x8, ___stderrp@GOTPAGEOFF]
Lloh72:
	ldr	x0, [x8]
Lloh73:
	adrp	x8, _progname@PAGE
Lloh74:
	ldr	x8, [x8, _progname@PAGEOFF]
	str	x8, [sp]
Lloh75:
	adrp	x1, l_.str.29@PAGE
Lloh76:
	add	x1, x1, l_.str.29@PAGEOFF
	bl	_fprintf
Ltmp235:
	mov	w0, #-1
	bl	_exit
Ltmp236:
	.loh AdrpAdd	Lloh8, Lloh9
	.loh AdrpLdr	Lloh10, Lloh11
	.loh AdrpLdr	Lloh12, Lloh13
	.loh AdrpAdd	Lloh14, Lloh15
	.loh AdrpLdr	Lloh20, Lloh21
	.loh AdrpAdd	Lloh18, Lloh19
	.loh AdrpAdd	Lloh16, Lloh17
	.loh AdrpLdr	Lloh22, Lloh23
	.loh AdrpLdr	Lloh24, Lloh25
	.loh AdrpAdd	Lloh28, Lloh29
	.loh AdrpLdr	Lloh26, Lloh27
	.loh AdrpLdrGotLdr	Lloh30, Lloh31, Lloh32
	.loh AdrpLdr	Lloh33, Lloh34
	.loh AdrpLdr	Lloh35, Lloh36
	.loh AdrpLdr	Lloh37, Lloh38
	.loh AdrpLdr	Lloh39, Lloh40
	.loh AdrpAdd	Lloh43, Lloh44
	.loh AdrpLdr	Lloh41, Lloh42
	.loh AdrpLdr	Lloh45, Lloh46
	.loh AdrpAdd	Lloh55, Lloh56
	.loh AdrpLdrGotLdr	Lloh52, Lloh53, Lloh54
	.loh AdrpAdd	Lloh50, Lloh51
	.loh AdrpLdr	Lloh48, Lloh49
	.loh AdrpAdrp	Lloh47, Lloh50
	.loh AdrpAdd	Lloh60, Lloh61
	.loh AdrpLdrGotLdr	Lloh57, Lloh58, Lloh59
	.loh AdrpAdd	Lloh62, Lloh63
	.loh AdrpAdd	Lloh67, Lloh68
	.loh AdrpLdrGotLdr	Lloh64, Lloh65, Lloh66
	.loh AdrpAdd	Lloh75, Lloh76
	.loh AdrpLdr	Lloh73, Lloh74
	.loh AdrpLdrGotLdr	Lloh70, Lloh71, Lloh72
	.loh AdrpAdrp	Lloh69, Lloh70
Lfunc_end1:
	.cfi_endproc
	.file	8 "/Users/mac/rustmap-clone/c-code/which-2.21" "./bash.h"
	.file	9 "/Users/mac/rustmap-clone/c-code/which-2.21" "./tilde/tilde.h"
                                        ; -- End function
	.globl	_process_alias                  ; -- Begin function process_alias
	.p2align	2
_process_alias:                         ; @process_alias
Lfunc_begin2:
	.loc	1 340 0 is_stmt 1               ; which.c:340:0
	.cfi_startproc
; %bb.0:
	;DEBUG_VALUE: process_alias:str <- $x0
	;DEBUG_VALUE: process_alias:argc <- $w1
	;DEBUG_VALUE: process_alias:argv <- $x2
	;DEBUG_VALUE: process_alias:path_list <- $x3
	;DEBUG_VALUE: process_alias:function_start_type <- $w4
	sub	sp, sp, #128
	.cfi_def_cfa_offset 128
	stp	x28, x27, [sp, #32]             ; 16-byte Folded Spill
	stp	x26, x25, [sp, #48]             ; 16-byte Folded Spill
	stp	x24, x23, [sp, #64]             ; 16-byte Folded Spill
	stp	x22, x21, [sp, #80]             ; 16-byte Folded Spill
	stp	x20, x19, [sp, #96]             ; 16-byte Folded Spill
	stp	x29, x30, [sp, #112]            ; 16-byte Folded Spill
	add	x29, sp, #112
	.cfi_def_cfa w29, 16
	.cfi_offset w30, -8
	.cfi_offset w29, -16
	.cfi_offset w19, -24
	.cfi_offset w20, -32
	.cfi_offset w21, -40
	.cfi_offset w22, -48
	.cfi_offset w23, -56
	.cfi_offset w24, -64
	.cfi_offset w25, -72
	.cfi_offset w26, -80
	.cfi_offset w27, -88
	.cfi_offset w28, -96
	mov	x28, x4
Ltmp237:
	;DEBUG_VALUE: process_alias:function_start_type <- $w28
	str	x3, [sp, #24]                   ; 8-byte Folded Spill
Ltmp238:
	;DEBUG_VALUE: process_alias:path_list <- [DW_OP_plus_uconst 24] [$sp+0]
	mov	x21, x2
Ltmp239:
	;DEBUG_VALUE: process_alias:argv <- $x21
	mov	x23, x1
Ltmp240:
	;DEBUG_VALUE: process_alias:argc <- $w23
	mov	x22, x0
Ltmp241:
	;DEBUG_VALUE: process_alias:str <- $x22
Lloh77:
	adrp	x8, ___llvm_gcov_ctr.4@PAGE
	ldr	x9, [x8, ___llvm_gcov_ctr.4@PAGEOFF]
	add	x9, x9, #1
	str	x9, [x8, ___llvm_gcov_ctr.4@PAGEOFF]
Ltmp242:
	;DEBUG_VALUE: process_alias:len <- 0
	;DEBUG_VALUE: process_alias:p <- undef
Lloh78:
	adrp	x8, ___llvm_gcov_ctr.4@PAGE+16
	adrp	x9, ___llvm_gcov_ctr.4@PAGE+8
	mov	x24, x0
	b	LBB2_2
Ltmp243:
LBB2_1:                                 ; %.critedge
                                        ;   in Loop: Header=BB2_2 Depth=1
	;DEBUG_VALUE: process_alias:p <- $x24
	;DEBUG_VALUE: process_alias:len <- 0
	;DEBUG_VALUE: process_alias:str <- $x22
	;DEBUG_VALUE: process_alias:argc <- $w23
	;DEBUG_VALUE: process_alias:argv <- $x21
	;DEBUG_VALUE: process_alias:path_list <- [DW_OP_plus_uconst 24] [$sp+0]
	;DEBUG_VALUE: process_alias:function_start_type <- $w28
	.loc	1 345 5 prologue_end            ; which.c:345:5
	ldr	x10, [x8, ___llvm_gcov_ctr.4@PAGEOFF+16]
	add	x10, x10, #1
	str	x10, [x8, ___llvm_gcov_ctr.4@PAGEOFF+16]
	add	x24, x24, #1
Ltmp244:
	;DEBUG_VALUE: process_alias:p <- $x24
LBB2_2:                                 ; =>This Inner Loop Header: Depth=1
	;DEBUG_VALUE: process_alias:len <- 0
	;DEBUG_VALUE: process_alias:str <- $x22
	;DEBUG_VALUE: process_alias:argc <- $w23
	;DEBUG_VALUE: process_alias:argv <- $x21
	;DEBUG_VALUE: process_alias:path_list <- [DW_OP_plus_uconst 24] [$sp+0]
	;DEBUG_VALUE: process_alias:function_start_type <- $w28
	;DEBUG_VALUE: process_alias:p <- $x24
	.loc	1 344 9                         ; which.c:344:9
	ldrb	w10, [x24]
	.loc	1 344 19 is_stmt 0              ; which.c:344:19
	cmp	w10, #32
	b.eq	LBB2_1
Ltmp245:
; %bb.3:                                ;   in Loop: Header=BB2_2 Depth=1
	;DEBUG_VALUE: process_alias:p <- $x24
	;DEBUG_VALUE: process_alias:len <- 0
	;DEBUG_VALUE: process_alias:str <- $x22
	;DEBUG_VALUE: process_alias:argc <- $w23
	;DEBUG_VALUE: process_alias:argv <- $x21
	;DEBUG_VALUE: process_alias:path_list <- [DW_OP_plus_uconst 24] [$sp+0]
	;DEBUG_VALUE: process_alias:function_start_type <- $w28
	.loc	1 344 23                        ; which.c:344:23
	ldr	x10, [x9, ___llvm_gcov_ctr.4@PAGEOFF+8]
	add	x10, x10, #1
	str	x10, [x9, ___llvm_gcov_ctr.4@PAGEOFF+8]
	.loc	1 344 22                        ; which.c:344:22
	ldrb	w10, [x24]
	.loc	1 344 3                         ; which.c:344:3
	cmp	w10, #9
	b.eq	LBB2_1
Ltmp246:
; %bb.4:
	;DEBUG_VALUE: process_alias:p <- $x24
	;DEBUG_VALUE: process_alias:len <- 0
	;DEBUG_VALUE: process_alias:str <- $x22
	;DEBUG_VALUE: process_alias:argc <- $w23
	;DEBUG_VALUE: process_alias:argv <- $x21
	;DEBUG_VALUE: process_alias:path_list <- [DW_OP_plus_uconst 24] [$sp+0]
	;DEBUG_VALUE: process_alias:function_start_type <- $w28
	.loc	1 346 8 is_stmt 1               ; which.c:346:8
Lloh79:
	adrp	x0, l_.str.6@PAGE
Lloh80:
	add	x0, x0, l_.str.6@PAGEOFF
	mov	x1, x24
	mov	w2, #5
	bl	_strncmp
Ltmp247:
	.loc	1 346 7 is_stmt 0               ; which.c:346:7
	cbnz	w0, LBB2_6
Ltmp248:
; %bb.5:
	;DEBUG_VALUE: process_alias:p <- $x24
	;DEBUG_VALUE: process_alias:len <- 0
	;DEBUG_VALUE: process_alias:str <- $x22
	;DEBUG_VALUE: process_alias:argc <- $w23
	;DEBUG_VALUE: process_alias:argv <- $x21
	;DEBUG_VALUE: process_alias:path_list <- [DW_OP_plus_uconst 24] [$sp+0]
	;DEBUG_VALUE: process_alias:function_start_type <- $w28
	.loc	1 347 7 is_stmt 1               ; which.c:347:7
	adrp	x8, ___llvm_gcov_ctr.4@PAGE+24
	ldr	x9, [x8, ___llvm_gcov_ctr.4@PAGEOFF+24]
	add	x9, x9, #1
	str	x9, [x8, ___llvm_gcov_ctr.4@PAGEOFF+24]
	add	x24, x24, #5
Ltmp249:
	;DEBUG_VALUE: process_alias:p <- $x24
LBB2_6:                                 ; %.preheader273.preheader
	;DEBUG_VALUE: process_alias:p <- $x24
	;DEBUG_VALUE: process_alias:len <- 0
	;DEBUG_VALUE: process_alias:str <- $x22
	;DEBUG_VALUE: process_alias:argc <- $w23
	;DEBUG_VALUE: process_alias:argv <- $x21
	;DEBUG_VALUE: process_alias:path_list <- [DW_OP_plus_uconst 24] [$sp+0]
	;DEBUG_VALUE: process_alias:function_start_type <- $w28
	.loc	1 0 7 is_stmt 0                 ; which.c:0:7
	adrp	x8, ___llvm_gcov_ctr.4@PAGE+40
	adrp	x9, ___llvm_gcov_ctr.4@PAGE+32
	b	LBB2_8
Ltmp250:
LBB2_7:                                 ; %.critedge46
                                        ;   in Loop: Header=BB2_8 Depth=1
	;DEBUG_VALUE: process_alias:p <- $x24
	;DEBUG_VALUE: process_alias:len <- 0
	;DEBUG_VALUE: process_alias:str <- $x22
	;DEBUG_VALUE: process_alias:argc <- $w23
	;DEBUG_VALUE: process_alias:argv <- $x21
	;DEBUG_VALUE: process_alias:path_list <- [DW_OP_plus_uconst 24] [$sp+0]
	;DEBUG_VALUE: process_alias:function_start_type <- $w28
	.loc	1 349 5 is_stmt 1               ; which.c:349:5
	ldr	x10, [x8, ___llvm_gcov_ctr.4@PAGEOFF+40]
	add	x10, x10, #1
	str	x10, [x8, ___llvm_gcov_ctr.4@PAGEOFF+40]
	add	x24, x24, #1
Ltmp251:
	;DEBUG_VALUE: process_alias:p <- $x24
LBB2_8:                                 ; %.preheader273
                                        ; =>This Inner Loop Header: Depth=1
	;DEBUG_VALUE: process_alias:p <- $x24
	;DEBUG_VALUE: process_alias:len <- 0
	;DEBUG_VALUE: process_alias:str <- $x22
	;DEBUG_VALUE: process_alias:argc <- $w23
	;DEBUG_VALUE: process_alias:argv <- $x21
	;DEBUG_VALUE: process_alias:path_list <- [DW_OP_plus_uconst 24] [$sp+0]
	;DEBUG_VALUE: process_alias:function_start_type <- $w28
	;DEBUG_VALUE: process_alias:p <- $x24
	.loc	1 348 9                         ; which.c:348:9
	ldrb	w10, [x24]
	.loc	1 348 19 is_stmt 0              ; which.c:348:19
	cmp	w10, #32
	b.eq	LBB2_7
Ltmp252:
; %bb.9:                                ;   in Loop: Header=BB2_8 Depth=1
	;DEBUG_VALUE: process_alias:p <- $x24
	;DEBUG_VALUE: process_alias:len <- 0
	;DEBUG_VALUE: process_alias:str <- $x22
	;DEBUG_VALUE: process_alias:argc <- $w23
	;DEBUG_VALUE: process_alias:argv <- $x21
	;DEBUG_VALUE: process_alias:path_list <- [DW_OP_plus_uconst 24] [$sp+0]
	;DEBUG_VALUE: process_alias:function_start_type <- $w28
	.loc	1 348 23                        ; which.c:348:23
	ldr	x10, [x9, ___llvm_gcov_ctr.4@PAGEOFF+32]
	add	x10, x10, #1
	str	x10, [x9, ___llvm_gcov_ctr.4@PAGEOFF+32]
	.loc	1 348 22                        ; which.c:348:22
	ldrb	w10, [x24]
	.loc	1 348 3                         ; which.c:348:3
	cmp	w10, #9
	b.eq	LBB2_7
Ltmp253:
; %bb.10:
	;DEBUG_VALUE: process_alias:p <- $x24
	;DEBUG_VALUE: process_alias:len <- 0
	;DEBUG_VALUE: process_alias:str <- $x22
	;DEBUG_VALUE: process_alias:argc <- $w23
	;DEBUG_VALUE: process_alias:argv <- $x21
	;DEBUG_VALUE: process_alias:path_list <- [DW_OP_plus_uconst 24] [$sp+0]
	;DEBUG_VALUE: process_alias:function_start_type <- $w28
	cbnz	w10, LBB2_26
Ltmp254:
; %bb.11:                               ; %.critedge48.loopexit281
	;DEBUG_VALUE: process_alias:p <- $x24
	;DEBUG_VALUE: process_alias:len <- 0
	;DEBUG_VALUE: process_alias:str <- $x22
	;DEBUG_VALUE: process_alias:argc <- $w23
	;DEBUG_VALUE: process_alias:argv <- $x21
	;DEBUG_VALUE: process_alias:path_list <- [DW_OP_plus_uconst 24] [$sp+0]
	;DEBUG_VALUE: process_alias:function_start_type <- $w28
	.loc	1 0 3                           ; which.c:0:3
	mov	w8, #0
	mov	x26, x24
Ltmp255:
	;DEBUG_VALUE: process_alias:p <- $x26
LBB2_12:                                ; %.critedge48
	;DEBUG_VALUE: process_alias:str <- $x22
	;DEBUG_VALUE: process_alias:argc <- $w23
	;DEBUG_VALUE: process_alias:argv <- $x21
	;DEBUG_VALUE: process_alias:path_list <- [DW_OP_plus_uconst 24] [$sp+0]
	;DEBUG_VALUE: process_alias:function_start_type <- $w28
	;DEBUG_VALUE: process_alias:argc <- $w23
	;DEBUG_VALUE: process_alias:p <- $x26
	;DEBUG_VALUE: process_alias:len <- $w8
	.loc	1 353 3 is_stmt 1               ; which.c:353:3
	cmp	w23, #1
Ltmp256:
	;DEBUG_VALUE: process_alias:argv <- undef
	b.lt	LBB2_76
Ltmp257:
; %bb.13:                               ; %.lr.ph218
	;DEBUG_VALUE: process_alias:len <- $w8
	;DEBUG_VALUE: process_alias:p <- $x26
	;DEBUG_VALUE: process_alias:str <- $x22
	;DEBUG_VALUE: process_alias:argc <- $w23
	;DEBUG_VALUE: process_alias:path_list <- [DW_OP_plus_uconst 24] [$sp+0]
	;DEBUG_VALUE: process_alias:function_start_type <- $w28
	.loc	1 0 3 is_stmt 0                 ; which.c:0:3
	mov	w24, w8
	neg	w8, w8
Ltmp258:
	add	x25, x26, w8, sxtw
	.loc	1 353 3                         ; which.c:353:3
	add	w19, w23, #1
	adrp	x20, ___llvm_gcov_ctr.4@PAGE+80
	adrp	x23, ___llvm_gcov_ctr.4@PAGE+88
Ltmp259:
	.loc	1 0 3                           ; which.c:0:3
Lloh81:
	adrp	x27, ___llvm_gcov_ctr.4@PAGE+96
Lloh82:
	add	x27, x27, ___llvm_gcov_ctr.4@PAGEOFF+96
	b	LBB2_15
Ltmp260:
LBB2_14:                                ;   in Loop: Header=BB2_15 Depth=1
	;DEBUG_VALUE: process_alias:argc <- [DW_OP_constu 1, DW_OP_minus, DW_OP_stack_value] $w19
	;DEBUG_VALUE: process_alias:p <- $x26
	;DEBUG_VALUE: process_alias:str <- $x22
	;DEBUG_VALUE: process_alias:argv <- $x21
	;DEBUG_VALUE: process_alias:path_list <- [DW_OP_plus_uconst 24] [$sp+0]
	;DEBUG_VALUE: process_alias:function_start_type <- $w28
	ldr	x8, [x27]
	add	x8, x8, #1
	str	x8, [x27]
Ltmp261:
	;DEBUG_VALUE: process_alias:p <- undef
	.loc	1 353 20                        ; which.c:353:20
	ldr	x8, [x27, #248]
	add	x8, x8, #1
	str	x8, [x27, #248]
Ltmp262:
	;DEBUG_VALUE: process_alias:argc <- [DW_OP_constu 2, DW_OP_minus, DW_OP_stack_value] $w19
	.loc	1 353 28                        ; which.c:353:28
	add	x21, x21, #8
Ltmp263:
	;DEBUG_VALUE: process_alias:len <- undef
	;DEBUG_VALUE: process_alias:p <- $x26
	;DEBUG_VALUE: process_alias:argv <- $x21
	.loc	1 353 15                        ; which.c:353:15
	sub	w19, w19, #1
Ltmp264:
	.loc	1 353 3                         ; which.c:353:3
	cmp	w19, #1
	b.le	LBB2_76
Ltmp265:
LBB2_15:                                ; =>This Inner Loop Header: Depth=1
	;DEBUG_VALUE: process_alias:p <- $x26
	;DEBUG_VALUE: process_alias:str <- $x22
	;DEBUG_VALUE: process_alias:path_list <- [DW_OP_plus_uconst 24] [$sp+0]
	;DEBUG_VALUE: process_alias:function_start_type <- $w28
	;DEBUG_VALUE: process_alias:argc <- [DW_OP_constu 1, DW_OP_minus, DW_OP_stack_value] $w19
	;DEBUG_VALUE: process_alias:argv <- $x21
	;DEBUG_VALUE: q <- 0
	.loc	1 358 10 is_stmt 1              ; which.c:358:10
	ldr	x8, [x21]
	.loc	1 358 16 is_stmt 0              ; which.c:358:16
	cbz	x8, LBB2_14
Ltmp266:
; %bb.16:                               ;   in Loop: Header=BB2_15 Depth=1
	;DEBUG_VALUE: q <- 0
	;DEBUG_VALUE: process_alias:argc <- [DW_OP_constu 1, DW_OP_minus, DW_OP_stack_value] $w19
	;DEBUG_VALUE: process_alias:p <- $x26
	;DEBUG_VALUE: process_alias:str <- $x22
	;DEBUG_VALUE: process_alias:argv <- $x21
	;DEBUG_VALUE: process_alias:path_list <- [DW_OP_plus_uconst 24] [$sp+0]
	;DEBUG_VALUE: process_alias:function_start_type <- $w28
	.loc	1 358 19                        ; which.c:358:19
	ldr	x8, [x20, ___llvm_gcov_ctr.4@PAGEOFF+80]
	add	x8, x8, #1
	str	x8, [x20, ___llvm_gcov_ctr.4@PAGEOFF+80]
	.loc	1 358 33                        ; which.c:358:33
	ldr	x0, [x21]
	.loc	1 358 26                        ; which.c:358:26
	bl	_strlen
Ltmp267:
	.loc	1 358 40                        ; which.c:358:40
	cmp	x0, x24
	b.ne	LBB2_14
Ltmp268:
; %bb.17:                               ;   in Loop: Header=BB2_15 Depth=1
	;DEBUG_VALUE: q <- 0
	;DEBUG_VALUE: process_alias:argc <- [DW_OP_constu 1, DW_OP_minus, DW_OP_stack_value] $w19
	;DEBUG_VALUE: process_alias:p <- $x26
	;DEBUG_VALUE: process_alias:str <- $x22
	;DEBUG_VALUE: process_alias:argv <- $x21
	;DEBUG_VALUE: process_alias:path_list <- [DW_OP_plus_uconst 24] [$sp+0]
	;DEBUG_VALUE: process_alias:function_start_type <- $w28
	.loc	1 358 52                        ; which.c:358:52
	ldr	x8, [x23, ___llvm_gcov_ctr.4@PAGEOFF+88]
	add	x8, x8, #1
	str	x8, [x23, ___llvm_gcov_ctr.4@PAGEOFF+88]
	.loc	1 358 51                        ; which.c:358:51
	ldr	x0, [x21]
	.loc	1 358 43                        ; which.c:358:43
	mov	x1, x25
	mov	x2, x24
	bl	_strncmp
Ltmp269:
	.loc	1 358 9                         ; which.c:358:9
	cbnz	w0, LBB2_14
Ltmp270:
; %bb.18:
	;DEBUG_VALUE: q <- 0
	;DEBUG_VALUE: process_alias:argc <- [DW_OP_constu 1, DW_OP_minus, DW_OP_stack_value] $w19
	;DEBUG_VALUE: process_alias:p <- $x26
	;DEBUG_VALUE: process_alias:str <- $x22
	;DEBUG_VALUE: process_alias:argv <- $x21
	;DEBUG_VALUE: process_alias:path_list <- [DW_OP_plus_uconst 24] [$sp+0]
	;DEBUG_VALUE: process_alias:function_start_type <- $w28
	.loc	1 361 16 is_stmt 1              ; which.c:361:16
Lloh83:
	adrp	x8, ___stdoutp@GOTPAGE
Lloh84:
	ldr	x8, [x8, ___stdoutp@GOTPAGEOFF]
Lloh85:
	ldr	x1, [x8]
	.loc	1 361 5 is_stmt 0               ; which.c:361:5
	mov	x0, x22
	bl	_fputs
Ltmp271:
	.loc	1 363 10 is_stmt 1              ; which.c:363:10
	adrp	x8, _show_all@PAGE
	ldrb	w8, [x8, _show_all@PAGEOFF]
Ltmp272:
	.loc	1 363 9 is_stmt 0               ; which.c:363:9
	tbnz	w8, #0, LBB2_20
Ltmp273:
; %bb.19:
	;DEBUG_VALUE: q <- 0
	;DEBUG_VALUE: process_alias:argc <- [DW_OP_constu 1, DW_OP_minus, DW_OP_stack_value] $w19
	;DEBUG_VALUE: process_alias:p <- $x26
	;DEBUG_VALUE: process_alias:str <- $x22
	;DEBUG_VALUE: process_alias:argv <- $x21
	;DEBUG_VALUE: process_alias:path_list <- [DW_OP_plus_uconst 24] [$sp+0]
	;DEBUG_VALUE: process_alias:function_start_type <- $w28
	.loc	1 364 8 is_stmt 1               ; which.c:364:8
	adrp	x8, ___llvm_gcov_ctr.4@PAGE+104
	ldr	x9, [x8, ___llvm_gcov_ctr.4@PAGEOFF+104]
	add	x9, x9, #1
	str	x9, [x8, ___llvm_gcov_ctr.4@PAGEOFF+104]
	.loc	1 364 13 is_stmt 0              ; which.c:364:13
	str	xzr, [x21]
Ltmp274:
LBB2_20:                                ; %.preheader.preheader
	;DEBUG_VALUE: q <- 0
	;DEBUG_VALUE: process_alias:argc <- [DW_OP_constu 1, DW_OP_minus, DW_OP_stack_value] $w19
	;DEBUG_VALUE: process_alias:p <- $x26
	;DEBUG_VALUE: process_alias:str <- $x22
	;DEBUG_VALUE: process_alias:argv <- $x21
	;DEBUG_VALUE: process_alias:path_list <- [DW_OP_plus_uconst 24] [$sp+0]
	;DEBUG_VALUE: process_alias:function_start_type <- $w28
	.loc	1 0 13                          ; which.c:0:13
	adrp	x8, ___llvm_gcov_ctr.4@PAGE+120
	adrp	x9, ___llvm_gcov_ctr.4@PAGE+112
	b	LBB2_22
Ltmp275:
LBB2_21:                                ; %.critedge50
                                        ;   in Loop: Header=BB2_22 Depth=1
	;DEBUG_VALUE: q <- 0
	;DEBUG_VALUE: process_alias:argc <- [DW_OP_constu 1, DW_OP_minus, DW_OP_stack_value] $w19
	;DEBUG_VALUE: process_alias:p <- $x26
	;DEBUG_VALUE: process_alias:str <- $x22
	;DEBUG_VALUE: process_alias:argv <- $x21
	;DEBUG_VALUE: process_alias:path_list <- [DW_OP_plus_uconst 24] [$sp+0]
	;DEBUG_VALUE: process_alias:function_start_type <- $w28
	.loc	1 367 7 is_stmt 1               ; which.c:367:7
	ldr	x10, [x8, ___llvm_gcov_ctr.4@PAGEOFF+120]
	add	x10, x10, #1
	str	x10, [x8, ___llvm_gcov_ctr.4@PAGEOFF+120]
	add	x26, x26, #1
Ltmp276:
	;DEBUG_VALUE: process_alias:p <- $x26
LBB2_22:                                ; %.preheader
                                        ; =>This Inner Loop Header: Depth=1
	;DEBUG_VALUE: q <- 0
	;DEBUG_VALUE: process_alias:argc <- [DW_OP_constu 1, DW_OP_minus, DW_OP_stack_value] $w19
	;DEBUG_VALUE: process_alias:p <- $x26
	;DEBUG_VALUE: process_alias:str <- $x22
	;DEBUG_VALUE: process_alias:argv <- $x21
	;DEBUG_VALUE: process_alias:path_list <- [DW_OP_plus_uconst 24] [$sp+0]
	;DEBUG_VALUE: process_alias:function_start_type <- $w28
	;DEBUG_VALUE: process_alias:p <- $x26
	.loc	1 366 11                        ; which.c:366:11
	ldrb	w10, [x26]
	.loc	1 366 21 is_stmt 0              ; which.c:366:21
	cmp	w10, #32
	b.eq	LBB2_21
Ltmp277:
; %bb.23:                               ;   in Loop: Header=BB2_22 Depth=1
	;DEBUG_VALUE: q <- 0
	;DEBUG_VALUE: process_alias:argc <- [DW_OP_constu 1, DW_OP_minus, DW_OP_stack_value] $w19
	;DEBUG_VALUE: process_alias:p <- $x26
	;DEBUG_VALUE: process_alias:str <- $x22
	;DEBUG_VALUE: process_alias:argv <- $x21
	;DEBUG_VALUE: process_alias:path_list <- [DW_OP_plus_uconst 24] [$sp+0]
	;DEBUG_VALUE: process_alias:function_start_type <- $w28
	.loc	1 366 25                        ; which.c:366:25
	ldr	x10, [x9, ___llvm_gcov_ctr.4@PAGEOFF+112]
	add	x10, x10, #1
	str	x10, [x9, ___llvm_gcov_ctr.4@PAGEOFF+112]
	.loc	1 366 24                        ; which.c:366:24
	ldrb	w10, [x26]
	.loc	1 366 5                         ; which.c:366:5
	cmp	w10, #9
	b.eq	LBB2_21
Ltmp278:
; %bb.24:
	;DEBUG_VALUE: q <- 0
	;DEBUG_VALUE: process_alias:argc <- [DW_OP_constu 1, DW_OP_minus, DW_OP_stack_value] $w19
	;DEBUG_VALUE: process_alias:p <- $x26
	;DEBUG_VALUE: process_alias:str <- $x22
	;DEBUG_VALUE: process_alias:argv <- $x21
	;DEBUG_VALUE: process_alias:path_list <- [DW_OP_plus_uconst 24] [$sp+0]
	;DEBUG_VALUE: process_alias:function_start_type <- $w28
	cmp	w10, #61
	b.ne	LBB2_33
Ltmp279:
; %bb.25:                               ; %.loopexit194.sink.split.loopexit
	;DEBUG_VALUE: q <- 0
	;DEBUG_VALUE: process_alias:argc <- [DW_OP_constu 1, DW_OP_minus, DW_OP_stack_value] $w19
	;DEBUG_VALUE: process_alias:p <- $x26
	;DEBUG_VALUE: process_alias:str <- $x22
	;DEBUG_VALUE: process_alias:argv <- $x21
	;DEBUG_VALUE: process_alias:path_list <- [DW_OP_plus_uconst 24] [$sp+0]
	;DEBUG_VALUE: process_alias:function_start_type <- $w28
	.loc	1 0 5                           ; which.c:0:5
Lloh86:
	adrp	x8, ___llvm_gcov_ctr.4@PAGE+128
Lloh87:
	add	x8, x8, ___llvm_gcov_ctr.4@PAGEOFF+128
	b	LBB2_32
Ltmp280:
LBB2_26:                                ; %.lr.ph.preheader
	;DEBUG_VALUE: process_alias:p <- $x24
	;DEBUG_VALUE: process_alias:len <- 0
	;DEBUG_VALUE: process_alias:str <- $x22
	;DEBUG_VALUE: process_alias:argc <- $w23
	;DEBUG_VALUE: process_alias:argv <- $x21
	;DEBUG_VALUE: process_alias:path_list <- [DW_OP_plus_uconst 24] [$sp+0]
	;DEBUG_VALUE: process_alias:function_start_type <- $w28
	mov	x8, #0
	.loc	1 350 16 is_stmt 1              ; which.c:350:16
	adrp	x9, ___llvm_gcov_ctr.4@PAGE+48
	ldr	x10, [x9, ___llvm_gcov_ctr.4@PAGEOFF+48]
	.loc	1 350 3 is_stmt 0               ; which.c:350:3
	add	x10, x10, #1
	adrp	x11, ___llvm_gcov_ctr.4@PAGE+56
	adrp	x12, ___llvm_gcov_ctr.4@PAGE+64
	adrp	x13, ___llvm_gcov_ctr.4@PAGE+72
	mov	x26, x24
Ltmp281:
LBB2_27:                                ; %.lr.ph
                                        ; =>This Inner Loop Header: Depth=1
	;DEBUG_VALUE: process_alias:str <- $x22
	;DEBUG_VALUE: process_alias:argc <- $w23
	;DEBUG_VALUE: process_alias:argv <- $x21
	;DEBUG_VALUE: process_alias:path_list <- [DW_OP_plus_uconst 24] [$sp+0]
	;DEBUG_VALUE: process_alias:function_start_type <- $w28
	;DEBUG_VALUE: process_alias:p <- $x26
	;DEBUG_VALUE: process_alias:len <- $w8
	.loc	1 350 16                        ; which.c:350:16
	add	x14, x10, x8
	str	x14, [x9, ___llvm_gcov_ctr.4@PAGEOFF+48]
	.loc	1 350 15                        ; which.c:350:15
	ldrb	w14, [x24, x8]
	.loc	1 350 25                        ; which.c:350:25
	cmp	w14, #32
	b.eq	LBB2_12
Ltmp282:
; %bb.28:                               ;   in Loop: Header=BB2_27 Depth=1
	;DEBUG_VALUE: process_alias:len <- $w8
	;DEBUG_VALUE: process_alias:p <- $x26
	;DEBUG_VALUE: process_alias:str <- $x22
	;DEBUG_VALUE: process_alias:argc <- $w23
	;DEBUG_VALUE: process_alias:argv <- $x21
	;DEBUG_VALUE: process_alias:path_list <- [DW_OP_plus_uconst 24] [$sp+0]
	;DEBUG_VALUE: process_alias:function_start_type <- $w28
	.loc	1 350 29                        ; which.c:350:29
	ldr	x14, [x11, ___llvm_gcov_ctr.4@PAGEOFF+56]
	add	x14, x14, #1
	str	x14, [x11, ___llvm_gcov_ctr.4@PAGEOFF+56]
	.loc	1 350 28                        ; which.c:350:28
	ldrb	w14, [x24, x8]
	.loc	1 350 39                        ; which.c:350:39
	cmp	w14, #9
	b.eq	LBB2_12
Ltmp283:
; %bb.29:                               ;   in Loop: Header=BB2_27 Depth=1
	;DEBUG_VALUE: process_alias:len <- $w8
	;DEBUG_VALUE: process_alias:p <- $x26
	;DEBUG_VALUE: process_alias:str <- $x22
	;DEBUG_VALUE: process_alias:argc <- $w23
	;DEBUG_VALUE: process_alias:argv <- $x21
	;DEBUG_VALUE: process_alias:path_list <- [DW_OP_plus_uconst 24] [$sp+0]
	;DEBUG_VALUE: process_alias:function_start_type <- $w28
	.loc	1 350 43                        ; which.c:350:43
	ldr	x14, [x12, ___llvm_gcov_ctr.4@PAGEOFF+64]
	add	x14, x14, #1
	str	x14, [x12, ___llvm_gcov_ctr.4@PAGEOFF+64]
	.loc	1 350 42                        ; which.c:350:42
	ldrb	w14, [x24, x8]
	.loc	1 350 3                         ; which.c:350:3
	cmp	w14, #61
	b.eq	LBB2_31
Ltmp284:
; %bb.30:                               ;   in Loop: Header=BB2_27 Depth=1
	;DEBUG_VALUE: process_alias:len <- $w8
	;DEBUG_VALUE: process_alias:p <- $x26
	;DEBUG_VALUE: process_alias:str <- $x22
	;DEBUG_VALUE: process_alias:argc <- $w23
	;DEBUG_VALUE: process_alias:argv <- $x21
	;DEBUG_VALUE: process_alias:path_list <- [DW_OP_plus_uconst 24] [$sp+0]
	;DEBUG_VALUE: process_alias:function_start_type <- $w28
	.loc	1 351 5 is_stmt 1               ; which.c:351:5
	ldr	x14, [x13, ___llvm_gcov_ctr.4@PAGEOFF+72]
	add	x14, x14, #1
	str	x14, [x13, ___llvm_gcov_ctr.4@PAGEOFF+72]
	add	x26, x26, #1
Ltmp285:
	;DEBUG_VALUE: process_alias:p <- $x26
	.loc	1 351 10 is_stmt 0              ; which.c:351:10
	add	x14, x24, x8
	.loc	1 350 12 is_stmt 1              ; which.c:350:12
	add	x8, x8, #1
Ltmp286:
	;DEBUG_VALUE: process_alias:len <- [DW_OP_LLVM_convert 64 7, DW_OP_LLVM_convert 32 7, DW_OP_stack_value] $x8
	.loc	1 350 9 is_stmt 0               ; which.c:350:9
	ldrb	w14, [x14, #1]
	.loc	1 350 12                        ; which.c:350:12
	cbnz	w14, LBB2_27
	b	LBB2_12
Ltmp287:
LBB2_31:                                ; %..critedge48.loopexit_crit_edge
	;DEBUG_VALUE: process_alias:len <- $w8
	;DEBUG_VALUE: process_alias:p <- $x26
	;DEBUG_VALUE: process_alias:str <- $x22
	;DEBUG_VALUE: process_alias:argc <- $w23
	;DEBUG_VALUE: process_alias:argv <- $x21
	;DEBUG_VALUE: process_alias:path_list <- [DW_OP_plus_uconst 24] [$sp+0]
	;DEBUG_VALUE: process_alias:function_start_type <- $w28
	.loc	1 350 3                         ; which.c:350:3
	add	x26, x24, x8
Ltmp288:
	.loc	1 0 3                           ; which.c:0:3
	b	LBB2_12
Ltmp289:
LBB2_32:                                ; %.loopexit194.sink.split
	;DEBUG_VALUE: q <- 0
	;DEBUG_VALUE: process_alias:argc <- [DW_OP_constu 1, DW_OP_minus, DW_OP_stack_value] $w19
	;DEBUG_VALUE: process_alias:p <- $x26
	;DEBUG_VALUE: process_alias:str <- $x22
	;DEBUG_VALUE: process_alias:argv <- $x21
	;DEBUG_VALUE: process_alias:path_list <- [DW_OP_plus_uconst 24] [$sp+0]
	;DEBUG_VALUE: process_alias:function_start_type <- $w28
	ldr	x9, [x8]
	add	x9, x9, #1
	str	x9, [x8]
	add	x26, x26, #1
Ltmp290:
LBB2_33:                                ; %.loopexit194
	;DEBUG_VALUE: q <- 0
	;DEBUG_VALUE: process_alias:argc <- [DW_OP_constu 1, DW_OP_minus, DW_OP_stack_value] $w19
	;DEBUG_VALUE: process_alias:str <- $x22
	;DEBUG_VALUE: process_alias:argv <- $x21
	;DEBUG_VALUE: process_alias:path_list <- [DW_OP_plus_uconst 24] [$sp+0]
	;DEBUG_VALUE: process_alias:function_start_type <- $w28
	;DEBUG_VALUE: process_alias:p <- $x26
	.loc	1 370 11 is_stmt 1              ; which.c:370:11
	ldrb	w9, [x26]
Lloh88:
	adrp	x8, ___llvm_gcov_ctr.4@PAGE+144
Lloh89:
	add	x8, x8, ___llvm_gcov_ctr.4@PAGEOFF+144
	.loc	1 370 21 is_stmt 0              ; which.c:370:21
	cmp	w9, #32
	b.eq	LBB2_32
Ltmp291:
; %bb.34:
	;DEBUG_VALUE: q <- 0
	;DEBUG_VALUE: process_alias:argc <- [DW_OP_constu 1, DW_OP_minus, DW_OP_stack_value] $w19
	;DEBUG_VALUE: process_alias:p <- $x26
	;DEBUG_VALUE: process_alias:str <- $x22
	;DEBUG_VALUE: process_alias:argv <- $x21
	;DEBUG_VALUE: process_alias:path_list <- [DW_OP_plus_uconst 24] [$sp+0]
	;DEBUG_VALUE: process_alias:function_start_type <- $w28
	.loc	1 370 25                        ; which.c:370:25
Lloh90:
	adrp	x8, ___llvm_gcov_ctr.4@PAGE+136
Lloh91:
	add	x8, x8, ___llvm_gcov_ctr.4@PAGEOFF+136
	ldr	x9, [x8]
	add	x9, x9, #1
	str	x9, [x8], #8
	.loc	1 370 24                        ; which.c:370:24
	ldrb	w9, [x26]
	.loc	1 370 5                         ; which.c:370:5
	cmp	w9, #9
	b.eq	LBB2_32
Ltmp292:
; %bb.35:
	;DEBUG_VALUE: q <- 0
	;DEBUG_VALUE: process_alias:argc <- [DW_OP_constu 1, DW_OP_minus, DW_OP_stack_value] $w19
	;DEBUG_VALUE: process_alias:p <- $x26
	;DEBUG_VALUE: process_alias:str <- $x22
	;DEBUG_VALUE: process_alias:argv <- $x21
	;DEBUG_VALUE: process_alias:path_list <- [DW_OP_plus_uconst 24] [$sp+0]
	;DEBUG_VALUE: process_alias:function_start_type <- $w28
	cmp	w9, #34
	str	w28, [sp, #16]                  ; 4-byte Folded Spill
Ltmp293:
	;DEBUG_VALUE: process_alias:function_start_type <- [DW_OP_plus_uconst 16] [$sp+0]
	b.eq	LBB2_37
Ltmp294:
; %bb.36:
	;DEBUG_VALUE: process_alias:function_start_type <- [DW_OP_plus_uconst 16] [$sp+0]
	;DEBUG_VALUE: q <- 0
	;DEBUG_VALUE: process_alias:argc <- [DW_OP_constu 1, DW_OP_minus, DW_OP_stack_value] $w19
	;DEBUG_VALUE: process_alias:p <- $x26
	;DEBUG_VALUE: process_alias:str <- $x22
	;DEBUG_VALUE: process_alias:argv <- $x21
	;DEBUG_VALUE: process_alias:path_list <- [DW_OP_plus_uconst 24] [$sp+0]
	.loc	1 372 23 is_stmt 1              ; which.c:372:23
	adrp	x8, ___llvm_gcov_ctr.4@PAGE+152
	ldr	x9, [x8, ___llvm_gcov_ctr.4@PAGEOFF+152]
	add	x9, x9, #1
	str	x9, [x8, ___llvm_gcov_ctr.4@PAGEOFF+152]
	.loc	1 372 22 is_stmt 0              ; which.c:372:22
	ldrb	w8, [x26]
Ltmp295:
	.loc	1 372 9                         ; which.c:372:9
	cmp	w8, #39
	b.ne	LBB2_38
Ltmp296:
LBB2_37:                                ; %.loopexit
	;DEBUG_VALUE: process_alias:function_start_type <- [DW_OP_plus_uconst 16] [$sp+0]
	;DEBUG_VALUE: q <- 0
	;DEBUG_VALUE: process_alias:argc <- [DW_OP_constu 1, DW_OP_minus, DW_OP_stack_value] $w19
	;DEBUG_VALUE: process_alias:p <- $x26
	;DEBUG_VALUE: process_alias:str <- $x22
	;DEBUG_VALUE: process_alias:argv <- $x21
	;DEBUG_VALUE: process_alias:path_list <- [DW_OP_plus_uconst 24] [$sp+0]
	.loc	1 373 12 is_stmt 1              ; which.c:373:12
	adrp	x8, ___llvm_gcov_ctr.4@PAGE+160
	ldr	x9, [x8, ___llvm_gcov_ctr.4@PAGEOFF+160]
	add	x9, x9, #1
	str	x9, [x8, ___llvm_gcov_ctr.4@PAGEOFF+160]
	.loc	1 373 11 is_stmt 0              ; which.c:373:11
	ldrb	w11, [x26], #1
Ltmp297:
	;DEBUG_VALUE: q <- undef
	;DEBUG_VALUE: process_alias:p <- $x26
	.loc	1 0 11                          ; which.c:0:11
	b	LBB2_39
Ltmp298:
LBB2_38:
	;DEBUG_VALUE: process_alias:function_start_type <- [DW_OP_plus_uconst 16] [$sp+0]
	;DEBUG_VALUE: q <- 0
	;DEBUG_VALUE: process_alias:argc <- [DW_OP_constu 1, DW_OP_minus, DW_OP_stack_value] $w19
	;DEBUG_VALUE: process_alias:p <- $x26
	;DEBUG_VALUE: process_alias:str <- $x22
	;DEBUG_VALUE: process_alias:argv <- $x21
	;DEBUG_VALUE: process_alias:path_list <- [DW_OP_plus_uconst 24] [$sp+0]
	mov	w11, #0
Ltmp299:
LBB2_39:
	;DEBUG_VALUE: process_alias:function_start_type <- [DW_OP_plus_uconst 16] [$sp+0]
	;DEBUG_VALUE: process_alias:argc <- [DW_OP_constu 1, DW_OP_minus, DW_OP_stack_value] $w19
	;DEBUG_VALUE: process_alias:p <- $x26
	;DEBUG_VALUE: process_alias:str <- $x22
	;DEBUG_VALUE: process_alias:argv <- $x21
	;DEBUG_VALUE: process_alias:path_list <- [DW_OP_plus_uconst 24] [$sp+0]
	;DEBUG_VALUE: process_alias:p <- $x26
	;DEBUG_VALUE: q <- $w11
	adrp	x9, ___llvm_gcov_ctr.4@PAGE+176
	adrp	x27, ___llvm_gcov_ctr.4@PAGE+168
	adrp	x24, ___llvm_gcov_ctr.4@PAGE+280
	adrp	x28, ___llvm_gcov_ctr.4@PAGE+288
	adrp	x19, ___llvm_gcov_ctr.4@PAGE+312
Ltmp300:
	adrp	x20, ___llvm_gcov_ctr.4@PAGE+304
	adrp	x13, ___llvm_gcov_ctr.4@PAGE+184
	adrp	x14, ___llvm_gcov_ctr.4@PAGE+192
	adrp	x15, ___llvm_gcov_ctr.4@PAGE+200
	adrp	x16, ___llvm_gcov_ctr.4@PAGE+208
	adrp	x17, ___llvm_gcov_ctr.4@PAGE+216
	adrp	x0, ___llvm_gcov_ctr.4@PAGE+224
Lloh92:
	adrp	x25, ___llvm_gcov_ctr.4@PAGE+296
Lloh93:
	add	x25, x25, ___llvm_gcov_ctr.4@PAGEOFF+296
	str	w11, [sp, #20]                  ; 4-byte Folded Spill
Ltmp301:
	;DEBUG_VALUE: q <- [DW_OP_plus_uconst 20] [$sp+0]
	b	LBB2_41
Ltmp302:
LBB2_40:                                ; %.critedge54
                                        ;   in Loop: Header=BB2_41 Depth=1
	;DEBUG_VALUE: q <- [DW_OP_plus_uconst 20] [$sp+0]
	;DEBUG_VALUE: process_alias:function_start_type <- [DW_OP_plus_uconst 16] [$sp+0]
	;DEBUG_VALUE: process_alias:p <- $x26
	;DEBUG_VALUE: process_alias:argv <- $x21
	;DEBUG_VALUE: process_alias:path_list <- [DW_OP_plus_uconst 24] [$sp+0]
	.loc	1 380 2 is_stmt 1               ; which.c:380:2
	ldr	x8, [x9, ___llvm_gcov_ctr.4@PAGEOFF+176]
	add	x8, x8, #1
	str	x8, [x9, ___llvm_gcov_ctr.4@PAGEOFF+176]
Ltmp303:
	;DEBUG_VALUE: process_alias:p <- [DW_OP_plus_uconst 1, DW_OP_stack_value] $x26
	.loc	1 0 0 is_stmt 0                 ; which.c:0:0
	add	x26, x26, #1
Ltmp304:
LBB2_41:                                ; =>This Loop Header: Depth=1
                                        ;     Child Loop BB2_45 Depth 2
                                        ;     Child Loop BB2_66 Depth 2
	;DEBUG_VALUE: q <- [DW_OP_plus_uconst 20] [$sp+0]
	;DEBUG_VALUE: process_alias:function_start_type <- [DW_OP_plus_uconst 16] [$sp+0]
	;DEBUG_VALUE: process_alias:argv <- $x21
	;DEBUG_VALUE: process_alias:path_list <- [DW_OP_plus_uconst 24] [$sp+0]
	;DEBUG_VALUE: process_alias:p <- $x26
	.loc	1 379 13 is_stmt 1              ; which.c:379:13
	ldrb	w8, [x26]
	.loc	1 379 23 is_stmt 0              ; which.c:379:23
	cmp	w8, #32
	b.eq	LBB2_40
Ltmp305:
; %bb.42:                               ;   in Loop: Header=BB2_41 Depth=1
	;DEBUG_VALUE: q <- [DW_OP_plus_uconst 20] [$sp+0]
	;DEBUG_VALUE: process_alias:function_start_type <- [DW_OP_plus_uconst 16] [$sp+0]
	;DEBUG_VALUE: process_alias:p <- $x26
	;DEBUG_VALUE: process_alias:argv <- $x21
	;DEBUG_VALUE: process_alias:path_list <- [DW_OP_plus_uconst 24] [$sp+0]
	.loc	1 379 27                        ; which.c:379:27
	ldr	x8, [x27, ___llvm_gcov_ctr.4@PAGEOFF+168]
	add	x8, x8, #1
	str	x8, [x27, ___llvm_gcov_ctr.4@PAGEOFF+168]
	.loc	1 379 26                        ; which.c:379:26
	ldrb	w23, [x26]
	.loc	1 379 7                         ; which.c:379:7
	cbz	w23, LBB2_52
Ltmp306:
; %bb.43:                               ;   in Loop: Header=BB2_41 Depth=1
	;DEBUG_VALUE: q <- [DW_OP_plus_uconst 20] [$sp+0]
	;DEBUG_VALUE: process_alias:function_start_type <- [DW_OP_plus_uconst 16] [$sp+0]
	;DEBUG_VALUE: process_alias:p <- $x26
	;DEBUG_VALUE: process_alias:argv <- $x21
	;DEBUG_VALUE: process_alias:path_list <- [DW_OP_plus_uconst 24] [$sp+0]
	cmp	w23, #9
	b.eq	LBB2_40
Ltmp307:
; %bb.44:                               ; %.lr.ph222.preheader
                                        ;   in Loop: Header=BB2_41 Depth=1
	;DEBUG_VALUE: q <- [DW_OP_plus_uconst 20] [$sp+0]
	;DEBUG_VALUE: process_alias:function_start_type <- [DW_OP_plus_uconst 16] [$sp+0]
	;DEBUG_VALUE: process_alias:p <- $x26
	;DEBUG_VALUE: process_alias:argv <- $x21
	;DEBUG_VALUE: process_alias:path_list <- [DW_OP_plus_uconst 24] [$sp+0]
	.loc	1 0 7                           ; which.c:0:7
	mov	x23, #0
	.loc	1 382 20 is_stmt 1              ; which.c:382:20
	ldr	x8, [x13, ___llvm_gcov_ctr.4@PAGEOFF+184]
	.loc	1 382 7 is_stmt 0               ; which.c:382:7
	add	x9, x8, #1
	mov	x8, x26
Ltmp308:
LBB2_45:                                ; %.lr.ph222
                                        ;   Parent Loop BB2_41 Depth=1
                                        ; =>  This Inner Loop Header: Depth=2
	;DEBUG_VALUE: q <- [DW_OP_plus_uconst 20] [$sp+0]
	;DEBUG_VALUE: process_alias:function_start_type <- [DW_OP_plus_uconst 16] [$sp+0]
	;DEBUG_VALUE: process_alias:argv <- $x21
	;DEBUG_VALUE: process_alias:path_list <- [DW_OP_plus_uconst 24] [$sp+0]
	;DEBUG_VALUE: process_alias:p <- $x8
	;DEBUG_VALUE: process_alias:len <- $w23
	.loc	1 382 20                        ; which.c:382:20
	add	x10, x9, x23
	str	x10, [x13, ___llvm_gcov_ctr.4@PAGEOFF+184]
	.loc	1 382 19                        ; which.c:382:19
	ldrb	w10, [x26, x23]
	.loc	1 382 29                        ; which.c:382:29
	cmp	w10, #32
	b.eq	LBB2_51
Ltmp309:
; %bb.46:                               ;   in Loop: Header=BB2_45 Depth=2
	;DEBUG_VALUE: process_alias:len <- $w23
	;DEBUG_VALUE: process_alias:p <- $x8
	;DEBUG_VALUE: q <- [DW_OP_plus_uconst 20] [$sp+0]
	;DEBUG_VALUE: process_alias:function_start_type <- [DW_OP_plus_uconst 16] [$sp+0]
	;DEBUG_VALUE: process_alias:argv <- $x21
	;DEBUG_VALUE: process_alias:path_list <- [DW_OP_plus_uconst 24] [$sp+0]
	.loc	1 382 33                        ; which.c:382:33
	ldr	x10, [x14, ___llvm_gcov_ctr.4@PAGEOFF+192]
	add	x10, x10, #1
	str	x10, [x14, ___llvm_gcov_ctr.4@PAGEOFF+192]
	.loc	1 382 32                        ; which.c:382:32
	ldrb	w10, [x26, x23]
	.loc	1 382 43                        ; which.c:382:43
	cmp	w10, #9
	b.eq	LBB2_51
Ltmp310:
; %bb.47:                               ;   in Loop: Header=BB2_45 Depth=2
	;DEBUG_VALUE: process_alias:len <- $w23
	;DEBUG_VALUE: process_alias:p <- $x8
	;DEBUG_VALUE: q <- [DW_OP_plus_uconst 20] [$sp+0]
	;DEBUG_VALUE: process_alias:function_start_type <- [DW_OP_plus_uconst 16] [$sp+0]
	;DEBUG_VALUE: process_alias:argv <- $x21
	;DEBUG_VALUE: process_alias:path_list <- [DW_OP_plus_uconst 24] [$sp+0]
	.loc	1 382 47                        ; which.c:382:47
	ldr	x10, [x15, ___llvm_gcov_ctr.4@PAGEOFF+200]
	add	x10, x10, #1
	str	x10, [x15, ___llvm_gcov_ctr.4@PAGEOFF+200]
	.loc	1 382 46                        ; which.c:382:46
	ldrb	w10, [x26, x23]
	.loc	1 382 54                        ; which.c:382:54
	cmp	w10, w11
	b.eq	LBB2_51
Ltmp311:
; %bb.48:                               ;   in Loop: Header=BB2_45 Depth=2
	;DEBUG_VALUE: process_alias:len <- $w23
	;DEBUG_VALUE: process_alias:p <- $x8
	;DEBUG_VALUE: q <- [DW_OP_plus_uconst 20] [$sp+0]
	;DEBUG_VALUE: process_alias:function_start_type <- [DW_OP_plus_uconst 16] [$sp+0]
	;DEBUG_VALUE: process_alias:argv <- $x21
	;DEBUG_VALUE: process_alias:path_list <- [DW_OP_plus_uconst 24] [$sp+0]
	.loc	1 382 58                        ; which.c:382:58
	ldr	x10, [x16, ___llvm_gcov_ctr.4@PAGEOFF+208]
	add	x10, x10, #1
	str	x10, [x16, ___llvm_gcov_ctr.4@PAGEOFF+208]
	.loc	1 382 57                        ; which.c:382:57
	ldrb	w10, [x26, x23]
	.loc	1 382 67                        ; which.c:382:67
	cmp	w10, #124
	b.eq	LBB2_51
Ltmp312:
; %bb.49:                               ;   in Loop: Header=BB2_45 Depth=2
	;DEBUG_VALUE: process_alias:len <- $w23
	;DEBUG_VALUE: process_alias:p <- $x8
	;DEBUG_VALUE: q <- [DW_OP_plus_uconst 20] [$sp+0]
	;DEBUG_VALUE: process_alias:function_start_type <- [DW_OP_plus_uconst 16] [$sp+0]
	;DEBUG_VALUE: process_alias:argv <- $x21
	;DEBUG_VALUE: process_alias:path_list <- [DW_OP_plus_uconst 24] [$sp+0]
	.loc	1 382 71                        ; which.c:382:71
	ldr	x10, [x17, ___llvm_gcov_ctr.4@PAGEOFF+216]
	add	x10, x10, #1
	str	x10, [x17, ___llvm_gcov_ctr.4@PAGEOFF+216]
	.loc	1 382 70                        ; which.c:382:70
	ldrb	w10, [x26, x23]
	.loc	1 382 7                         ; which.c:382:7
	cmp	w10, #38
	b.eq	LBB2_74
Ltmp313:
; %bb.50:                               ;   in Loop: Header=BB2_45 Depth=2
	;DEBUG_VALUE: process_alias:len <- $w23
	;DEBUG_VALUE: process_alias:p <- $x8
	;DEBUG_VALUE: q <- [DW_OP_plus_uconst 20] [$sp+0]
	;DEBUG_VALUE: process_alias:function_start_type <- [DW_OP_plus_uconst 16] [$sp+0]
	;DEBUG_VALUE: process_alias:argv <- $x21
	;DEBUG_VALUE: process_alias:path_list <- [DW_OP_plus_uconst 24] [$sp+0]
	.loc	1 383 2 is_stmt 1               ; which.c:383:2
	ldr	x10, [x0, ___llvm_gcov_ctr.4@PAGEOFF+224]
	add	x10, x10, #1
	str	x10, [x0, ___llvm_gcov_ctr.4@PAGEOFF+224]
	add	x8, x8, #1
Ltmp314:
	;DEBUG_VALUE: process_alias:p <- $x8
	.loc	1 383 7 is_stmt 0               ; which.c:383:7
	add	x10, x26, x23
	.loc	1 382 16 is_stmt 1              ; which.c:382:16
	add	x23, x23, #1
Ltmp315:
	;DEBUG_VALUE: process_alias:len <- [DW_OP_LLVM_convert 64 7, DW_OP_LLVM_convert 32 7, DW_OP_stack_value] $x23
	.loc	1 382 13 is_stmt 0              ; which.c:382:13
	ldrb	w10, [x10, #1]
	.loc	1 382 16                        ; which.c:382:16
	cbnz	w10, LBB2_45
Ltmp316:
LBB2_51:                                ;   in Loop: Header=BB2_41 Depth=1
	;DEBUG_VALUE: process_alias:p <- $x8
	;DEBUG_VALUE: q <- [DW_OP_plus_uconst 20] [$sp+0]
	;DEBUG_VALUE: process_alias:function_start_type <- [DW_OP_plus_uconst 16] [$sp+0]
	;DEBUG_VALUE: process_alias:argv <- $x21
	;DEBUG_VALUE: process_alias:path_list <- [DW_OP_plus_uconst 24] [$sp+0]
	.loc	1 0 16                          ; which.c:0:16
	mov	x26, x8
Ltmp317:
	;DEBUG_VALUE: process_alias:p <- $x26
	;DEBUG_VALUE: process_alias:p <- $x26
LBB2_52:                                ; %.critedge56
                                        ;   in Loop: Header=BB2_41 Depth=1
	;DEBUG_VALUE: q <- [DW_OP_plus_uconst 20] [$sp+0]
	;DEBUG_VALUE: process_alias:function_start_type <- [DW_OP_plus_uconst 16] [$sp+0]
	;DEBUG_VALUE: process_alias:argv <- $x21
	;DEBUG_VALUE: process_alias:path_list <- [DW_OP_plus_uconst 24] [$sp+0]
	;DEBUG_VALUE: process_alias:len <- $w23
	.loc	1 385 33 is_stmt 1              ; which.c:385:33
	add	w0, w23, #1
	adrp	x9, ___llvm_gcov_ctr.5@PAGE
	ldr	x8, [x9, ___llvm_gcov_ctr.5@PAGEOFF]
	add	x8, x8, #1
	str	x8, [x9, ___llvm_gcov_ctr.5@PAGEOFF]
Ltmp318:
	;DEBUG_VALUE: xmalloc:size <- $x0
	.loc	1 680 15                        ; which.c:680:15
	bl	_malloc
Ltmp319:
	;DEBUG_VALUE: xmalloc:ptr <- $x0
	.loc	1 681 7                         ; which.c:681:7
	cbz	x0, LBB2_77
Ltmp320:
; %bb.53:                               ; %xmalloc.exit
                                        ;   in Loop: Header=BB2_41 Depth=1
	;DEBUG_VALUE: process_alias:len <- $w23
	;DEBUG_VALUE: q <- [DW_OP_plus_uconst 20] [$sp+0]
	;DEBUG_VALUE: process_alias:function_start_type <- [DW_OP_plus_uconst 16] [$sp+0]
	;DEBUG_VALUE: process_alias:argv <- $x21
	;DEBUG_VALUE: process_alias:path_list <- [DW_OP_plus_uconst 24] [$sp+0]
	.loc	1 0 0 is_stmt 0                 ; which.c:0:0
	mov	x22, x0
Ltmp321:
	;DEBUG_VALUE: process_alias:str <- [DW_OP_LLVM_entry_value 1] $x0
	;DEBUG_VALUE: xmalloc:ptr <- $x22
	;DEBUG_VALUE: cmd <- $x22
	.loc	1 386 40 is_stmt 1              ; which.c:386:40
	neg	w8, w23
	.loc	1 386 38 is_stmt 0              ; which.c:386:38
	add	x1, x26, w8, sxtw
	.loc	1 386 47                        ; which.c:386:47
	mov	w23, w23
Ltmp322:
	.loc	1 386 7                         ; which.c:386:7
	mov	x2, x23
	bl	_strncpy
Ltmp323:
	.loc	1 387 16 is_stmt 1              ; which.c:387:16
	strb	wzr, [x0, x23]
Ltmp324:
	.loc	1 388 11                        ; which.c:388:11
	ldr	x8, [x21]
	.loc	1 388 17 is_stmt 0              ; which.c:388:17
	cbz	x8, LBB2_56
Ltmp325:
; %bb.54:                               ;   in Loop: Header=BB2_41 Depth=1
	;DEBUG_VALUE: cmd <- $x22
	;DEBUG_VALUE: q <- [DW_OP_plus_uconst 20] [$sp+0]
	;DEBUG_VALUE: process_alias:function_start_type <- [DW_OP_plus_uconst 16] [$sp+0]
	;DEBUG_VALUE: process_alias:argv <- $x21
	;DEBUG_VALUE: process_alias:path_list <- [DW_OP_plus_uconst 24] [$sp+0]
	.loc	1 0 17                          ; which.c:0:17
	adrp	x9, ___llvm_gcov_ctr.4@PAGE+232
	.loc	1 388 28                        ; which.c:388:28
	ldr	x8, [x9, ___llvm_gcov_ctr.4@PAGEOFF+232]
	add	x8, x8, #1
	str	x8, [x9, ___llvm_gcov_ctr.4@PAGEOFF+232]
	.loc	1 388 33                        ; which.c:388:33
	ldr	x1, [x21]
	.loc	1 388 21                        ; which.c:388:21
	mov	x0, x22
	bl	_strcmp
Ltmp326:
	.loc	1 388 11                        ; which.c:388:11
	cbnz	w0, LBB2_56
Ltmp327:
; %bb.55:                               ;   in Loop: Header=BB2_41 Depth=1
	;DEBUG_VALUE: cmd <- $x22
	;DEBUG_VALUE: q <- [DW_OP_plus_uconst 20] [$sp+0]
	;DEBUG_VALUE: process_alias:function_start_type <- [DW_OP_plus_uconst 16] [$sp+0]
	;DEBUG_VALUE: process_alias:argv <- $x21
	;DEBUG_VALUE: process_alias:path_list <- [DW_OP_plus_uconst 24] [$sp+0]
	.loc	1 0 11                          ; which.c:0:11
	adrp	x9, ___llvm_gcov_ctr.4@PAGE+240
Ltmp328:
	.loc	1 389 10 is_stmt 1              ; which.c:389:10
	ldr	x8, [x9, ___llvm_gcov_ctr.4@PAGEOFF+240]
	add	x8, x8, #1
	str	x8, [x9, ___llvm_gcov_ctr.4@PAGEOFF+240]
	.loc	1 389 15 is_stmt 0              ; which.c:389:15
	str	xzr, [x21]
Ltmp329:
LBB2_56:                                ;   in Loop: Header=BB2_41 Depth=1
	;DEBUG_VALUE: cmd <- $x22
	;DEBUG_VALUE: q <- [DW_OP_plus_uconst 20] [$sp+0]
	;DEBUG_VALUE: process_alias:function_start_type <- [DW_OP_plus_uconst 16] [$sp+0]
	;DEBUG_VALUE: process_alias:argv <- $x21
	;DEBUG_VALUE: process_alias:path_list <- [DW_OP_plus_uconst 24] [$sp+0]
	.loc	1 390 11 is_stmt 1              ; which.c:390:11
	adrp	x8, _read_functions@PAGE
	ldrb	w8, [x8, _read_functions@PAGEOFF]
	.loc	1 390 26 is_stmt 0              ; which.c:390:26
	cmp	w8, #1
	b.ne	LBB2_58
Ltmp330:
; %bb.57:                               ;   in Loop: Header=BB2_41 Depth=1
	;DEBUG_VALUE: cmd <- $x22
	;DEBUG_VALUE: q <- [DW_OP_plus_uconst 20] [$sp+0]
	;DEBUG_VALUE: process_alias:function_start_type <- [DW_OP_plus_uconst 16] [$sp+0]
	;DEBUG_VALUE: process_alias:argv <- $x21
	;DEBUG_VALUE: process_alias:path_list <- [DW_OP_plus_uconst 24] [$sp+0]
	.loc	1 0 26                          ; which.c:0:26
	adrp	x9, ___llvm_gcov_ctr.4@PAGE+248
	.loc	1 390 37                        ; which.c:390:37
	ldr	x8, [x9, ___llvm_gcov_ctr.4@PAGEOFF+248]
	add	x8, x8, #1
	str	x8, [x9, ___llvm_gcov_ctr.4@PAGEOFF+248]
	.loc	1 390 30                        ; which.c:390:30
	mov	x0, x22
	mov	w1, #47
	bl	_strchr
Ltmp331:
	.loc	1 390 11                        ; which.c:390:11
	cbz	x0, LBB2_73
Ltmp332:
LBB2_58:                                ;   in Loop: Header=BB2_41 Depth=1
	;DEBUG_VALUE: cmd <- $x22
	;DEBUG_VALUE: q <- [DW_OP_plus_uconst 20] [$sp+0]
	;DEBUG_VALUE: process_alias:function_start_type <- [DW_OP_plus_uconst 16] [$sp+0]
	;DEBUG_VALUE: process_alias:argv <- $x21
	;DEBUG_VALUE: process_alias:path_list <- [DW_OP_plus_uconst 24] [$sp+0]
	.loc	1 0 11                          ; which.c:0:11
	mov	w0, #0
Ltmp333:
LBB2_59:                                ;   in Loop: Header=BB2_41 Depth=1
	;DEBUG_VALUE: cmd <- $x22
	;DEBUG_VALUE: q <- [DW_OP_plus_uconst 20] [$sp+0]
	;DEBUG_VALUE: process_alias:function_start_type <- [DW_OP_plus_uconst 16] [$sp+0]
	;DEBUG_VALUE: process_alias:argv <- $x21
	;DEBUG_VALUE: process_alias:path_list <- [DW_OP_plus_uconst 24] [$sp+0]
	;DEBUG_VALUE: found <- $w0
	.loc	1 392 11 is_stmt 1              ; which.c:392:11
	adrp	x8, _show_all@PAGE
	ldrb	w8, [x8, _show_all@PAGEOFF]
	.loc	1 392 20 is_stmt 0              ; which.c:392:20
	tbnz	w8, #0, LBB2_61
Ltmp334:
; %bb.60:                               ;   in Loop: Header=BB2_41 Depth=1
	;DEBUG_VALUE: found <- $w0
	;DEBUG_VALUE: cmd <- $x22
	;DEBUG_VALUE: q <- [DW_OP_plus_uconst 20] [$sp+0]
	;DEBUG_VALUE: process_alias:function_start_type <- [DW_OP_plus_uconst 16] [$sp+0]
	;DEBUG_VALUE: process_alias:argv <- $x21
	;DEBUG_VALUE: process_alias:path_list <- [DW_OP_plus_uconst 24] [$sp+0]
	.loc	1 0 20                          ; which.c:0:20
	adrp	x9, ___llvm_gcov_ctr.4@PAGE+264
	.loc	1 392 24                        ; which.c:392:24
	ldr	x8, [x9, ___llvm_gcov_ctr.4@PAGEOFF+264]
	add	x8, x8, #1
	str	x8, [x9, ___llvm_gcov_ctr.4@PAGEOFF+264]
Ltmp335:
	.loc	1 392 11                        ; which.c:392:11
	cbnz	w0, LBB2_62
Ltmp336:
LBB2_61:                                ;   in Loop: Header=BB2_41 Depth=1
	;DEBUG_VALUE: found <- $w0
	;DEBUG_VALUE: cmd <- $x22
	;DEBUG_VALUE: q <- [DW_OP_plus_uconst 20] [$sp+0]
	;DEBUG_VALUE: process_alias:function_start_type <- [DW_OP_plus_uconst 16] [$sp+0]
	;DEBUG_VALUE: process_alias:argv <- $x21
	;DEBUG_VALUE: process_alias:path_list <- [DW_OP_plus_uconst 24] [$sp+0]
	.loc	1 0 11                          ; which.c:0:11
	adrp	x9, ___llvm_gcov_ctr.4@PAGE+272
Ltmp337:
	.loc	1 393 17 is_stmt 1              ; which.c:393:17
	ldr	x8, [x9, ___llvm_gcov_ctr.4@PAGEOFF+272]
	add	x8, x8, #1
	str	x8, [x9, ___llvm_gcov_ctr.4@PAGEOFF+272]
	.loc	1 393 2 is_stmt 0               ; which.c:393:2
	mov	w0, #1
Ltmp338:
	mov	x1, x22
	ldr	x2, [sp, #24]                   ; 8-byte Folded Reload
	bl	_path_search
Ltmp339:
LBB2_62:                                ;   in Loop: Header=BB2_41 Depth=1
	;DEBUG_VALUE: cmd <- $x22
	;DEBUG_VALUE: q <- [DW_OP_plus_uconst 20] [$sp+0]
	;DEBUG_VALUE: process_alias:function_start_type <- [DW_OP_plus_uconst 16] [$sp+0]
	;DEBUG_VALUE: process_alias:argv <- $x21
	;DEBUG_VALUE: process_alias:path_list <- [DW_OP_plus_uconst 24] [$sp+0]
	.loc	1 394 7 is_stmt 1               ; which.c:394:7
	mov	x0, x22
	bl	_free
Ltmp340:
	;DEBUG_VALUE: process_alias:p <- $x26
	.loc	1 396 13                        ; which.c:396:13
	ldrb	w8, [x26]
	ldr	w11, [sp, #20]                  ; 4-byte Folded Reload
	adrp	x13, ___llvm_gcov_ctr.4@PAGE+184
	adrp	x14, ___llvm_gcov_ctr.4@PAGE+192
	adrp	x15, ___llvm_gcov_ctr.4@PAGE+200
	adrp	x16, ___llvm_gcov_ctr.4@PAGE+208
	adrp	x17, ___llvm_gcov_ctr.4@PAGE+216
	adrp	x0, ___llvm_gcov_ctr.4@PAGE+224
	.loc	1 396 16 is_stmt 0              ; which.c:396:16
	cbz	w8, LBB2_75
Ltmp341:
; %bb.63:                               ; %.lr.ph242.preheader
                                        ;   in Loop: Header=BB2_41 Depth=1
	;DEBUG_VALUE: cmd <- $x22
	;DEBUG_VALUE: q <- [DW_OP_plus_uconst 20] [$sp+0]
	;DEBUG_VALUE: process_alias:function_start_type <- [DW_OP_plus_uconst 16] [$sp+0]
	;DEBUG_VALUE: process_alias:p <- $x26
	;DEBUG_VALUE: process_alias:argv <- $x21
	;DEBUG_VALUE: process_alias:path_list <- [DW_OP_plus_uconst 24] [$sp+0]
	.loc	1 396 21                        ; which.c:396:21
	ldr	x8, [x24, ___llvm_gcov_ctr.4@PAGEOFF+280]
	.loc	1 396 7                         ; which.c:396:7
	add	x8, x8, #1
	b	LBB2_66
Ltmp342:
LBB2_64:                                ; %.critedge60
                                        ;   in Loop: Header=BB2_66 Depth=2
	;DEBUG_VALUE: cmd <- $x22
	;DEBUG_VALUE: q <- [DW_OP_plus_uconst 20] [$sp+0]
	;DEBUG_VALUE: process_alias:function_start_type <- [DW_OP_plus_uconst 16] [$sp+0]
	;DEBUG_VALUE: process_alias:p <- $x26
	;DEBUG_VALUE: process_alias:argv <- $x21
	;DEBUG_VALUE: process_alias:path_list <- [DW_OP_plus_uconst 24] [$sp+0]
	.loc	1 0 7                           ; which.c:0:7
	ldr	x9, [x20, ___llvm_gcov_ctr.4@PAGEOFF+304]
	add	x9, x9, #1
	str	x9, [x20, ___llvm_gcov_ctr.4@PAGEOFF+304]
Ltmp343:
LBB2_65:                                ;   in Loop: Header=BB2_66 Depth=2
	;DEBUG_VALUE: cmd <- $x22
	;DEBUG_VALUE: q <- [DW_OP_plus_uconst 20] [$sp+0]
	;DEBUG_VALUE: process_alias:function_start_type <- [DW_OP_plus_uconst 16] [$sp+0]
	;DEBUG_VALUE: process_alias:p <- $x26
	;DEBUG_VALUE: process_alias:argv <- $x21
	;DEBUG_VALUE: process_alias:path_list <- [DW_OP_plus_uconst 24] [$sp+0]
	.loc	1 397 9 is_stmt 1               ; which.c:397:9
	ldr	x9, [x19, ___llvm_gcov_ctr.4@PAGEOFF+312]
	add	x9, x9, #1
	str	x9, [x19, ___llvm_gcov_ctr.4@PAGEOFF+312]
	.loc	1 396 13                        ; which.c:396:13
	ldrb	w9, [x26, #1]!
Ltmp344:
	;DEBUG_VALUE: process_alias:p <- $x26
	.loc	1 396 16 is_stmt 0              ; which.c:396:16
	add	x8, x8, #1
	cbz	w9, LBB2_75
Ltmp345:
LBB2_66:                                ; %.lr.ph242
                                        ;   Parent Loop BB2_41 Depth=1
                                        ; =>  This Inner Loop Header: Depth=2
	;DEBUG_VALUE: cmd <- $x22
	;DEBUG_VALUE: q <- [DW_OP_plus_uconst 20] [$sp+0]
	;DEBUG_VALUE: process_alias:function_start_type <- [DW_OP_plus_uconst 16] [$sp+0]
	;DEBUG_VALUE: process_alias:p <- $x26
	;DEBUG_VALUE: process_alias:argv <- $x21
	;DEBUG_VALUE: process_alias:path_list <- [DW_OP_plus_uconst 24] [$sp+0]
	;DEBUG_VALUE: process_alias:p <- $x26
	.loc	1 396 21                        ; which.c:396:21
	str	x8, [x24, ___llvm_gcov_ctr.4@PAGEOFF+280]
	.loc	1 396 20                        ; which.c:396:20
	ldrb	w9, [x26]
	.loc	1 396 30                        ; which.c:396:30
	cmp	w9, #124
	b.ne	LBB2_69
Ltmp346:
; %bb.67:                               ;   in Loop: Header=BB2_66 Depth=2
	;DEBUG_VALUE: cmd <- $x22
	;DEBUG_VALUE: q <- [DW_OP_plus_uconst 20] [$sp+0]
	;DEBUG_VALUE: process_alias:function_start_type <- [DW_OP_plus_uconst 16] [$sp+0]
	;DEBUG_VALUE: process_alias:p <- $x26
	;DEBUG_VALUE: process_alias:argv <- $x21
	;DEBUG_VALUE: process_alias:path_list <- [DW_OP_plus_uconst 24] [$sp+0]
	.loc	1 396 33                        ; which.c:396:33
	ldr	x9, [x28, ___llvm_gcov_ctr.4@PAGEOFF+288]
	add	x9, x9, #1
	str	x9, [x28, ___llvm_gcov_ctr.4@PAGEOFF+288]
	ldrb	w9, [x26, #1]
	.loc	1 396 46                        ; which.c:396:46
	cmp	w9, #124
	b.ne	LBB2_71
Ltmp347:
; %bb.68:                               ; %thread-pre-split
                                        ;   in Loop: Header=BB2_66 Depth=2
	;DEBUG_VALUE: cmd <- $x22
	;DEBUG_VALUE: q <- [DW_OP_plus_uconst 20] [$sp+0]
	;DEBUG_VALUE: process_alias:function_start_type <- [DW_OP_plus_uconst 16] [$sp+0]
	;DEBUG_VALUE: process_alias:p <- $x26
	;DEBUG_VALUE: process_alias:argv <- $x21
	;DEBUG_VALUE: process_alias:path_list <- [DW_OP_plus_uconst 24] [$sp+0]
	.loc	1 396 50                        ; which.c:396:50
	ldrb	w9, [x26]
Ltmp348:
LBB2_69:                                ;   in Loop: Header=BB2_66 Depth=2
	;DEBUG_VALUE: cmd <- $x22
	;DEBUG_VALUE: q <- [DW_OP_plus_uconst 20] [$sp+0]
	;DEBUG_VALUE: process_alias:function_start_type <- [DW_OP_plus_uconst 16] [$sp+0]
	;DEBUG_VALUE: process_alias:p <- $x26
	;DEBUG_VALUE: process_alias:argv <- $x21
	;DEBUG_VALUE: process_alias:path_list <- [DW_OP_plus_uconst 24] [$sp+0]
	.loc	1 396 60                        ; which.c:396:60
	cmp	w9, #38
	b.ne	LBB2_64
Ltmp349:
; %bb.70:                               ;   in Loop: Header=BB2_66 Depth=2
	;DEBUG_VALUE: cmd <- $x22
	;DEBUG_VALUE: q <- [DW_OP_plus_uconst 20] [$sp+0]
	;DEBUG_VALUE: process_alias:function_start_type <- [DW_OP_plus_uconst 16] [$sp+0]
	;DEBUG_VALUE: process_alias:p <- $x26
	;DEBUG_VALUE: process_alias:argv <- $x21
	;DEBUG_VALUE: process_alias:path_list <- [DW_OP_plus_uconst 24] [$sp+0]
	.loc	1 396 63                        ; which.c:396:63
	ldp	x9, x10, [x25]
	add	x9, x9, #1
	str	x9, [x25]
	ldrb	w9, [x26, #1]
	add	x10, x10, #1
	str	x10, [x25, #8]
	.loc	1 396 7                         ; which.c:396:7
	cmp	w9, #38
	b.eq	LBB2_65
Ltmp350:
LBB2_71:                                ; %.critedge58
                                        ;   in Loop: Header=BB2_41 Depth=1
	;DEBUG_VALUE: cmd <- $x22
	;DEBUG_VALUE: q <- [DW_OP_plus_uconst 20] [$sp+0]
	;DEBUG_VALUE: process_alias:function_start_type <- [DW_OP_plus_uconst 16] [$sp+0]
	;DEBUG_VALUE: process_alias:p <- $x26
	;DEBUG_VALUE: process_alias:argv <- $x21
	;DEBUG_VALUE: process_alias:path_list <- [DW_OP_plus_uconst 24] [$sp+0]
	.loc	1 399 12 is_stmt 1              ; which.c:399:12
	ldrb	w8, [x26]
Ltmp351:
	.loc	1 399 11 is_stmt 0              ; which.c:399:11
	cbz	w8, LBB2_75
Ltmp352:
; %bb.72:                               ;   in Loop: Header=BB2_41 Depth=1
	;DEBUG_VALUE: cmd <- $x22
	;DEBUG_VALUE: q <- [DW_OP_plus_uconst 20] [$sp+0]
	;DEBUG_VALUE: process_alias:function_start_type <- [DW_OP_plus_uconst 16] [$sp+0]
	;DEBUG_VALUE: process_alias:p <- $x26
	;DEBUG_VALUE: process_alias:argv <- $x21
	;DEBUG_VALUE: process_alias:path_list <- [DW_OP_plus_uconst 24] [$sp+0]
	.loc	1 0 11                          ; which.c:0:11
Lloh94:
	adrp	x9, ___llvm_gcov_ctr.4@PAGE+328
	.loc	1 402 7 is_stmt 1               ; which.c:402:7
	ldr	x8, [x9, ___llvm_gcov_ctr.4@PAGEOFF+328]
	add	x8, x8, #1
	str	x8, [x9, ___llvm_gcov_ctr.4@PAGEOFF+328]
Ltmp353:
	;DEBUG_VALUE: process_alias:p <- [DW_OP_plus_uconst 1, DW_OP_stack_value] $x26
	.loc	1 0 7 is_stmt 0                 ; which.c:0:7
Lloh95:
	adrp	x9, ___llvm_gcov_ctr.4@PAGE+176
	add	x26, x26, #1
Ltmp354:
	b	LBB2_41
Ltmp355:
LBB2_73:                                ;   in Loop: Header=BB2_41 Depth=1
	;DEBUG_VALUE: cmd <- $x22
	;DEBUG_VALUE: q <- [DW_OP_plus_uconst 20] [$sp+0]
	;DEBUG_VALUE: process_alias:function_start_type <- [DW_OP_plus_uconst 16] [$sp+0]
	;DEBUG_VALUE: process_alias:argv <- $x21
	;DEBUG_VALUE: process_alias:path_list <- [DW_OP_plus_uconst 24] [$sp+0]
	adrp	x9, ___llvm_gcov_ctr.4@PAGE+256
Ltmp356:
	.loc	1 391 32 is_stmt 1              ; which.c:391:32
	ldr	x8, [x9, ___llvm_gcov_ctr.4@PAGEOFF+256]
	add	x8, x8, #1
	str	x8, [x9, ___llvm_gcov_ctr.4@PAGEOFF+256]
	.loc	1 391 17 is_stmt 0              ; which.c:391:17
	mov	w0, #1
	mov	x1, x22
	ldr	w3, [sp, #16]                   ; 4-byte Folded Reload
	bl	_func_search
Ltmp357:
	;DEBUG_VALUE: found <- $w0
	.loc	1 0 17                          ; which.c:0:17
	b	LBB2_59
Ltmp358:
LBB2_74:                                ; %..critedge56.loopexit_crit_edge
                                        ;   in Loop: Header=BB2_41 Depth=1
	;DEBUG_VALUE: process_alias:len <- $w23
	;DEBUG_VALUE: process_alias:p <- $x8
	;DEBUG_VALUE: q <- [DW_OP_plus_uconst 20] [$sp+0]
	;DEBUG_VALUE: process_alias:function_start_type <- [DW_OP_plus_uconst 16] [$sp+0]
	;DEBUG_VALUE: process_alias:argv <- $x21
	;DEBUG_VALUE: process_alias:path_list <- [DW_OP_plus_uconst 24] [$sp+0]
	.loc	1 382 7 is_stmt 1               ; which.c:382:7
	add	x26, x26, x23
	b	LBB2_52
Ltmp359:
LBB2_75:                                ; %.critedge58.thread
	;DEBUG_VALUE: cmd <- $x22
	;DEBUG_VALUE: q <- [DW_OP_plus_uconst 20] [$sp+0]
	;DEBUG_VALUE: process_alias:function_start_type <- [DW_OP_plus_uconst 16] [$sp+0]
	;DEBUG_VALUE: process_alias:p <- $x26
	;DEBUG_VALUE: process_alias:argv <- $x21
	;DEBUG_VALUE: process_alias:path_list <- [DW_OP_plus_uconst 24] [$sp+0]
	.loc	1 0 7 is_stmt 0                 ; which.c:0:7
Lloh96:
	adrp	x8, ___llvm_gcov_ctr.4@PAGE+320
Lloh97:
	add	x8, x8, ___llvm_gcov_ctr.4@PAGEOFF+320
	ldr	x9, [x8]
	add	x9, x9, #1
	str	x9, [x8]
	ldr	x9, [x8, #16]
	add	x9, x9, #1
	str	x9, [x8, #16]
Ltmp360:
	;DEBUG_VALUE: process_alias:len <- undef
	;DEBUG_VALUE: process_alias:p <- undef
LBB2_76:                                ; %.loopexit195
	;DEBUG_VALUE: process_alias:path_list <- [DW_OP_plus_uconst 24] [$sp+0]
	.loc	1 407 1 is_stmt 1               ; which.c:407:1
	ldp	x29, x30, [sp, #112]            ; 16-byte Folded Reload
	ldp	x20, x19, [sp, #96]             ; 16-byte Folded Reload
	ldp	x22, x21, [sp, #80]             ; 16-byte Folded Reload
	ldp	x24, x23, [sp, #64]             ; 16-byte Folded Reload
	ldp	x26, x25, [sp, #48]             ; 16-byte Folded Reload
	ldp	x28, x27, [sp, #32]             ; 16-byte Folded Reload
	add	sp, sp, #128
Ltmp361:
	ret
LBB2_77:
Ltmp362:
	;DEBUG_VALUE: xmalloc:ptr <- $x0
	;DEBUG_VALUE: process_alias:len <- $w23
	;DEBUG_VALUE: q <- [DW_OP_plus_uconst 20] [$sp+0]
	;DEBUG_VALUE: process_alias:function_start_type <- [DW_OP_plus_uconst 16] [$sp+0]
	;DEBUG_VALUE: process_alias:argv <- $x21
	;DEBUG_VALUE: process_alias:path_list <- [DW_OP_plus_uconst 24] [$sp+0]
	.loc	1 683 13                        ; which.c:683:13
Lloh98:
	adrp	x8, ___llvm_gcov_ctr.5@PAGE+8
	ldr	x9, [x8, ___llvm_gcov_ctr.5@PAGEOFF+8]
	add	x9, x9, #1
	str	x9, [x8, ___llvm_gcov_ctr.5@PAGEOFF+8]
Lloh99:
	adrp	x8, ___stderrp@GOTPAGE
Lloh100:
	ldr	x8, [x8, ___stderrp@GOTPAGEOFF]
Lloh101:
	ldr	x0, [x8]
Ltmp363:
	.loc	1 683 45 is_stmt 0              ; which.c:683:45
Lloh102:
	adrp	x8, _progname@PAGE
Lloh103:
	ldr	x8, [x8, _progname@PAGEOFF]
	.loc	1 683 5                         ; which.c:683:5
	str	x8, [sp]
Lloh104:
	adrp	x1, l_.str.29@PAGE
Lloh105:
	add	x1, x1, l_.str.29@PAGEOFF
	bl	_fprintf
Ltmp364:
	.loc	1 684 5 is_stmt 1               ; which.c:684:5
	mov	w0, #-1
	bl	_exit
Ltmp365:
	.loh AdrpAdrp	Lloh77, Lloh78
	.loh AdrpAdd	Lloh79, Lloh80
	.loh AdrpAdd	Lloh81, Lloh82
	.loh AdrpLdrGotLdr	Lloh83, Lloh84, Lloh85
	.loh AdrpAdd	Lloh86, Lloh87
	.loh AdrpAdd	Lloh88, Lloh89
	.loh AdrpAdd	Lloh90, Lloh91
	.loh AdrpAdd	Lloh92, Lloh93
	.loh AdrpAdrp	Lloh94, Lloh95
	.loh AdrpAdd	Lloh96, Lloh97
	.loh AdrpAdd	Lloh104, Lloh105
	.loh AdrpLdr	Lloh102, Lloh103
	.loh AdrpLdrGotLdr	Lloh99, Lloh100, Lloh101
	.loh AdrpAdrp	Lloh98, Lloh99
Lfunc_end2:
	.cfi_endproc
                                        ; -- End function
	.globl	_xmalloc                        ; -- Begin function xmalloc
	.p2align	2
_xmalloc:                               ; @xmalloc
Lfunc_begin3:
	.loc	1 679 0                         ; which.c:679:0
	.cfi_startproc
; %bb.0:
	;DEBUG_VALUE: xmalloc:size <- $x0
	sub	sp, sp, #32
	.cfi_def_cfa_offset 32
	stp	x29, x30, [sp, #16]             ; 16-byte Folded Spill
	add	x29, sp, #16
	.cfi_def_cfa w29, 16
	.cfi_offset w30, -8
	.cfi_offset w29, -16
	adrp	x8, ___llvm_gcov_ctr.5@PAGE
	ldr	x9, [x8, ___llvm_gcov_ctr.5@PAGEOFF]
	add	x9, x9, #1
	str	x9, [x8, ___llvm_gcov_ctr.5@PAGEOFF]
Ltmp366:
	.loc	1 680 15 prologue_end           ; which.c:680:15
	bl	_malloc
Ltmp367:
	;DEBUG_VALUE: xmalloc:size <- [DW_OP_LLVM_entry_value 1] $x0
	;DEBUG_VALUE: xmalloc:ptr <- $x0
	.loc	1 681 7                         ; which.c:681:7
	cbz	x0, LBB3_2
Ltmp368:
; %bb.1:
	;DEBUG_VALUE: xmalloc:ptr <- $x0
	;DEBUG_VALUE: xmalloc:size <- [DW_OP_LLVM_entry_value 1] $x0
	.loc	1 686 3                         ; which.c:686:3
	ldp	x29, x30, [sp, #16]             ; 16-byte Folded Reload
	add	sp, sp, #32
	ret
Ltmp369:
LBB3_2:
	;DEBUG_VALUE: xmalloc:ptr <- $x0
	;DEBUG_VALUE: xmalloc:size <- [DW_OP_LLVM_entry_value 1] $x0
	.loc	1 683 13                        ; which.c:683:13
Lloh106:
	adrp	x8, ___llvm_gcov_ctr.5@PAGE+8
	ldr	x9, [x8, ___llvm_gcov_ctr.5@PAGEOFF+8]
	add	x9, x9, #1
	str	x9, [x8, ___llvm_gcov_ctr.5@PAGEOFF+8]
Lloh107:
	adrp	x8, ___stderrp@GOTPAGE
Lloh108:
	ldr	x8, [x8, ___stderrp@GOTPAGEOFF]
Lloh109:
	ldr	x0, [x8]
Ltmp370:
	.loc	1 683 45 is_stmt 0              ; which.c:683:45
Lloh110:
	adrp	x8, _progname@PAGE
Lloh111:
	ldr	x8, [x8, _progname@PAGEOFF]
	.loc	1 683 5                         ; which.c:683:5
	str	x8, [sp]
Lloh112:
	adrp	x1, l_.str.29@PAGE
Lloh113:
	add	x1, x1, l_.str.29@PAGEOFF
	bl	_fprintf
Ltmp371:
	.loc	1 684 5 is_stmt 1               ; which.c:684:5
	mov	w0, #-1
	bl	_exit
Ltmp372:
	.loh AdrpAdd	Lloh112, Lloh113
	.loh AdrpLdr	Lloh110, Lloh111
	.loh AdrpLdrGotLdr	Lloh107, Lloh108, Lloh109
	.loh AdrpAdrp	Lloh106, Lloh107
Lfunc_end3:
	.cfi_endproc
                                        ; -- End function
	.globl	_main                           ; -- Begin function main
	.p2align	2
_main:                                  ; @main
Lfunc_begin4:
	.loc	1 430 0                         ; which.c:430:0
	.cfi_startproc
; %bb.0:
	;DEBUG_VALUE: main:argc <- $w0
	;DEBUG_VALUE: main:argv <- $x1
	stp	x28, x27, [sp, #-96]!           ; 16-byte Folded Spill
	.cfi_def_cfa_offset 96
	stp	x26, x25, [sp, #16]             ; 16-byte Folded Spill
	stp	x24, x23, [sp, #32]             ; 16-byte Folded Spill
	stp	x22, x21, [sp, #48]             ; 16-byte Folded Spill
	stp	x20, x19, [sp, #64]             ; 16-byte Folded Spill
	stp	x29, x30, [sp, #80]             ; 16-byte Folded Spill
	add	x29, sp, #80
	.cfi_def_cfa w29, 16
	.cfi_offset w30, -8
	.cfi_offset w29, -16
	.cfi_offset w19, -24
	.cfi_offset w20, -32
	.cfi_offset w21, -40
	.cfi_offset w22, -48
	.cfi_offset w23, -56
	.cfi_offset w24, -64
	.cfi_offset w25, -72
	.cfi_offset w26, -80
	.cfi_offset w27, -88
	.cfi_offset w28, -96
	sub	sp, sp, #1536
	mov	x20, x1
Ltmp373:
	;DEBUG_VALUE: main:argv <- $x20
	mov	x21, x0
Ltmp374:
	;DEBUG_VALUE: main:argc <- $w21
Lloh114:
	adrp	x8, ___stack_chk_guard@GOTPAGE
Lloh115:
	ldr	x8, [x8, ___stack_chk_guard@GOTPAGEOFF]
Lloh116:
	ldr	x8, [x8]
	stur	x8, [x29, #-96]
Ltmp375:
	.loc	1 431 27 prologue_end           ; which.c:431:27
Lloh117:
	adrp	x0, l_.str.7@PAGE
Lloh118:
	add	x0, x0, l_.str.7@PAGEOFF
	bl	_getenv
Ltmp376:
	.loc	1 0 27 is_stmt 0                ; which.c:0:27
	str	x0, [sp, #56]                   ; 8-byte Folded Spill
Ltmp377:
	;DEBUG_VALUE: main:fail_count <- 0
	;DEBUG_VALUE: main:path_list <- [DW_OP_plus_uconst 56] [$sp+0]
	.loc	1 434 17 is_stmt 1              ; which.c:434:17
Lloh119:
	adrp	x1, l___const.main.longopts@PAGE
Lloh120:
	add	x1, x1, l___const.main.longopts@PAGEOFF
	add	x0, sp, #1104
	mov	w2, #416
	bl	_memcpy
Ltmp378:
	.loc	1 0 17 is_stmt 0                ; which.c:0:17
Lloh121:
	adrp	x22, l_.str.20@PAGE
Lloh122:
	add	x22, x22, l_.str.20@PAGEOFF
	.loc	1 450 14 is_stmt 1              ; which.c:450:14
	ldr	x8, [x20]
	adrp	x25, _main.long_option@PAGE
	.loc	1 450 12 is_stmt 0              ; which.c:450:12
	adrp	x9, _progname@PAGE
	str	x8, [x9, _progname@PAGEOFF]
	adrp	x26, ___llvm_gcov_ctr.6@PAGE+104
	mov	w19, #1
	adrp	x28, ___llvm_gcov_ctr.6@PAGE+120
	adrp	x24, ___llvm_gcov_ctr.6@PAGE
	adrp	x23, ___llvm_gcov_ctr.6@PAGE+8
Lloh123:
	adrp	x27, lJTI4_0@PAGE
Lloh124:
	add	x27, x27, lJTI4_0@PAGEOFF
	b	LBB4_3
Ltmp379:
LBB4_1:                                 ;   in Loop: Header=BB4_3 Depth=1
	;DEBUG_VALUE: main:short_option <- $w0
	;DEBUG_VALUE: main:path_list <- [DW_OP_plus_uconst 56] [$sp+0]
	;DEBUG_VALUE: main:fail_count <- 0
	;DEBUG_VALUE: main:argc <- $w21
	;DEBUG_VALUE: main:argv <- $x20
	.loc	1 491 11 is_stmt 1              ; which.c:491:11
	ldr	x8, [x24, ___llvm_gcov_ctr.6@PAGEOFF]
	add	x8, x8, #1
	str	x8, [x24, ___llvm_gcov_ctr.6@PAGEOFF]
	adrp	x8, _show_all@PAGE
	strb	w19, [x8, _show_all@PAGEOFF]
Ltmp380:
LBB4_2:                                 ;   in Loop: Header=BB4_3 Depth=1
	;DEBUG_VALUE: main:path_list <- [DW_OP_plus_uconst 56] [$sp+0]
	;DEBUG_VALUE: main:fail_count <- 0
	;DEBUG_VALUE: main:argc <- $w21
	;DEBUG_VALUE: main:argv <- $x20
	.loc	1 451 3                         ; which.c:451:3
	ldr	x8, [x28, ___llvm_gcov_ctr.6@PAGEOFF+120]
	add	x8, x8, #1
	str	x8, [x28, ___llvm_gcov_ctr.6@PAGEOFF+120]
Ltmp381:
LBB4_3:                                 ; =>This Inner Loop Header: Depth=1
	;DEBUG_VALUE: main:path_list <- [DW_OP_plus_uconst 56] [$sp+0]
	;DEBUG_VALUE: main:fail_count <- 0
	;DEBUG_VALUE: main:argc <- $w21
	;DEBUG_VALUE: main:argv <- $x20
	.loc	1 451 26 is_stmt 0              ; which.c:451:26
	add	x3, sp, #1104
	mov	x0, x21
	mov	x1, x20
	mov	x2, x22
	mov	x4, #0
	bl	_getopt_long
Ltmp382:
	;DEBUG_VALUE: main:short_option <- $w0
	.loc	1 451 3                         ; which.c:451:3
	sub	w8, w0, #86
	cmp	w8, #32
	b.hi	LBB4_6
Ltmp383:
; %bb.4:                                ;   in Loop: Header=BB4_3 Depth=1
	;DEBUG_VALUE: main:short_option <- $w0
	;DEBUG_VALUE: main:path_list <- [DW_OP_plus_uconst 56] [$sp+0]
	;DEBUG_VALUE: main:fail_count <- 0
	;DEBUG_VALUE: main:argc <- $w21
	;DEBUG_VALUE: main:argv <- $x20
	.loc	1 0 3                           ; which.c:0:3
	adr	x9, LBB4_1
	ldrb	w10, [x27, x8]
	add	x9, x9, x10, lsl #2
	br	x9
Ltmp384:
LBB4_5:                                 ;   in Loop: Header=BB4_3 Depth=1
	;DEBUG_VALUE: main:short_option <- $w0
	;DEBUG_VALUE: main:path_list <- [DW_OP_plus_uconst 56] [$sp+0]
	;DEBUG_VALUE: main:fail_count <- 0
	;DEBUG_VALUE: main:argc <- $w21
	;DEBUG_VALUE: main:argv <- $x20
	.loc	1 494 20 is_stmt 1              ; which.c:494:20
	ldr	x8, [x23, ___llvm_gcov_ctr.6@PAGEOFF+8]
	add	x8, x8, #1
	str	x8, [x23, ___llvm_gcov_ctr.6@PAGEOFF+8]
	adrp	x8, _read_alias@PAGE
	strb	w19, [x8, _read_alias@PAGEOFF]
	b	LBB4_2
Ltmp385:
LBB4_6:                                 ;   in Loop: Header=BB4_3 Depth=1
	;DEBUG_VALUE: main:short_option <- $w0
	;DEBUG_VALUE: main:path_list <- [DW_OP_plus_uconst 56] [$sp+0]
	;DEBUG_VALUE: main:fail_count <- 0
	;DEBUG_VALUE: main:argc <- $w21
	;DEBUG_VALUE: main:argv <- $x20
	.loc	1 451 3                         ; which.c:451:3
	cbz	w0, LBB4_8
Ltmp386:
; %bb.7:                                ;   in Loop: Header=BB4_3 Depth=1
	;DEBUG_VALUE: main:short_option <- $w0
	;DEBUG_VALUE: main:path_list <- [DW_OP_plus_uconst 56] [$sp+0]
	;DEBUG_VALUE: main:fail_count <- 0
	;DEBUG_VALUE: main:argc <- $w21
	;DEBUG_VALUE: main:argv <- $x20
	cmn	w0, #1
	b.ne	LBB4_2
	b	LBB4_27
Ltmp387:
LBB4_8:                                 ;   in Loop: Header=BB4_3 Depth=1
	;DEBUG_VALUE: main:short_option <- $w0
	;DEBUG_VALUE: main:path_list <- [DW_OP_plus_uconst 56] [$sp+0]
	;DEBUG_VALUE: main:fail_count <- 0
	;DEBUG_VALUE: main:argc <- $w21
	;DEBUG_VALUE: main:argv <- $x20
	.loc	1 456 10                        ; which.c:456:10
	ldr	w8, [x25, _main.long_option@PAGEOFF]
	.loc	1 456 2 is_stmt 0               ; which.c:456:2
	cmp	w8, #9
	b.hi	LBB4_21
Ltmp388:
; %bb.9:                                ;   in Loop: Header=BB4_3 Depth=1
	;DEBUG_VALUE: main:short_option <- $w0
	;DEBUG_VALUE: main:path_list <- [DW_OP_plus_uconst 56] [$sp+0]
	;DEBUG_VALUE: main:fail_count <- 0
	;DEBUG_VALUE: main:argc <- $w21
	;DEBUG_VALUE: main:argv <- $x20
	.loc	1 0 2                           ; which.c:0:2
Lloh125:
	adrp	x11, lJTI4_1@PAGE
Lloh126:
	add	x11, x11, lJTI4_1@PAGEOFF
	adr	x9, LBB4_10
	ldrh	w10, [x11, x8, lsl  #1]
	add	x9, x9, x10, lsl #2
	br	x9
Ltmp389:
LBB4_10:                                ;   in Loop: Header=BB4_3 Depth=1
	;DEBUG_VALUE: main:short_option <- $w0
	;DEBUG_VALUE: main:path_list <- [DW_OP_plus_uconst 56] [$sp+0]
	;DEBUG_VALUE: main:fail_count <- 0
	;DEBUG_VALUE: main:argc <- $w21
	;DEBUG_VALUE: main:argv <- $x20
Lloh127:
	adrp	x9, ___llvm_gcov_ctr.6@PAGE+32
Ltmp390:
	.loc	1 465 18 is_stmt 1              ; which.c:465:18
	ldr	x8, [x9, ___llvm_gcov_ctr.6@PAGEOFF+32]
	add	x8, x8, #1
	str	x8, [x9, ___llvm_gcov_ctr.6@PAGEOFF+32]
Lloh128:
	adrp	x8, _tty_only@PAGE
Lloh129:
	ldr	w8, [x8, _tty_only@PAGEOFF]
	.loc	1 465 17 is_stmt 0              ; which.c:465:17
	cmp	w8, #0
	cset	w8, eq
	.loc	1 465 15                        ; which.c:465:15
Lloh130:
	adrp	x9, _skip_dot@PAGE
	str	w8, [x9, _skip_dot@PAGEOFF]
	b	LBB4_21
Ltmp391:
LBB4_11:                                ;   in Loop: Header=BB4_3 Depth=1
	;DEBUG_VALUE: main:short_option <- $w0
	;DEBUG_VALUE: main:path_list <- [DW_OP_plus_uconst 56] [$sp+0]
	;DEBUG_VALUE: main:fail_count <- 0
	;DEBUG_VALUE: main:argc <- $w21
	;DEBUG_VALUE: main:argv <- $x20
	.loc	1 0 15                          ; which.c:0:15
Lloh131:
	adrp	x9, ___llvm_gcov_ctr.6@PAGE+40
	.loc	1 468 20 is_stmt 1              ; which.c:468:20
	ldr	x8, [x9, ___llvm_gcov_ctr.6@PAGEOFF+40]
	add	x8, x8, #1
	str	x8, [x9, ___llvm_gcov_ctr.6@PAGEOFF+40]
Lloh132:
	adrp	x8, _tty_only@PAGE
Lloh133:
	ldr	w8, [x8, _tty_only@PAGEOFF]
	.loc	1 468 19 is_stmt 0              ; which.c:468:19
	cmp	w8, #0
	cset	w8, eq
	.loc	1 468 17                        ; which.c:468:17
Lloh134:
	adrp	x9, _skip_tilde@PAGE
	str	w8, [x9, _skip_tilde@PAGEOFF]
	b	LBB4_21
Ltmp392:
LBB4_12:                                ;   in Loop: Header=BB4_3 Depth=1
	;DEBUG_VALUE: main:short_option <- $w0
	;DEBUG_VALUE: main:path_list <- [DW_OP_plus_uconst 56] [$sp+0]
	;DEBUG_VALUE: main:fail_count <- 0
	;DEBUG_VALUE: main:argc <- $w21
	;DEBUG_VALUE: main:argv <- $x20
	.loc	1 0 17                          ; which.c:0:17
	adrp	x9, ___llvm_gcov_ctr.6@PAGE+48
	.loc	1 471 17 is_stmt 1              ; which.c:471:17
	ldr	x8, [x9, ___llvm_gcov_ctr.6@PAGEOFF+48]
	add	x8, x8, #1
	str	x8, [x9, ___llvm_gcov_ctr.6@PAGEOFF+48]
	adrp	x8, _skip_alias@PAGE
	strb	w19, [x8, _skip_alias@PAGEOFF]
	b	LBB4_21
Ltmp393:
LBB4_13:                                ;   in Loop: Header=BB4_3 Depth=1
	;DEBUG_VALUE: main:short_option <- $w0
	;DEBUG_VALUE: main:path_list <- [DW_OP_plus_uconst 56] [$sp+0]
	;DEBUG_VALUE: main:fail_count <- 0
	;DEBUG_VALUE: main:argc <- $w21
	;DEBUG_VALUE: main:argv <- $x20
	.loc	1 0 17 is_stmt 0                ; which.c:0:17
	adrp	x9, ___llvm_gcov_ctr.6@PAGE+88
	.loc	1 483 21 is_stmt 1              ; which.c:483:21
	ldr	x8, [x9, ___llvm_gcov_ctr.6@PAGEOFF+88]
	add	x8, x8, #1
	str	x8, [x9, ___llvm_gcov_ctr.6@PAGEOFF+88]
	adrp	x8, _read_functions@PAGE
	strb	w19, [x8, _read_functions@PAGEOFF]
	b	LBB4_21
Ltmp394:
LBB4_14:                                ;   in Loop: Header=BB4_3 Depth=1
	;DEBUG_VALUE: main:short_option <- $w0
	;DEBUG_VALUE: main:path_list <- [DW_OP_plus_uconst 56] [$sp+0]
	;DEBUG_VALUE: main:fail_count <- 0
	;DEBUG_VALUE: main:argc <- $w21
	;DEBUG_VALUE: main:argv <- $x20
	.loc	1 0 21 is_stmt 0                ; which.c:0:21
	adrp	x9, ___llvm_gcov_ctr.6@PAGE+96
	.loc	1 486 21 is_stmt 1              ; which.c:486:21
	ldr	x8, [x9, ___llvm_gcov_ctr.6@PAGEOFF+96]
	add	x8, x8, #1
	str	x8, [x9, ___llvm_gcov_ctr.6@PAGEOFF+96]
	adrp	x8, _skip_functions@PAGE
	strb	w19, [x8, _skip_functions@PAGEOFF]
	b	LBB4_21
Ltmp395:
LBB4_15:                                ;   in Loop: Header=BB4_3 Depth=1
	;DEBUG_VALUE: main:short_option <- $w0
	;DEBUG_VALUE: main:path_list <- [DW_OP_plus_uconst 56] [$sp+0]
	;DEBUG_VALUE: main:fail_count <- 0
	;DEBUG_VALUE: main:argc <- $w21
	;DEBUG_VALUE: main:argv <- $x20
	.loc	1 0 21 is_stmt 0                ; which.c:0:21
Lloh135:
	adrp	x9, ___llvm_gcov_ctr.6@PAGE+56
	.loc	1 474 18 is_stmt 1              ; which.c:474:18
	ldr	x8, [x9, ___llvm_gcov_ctr.6@PAGEOFF+56]
	add	x8, x8, #1
	str	x8, [x9, ___llvm_gcov_ctr.6@PAGEOFF+56]
Lloh136:
	adrp	x8, _tty_only@PAGE
Lloh137:
	ldr	w8, [x8, _tty_only@PAGEOFF]
	.loc	1 474 17 is_stmt 0              ; which.c:474:17
	cmp	w8, #0
	cset	w8, eq
	.loc	1 474 15                        ; which.c:474:15
Lloh138:
	adrp	x9, _show_dot@PAGE
	str	w8, [x9, _show_dot@PAGEOFF]
	b	LBB4_21
Ltmp396:
LBB4_16:                                ;   in Loop: Header=BB4_3 Depth=1
	;DEBUG_VALUE: main:short_option <- $w0
	;DEBUG_VALUE: main:path_list <- [DW_OP_plus_uconst 56] [$sp+0]
	;DEBUG_VALUE: main:fail_count <- 0
	;DEBUG_VALUE: main:argc <- $w21
	;DEBUG_VALUE: main:argv <- $x20
	.loc	1 477 21 is_stmt 1              ; which.c:477:21
Lloh139:
	adrp	x8, _tty_only@PAGE
Lloh140:
	ldr	w8, [x8, _tty_only@PAGEOFF]
	.loc	1 477 30 is_stmt 0              ; which.c:477:30
	cbz	w8, LBB4_19
Ltmp397:
; %bb.17:                               ;   in Loop: Header=BB4_3 Depth=1
	;DEBUG_VALUE: main:short_option <- $w0
	;DEBUG_VALUE: main:path_list <- [DW_OP_plus_uconst 56] [$sp+0]
	;DEBUG_VALUE: main:fail_count <- 0
	;DEBUG_VALUE: main:argc <- $w21
	;DEBUG_VALUE: main:argv <- $x20
	.loc	1 0 30                          ; which.c:0:30
	mov	w8, #0
	b	LBB4_20
Ltmp398:
LBB4_18:                                ;   in Loop: Header=BB4_3 Depth=1
	;DEBUG_VALUE: main:short_option <- $w0
	;DEBUG_VALUE: main:path_list <- [DW_OP_plus_uconst 56] [$sp+0]
	;DEBUG_VALUE: main:fail_count <- 0
	;DEBUG_VALUE: main:argc <- $w21
	;DEBUG_VALUE: main:argv <- $x20
	adrp	x9, ___llvm_gcov_ctr.6@PAGE+80
	.loc	1 480 18 is_stmt 1              ; which.c:480:18
	ldr	x8, [x9, ___llvm_gcov_ctr.6@PAGEOFF+80]
	add	x8, x8, #1
	str	x8, [x9, ___llvm_gcov_ctr.6@PAGEOFF+80]
	mov	w0, #1
Ltmp399:
	bl	_isatty
Ltmp400:
	.loc	1 480 17 is_stmt 0              ; which.c:480:17
	cmp	w0, #0
	cset	w8, eq
	.loc	1 480 15                        ; which.c:480:15
	adrp	x9, _tty_only@PAGE
	str	w8, [x9, _tty_only@PAGEOFF]
	b	LBB4_21
Ltmp401:
LBB4_19:                                ;   in Loop: Header=BB4_3 Depth=1
	;DEBUG_VALUE: main:short_option <- $w0
	;DEBUG_VALUE: main:path_list <- [DW_OP_plus_uconst 56] [$sp+0]
	;DEBUG_VALUE: main:fail_count <- 0
	;DEBUG_VALUE: main:argc <- $w21
	;DEBUG_VALUE: main:argv <- $x20
	.loc	1 0 15                          ; which.c:0:15
	adrp	x9, ___llvm_gcov_ctr.6@PAGE+64
	.loc	1 477 33 is_stmt 1              ; which.c:477:33
	ldr	x8, [x9, ___llvm_gcov_ctr.6@PAGEOFF+64]
	add	x8, x8, #1
	str	x8, [x9, ___llvm_gcov_ctr.6@PAGEOFF+64]
	bl	_geteuid
Ltmp402:
	.loc	1 477 43 is_stmt 0              ; which.c:477:43
	cmp	w0, #0
	cset	w8, ne
Ltmp403:
LBB4_20:                                ;   in Loop: Header=BB4_3 Depth=1
	;DEBUG_VALUE: main:path_list <- [DW_OP_plus_uconst 56] [$sp+0]
	;DEBUG_VALUE: main:fail_count <- 0
	;DEBUG_VALUE: main:argc <- $w21
	;DEBUG_VALUE: main:argv <- $x20
	.loc	1 0 43                          ; which.c:0:43
	adrp	x10, ___llvm_gcov_ctr.6@PAGE+72
	.loc	1 477 30                        ; which.c:477:30
	ldr	x9, [x10, ___llvm_gcov_ctr.6@PAGEOFF+72]
	add	x9, x9, #1
	str	x9, [x10, ___llvm_gcov_ctr.6@PAGEOFF+72]
	.loc	1 477 17                        ; which.c:477:17
	adrp	x9, _show_tilde@PAGE
	str	w8, [x9, _show_tilde@PAGEOFF]
Ltmp404:
LBB4_21:                                ;   in Loop: Header=BB4_3 Depth=1
	;DEBUG_VALUE: main:path_list <- [DW_OP_plus_uconst 56] [$sp+0]
	;DEBUG_VALUE: main:fail_count <- 0
	;DEBUG_VALUE: main:argc <- $w21
	;DEBUG_VALUE: main:argv <- $x20
	.loc	1 489 2 is_stmt 1               ; which.c:489:2
	ldr	x8, [x26, ___llvm_gcov_ctr.6@PAGEOFF+104]
	add	x8, x8, #1
	str	x8, [x26, ___llvm_gcov_ctr.6@PAGEOFF+104]
	b	LBB4_2
Ltmp405:
LBB4_22:                                ; %._crit_edge1
	;DEBUG_VALUE: main:short_option <- $w0
	;DEBUG_VALUE: main:path_list <- [DW_OP_plus_uconst 56] [$sp+0]
	;DEBUG_VALUE: main:fail_count <- 0
	;DEBUG_VALUE: main:argc <- $w21
	;DEBUG_VALUE: main:argv <- $x20
	.loc	1 498 2                         ; which.c:498:2
	adrp	x8, ___llvm_gcov_ctr.6@PAGE+112
	ldr	x9, [x8, ___llvm_gcov_ctr.6@PAGEOFF+112]
	add	x9, x9, #1
	str	x9, [x8, ___llvm_gcov_ctr.6@PAGEOFF+112]
Ltmp406:
LBB4_23:
	;DEBUG_VALUE: main:short_option <- $w0
	;DEBUG_VALUE: main:path_list <- [DW_OP_plus_uconst 56] [$sp+0]
	;DEBUG_VALUE: main:fail_count <- 0
	;DEBUG_VALUE: main:argc <- $w21
	;DEBUG_VALUE: main:argv <- $x20
	.loc	1 0 0 is_stmt 0                 ; which.c:0:0
	adrp	x8, ___llvm_gcov_ctr.8@PAGE
	ldr	x9, [x8, ___llvm_gcov_ctr.8@PAGEOFF]
	add	x9, x9, #1
	str	x9, [x8, ___llvm_gcov_ctr.8@PAGEOFF]
Lloh141:
	adrp	x19, ___stdoutp@GOTPAGE
Lloh142:
	ldr	x19, [x19, ___stdoutp@GOTPAGEOFF]
	ldr	x3, [x19]
Lloh143:
	adrp	x0, l_.str.52@PAGE
Ltmp407:
Lloh144:
	add	x0, x0, l_.str.52@PAGEOFF
	mov	w1, #55
	mov	w2, #1
	bl	_fwrite
Ltmp408:
	ldr	x3, [x19]
Lloh145:
	adrp	x0, l_.str.53@PAGE
Lloh146:
	add	x0, x0, l_.str.53@PAGEOFF
	mov	w1, #45
	mov	w2, #1
	bl	_fwrite
Ltmp409:
	ldr	x3, [x19]
Lloh147:
	adrp	x0, l_.str.54@PAGE
Lloh148:
	add	x0, x0, l_.str.54@PAGEOFF
	mov	w1, #59
	mov	w2, #1
	bl	_fwrite
Ltmp410:
	ldr	x3, [x19]
Lloh149:
	adrp	x0, l_.str.55@PAGE
Lloh150:
	add	x0, x0, l_.str.55@PAGEOFF
	mov	w1, #53
	mov	w2, #1
	bl	_fwrite
Ltmp411:
LBB4_24:
	;DEBUG_VALUE: main:path_list <- [DW_OP_plus_uconst 56] [$sp+0]
	;DEBUG_VALUE: main:fail_count <- 0
	;DEBUG_VALUE: main:argc <- $w21
	;DEBUG_VALUE: main:argv <- $x20
	mov	w23, #0
Ltmp412:
LBB4_25:
	;DEBUG_VALUE: main:path_list <- [DW_OP_plus_uconst 56] [$sp+0]
	ldur	x8, [x29, #-96]
Lloh151:
	adrp	x9, ___stack_chk_guard@GOTPAGE
Lloh152:
	ldr	x9, [x9, ___stack_chk_guard@GOTPAGEOFF]
Lloh153:
	ldr	x9, [x9]
	cmp	x9, x8
	b.ne	LBB4_145
Ltmp413:
; %bb.26:
	;DEBUG_VALUE: main:path_list <- [DW_OP_plus_uconst 56] [$sp+0]
	.loc	1 675 1 is_stmt 1               ; which.c:675:1
	mov	x0, x23
	add	sp, sp, #1536
Ltmp414:
	ldp	x29, x30, [sp, #80]             ; 16-byte Folded Reload
	ldp	x20, x19, [sp, #64]             ; 16-byte Folded Reload
	ldp	x22, x21, [sp, #48]             ; 16-byte Folded Reload
	ldp	x24, x23, [sp, #32]             ; 16-byte Folded Reload
	ldp	x26, x25, [sp, #16]             ; 16-byte Folded Reload
	ldp	x28, x27, [sp], #96             ; 16-byte Folded Reload
	ret
LBB4_27:
Ltmp415:
	;DEBUG_VALUE: main:short_option <- $w0
	;DEBUG_VALUE: main:path_list <- [DW_OP_plus_uconst 56] [$sp+0]
	;DEBUG_VALUE: main:fail_count <- 0
	;DEBUG_VALUE: main:argc <- $w21
	;DEBUG_VALUE: main:argv <- $x20
	.loc	1 503 3                         ; which.c:503:3
	bl	_uidget
Ltmp416:
	.loc	1 505 7                         ; which.c:505:7
Lloh154:
	adrp	x8, _show_dot@PAGE
Lloh155:
	ldr	w8, [x8, _show_dot@PAGEOFF]
Ltmp417:
	.loc	1 505 7 is_stmt 0               ; which.c:505:7
	cbz	w8, LBB4_29
Ltmp418:
; %bb.28:
	;DEBUG_VALUE: main:path_list <- [DW_OP_plus_uconst 56] [$sp+0]
	;DEBUG_VALUE: main:fail_count <- 0
	;DEBUG_VALUE: main:argc <- $w21
	;DEBUG_VALUE: main:argv <- $x20
	.loc	1 506 5 is_stmt 1               ; which.c:506:5
	adrp	x8, ___llvm_gcov_ctr.6@PAGE+128
	ldr	x9, [x8, ___llvm_gcov_ctr.6@PAGEOFF+128]
	add	x9, x9, #1
	str	x9, [x8, ___llvm_gcov_ctr.6@PAGEOFF+128]
	bl	_get_current_working_directory
Ltmp419:
LBB4_29:
	;DEBUG_VALUE: main:path_list <- [DW_OP_plus_uconst 56] [$sp+0]
	;DEBUG_VALUE: main:fail_count <- 0
	;DEBUG_VALUE: main:argc <- $w21
	;DEBUG_VALUE: main:argv <- $x20
	.loc	1 508 7                         ; which.c:508:7
Lloh156:
	adrp	x8, _show_tilde@PAGE
Lloh157:
	ldr	w8, [x8, _show_tilde@PAGEOFF]
	.loc	1 508 18 is_stmt 0              ; which.c:508:18
	cbnz	w8, LBB4_31
Ltmp420:
; %bb.30:
	;DEBUG_VALUE: main:path_list <- [DW_OP_plus_uconst 56] [$sp+0]
	;DEBUG_VALUE: main:fail_count <- 0
	;DEBUG_VALUE: main:argc <- $w21
	;DEBUG_VALUE: main:argv <- $x20
	.loc	1 508 21                        ; which.c:508:21
Lloh158:
	adrp	x8, ___llvm_gcov_ctr.6@PAGE+136
	ldr	x9, [x8, ___llvm_gcov_ctr.6@PAGEOFF+136]
	add	x9, x9, #1
	str	x9, [x8, ___llvm_gcov_ctr.6@PAGEOFF+136]
Lloh159:
	adrp	x8, _skip_tilde@PAGE
Lloh160:
	ldr	w8, [x8, _skip_tilde@PAGEOFF]
Ltmp421:
	.loc	1 508 7                         ; which.c:508:7
	cbz	w8, LBB4_37
Ltmp422:
LBB4_31:
	;DEBUG_VALUE: main:path_list <- [DW_OP_plus_uconst 56] [$sp+0]
	;DEBUG_VALUE: main:fail_count <- 0
	;DEBUG_VALUE: main:argc <- $w21
	;DEBUG_VALUE: main:argv <- $x20
	.loc	1 512 15 is_stmt 1              ; which.c:512:15
Lloh161:
	adrp	x0, l_.str.21@PAGE
Lloh162:
	add	x0, x0, l_.str.21@PAGEOFF
	bl	_getenv
Ltmp423:
	mov	x1, x0
Ltmp424:
	;DEBUG_VALUE: h <- $x1
	.loc	1 512 9 is_stmt 0               ; which.c:512:9
	cbnz	x0, LBB4_33
Ltmp425:
; %bb.32:
	;DEBUG_VALUE: h <- $x1
	;DEBUG_VALUE: main:path_list <- [DW_OP_plus_uconst 56] [$sp+0]
	;DEBUG_VALUE: main:fail_count <- 0
	;DEBUG_VALUE: main:argc <- $w21
	;DEBUG_VALUE: main:argv <- $x20
	.loc	1 513 11 is_stmt 1              ; which.c:513:11
	adrp	x8, ___llvm_gcov_ctr.6@PAGE+144
	ldr	x9, [x8, ___llvm_gcov_ctr.6@PAGEOFF+144]
	add	x9, x9, #1
	str	x9, [x8, ___llvm_gcov_ctr.6@PAGEOFF+144]
	bl	_sh_get_home_dir
Ltmp426:
	mov	x1, x0
Ltmp427:
	;DEBUG_VALUE: h <- $x1
LBB4_33:
	;DEBUG_VALUE: h <- $x1
	;DEBUG_VALUE: main:path_list <- [DW_OP_plus_uconst 56] [$sp+0]
	;DEBUG_VALUE: main:fail_count <- 0
	;DEBUG_VALUE: main:argc <- $w21
	;DEBUG_VALUE: main:argv <- $x20
	;DEBUG_VALUE: h <- $x1
	.loc	1 515 5                         ; which.c:515:5
Lloh163:
	adrp	x22, _home@PAGE
Lloh164:
	add	x22, x22, _home@PAGEOFF
	mov	x0, x22
	mov	w2, #256
	bl	_strncpy
Ltmp428:
	.loc	1 516 28                        ; which.c:516:28
	strb	wzr, [x22, #255]
	.loc	1 517 15                        ; which.c:517:15
	bl	_strlen
Ltmp429:
	.loc	1 517 13 is_stmt 0              ; which.c:517:13
	adrp	x19, _homelen@PAGE
	str	x0, [x19, _homelen@PAGEOFF]
Ltmp430:
	.loc	1 518 22 is_stmt 1              ; which.c:518:22
	add	x8, x0, x22
	.loc	1 518 9 is_stmt 0               ; which.c:518:9
	ldurb	w8, [x8, #-1]
	.loc	1 518 34                        ; which.c:518:34
	cmp	w8, #47
	b.eq	LBB4_36
Ltmp431:
; %bb.34:
	;DEBUG_VALUE: main:path_list <- [DW_OP_plus_uconst 56] [$sp+0]
	;DEBUG_VALUE: main:fail_count <- 0
	;DEBUG_VALUE: main:argc <- $w21
	;DEBUG_VALUE: main:argv <- $x20
	.loc	1 518 37                        ; which.c:518:37
	adrp	x8, ___llvm_gcov_ctr.6@PAGE+152
	ldr	x9, [x8, ___llvm_gcov_ctr.6@PAGEOFF+152]
	add	x9, x9, #1
	str	x9, [x8, ___llvm_gcov_ctr.6@PAGEOFF+152]
Ltmp432:
	.loc	1 518 9                         ; which.c:518:9
	cmp	x0, #254
	b.hi	LBB4_36
Ltmp433:
; %bb.35:
	;DEBUG_VALUE: main:path_list <- [DW_OP_plus_uconst 56] [$sp+0]
	;DEBUG_VALUE: main:fail_count <- 0
	;DEBUG_VALUE: main:argc <- $w21
	;DEBUG_VALUE: main:argv <- $x20
	.loc	1 520 7 is_stmt 1               ; which.c:520:7
	adrp	x8, ___llvm_gcov_ctr.6@PAGE+160
	ldr	x9, [x8, ___llvm_gcov_ctr.6@PAGEOFF+160]
	add	x9, x9, #1
	str	x9, [x8, ___llvm_gcov_ctr.6@PAGEOFF+160]
Lloh165:
	adrp	x0, _home@PAGE
Lloh166:
	add	x0, x0, _home@PAGEOFF
Lloh167:
	adrp	x1, l_.str.22@PAGE
Lloh168:
	add	x1, x1, l_.str.22@PAGEOFF
	mov	w2, #256
	bl	___strcat_chk
Ltmp434:
	.loc	1 521 7                         ; which.c:521:7
	ldr	x8, [x19, _homelen@PAGEOFF]
	add	x8, x8, #1
	str	x8, [x19, _homelen@PAGEOFF]
Ltmp435:
LBB4_36:
	;DEBUG_VALUE: main:path_list <- [DW_OP_plus_uconst 56] [$sp+0]
	;DEBUG_VALUE: main:fail_count <- 0
	;DEBUG_VALUE: main:argc <- $w21
	;DEBUG_VALUE: main:argv <- $x20
	.loc	1 523 3                         ; which.c:523:3
	adrp	x8, ___llvm_gcov_ctr.6@PAGE+168
	ldr	x9, [x8, ___llvm_gcov_ctr.6@PAGEOFF+168]
	add	x9, x9, #1
	str	x9, [x8, ___llvm_gcov_ctr.6@PAGEOFF+168]
Ltmp436:
LBB4_37:
	;DEBUG_VALUE: main:path_list <- [DW_OP_plus_uconst 56] [$sp+0]
	;DEBUG_VALUE: main:fail_count <- 0
	;DEBUG_VALUE: main:argc <- $w21
	;DEBUG_VALUE: main:argv <- $x20
	.loc	1 525 7                         ; which.c:525:7
	adrp	x8, _skip_alias@PAGE
	ldrb	w8, [x8, _skip_alias@PAGEOFF]
Ltmp437:
	.loc	1 525 7 is_stmt 0               ; which.c:525:7
	cmp	w8, #1
	b.ne	LBB4_39
Ltmp438:
; %bb.38:
	;DEBUG_VALUE: main:path_list <- [DW_OP_plus_uconst 56] [$sp+0]
	;DEBUG_VALUE: main:fail_count <- 0
	;DEBUG_VALUE: main:argc <- $w21
	;DEBUG_VALUE: main:argv <- $x20
	.loc	1 526 16 is_stmt 1              ; which.c:526:16
Lloh169:
	adrp	x8, ___llvm_gcov_ctr.6@PAGE+176
	ldr	x9, [x8, ___llvm_gcov_ctr.6@PAGEOFF+176]
	add	x9, x9, #1
	str	x9, [x8, ___llvm_gcov_ctr.6@PAGEOFF+176]
Lloh170:
	adrp	x8, _read_alias@PAGE
	strb	wzr, [x8, _read_alias@PAGEOFF]
Ltmp439:
LBB4_39:
	;DEBUG_VALUE: main:path_list <- [DW_OP_plus_uconst 56] [$sp+0]
	;DEBUG_VALUE: main:fail_count <- 0
	;DEBUG_VALUE: main:argc <- $w21
	;DEBUG_VALUE: main:argv <- $x20
	.loc	1 528 7                         ; which.c:528:7
	adrp	x8, _skip_functions@PAGE
	ldrb	w8, [x8, _skip_functions@PAGEOFF]
Ltmp440:
	.loc	1 528 7 is_stmt 0               ; which.c:528:7
	cmp	w8, #1
	b.ne	LBB4_41
Ltmp441:
; %bb.40:
	;DEBUG_VALUE: main:path_list <- [DW_OP_plus_uconst 56] [$sp+0]
	;DEBUG_VALUE: main:fail_count <- 0
	;DEBUG_VALUE: main:argc <- $w21
	;DEBUG_VALUE: main:argv <- $x20
	.loc	1 529 20 is_stmt 1              ; which.c:529:20
Lloh171:
	adrp	x8, ___llvm_gcov_ctr.6@PAGE+184
	ldr	x9, [x8, ___llvm_gcov_ctr.6@PAGEOFF+184]
	add	x9, x9, #1
	str	x9, [x8, ___llvm_gcov_ctr.6@PAGEOFF+184]
Lloh172:
	adrp	x8, _read_functions@PAGE
	strb	wzr, [x8, _read_functions@PAGEOFF]
Ltmp442:
LBB4_41:
	;DEBUG_VALUE: main:path_list <- [DW_OP_plus_uconst 56] [$sp+0]
	;DEBUG_VALUE: main:fail_count <- 0
	;DEBUG_VALUE: main:argc <- $w21
	;DEBUG_VALUE: main:argv <- $x20
	.loc	1 531 11                        ; which.c:531:11
Lloh173:
	adrp	x8, _optind@GOTPAGE
Lloh174:
	ldr	x8, [x8, _optind@GOTPAGEOFF]
Lloh175:
	ldrsw	x8, [x8]
Ltmp443:
	;DEBUG_VALUE: main:argv <- undef
	.loc	1 0 11 is_stmt 0                ; which.c:0:11
Lloh176:
	adrp	x10, ___stderrp@GOTPAGE
Lloh177:
	ldr	x10, [x10, ___stderrp@GOTPAGEOFF]
	.loc	1 532 8 is_stmt 1               ; which.c:532:8
	subs	w24, w21, w8
Ltmp444:
	;DEBUG_VALUE: main:argc <- $w24
	.loc	1 534 7                         ; which.c:534:7
	b.eq	LBB4_47
Ltmp445:
; %bb.42:
	;DEBUG_VALUE: main:argc <- $w24
	;DEBUG_VALUE: main:path_list <- [DW_OP_plus_uconst 56] [$sp+0]
	;DEBUG_VALUE: main:fail_count <- 0
	.loc	1 0 0 is_stmt 0                 ; which.c:0:0
	add	x20, x20, x8, lsl #3
Ltmp446:
	;DEBUG_VALUE: main:function_start_type <- 0
	;DEBUG_VALUE: main:argv <- $x20
	.loc	1 541 7 is_stmt 1               ; which.c:541:7
	adrp	x8, _read_alias@PAGE
	ldrb	w23, [x8, _read_alias@PAGEOFF]
	.loc	1 541 18 is_stmt 0              ; which.c:541:18
	tbnz	w23, #0, LBB4_44
Ltmp447:
; %bb.43:
	;DEBUG_VALUE: main:function_start_type <- 0
	;DEBUG_VALUE: main:argc <- $w24
	;DEBUG_VALUE: main:path_list <- [DW_OP_plus_uconst 56] [$sp+0]
	;DEBUG_VALUE: main:fail_count <- 0
	;DEBUG_VALUE: main:argv <- $x20
	.loc	1 541 21                        ; which.c:541:21
Lloh178:
	adrp	x8, ___llvm_gcov_ctr.6@PAGE+200
	ldr	x9, [x8, ___llvm_gcov_ctr.6@PAGEOFF+200]
	add	x9, x9, #1
	str	x9, [x8, ___llvm_gcov_ctr.6@PAGEOFF+200]
Lloh179:
	adrp	x8, _read_functions@PAGE
	ldrb	w8, [x8, _read_functions@PAGEOFF]
Ltmp448:
	.loc	1 541 7                         ; which.c:541:7
	cmp	w8, #1
	b.ne	LBB4_48
Ltmp449:
LBB4_44:
	;DEBUG_VALUE: main:function_start_type <- 0
	;DEBUG_VALUE: main:argc <- $w24
	;DEBUG_VALUE: main:path_list <- [DW_OP_plus_uconst 56] [$sp+0]
	;DEBUG_VALUE: main:fail_count <- 0
	;DEBUG_VALUE: main:argv <- $x20
	;DEBUG_VALUE: processing_aliases <- $w23
	.loc	1 546 9 is_stmt 1               ; which.c:546:9
	mov	w0, #0
	bl	_isatty
Ltmp450:
	.loc	1 546 9 is_stmt 0               ; which.c:546:9
	cbz	w0, LBB4_53
Ltmp451:
; %bb.45:
	;DEBUG_VALUE: processing_aliases <- $w23
	;DEBUG_VALUE: main:function_start_type <- 0
	;DEBUG_VALUE: main:argc <- $w24
	;DEBUG_VALUE: main:path_list <- [DW_OP_plus_uconst 56] [$sp+0]
	;DEBUG_VALUE: main:fail_count <- 0
	;DEBUG_VALUE: main:argv <- $x20
	.loc	1 548 15 is_stmt 1              ; which.c:548:15
Lloh180:
	adrp	x8, ___stderrp@GOTPAGE
Lloh181:
	ldr	x8, [x8, ___stderrp@GOTPAGEOFF]
Lloh182:
	ldr	x0, [x8]
	.loc	1 548 64 is_stmt 0              ; which.c:548:64
Lloh183:
	adrp	x8, _progname@PAGE
Lloh184:
	ldr	x8, [x8, _progname@PAGEOFF]
	.loc	1 549 12 is_stmt 1              ; which.c:549:12
	adrp	x9, _read_functions@PAGE
	ldrb	w9, [x9, _read_functions@PAGEOFF]
	cmp	w9, #1
	b.ne	LBB4_51
Ltmp452:
; %bb.46:
	;DEBUG_VALUE: processing_aliases <- $w23
	;DEBUG_VALUE: main:function_start_type <- 0
	;DEBUG_VALUE: main:argc <- $w24
	;DEBUG_VALUE: main:path_list <- [DW_OP_plus_uconst 56] [$sp+0]
	;DEBUG_VALUE: main:fail_count <- 0
	;DEBUG_VALUE: main:argv <- $x20
	.loc	1 549 29 is_stmt 0              ; which.c:549:29
Lloh185:
	adrp	x9, ___llvm_gcov_ctr.6@PAGE+208
	ldr	x10, [x9, ___llvm_gcov_ctr.6@PAGEOFF+208]
	add	x10, x10, #1
	str	x10, [x9, ___llvm_gcov_ctr.6@PAGEOFF+208]
Lloh186:
	adrp	x9, _read_alias@PAGE
	ldrb	w9, [x9, _read_alias@PAGEOFF]
Lloh187:
	adrp	x10, l_.str.25@PAGE
Lloh188:
	add	x10, x10, l_.str.25@PAGEOFF
Lloh189:
	adrp	x11, l_.str.24@PAGE
Lloh190:
	add	x11, x11, l_.str.24@PAGEOFF
	cmp	w9, #0
	csel	x9, x11, x10, ne
	b	LBB4_52
Ltmp453:
LBB4_47:
	;DEBUG_VALUE: main:argc <- $w24
	;DEBUG_VALUE: main:path_list <- [DW_OP_plus_uconst 56] [$sp+0]
	;DEBUG_VALUE: main:fail_count <- 0
	.loc	1 536 17 is_stmt 1              ; which.c:536:17
	adrp	x8, ___llvm_gcov_ctr.6@PAGE+192
	ldr	x9, [x8, ___llvm_gcov_ctr.6@PAGEOFF+192]
	add	x9, x9, #1
	str	x9, [x8, ___llvm_gcov_ctr.6@PAGEOFF+192]
	ldr	x0, [x10]
	.loc	1 536 5 is_stmt 0               ; which.c:536:5
	bl	_print_usage
Ltmp454:
	.loc	1 0 5                           ; which.c:0:5
	mov	w23, #-1
	b	LBB4_25
Ltmp455:
LBB4_48:
	;DEBUG_VALUE: main:function_start_type <- 0
	;DEBUG_VALUE: main:argc <- $w24
	;DEBUG_VALUE: main:path_list <- [DW_OP_plus_uconst 56] [$sp+0]
	;DEBUG_VALUE: main:fail_count <- 0
	;DEBUG_VALUE: main:argv <- $x20
	mov	w26, #0
	;DEBUG_VALUE: main:argc <- $w24
	;DEBUG_VALUE: main:argv <- $x20
	;DEBUG_VALUE: main:fail_count <- 0
Ltmp456:
	;DEBUG_VALUE: main:function_start_type <- $w26
	.loc	1 657 3 is_stmt 1               ; which.c:657:3
	cmp	w24, #1
	b.ge	LBB4_125
Ltmp457:
LBB4_49:
	;DEBUG_VALUE: main:function_start_type <- $w26
	;DEBUG_VALUE: main:argc <- $w24
	;DEBUG_VALUE: main:path_list <- [DW_OP_plus_uconst 56] [$sp+0]
	;DEBUG_VALUE: main:fail_count <- 0
	;DEBUG_VALUE: main:argv <- $x20
	.loc	1 0 3 is_stmt 0                 ; which.c:0:3
	mov	w23, #0
Ltmp458:
LBB4_50:                                ; %._crit_edge348
	;DEBUG_VALUE: main:function_start_type <- $w26
	;DEBUG_VALUE: main:path_list <- [DW_OP_plus_uconst 56] [$sp+0]
	;DEBUG_VALUE: main:argv <- $x20
	.loc	1 674 10 is_stmt 1              ; which.c:674:10
	adrp	x8, ___llvm_gcov_ctr.6@PAGE+568
	ldr	x9, [x8, ___llvm_gcov_ctr.6@PAGEOFF+568]
	add	x9, x9, #1
	str	x9, [x8, ___llvm_gcov_ctr.6@PAGEOFF+568]
	b	LBB4_25
Ltmp459:
LBB4_51:
	;DEBUG_VALUE: processing_aliases <- $w23
	;DEBUG_VALUE: main:function_start_type <- 0
	;DEBUG_VALUE: main:argc <- $w24
	;DEBUG_VALUE: main:path_list <- [DW_OP_plus_uconst 56] [$sp+0]
	;DEBUG_VALUE: main:fail_count <- 0
	;DEBUG_VALUE: main:argv <- $x20
	.loc	1 549 12                        ; which.c:549:12
Lloh191:
	adrp	x9, ___llvm_gcov_ctr.6@PAGE+216
	ldr	x10, [x9, ___llvm_gcov_ctr.6@PAGEOFF+216]
	add	x10, x10, #1
	str	x10, [x9, ___llvm_gcov_ctr.6@PAGEOFF+216]
Lloh192:
	adrp	x9, l_.str.26@PAGE
Lloh193:
	add	x9, x9, l_.str.26@PAGEOFF
Ltmp460:
LBB4_52:
	;DEBUG_VALUE: processing_aliases <- $w23
	;DEBUG_VALUE: main:function_start_type <- 0
	;DEBUG_VALUE: main:argc <- $w24
	;DEBUG_VALUE: main:path_list <- [DW_OP_plus_uconst 56] [$sp+0]
	;DEBUG_VALUE: main:fail_count <- 0
	;DEBUG_VALUE: main:argv <- $x20
	.loc	1 548 7                         ; which.c:548:7
	stp	x8, x9, [sp]
Lloh194:
	adrp	x1, l_.str.23@PAGE
Lloh195:
	add	x1, x1, l_.str.23@PAGEOFF
	bl	_fprintf
Ltmp461:
LBB4_53:
	;DEBUG_VALUE: processing_aliases <- $w23
	;DEBUG_VALUE: main:function_start_type <- 0
	;DEBUG_VALUE: main:argc <- $w24
	;DEBUG_VALUE: main:path_list <- [DW_OP_plus_uconst 56] [$sp+0]
	;DEBUG_VALUE: main:fail_count <- 0
	;DEBUG_VALUE: main:argv <- $x20
	;DEBUG_VALUE: main:function_start_type <- 0
	;DEBUG_VALUE: processing_aliases <- $w23
	;DEBUG_VALUE: function_start_has_declare <- undef
	.loc	1 0 7 is_stmt 0                 ; which.c:0:7
	str	w24, [sp, #32]                  ; 4-byte Folded Spill
Ltmp462:
	;DEBUG_VALUE: main:argc <- [DW_OP_plus_uconst 32] [$sp+0]
	.loc	1 552 36 is_stmt 1              ; which.c:552:36
Lloh196:
	adrp	x26, ___stdinp@GOTPAGE
Lloh197:
	ldr	x26, [x26, ___stdinp@GOTPAGEOFF]
	ldr	x2, [x26]
	add	x21, sp, #80
	.loc	1 552 12 is_stmt 0              ; which.c:552:12
	add	x0, sp, #80
	mov	w1, #1024
	bl	_fgets
Ltmp463:
	.loc	1 552 5                         ; which.c:552:5
	cbz	x0, LBB4_118
Ltmp464:
; %bb.54:                               ; %.lr.ph335
	;DEBUG_VALUE: main:argc <- [DW_OP_plus_uconst 32] [$sp+0]
	;DEBUG_VALUE: processing_aliases <- $w23
	;DEBUG_VALUE: main:function_start_type <- 0
	;DEBUG_VALUE: main:path_list <- [DW_OP_plus_uconst 56] [$sp+0]
	;DEBUG_VALUE: main:fail_count <- 0
	;DEBUG_VALUE: main:argv <- $x20
	;DEBUG_VALUE: processing_aliases <- $w23
	.loc	1 0 5                           ; which.c:0:5
	str	wzr, [sp, #36]                  ; 4-byte Folded Spill
	mov	x19, #25956
	movk	x19, #27747, lsl #16
	movk	x19, #29281, lsl #32
	movk	x19, #8293, lsl #48
	add	x8, x21, #9
	str	x8, [sp, #40]                   ; 8-byte Folded Spill
	.loc	1 552 5                         ; which.c:552:5
	add	x8, x21, #10
	str	x8, [sp, #24]                   ; 8-byte Folded Spill
	adrp	x22, ___llvm_gcov_ctr.10@PAGE
	adrp	x28, ___llvm_gcov_ctr.13@PAGE
Lloh198:
	adrp	x24, __DefaultRuneLocale@GOTPAGE
Lloh199:
	ldr	x24, [x24, __DefaultRuneLocale@GOTPAGEOFF]
	mov	w8, #1
	dup.2d	v0, x8
	str	q0, [sp, #64]                   ; 16-byte Folded Spill
	adrp	x25, ___llvm_gcov_ctr.6@PAGE+224
	adrp	x27, ___llvm_gcov_ctr.6@PAGE+232
                                        ; implicit-def: $w8
                                        ; kill: killed $w8
	b	LBB4_60
Ltmp465:
LBB4_55:                                ;   in Loop: Header=BB4_60 Depth=1
	;DEBUG_VALUE: max_line_count <- $w24
	;DEBUG_VALUE: processing_aliases <- 0
	;DEBUG_VALUE: function_start_has_declare <- [DW_OP_plus_uconst 52] [$sp+0]
	;DEBUG_VALUE: main:function_start_type <- [DW_OP_plus_uconst 36] [$sp+0]
	;DEBUG_VALUE: main:argc <- [DW_OP_plus_uconst 32] [$sp+0]
	;DEBUG_VALUE: main:path_list <- [DW_OP_plus_uconst 56] [$sp+0]
	;DEBUG_VALUE: main:fail_count <- 0
	;DEBUG_VALUE: main:argv <- $x20
	.loc	1 0 5                           ; which.c:0:5
	adrp	x9, ___llvm_gcov_ctr.6@PAGE+408
	ldr	x8, [x9, ___llvm_gcov_ctr.6@PAGEOFF+408]
	add	x8, x8, #1
	str	x8, [x9, ___llvm_gcov_ctr.6@PAGEOFF+408]
	;DEBUG_VALUE: max_line_count <- undef
Ltmp466:
LBB4_56:                                ; %.loopexit
                                        ;   in Loop: Header=BB4_60 Depth=1
	;DEBUG_VALUE: processing_aliases <- 0
	;DEBUG_VALUE: function_start_has_declare <- [DW_OP_plus_uconst 52] [$sp+0]
	;DEBUG_VALUE: main:function_start_type <- [DW_OP_plus_uconst 36] [$sp+0]
	;DEBUG_VALUE: main:argc <- [DW_OP_plus_uconst 32] [$sp+0]
	;DEBUG_VALUE: main:path_list <- [DW_OP_plus_uconst 56] [$sp+0]
	;DEBUG_VALUE: main:fail_count <- 0
	;DEBUG_VALUE: main:argv <- $x20
	mov	w23, #0
	adrp	x9, ___llvm_gcov_ctr.6@PAGE+440
Ltmp467:
	.loc	1 647 7 is_stmt 1               ; which.c:647:7
	ldr	x8, [x9, ___llvm_gcov_ctr.6@PAGEOFF+440]
	add	x8, x8, #1
	str	x8, [x9, ___llvm_gcov_ctr.6@PAGEOFF+440]
	mov	x19, #25956
	movk	x19, #27747, lsl #16
	movk	x19, #29281, lsl #32
	movk	x19, #8293, lsl #48
Lloh200:
	adrp	x24, __DefaultRuneLocale@GOTPAGE
Lloh201:
	ldr	x24, [x24, __DefaultRuneLocale@GOTPAGEOFF]
Ltmp468:
LBB4_57:                                ; %.thread278
                                        ;   in Loop: Header=BB4_60 Depth=1
	;DEBUG_VALUE: function_start_has_declare <- [DW_OP_plus_uconst 52] [$sp+0]
	;DEBUG_VALUE: main:function_start_type <- [DW_OP_plus_uconst 36] [$sp+0]
	;DEBUG_VALUE: main:argc <- [DW_OP_plus_uconst 32] [$sp+0]
	;DEBUG_VALUE: main:path_list <- [DW_OP_plus_uconst 56] [$sp+0]
	;DEBUG_VALUE: main:fail_count <- 0
	;DEBUG_VALUE: main:argv <- $x20
	;DEBUG_VALUE: processing_aliases <- $w23
	.loc	1 0 7 is_stmt 0                 ; which.c:0:7
	adrp	x9, ___llvm_gcov_ctr.6@PAGE+448
	ldr	x8, [x9, ___llvm_gcov_ctr.6@PAGEOFF+448]
	add	x8, x8, #1
	str	x8, [x9, ___llvm_gcov_ctr.6@PAGEOFF+448]
Ltmp469:
LBB4_58:                                ;   in Loop: Header=BB4_60 Depth=1
	;DEBUG_VALUE: main:function_start_type <- [DW_OP_plus_uconst 36] [$sp+0]
	;DEBUG_VALUE: main:argc <- [DW_OP_plus_uconst 32] [$sp+0]
	;DEBUG_VALUE: main:path_list <- [DW_OP_plus_uconst 56] [$sp+0]
	;DEBUG_VALUE: main:fail_count <- 0
	;DEBUG_VALUE: main:argv <- $x20
	;DEBUG_VALUE: processing_aliases <- 1
	adrp	x9, ___llvm_gcov_ctr.6@PAGE+456
	.loc	1 552 5 is_stmt 1               ; which.c:552:5
	ldr	x8, [x9, ___llvm_gcov_ctr.6@PAGEOFF+456]
	add	x8, x8, #1
	str	x8, [x9, ___llvm_gcov_ctr.6@PAGEOFF+456]
Ltmp470:
LBB4_59:                                ; %.backedge
                                        ;   in Loop: Header=BB4_60 Depth=1
	;DEBUG_VALUE: processing_aliases <- 1
	;DEBUG_VALUE: main:function_start_type <- [DW_OP_plus_uconst 36] [$sp+0]
	;DEBUG_VALUE: main:argc <- [DW_OP_plus_uconst 32] [$sp+0]
	;DEBUG_VALUE: main:path_list <- [DW_OP_plus_uconst 56] [$sp+0]
	;DEBUG_VALUE: main:fail_count <- 0
	;DEBUG_VALUE: main:argv <- $x20
	;DEBUG_VALUE: main:function_start_type <- [DW_OP_plus_uconst 36] [$sp+0]
	;DEBUG_VALUE: processing_aliases <- $w23
	;DEBUG_VALUE: function_start_has_declare <- [DW_OP_plus_uconst 52] [$sp+0]
	.loc	1 552 36 is_stmt 0              ; which.c:552:36
	ldr	x2, [x26]
	.loc	1 552 12                        ; which.c:552:12
	add	x0, sp, #80
	mov	w1, #1024
	bl	_fgets
Ltmp471:
	.loc	1 552 5                         ; which.c:552:5
	cbz	x0, LBB4_119
Ltmp472:
LBB4_60:                                ; =>This Loop Header: Depth=1
                                        ;     Child Loop BB4_62 Depth 2
                                        ;     Child Loop BB4_95 Depth 2
                                        ;     Child Loop BB4_100 Depth 2
                                        ;     Child Loop BB4_114 Depth 2
	;DEBUG_VALUE: main:argc <- [DW_OP_plus_uconst 32] [$sp+0]
	;DEBUG_VALUE: processing_aliases <- $w23
	;DEBUG_VALUE: main:path_list <- [DW_OP_plus_uconst 56] [$sp+0]
	;DEBUG_VALUE: main:fail_count <- 0
	;DEBUG_VALUE: main:argv <- $x20
	;DEBUG_VALUE: main:function_start_type <- [DW_OP_plus_uconst 36] [$sp+0]
	;DEBUG_VALUE: processing_aliases <- $w23
	;DEBUG_VALUE: function_start_has_declare <- [DW_OP_plus_uconst 52] [$sp+0]
	;DEBUG_VALUE: looks_like_function_start <- 0
	.loc	1 556 11 is_stmt 1              ; which.c:556:11
	adrp	x8, _read_functions@PAGE
	ldrb	w8, [x8, _read_functions@PAGEOFF]
Ltmp473:
	.loc	1 556 11 is_stmt 0              ; which.c:556:11
	cmp	w8, #1
	b.ne	LBB4_67
Ltmp474:
; %bb.61:                               ;   in Loop: Header=BB4_60 Depth=1
	;DEBUG_VALUE: looks_like_function_start <- 0
	;DEBUG_VALUE: function_start_has_declare <- [DW_OP_plus_uconst 52] [$sp+0]
	;DEBUG_VALUE: main:function_start_type <- [DW_OP_plus_uconst 36] [$sp+0]
	;DEBUG_VALUE: main:argc <- [DW_OP_plus_uconst 32] [$sp+0]
	;DEBUG_VALUE: processing_aliases <- $w23
	;DEBUG_VALUE: main:path_list <- [DW_OP_plus_uconst 56] [$sp+0]
	;DEBUG_VALUE: main:fail_count <- 0
	;DEBUG_VALUE: main:argv <- $x20
	.loc	1 569 18 is_stmt 1              ; which.c:569:18
	add	x0, sp, #80
	bl	_strlen
Ltmp475:
	;DEBUG_VALUE: p <- [DW_OP_LLVM_arg 0, DW_OP_plus_uconst 80, DW_OP_LLVM_arg 1, DW_OP_constu 1, DW_OP_minus, DW_OP_constu 1, DW_OP_mul, DW_OP_plus, DW_OP_stack_value] $sp, $x0
	.loc	1 570 2                         ; which.c:570:2
	sub	x26, x0, #2
Ltmp476:
LBB4_62:                                ;   Parent Loop BB4_60 Depth=1
                                        ; =>  This Inner Loop Header: Depth=2
	;DEBUG_VALUE: looks_like_function_start <- 0
	;DEBUG_VALUE: function_start_has_declare <- [DW_OP_plus_uconst 52] [$sp+0]
	;DEBUG_VALUE: main:function_start_type <- [DW_OP_plus_uconst 36] [$sp+0]
	;DEBUG_VALUE: main:argc <- [DW_OP_plus_uconst 32] [$sp+0]
	;DEBUG_VALUE: processing_aliases <- $w23
	;DEBUG_VALUE: main:path_list <- [DW_OP_plus_uconst 56] [$sp+0]
	;DEBUG_VALUE: main:fail_count <- 0
	;DEBUG_VALUE: main:argv <- $x20
	;DEBUG_VALUE: p <- [DW_OP_LLVM_arg 0, DW_OP_consts 18446744073709551614, DW_OP_LLVM_arg 0, DW_OP_plus, DW_OP_minus, DW_OP_consts 18446744073709551615, DW_OP_div, DW_OP_consts 18446744073709551615, DW_OP_mul, DW_OP_consts 18446744073709551615, DW_OP_LLVM_arg 0, DW_OP_plus, DW_OP_LLVM_arg 0, DW_OP_plus, DW_OP_plus, DW_OP_stack_value] undef
	.loc	1 570 17 is_stmt 0              ; which.c:570:17
	add	x8, x21, x26
	ldrsb	w0, [x8, #1]
	ldr	x8, [x22, ___llvm_gcov_ctr.10@PAGEOFF]
	add	x8, x8, #1
	str	x8, [x22, ___llvm_gcov_ctr.10@PAGEOFF]
Ltmp477:
	;DEBUG_VALUE: __istype:_c <- $w0
	;DEBUG_VALUE: isspace:_c <- $w0
	;DEBUG_VALUE: __istype:_f <- 16384
	.file	10 "/Library/Developer/CommandLineTools/SDKs/MacOSX.sdk/usr/include" "_ctype.h"
	.loc	10 158 10 is_stmt 1             ; /Library/Developer/CommandLineTools/SDKs/MacOSX.sdk/usr/include/_ctype.h:158:10
	tbnz	w0, #31, LBB4_64
Ltmp478:
; %bb.63:                               ;   in Loop: Header=BB4_62 Depth=2
	;DEBUG_VALUE: __istype:_f <- 16384
	;DEBUG_VALUE: isspace:_c <- $w0
	;DEBUG_VALUE: __istype:_c <- $w0
	;DEBUG_VALUE: looks_like_function_start <- 0
	;DEBUG_VALUE: function_start_has_declare <- [DW_OP_plus_uconst 52] [$sp+0]
	;DEBUG_VALUE: main:function_start_type <- [DW_OP_plus_uconst 36] [$sp+0]
	;DEBUG_VALUE: main:argc <- [DW_OP_plus_uconst 32] [$sp+0]
	;DEBUG_VALUE: processing_aliases <- $w23
	;DEBUG_VALUE: main:path_list <- [DW_OP_plus_uconst 56] [$sp+0]
	;DEBUG_VALUE: main:fail_count <- 0
	;DEBUG_VALUE: main:argv <- $x20
	.loc	10 158 57 is_stmt 0             ; /Library/Developer/CommandLineTools/SDKs/MacOSX.sdk/usr/include/_ctype.h:158:57
	ldr	x8, [x28, ___llvm_gcov_ctr.13@PAGEOFF]
	add	x8, x8, #1
	str	x8, [x28, ___llvm_gcov_ctr.13@PAGEOFF]
	.loc	10 158 27                       ; /Library/Developer/CommandLineTools/SDKs/MacOSX.sdk/usr/include/_ctype.h:158:27
	add	x8, x24, w0, uxtw #2
	ldr	w8, [x8, #60]
	.loc	10 158 61                       ; /Library/Developer/CommandLineTools/SDKs/MacOSX.sdk/usr/include/_ctype.h:158:61
	and	w0, w8, #0x4000
Ltmp479:
	.loc	1 570 21 is_stmt 1              ; which.c:570:21
	cbnz	w0, LBB4_65
	b	LBB4_69
Ltmp480:
LBB4_64:                                ;   in Loop: Header=BB4_62 Depth=2
	;DEBUG_VALUE: __istype:_f <- 16384
	;DEBUG_VALUE: isspace:_c <- $w0
	;DEBUG_VALUE: __istype:_c <- $w0
	;DEBUG_VALUE: looks_like_function_start <- 0
	;DEBUG_VALUE: function_start_has_declare <- [DW_OP_plus_uconst 52] [$sp+0]
	;DEBUG_VALUE: main:function_start_type <- [DW_OP_plus_uconst 36] [$sp+0]
	;DEBUG_VALUE: main:argc <- [DW_OP_plus_uconst 32] [$sp+0]
	;DEBUG_VALUE: processing_aliases <- $w23
	;DEBUG_VALUE: main:path_list <- [DW_OP_plus_uconst 56] [$sp+0]
	;DEBUG_VALUE: main:fail_count <- 0
	;DEBUG_VALUE: main:argv <- $x20
	.loc	1 0 21 is_stmt 0                ; which.c:0:21
	adrp	x9, ___llvm_gcov_ctr.13@PAGE+8
Ltmp481:
	.loc	10 159 18 is_stmt 1             ; /Library/Developer/CommandLineTools/SDKs/MacOSX.sdk/usr/include/_ctype.h:159:18
	ldr	x8, [x9, ___llvm_gcov_ctr.13@PAGEOFF+8]
	add	x8, x8, #1
	str	x8, [x9, ___llvm_gcov_ctr.13@PAGEOFF+8]
	.loc	10 159 7 is_stmt 0              ; /Library/Developer/CommandLineTools/SDKs/MacOSX.sdk/usr/include/_ctype.h:159:7
	mov	w1, #16384
	bl	___maskrune
Ltmp482:
	.loc	1 570 21 is_stmt 1              ; which.c:570:21
	cbz	w0, LBB4_69
Ltmp483:
LBB4_65:                                ;   in Loop: Header=BB4_62 Depth=2
	;DEBUG_VALUE: looks_like_function_start <- 0
	;DEBUG_VALUE: function_start_has_declare <- [DW_OP_plus_uconst 52] [$sp+0]
	;DEBUG_VALUE: main:function_start_type <- [DW_OP_plus_uconst 36] [$sp+0]
	;DEBUG_VALUE: main:argc <- [DW_OP_plus_uconst 32] [$sp+0]
	;DEBUG_VALUE: processing_aliases <- $w23
	;DEBUG_VALUE: main:path_list <- [DW_OP_plus_uconst 56] [$sp+0]
	;DEBUG_VALUE: main:fail_count <- 0
	;DEBUG_VALUE: main:argv <- $x20
	.loc	1 0 0 is_stmt 0                 ; which.c:0:0
	add	x8, x26, #2
	.loc	1 570 24                        ; which.c:570:24
	ldr	x9, [x25, ___llvm_gcov_ctr.6@PAGEOFF+224]
	add	x9, x9, #1
	str	x9, [x25, ___llvm_gcov_ctr.6@PAGEOFF+224]
	.loc	1 570 2                         ; which.c:570:2
	cmp	x8, #4
	b.lt	LBB4_69
Ltmp484:
; %bb.66:                               ;   in Loop: Header=BB4_62 Depth=2
	;DEBUG_VALUE: looks_like_function_start <- 0
	;DEBUG_VALUE: function_start_has_declare <- [DW_OP_plus_uconst 52] [$sp+0]
	;DEBUG_VALUE: main:function_start_type <- [DW_OP_plus_uconst 36] [$sp+0]
	;DEBUG_VALUE: main:argc <- [DW_OP_plus_uconst 32] [$sp+0]
	;DEBUG_VALUE: processing_aliases <- $w23
	;DEBUG_VALUE: main:path_list <- [DW_OP_plus_uconst 56] [$sp+0]
	;DEBUG_VALUE: main:fail_count <- 0
	;DEBUG_VALUE: main:argv <- $x20
	.loc	1 571 4 is_stmt 1               ; which.c:571:4
	ldr	x8, [x27, ___llvm_gcov_ctr.6@PAGEOFF+232]
	add	x8, x8, #1
	str	x8, [x27, ___llvm_gcov_ctr.6@PAGEOFF+232]
Ltmp485:
	;DEBUG_VALUE: p <- [DW_OP_LLVM_arg 1, DW_OP_plus_uconst 80, DW_OP_LLVM_arg 0, DW_OP_plus_uconst 1, DW_OP_constu 1, DW_OP_minus, DW_OP_constu 1, DW_OP_mul, DW_OP_plus, DW_OP_stack_value] $x26, $sp
	.loc	1 570 2                         ; which.c:570:2
	sub	x26, x26, #1
Ltmp486:
	.loc	1 0 2 is_stmt 0                 ; which.c:0:2
	b	LBB4_62
Ltmp487:
LBB4_67:                                ; %.thread
                                        ;   in Loop: Header=BB4_60 Depth=1
	;DEBUG_VALUE: looks_like_function_start <- 0
	;DEBUG_VALUE: function_start_has_declare <- [DW_OP_plus_uconst 52] [$sp+0]
	;DEBUG_VALUE: main:function_start_type <- [DW_OP_plus_uconst 36] [$sp+0]
	;DEBUG_VALUE: main:argc <- [DW_OP_plus_uconst 32] [$sp+0]
	;DEBUG_VALUE: processing_aliases <- $w23
	;DEBUG_VALUE: main:path_list <- [DW_OP_plus_uconst 56] [$sp+0]
	;DEBUG_VALUE: main:fail_count <- 0
	;DEBUG_VALUE: main:argv <- $x20
	.loc	1 590 30 is_stmt 1              ; which.c:590:30
	cbz	w23, LBB4_57
Ltmp488:
; %bb.68:                               ; %.thread270
                                        ;   in Loop: Header=BB4_60 Depth=1
	;DEBUG_VALUE: looks_like_function_start <- 0
	;DEBUG_VALUE: function_start_has_declare <- [DW_OP_plus_uconst 52] [$sp+0]
	;DEBUG_VALUE: main:function_start_type <- [DW_OP_plus_uconst 36] [$sp+0]
	;DEBUG_VALUE: main:argc <- [DW_OP_plus_uconst 32] [$sp+0]
	;DEBUG_VALUE: processing_aliases <- $w23
	;DEBUG_VALUE: main:path_list <- [DW_OP_plus_uconst 56] [$sp+0]
	;DEBUG_VALUE: main:fail_count <- 0
	;DEBUG_VALUE: main:argv <- $x20
	.loc	1 0 30 is_stmt 0                ; which.c:0:30
	adrp	x9, ___llvm_gcov_ctr.6@PAGE+320
	.loc	1 590 34                        ; which.c:590:34
	ldr	x8, [x9, ___llvm_gcov_ctr.6@PAGEOFF+320]
	add	x8, x8, #1
	str	x8, [x9, ___llvm_gcov_ctr.6@PAGEOFF+320]
	b	LBB4_85
Ltmp489:
LBB4_69:                                ; %.critedge
                                        ;   in Loop: Header=BB4_60 Depth=1
	;DEBUG_VALUE: looks_like_function_start <- 0
	;DEBUG_VALUE: function_start_has_declare <- [DW_OP_plus_uconst 52] [$sp+0]
	;DEBUG_VALUE: main:function_start_type <- [DW_OP_plus_uconst 36] [$sp+0]
	;DEBUG_VALUE: main:argc <- [DW_OP_plus_uconst 32] [$sp+0]
	;DEBUG_VALUE: processing_aliases <- $w23
	;DEBUG_VALUE: main:path_list <- [DW_OP_plus_uconst 56] [$sp+0]
	;DEBUG_VALUE: main:fail_count <- 0
	;DEBUG_VALUE: main:argv <- $x20
	.loc	1 572 6 is_stmt 1               ; which.c:572:6
	add	x8, x21, x26
	ldrb	w9, [x8, #1]
	.loc	1 572 16 is_stmt 0              ; which.c:572:16
	cmp	w9, #41
	b.ne	LBB4_73
Ltmp490:
; %bb.70:                               ;   in Loop: Header=BB4_60 Depth=1
	;DEBUG_VALUE: looks_like_function_start <- 0
	;DEBUG_VALUE: function_start_has_declare <- [DW_OP_plus_uconst 52] [$sp+0]
	;DEBUG_VALUE: main:function_start_type <- [DW_OP_plus_uconst 36] [$sp+0]
	;DEBUG_VALUE: main:argc <- [DW_OP_plus_uconst 32] [$sp+0]
	;DEBUG_VALUE: processing_aliases <- $w23
	;DEBUG_VALUE: main:path_list <- [DW_OP_plus_uconst 56] [$sp+0]
	;DEBUG_VALUE: main:fail_count <- 0
	;DEBUG_VALUE: main:argv <- $x20
	.loc	1 0 16                          ; which.c:0:16
	adrp	x10, ___llvm_gcov_ctr.6@PAGE+240
	.loc	1 572 19                        ; which.c:572:19
	ldr	x8, [x10, ___llvm_gcov_ctr.6@PAGEOFF+240]
	add	x8, x8, #1
	str	x8, [x10, ___llvm_gcov_ctr.6@PAGEOFF+240]
	ldrb	w8, [x21, x26]
	.loc	1 572 32                        ; which.c:572:32
	cmp	w8, #40
	b.ne	LBB4_73
Ltmp491:
; %bb.71:                               ;   in Loop: Header=BB4_60 Depth=1
	;DEBUG_VALUE: looks_like_function_start <- 0
	;DEBUG_VALUE: function_start_has_declare <- [DW_OP_plus_uconst 52] [$sp+0]
	;DEBUG_VALUE: main:function_start_type <- [DW_OP_plus_uconst 36] [$sp+0]
	;DEBUG_VALUE: main:argc <- [DW_OP_plus_uconst 32] [$sp+0]
	;DEBUG_VALUE: processing_aliases <- $w23
	;DEBUG_VALUE: main:path_list <- [DW_OP_plus_uconst 56] [$sp+0]
	;DEBUG_VALUE: main:fail_count <- 0
	;DEBUG_VALUE: main:argv <- $x20
	.loc	1 0 32                          ; which.c:0:32
	adrp	x10, ___llvm_gcov_ctr.6@PAGE+248
	.loc	1 572 35                        ; which.c:572:35
	ldr	x8, [x10, ___llvm_gcov_ctr.6@PAGEOFF+248]
	add	x8, x8, #1
	str	x8, [x10, ___llvm_gcov_ctr.6@PAGEOFF+248]
	add	x8, x21, x26
	ldurb	w8, [x8, #-1]
Ltmp492:
	.loc	1 572 6                         ; which.c:572:6
	cmp	w8, #32
	b.ne	LBB4_73
Ltmp493:
; %bb.72:                               ;   in Loop: Header=BB4_60 Depth=1
	;DEBUG_VALUE: looks_like_function_start <- 0
	;DEBUG_VALUE: function_start_has_declare <- [DW_OP_plus_uconst 52] [$sp+0]
	;DEBUG_VALUE: main:function_start_type <- [DW_OP_plus_uconst 36] [$sp+0]
	;DEBUG_VALUE: main:argc <- [DW_OP_plus_uconst 32] [$sp+0]
	;DEBUG_VALUE: processing_aliases <- $w23
	;DEBUG_VALUE: main:path_list <- [DW_OP_plus_uconst 56] [$sp+0]
	;DEBUG_VALUE: main:fail_count <- 0
	;DEBUG_VALUE: main:argv <- $x20
	.loc	1 0 6                           ; which.c:0:6
	adrp	x10, ___llvm_gcov_ctr.6@PAGE+256
Ltmp494:
	.loc	1 574 30 is_stmt 1              ; which.c:574:30
	ldr	x8, [x10, ___llvm_gcov_ctr.6@PAGEOFF+256]
	add	x8, x8, #1
	str	x8, [x10, ___llvm_gcov_ctr.6@PAGEOFF+256]
Ltmp495:
	;DEBUG_VALUE: looks_like_function_start <- 1
	.loc	1 575 34                        ; which.c:575:34
	ldr	x8, [sp, #80]
	eor	x8, x19, x8
	ldrb	w10, [sp, #88]
	mov	w11, #45
	eor	x10, x10, x11
	orr	x8, x8, x10
	.loc	1 575 63 is_stmt 0              ; which.c:575:63
	cmp	x8, #0
	cset	w8, eq
Ltmp496:
	;DEBUG_VALUE: function_start_has_declare <- $w8
	.loc	1 0 63                          ; which.c:0:63
	str	w8, [sp, #52]                   ; 4-byte Folded Spill
Ltmp497:
	;DEBUG_VALUE: function_start_has_declare <- [DW_OP_plus_uconst 52] [$sp+0]
	;DEBUG_VALUE: function_start_has_declare <- [DW_OP_plus_uconst 52] [$sp+0]
	mov	w8, #1
	b	LBB4_74
Ltmp498:
LBB4_73:                                ;   in Loop: Header=BB4_60 Depth=1
	;DEBUG_VALUE: looks_like_function_start <- 0
	;DEBUG_VALUE: function_start_has_declare <- [DW_OP_plus_uconst 52] [$sp+0]
	;DEBUG_VALUE: main:function_start_type <- [DW_OP_plus_uconst 36] [$sp+0]
	;DEBUG_VALUE: main:argc <- [DW_OP_plus_uconst 32] [$sp+0]
	;DEBUG_VALUE: processing_aliases <- $w23
	;DEBUG_VALUE: main:path_list <- [DW_OP_plus_uconst 56] [$sp+0]
	;DEBUG_VALUE: main:fail_count <- 0
	;DEBUG_VALUE: main:argv <- $x20
	mov	w8, #0
Ltmp499:
LBB4_74:                                ;   in Loop: Header=BB4_60 Depth=1
	;DEBUG_VALUE: function_start_has_declare <- [DW_OP_plus_uconst 52] [$sp+0]
	;DEBUG_VALUE: main:function_start_type <- [DW_OP_plus_uconst 36] [$sp+0]
	;DEBUG_VALUE: main:argc <- [DW_OP_plus_uconst 32] [$sp+0]
	;DEBUG_VALUE: processing_aliases <- $w23
	;DEBUG_VALUE: main:path_list <- [DW_OP_plus_uconst 56] [$sp+0]
	;DEBUG_VALUE: main:fail_count <- 0
	;DEBUG_VALUE: main:argv <- $x20
	add	x10, x26, #2
Ltmp500:
	;DEBUG_VALUE: looks_like_function_start <- $w8
	;DEBUG_VALUE: function_start_has_declare <- [DW_OP_plus_uconst 52] [$sp+0]
	.loc	1 582 18 is_stmt 1              ; which.c:582:18
	cmp	x10, #6
	b.lt	LBB4_81
Ltmp501:
; %bb.75:                               ;   in Loop: Header=BB4_60 Depth=1
	;DEBUG_VALUE: looks_like_function_start <- $w8
	;DEBUG_VALUE: function_start_has_declare <- [DW_OP_plus_uconst 52] [$sp+0]
	;DEBUG_VALUE: main:function_start_type <- [DW_OP_plus_uconst 36] [$sp+0]
	;DEBUG_VALUE: main:argc <- [DW_OP_plus_uconst 32] [$sp+0]
	;DEBUG_VALUE: processing_aliases <- $w23
	;DEBUG_VALUE: main:path_list <- [DW_OP_plus_uconst 56] [$sp+0]
	;DEBUG_VALUE: main:fail_count <- 0
	;DEBUG_VALUE: main:argv <- $x20
	.loc	1 0 18 is_stmt 0                ; which.c:0:18
	adrp	x11, ___llvm_gcov_ctr.6@PAGE+264
	.loc	1 582 22                        ; which.c:582:22
	ldr	x10, [x11, ___llvm_gcov_ctr.6@PAGEOFF+264]
	add	x10, x10, #1
	str	x10, [x11, ___llvm_gcov_ctr.6@PAGEOFF+264]
	.loc	1 582 31                        ; which.c:582:31
	cmp	w9, #123
	b.ne	LBB4_81
Ltmp502:
; %bb.76:                               ;   in Loop: Header=BB4_60 Depth=1
	;DEBUG_VALUE: looks_like_function_start <- $w8
	;DEBUG_VALUE: function_start_has_declare <- [DW_OP_plus_uconst 52] [$sp+0]
	;DEBUG_VALUE: main:function_start_type <- [DW_OP_plus_uconst 36] [$sp+0]
	;DEBUG_VALUE: main:argc <- [DW_OP_plus_uconst 32] [$sp+0]
	;DEBUG_VALUE: processing_aliases <- $w23
	;DEBUG_VALUE: main:path_list <- [DW_OP_plus_uconst 56] [$sp+0]
	;DEBUG_VALUE: main:fail_count <- 0
	;DEBUG_VALUE: main:argv <- $x20
	.loc	1 0 31                          ; which.c:0:31
	adrp	x10, ___llvm_gcov_ctr.6@PAGE+272
	.loc	1 582 34                        ; which.c:582:34
	ldr	x9, [x10, ___llvm_gcov_ctr.6@PAGEOFF+272]
	add	x9, x9, #1
	str	x9, [x10, ___llvm_gcov_ctr.6@PAGEOFF+272]
	ldrb	w9, [x21, x26]
	.loc	1 582 47                        ; which.c:582:47
	cmp	w9, #32
	b.ne	LBB4_81
Ltmp503:
; %bb.77:                               ;   in Loop: Header=BB4_60 Depth=1
	;DEBUG_VALUE: looks_like_function_start <- $w8
	;DEBUG_VALUE: function_start_has_declare <- [DW_OP_plus_uconst 52] [$sp+0]
	;DEBUG_VALUE: main:function_start_type <- [DW_OP_plus_uconst 36] [$sp+0]
	;DEBUG_VALUE: main:argc <- [DW_OP_plus_uconst 32] [$sp+0]
	;DEBUG_VALUE: processing_aliases <- $w23
	;DEBUG_VALUE: main:path_list <- [DW_OP_plus_uconst 56] [$sp+0]
	;DEBUG_VALUE: main:fail_count <- 0
	;DEBUG_VALUE: main:argv <- $x20
	.loc	1 0 47                          ; which.c:0:47
	adrp	x10, ___llvm_gcov_ctr.6@PAGE+280
	.loc	1 583 6 is_stmt 1               ; which.c:583:6
	ldr	x9, [x10, ___llvm_gcov_ctr.6@PAGEOFF+280]
	add	x9, x9, #1
	str	x9, [x10, ___llvm_gcov_ctr.6@PAGEOFF+280]
	add	x9, x21, x26
	ldurb	w10, [x9, #-1]
	.loc	1 583 19 is_stmt 0              ; which.c:583:19
	cmp	w10, #41
	b.ne	LBB4_81
Ltmp504:
; %bb.78:                               ;   in Loop: Header=BB4_60 Depth=1
	;DEBUG_VALUE: looks_like_function_start <- $w8
	;DEBUG_VALUE: function_start_has_declare <- [DW_OP_plus_uconst 52] [$sp+0]
	;DEBUG_VALUE: main:function_start_type <- [DW_OP_plus_uconst 36] [$sp+0]
	;DEBUG_VALUE: main:argc <- [DW_OP_plus_uconst 32] [$sp+0]
	;DEBUG_VALUE: processing_aliases <- $w23
	;DEBUG_VALUE: main:path_list <- [DW_OP_plus_uconst 56] [$sp+0]
	;DEBUG_VALUE: main:fail_count <- 0
	;DEBUG_VALUE: main:argv <- $x20
	.loc	1 0 19                          ; which.c:0:19
	adrp	x11, ___llvm_gcov_ctr.6@PAGE+288
	.loc	1 583 22                        ; which.c:583:22
	ldr	x10, [x11, ___llvm_gcov_ctr.6@PAGEOFF+288]
	add	x10, x10, #1
	str	x10, [x11, ___llvm_gcov_ctr.6@PAGEOFF+288]
	ldurb	w9, [x9, #-2]
	.loc	1 583 35                        ; which.c:583:35
	cmp	w9, #40
	b.ne	LBB4_81
Ltmp505:
; %bb.79:                               ;   in Loop: Header=BB4_60 Depth=1
	;DEBUG_VALUE: looks_like_function_start <- $w8
	;DEBUG_VALUE: function_start_has_declare <- [DW_OP_plus_uconst 52] [$sp+0]
	;DEBUG_VALUE: main:function_start_type <- [DW_OP_plus_uconst 36] [$sp+0]
	;DEBUG_VALUE: main:argc <- [DW_OP_plus_uconst 32] [$sp+0]
	;DEBUG_VALUE: processing_aliases <- $w23
	;DEBUG_VALUE: main:path_list <- [DW_OP_plus_uconst 56] [$sp+0]
	;DEBUG_VALUE: main:fail_count <- 0
	;DEBUG_VALUE: main:argv <- $x20
	.loc	1 0 35                          ; which.c:0:35
	adrp	x10, ___llvm_gcov_ctr.6@PAGE+296
	.loc	1 583 38                        ; which.c:583:38
	ldr	x9, [x10, ___llvm_gcov_ctr.6@PAGEOFF+296]
	add	x9, x9, #1
	str	x9, [x10, ___llvm_gcov_ctr.6@PAGEOFF+296]
	add	x9, x21, x26
	ldurb	w9, [x9, #-3]
Ltmp506:
	.loc	1 582 6 is_stmt 1               ; which.c:582:6
	cmp	w9, #32
	b.ne	LBB4_81
Ltmp507:
; %bb.80:                               ;   in Loop: Header=BB4_60 Depth=1
	;DEBUG_VALUE: looks_like_function_start <- $w8
	;DEBUG_VALUE: function_start_has_declare <- [DW_OP_plus_uconst 52] [$sp+0]
	;DEBUG_VALUE: main:function_start_type <- [DW_OP_plus_uconst 36] [$sp+0]
	;DEBUG_VALUE: main:argc <- [DW_OP_plus_uconst 32] [$sp+0]
	;DEBUG_VALUE: processing_aliases <- $w23
	;DEBUG_VALUE: main:path_list <- [DW_OP_plus_uconst 56] [$sp+0]
	;DEBUG_VALUE: main:fail_count <- 0
	;DEBUG_VALUE: main:argv <- $x20
	.loc	1 0 6 is_stmt 0                 ; which.c:0:6
	str	wzr, [sp, #52]                  ; 4-byte Folded Spill
	adrp	x9, ___llvm_gcov_ctr.6@PAGE+304
Ltmp508:
	.loc	1 585 30 is_stmt 1              ; which.c:585:30
	ldr	x8, [x9, ___llvm_gcov_ctr.6@PAGEOFF+304]
Ltmp509:
	add	x8, x8, #1
	str	x8, [x9, ___llvm_gcov_ctr.6@PAGEOFF+304]
	mov	w8, #1
Ltmp510:
	;DEBUG_VALUE: looks_like_function_start <- 1
	;DEBUG_VALUE: function_start_has_declare <- 0
	;DEBUG_VALUE: main:function_start_type <- 1
	.loc	1 0 30 is_stmt 0                ; which.c:0:30
	str	w8, [sp, #36]                   ; 4-byte Folded Spill
	mov	w8, #1
Ltmp511:
LBB4_81:                                ;   in Loop: Header=BB4_60 Depth=1
	;DEBUG_VALUE: main:argc <- [DW_OP_plus_uconst 32] [$sp+0]
	;DEBUG_VALUE: processing_aliases <- $w23
	;DEBUG_VALUE: main:path_list <- [DW_OP_plus_uconst 56] [$sp+0]
	;DEBUG_VALUE: main:fail_count <- 0
	;DEBUG_VALUE: main:argv <- $x20
	;DEBUG_VALUE: main:function_start_type <- [DW_OP_plus_uconst 36] [$sp+0]
	;DEBUG_VALUE: function_start_has_declare <- [DW_OP_plus_uconst 52] [$sp+0]
	;DEBUG_VALUE: looks_like_function_start <- $w8
	adrp	x10, ___llvm_gcov_ctr.6@PAGE+312
	.loc	1 589 7 is_stmt 1               ; which.c:589:7
	ldr	x9, [x10, ___llvm_gcov_ctr.6@PAGEOFF+312]
	add	x9, x9, #1
	str	x9, [x10, ___llvm_gcov_ctr.6@PAGEOFF+312]
Lloh202:
	adrp	x26, ___stdinp@GOTPAGE
Lloh203:
	ldr	x26, [x26, ___stdinp@GOTPAGEOFF]
Ltmp512:
	.loc	1 590 30                        ; which.c:590:30
	cbz	w23, LBB4_90
Ltmp513:
; %bb.82:                               ;   in Loop: Header=BB4_60 Depth=1
	;DEBUG_VALUE: looks_like_function_start <- $w8
	;DEBUG_VALUE: function_start_has_declare <- [DW_OP_plus_uconst 52] [$sp+0]
	;DEBUG_VALUE: main:function_start_type <- [DW_OP_plus_uconst 36] [$sp+0]
	;DEBUG_VALUE: main:argc <- [DW_OP_plus_uconst 32] [$sp+0]
	;DEBUG_VALUE: processing_aliases <- $w23
	;DEBUG_VALUE: main:path_list <- [DW_OP_plus_uconst 56] [$sp+0]
	;DEBUG_VALUE: main:fail_count <- 0
	;DEBUG_VALUE: main:argv <- $x20
	.loc	1 0 30 is_stmt 0                ; which.c:0:30
	adrp	x10, ___llvm_gcov_ctr.6@PAGE+320
	.loc	1 590 34                        ; which.c:590:34
	ldr	x9, [x10, ___llvm_gcov_ctr.6@PAGEOFF+320]
	add	x9, x9, #1
	str	x9, [x10, ___llvm_gcov_ctr.6@PAGEOFF+320]
	cbz	w8, LBB4_85
Ltmp514:
; %bb.83:                               ; %.thread356
                                        ;   in Loop: Header=BB4_60 Depth=1
	;DEBUG_VALUE: looks_like_function_start <- $w8
	;DEBUG_VALUE: function_start_has_declare <- [DW_OP_plus_uconst 52] [$sp+0]
	;DEBUG_VALUE: main:function_start_type <- [DW_OP_plus_uconst 36] [$sp+0]
	;DEBUG_VALUE: main:argc <- [DW_OP_plus_uconst 32] [$sp+0]
	;DEBUG_VALUE: processing_aliases <- $w23
	;DEBUG_VALUE: main:path_list <- [DW_OP_plus_uconst 56] [$sp+0]
	;DEBUG_VALUE: main:fail_count <- 0
	;DEBUG_VALUE: main:argv <- $x20
	.loc	1 602 16 is_stmt 1              ; which.c:602:16
	adrp	x8, _read_functions@PAGE
Ltmp515:
	ldrb	w8, [x8, _read_functions@PAGEOFF]
	.loc	1 602 31 is_stmt 0              ; which.c:602:31
	cmp	w8, #1
	b.ne	LBB4_57
Ltmp516:
; %bb.84:                               ; %.thread360
                                        ;   in Loop: Header=BB4_60 Depth=1
	;DEBUG_VALUE: function_start_has_declare <- [DW_OP_plus_uconst 52] [$sp+0]
	;DEBUG_VALUE: main:function_start_type <- [DW_OP_plus_uconst 36] [$sp+0]
	;DEBUG_VALUE: main:argc <- [DW_OP_plus_uconst 32] [$sp+0]
	;DEBUG_VALUE: processing_aliases <- $w23
	;DEBUG_VALUE: main:path_list <- [DW_OP_plus_uconst 56] [$sp+0]
	;DEBUG_VALUE: main:fail_count <- 0
	;DEBUG_VALUE: main:argv <- $x20
	.loc	1 0 31                          ; which.c:0:31
	adrp	x9, ___llvm_gcov_ctr.6@PAGE+352
	.loc	1 602 34                        ; which.c:602:34
	ldr	x8, [x9, ___llvm_gcov_ctr.6@PAGEOFF+352]
	add	x8, x8, #1
	str	x8, [x9, ___llvm_gcov_ctr.6@PAGEOFF+352]
	b	LBB4_92
Ltmp517:
LBB4_85:                                ;   in Loop: Header=BB4_60 Depth=1
	;DEBUG_VALUE: function_start_has_declare <- [DW_OP_plus_uconst 52] [$sp+0]
	;DEBUG_VALUE: main:function_start_type <- [DW_OP_plus_uconst 36] [$sp+0]
	;DEBUG_VALUE: main:argc <- [DW_OP_plus_uconst 32] [$sp+0]
	;DEBUG_VALUE: processing_aliases <- $w23
	;DEBUG_VALUE: main:path_list <- [DW_OP_plus_uconst 56] [$sp+0]
	;DEBUG_VALUE: main:fail_count <- 0
	;DEBUG_VALUE: main:argv <- $x20
	.loc	1 593 7 is_stmt 1               ; which.c:593:7
	ldr	x8, [sp, #80]
	eor	x8, x19, x8
	ldrb	w9, [sp, #88]
	mov	w10, #45
	eor	x9, x9, x10
	orr	x8, x8, x9
Ltmp518:
	.loc	1 593 6 is_stmt 0               ; which.c:593:6
	cbz	x8, LBB4_103
Ltmp519:
; %bb.86:                               ;   in Loop: Header=BB4_60 Depth=1
	;DEBUG_VALUE: function_start_has_declare <- [DW_OP_plus_uconst 52] [$sp+0]
	;DEBUG_VALUE: main:function_start_type <- [DW_OP_plus_uconst 36] [$sp+0]
	;DEBUG_VALUE: main:argc <- [DW_OP_plus_uconst 32] [$sp+0]
	;DEBUG_VALUE: processing_aliases <- $w23
	;DEBUG_VALUE: main:path_list <- [DW_OP_plus_uconst 56] [$sp+0]
	;DEBUG_VALUE: main:fail_count <- 0
	;DEBUG_VALUE: main:argv <- $x20
	.loc	1 0 6                           ; which.c:0:6
Lloh204:
	adrp	x9, ___llvm_gcov_ctr.6@PAGE+328
Ltmp520:
	.loc	1 595 6 is_stmt 1               ; which.c:595:6
	ldr	x8, [x9, ___llvm_gcov_ctr.6@PAGEOFF+328]
	add	x8, x8, #1
	str	x8, [x9, ___llvm_gcov_ctr.6@PAGEOFF+328]
Lloh205:
	adrp	x8, _alias_count@PAGE
Lloh206:
	ldr	w8, [x8, _alias_count@PAGEOFF]
	.loc	1 595 21 is_stmt 0              ; which.c:595:21
Lloh207:
	adrp	x9, _max_alias_count@PAGE
Lloh208:
	ldr	w9, [x9, _max_alias_count@PAGEOFF]
Ltmp521:
	.loc	1 595 6                         ; which.c:595:6
	cmp	w8, w9
	b.ne	LBB4_88
Ltmp522:
; %bb.87:                               ;   in Loop: Header=BB4_60 Depth=1
	;DEBUG_VALUE: function_start_has_declare <- [DW_OP_plus_uconst 52] [$sp+0]
	;DEBUG_VALUE: main:function_start_type <- [DW_OP_plus_uconst 36] [$sp+0]
	;DEBUG_VALUE: main:argc <- [DW_OP_plus_uconst 32] [$sp+0]
	;DEBUG_VALUE: processing_aliases <- $w23
	;DEBUG_VALUE: main:path_list <- [DW_OP_plus_uconst 56] [$sp+0]
	;DEBUG_VALUE: main:fail_count <- 0
	;DEBUG_VALUE: main:argv <- $x20
	.loc	1 0 6                           ; which.c:0:6
	adrp	x10, ___llvm_gcov_ctr.6@PAGE+344
Ltmp523:
	.loc	1 597 20 is_stmt 1              ; which.c:597:20
	ldr	x9, [x10, ___llvm_gcov_ctr.6@PAGEOFF+344]
	add	x9, x9, #1
	str	x9, [x10, ___llvm_gcov_ctr.6@PAGEOFF+344]
	add	w8, w8, #32
	adrp	x9, _max_alias_count@PAGE
	str	w8, [x9, _max_alias_count@PAGEOFF]
	adrp	x23, _aliases@PAGE
Ltmp524:
	.loc	1 598 32                        ; which.c:598:32
	ldr	x0, [x23, _aliases@PAGEOFF]
	.loc	1 598 57 is_stmt 0              ; which.c:598:57
	sbfiz	x1, x8, #3, #32
	.loc	1 598 23                        ; which.c:598:23
	bl	_xrealloc
Ltmp525:
	.loc	1 598 12                        ; which.c:598:12
	str	x0, [x23, _aliases@PAGEOFF]
Ltmp526:
LBB4_88:                                ;   in Loop: Header=BB4_60 Depth=1
	;DEBUG_VALUE: function_start_has_declare <- [DW_OP_plus_uconst 52] [$sp+0]
	;DEBUG_VALUE: main:function_start_type <- [DW_OP_plus_uconst 36] [$sp+0]
	;DEBUG_VALUE: main:argc <- [DW_OP_plus_uconst 32] [$sp+0]
	;DEBUG_VALUE: main:path_list <- [DW_OP_plus_uconst 56] [$sp+0]
	;DEBUG_VALUE: main:fail_count <- 0
	;DEBUG_VALUE: main:argv <- $x20
	.loc	1 600 67 is_stmt 1              ; which.c:600:67
	add	x0, sp, #80
	bl	_strlen
Ltmp527:
	.loc	1 600 79 is_stmt 0              ; which.c:600:79
	add	x0, x0, #1
	adrp	x9, ___llvm_gcov_ctr.5@PAGE
	ldr	x8, [x9, ___llvm_gcov_ctr.5@PAGEOFF]
	add	x8, x8, #1
	str	x8, [x9, ___llvm_gcov_ctr.5@PAGEOFF]
Ltmp528:
	;DEBUG_VALUE: xmalloc:size <- $x0
	.loc	1 680 15 is_stmt 1              ; which.c:680:15
	bl	_malloc
Ltmp529:
	;DEBUG_VALUE: xmalloc:ptr <- $x0
	.loc	1 681 7                         ; which.c:681:7
	cbz	x0, LBB4_144
Ltmp530:
; %bb.89:                               ; %xmalloc.exit
                                        ;   in Loop: Header=BB4_60 Depth=1
	;DEBUG_VALUE: function_start_has_declare <- [DW_OP_plus_uconst 52] [$sp+0]
	;DEBUG_VALUE: main:function_start_type <- [DW_OP_plus_uconst 36] [$sp+0]
	;DEBUG_VALUE: main:argc <- [DW_OP_plus_uconst 32] [$sp+0]
	;DEBUG_VALUE: main:path_list <- [DW_OP_plus_uconst 56] [$sp+0]
	;DEBUG_VALUE: main:fail_count <- 0
	;DEBUG_VALUE: main:argv <- $x20
	.loc	1 600 27                        ; which.c:600:27
	add	x1, sp, #80
	bl	_strcpy
Ltmp531:
	.loc	1 600 2 is_stmt 0               ; which.c:600:2
Lloh209:
	adrp	x8, _aliases@PAGE
Lloh210:
	ldr	x8, [x8, _aliases@PAGEOFF]
	adrp	x11, _alias_count@PAGE
	.loc	1 600 21                        ; which.c:600:21
	ldrsw	x9, [x11, _alias_count@PAGEOFF]
	add	w10, w9, #1
	str	w10, [x11, _alias_count@PAGEOFF]
	.loc	1 600 25                        ; which.c:600:25
	str	x0, [x8, x9, lsl  #3]
	mov	w23, #1
	b	LBB4_58
Ltmp532:
LBB4_90:                                ;   in Loop: Header=BB4_60 Depth=1
	;DEBUG_VALUE: looks_like_function_start <- $w8
	;DEBUG_VALUE: function_start_has_declare <- [DW_OP_plus_uconst 52] [$sp+0]
	;DEBUG_VALUE: main:function_start_type <- [DW_OP_plus_uconst 36] [$sp+0]
	;DEBUG_VALUE: main:argc <- [DW_OP_plus_uconst 32] [$sp+0]
	;DEBUG_VALUE: processing_aliases <- $w23
	;DEBUG_VALUE: main:path_list <- [DW_OP_plus_uconst 56] [$sp+0]
	;DEBUG_VALUE: main:fail_count <- 0
	;DEBUG_VALUE: main:argv <- $x20
	.loc	1 602 16 is_stmt 1              ; which.c:602:16
	adrp	x9, _read_functions@PAGE
	ldrb	w9, [x9, _read_functions@PAGEOFF]
	.loc	1 602 31 is_stmt 0              ; which.c:602:31
	tbz	w9, #0, LBB4_57
Ltmp533:
; %bb.91:                               ;   in Loop: Header=BB4_60 Depth=1
	;DEBUG_VALUE: looks_like_function_start <- $w8
	;DEBUG_VALUE: function_start_has_declare <- [DW_OP_plus_uconst 52] [$sp+0]
	;DEBUG_VALUE: main:function_start_type <- [DW_OP_plus_uconst 36] [$sp+0]
	;DEBUG_VALUE: main:argc <- [DW_OP_plus_uconst 32] [$sp+0]
	;DEBUG_VALUE: processing_aliases <- $w23
	;DEBUG_VALUE: main:path_list <- [DW_OP_plus_uconst 56] [$sp+0]
	;DEBUG_VALUE: main:fail_count <- 0
	;DEBUG_VALUE: main:argv <- $x20
	.loc	1 0 31                          ; which.c:0:31
	adrp	x10, ___llvm_gcov_ctr.6@PAGE+352
	.loc	1 602 34                        ; which.c:602:34
	ldr	x9, [x10, ___llvm_gcov_ctr.6@PAGEOFF+352]
	add	x9, x9, #1
	str	x9, [x10, ___llvm_gcov_ctr.6@PAGEOFF+352]
Ltmp534:
	.loc	1 602 16                        ; which.c:602:16
	cbz	w8, LBB4_57
Ltmp535:
LBB4_92:                                ;   in Loop: Header=BB4_60 Depth=1
	;DEBUG_VALUE: function_start_has_declare <- [DW_OP_plus_uconst 52] [$sp+0]
	;DEBUG_VALUE: main:function_start_type <- [DW_OP_plus_uconst 36] [$sp+0]
	;DEBUG_VALUE: main:argc <- [DW_OP_plus_uconst 32] [$sp+0]
	;DEBUG_VALUE: processing_aliases <- $w23
	;DEBUG_VALUE: main:path_list <- [DW_OP_plus_uconst 56] [$sp+0]
	;DEBUG_VALUE: main:fail_count <- 0
	;DEBUG_VALUE: main:argv <- $x20
	;DEBUG_VALUE: processing_aliases <- 0
	;DEBUG_VALUE: p <- [DW_OP_plus_uconst 80, DW_OP_stack_value] $sp
	;DEBUG_VALUE: len <- 0
	.loc	1 0 16                          ; which.c:0:16
	ldr	w8, [sp, #52]                   ; 4-byte Folded Reload
Ltmp536:
	.loc	1 613 6 is_stmt 1               ; which.c:613:6
	cbz	w8, LBB4_104
Ltmp537:
; %bb.93:                               ;   in Loop: Header=BB4_60 Depth=1
	;DEBUG_VALUE: len <- 0
	;DEBUG_VALUE: p <- [DW_OP_plus_uconst 80, DW_OP_stack_value] $sp
	;DEBUG_VALUE: processing_aliases <- 0
	;DEBUG_VALUE: function_start_has_declare <- [DW_OP_plus_uconst 52] [$sp+0]
	;DEBUG_VALUE: main:function_start_type <- [DW_OP_plus_uconst 36] [$sp+0]
	;DEBUG_VALUE: main:argc <- [DW_OP_plus_uconst 32] [$sp+0]
	;DEBUG_VALUE: main:path_list <- [DW_OP_plus_uconst 56] [$sp+0]
	;DEBUG_VALUE: main:fail_count <- 0
	;DEBUG_VALUE: main:argv <- $x20
	;DEBUG_VALUE: p <- [DW_OP_plus_uconst 40] [$sp+0]
	.loc	1 616 10                        ; which.c:616:10
	ldrb	w8, [sp, #89]
	ldr	x26, [sp, #40]                  ; 8-byte Folded Reload
	adrp	x21, _func_count@PAGE
	adrp	x14, _max_func_count@PAGE
	adrp	x15, ___llvm_gcov_ctr.6@PAGE+384
	adrp	x16, ___llvm_gcov_ctr.6@PAGE+392
	adrp	x17, ___llvm_gcov_ctr.6@PAGE+368
	.loc	1 616 13 is_stmt 0              ; which.c:616:13
	cbz	w8, LBB4_98
Ltmp538:
; %bb.94:                               ; %.lr.ph.preheader
                                        ;   in Loop: Header=BB4_60 Depth=1
	;DEBUG_VALUE: p <- [DW_OP_plus_uconst 40] [$sp+0]
	;DEBUG_VALUE: len <- 0
	;DEBUG_VALUE: processing_aliases <- 0
	;DEBUG_VALUE: function_start_has_declare <- [DW_OP_plus_uconst 52] [$sp+0]
	;DEBUG_VALUE: main:function_start_type <- [DW_OP_plus_uconst 36] [$sp+0]
	;DEBUG_VALUE: main:argc <- [DW_OP_plus_uconst 32] [$sp+0]
	;DEBUG_VALUE: main:path_list <- [DW_OP_plus_uconst 56] [$sp+0]
	;DEBUG_VALUE: main:fail_count <- 0
	;DEBUG_VALUE: main:argv <- $x20
	.loc	1 0 13                          ; which.c:0:13
Lloh211:
	adrp	x10, ___llvm_gcov_ctr.6@PAGE+360
Lloh212:
	add	x10, x10, ___llvm_gcov_ctr.6@PAGEOFF+360
	ldp	x10, x9, [x10]
	.loc	1 616 4                         ; which.c:616:4
	add	x11, x10, #1
	add	x9, x9, #1
	ldr	x12, [sp, #24]                  ; 8-byte Folded Reload
Ltmp539:
LBB4_95:                                ; %.lr.ph
                                        ;   Parent Loop BB4_60 Depth=1
                                        ; =>  This Inner Loop Header: Depth=2
	;DEBUG_VALUE: len <- 0
	;DEBUG_VALUE: processing_aliases <- 0
	;DEBUG_VALUE: function_start_has_declare <- [DW_OP_plus_uconst 52] [$sp+0]
	;DEBUG_VALUE: main:function_start_type <- [DW_OP_plus_uconst 36] [$sp+0]
	;DEBUG_VALUE: main:argc <- [DW_OP_plus_uconst 32] [$sp+0]
	;DEBUG_VALUE: main:path_list <- [DW_OP_plus_uconst 56] [$sp+0]
	;DEBUG_VALUE: main:fail_count <- 0
	;DEBUG_VALUE: main:argv <- $x20
	.loc	1 0 4                           ; which.c:0:4
	mov	x26, x12
	mov	x10, x11
Ltmp540:
	;DEBUG_VALUE: p <- $x26
	.loc	1 616 4                         ; which.c:616:4
	cmp	w8, #32
	b.eq	LBB4_97
Ltmp541:
; %bb.96:                               ;   in Loop: Header=BB4_95 Depth=2
	;DEBUG_VALUE: p <- $x26
	;DEBUG_VALUE: len <- 0
	;DEBUG_VALUE: processing_aliases <- 0
	;DEBUG_VALUE: function_start_has_declare <- [DW_OP_plus_uconst 52] [$sp+0]
	;DEBUG_VALUE: main:function_start_type <- [DW_OP_plus_uconst 36] [$sp+0]
	;DEBUG_VALUE: main:argc <- [DW_OP_plus_uconst 32] [$sp+0]
	;DEBUG_VALUE: main:path_list <- [DW_OP_plus_uconst 56] [$sp+0]
	;DEBUG_VALUE: main:fail_count <- 0
	;DEBUG_VALUE: main:argv <- $x20
	str	x9, [x17, ___llvm_gcov_ctr.6@PAGEOFF+368]
	;DEBUG_VALUE: p <- $x26
	.loc	1 616 10                        ; which.c:616:10
	mov	x12, x26
	ldrb	w8, [x12], #1
	.loc	1 616 13                        ; which.c:616:13
	add	x11, x10, #1
	add	x9, x9, #1
	cbnz	w8, LBB4_95
Ltmp542:
LBB4_97:                                ; %.critedge77.sink.split
                                        ;   in Loop: Header=BB4_60 Depth=1
	;DEBUG_VALUE: p <- $x26
	;DEBUG_VALUE: len <- 0
	;DEBUG_VALUE: processing_aliases <- 0
	;DEBUG_VALUE: function_start_has_declare <- [DW_OP_plus_uconst 52] [$sp+0]
	;DEBUG_VALUE: main:function_start_type <- [DW_OP_plus_uconst 36] [$sp+0]
	;DEBUG_VALUE: main:argc <- [DW_OP_plus_uconst 32] [$sp+0]
	;DEBUG_VALUE: main:path_list <- [DW_OP_plus_uconst 56] [$sp+0]
	;DEBUG_VALUE: main:fail_count <- 0
	;DEBUG_VALUE: main:argv <- $x20
	.loc	1 616 18                        ; which.c:616:18
	adrp	x8, ___llvm_gcov_ctr.6@PAGE+360
	str	x10, [x8, ___llvm_gcov_ctr.6@PAGEOFF+360]
Ltmp543:
LBB4_98:                                ; %.critedge77
                                        ;   in Loop: Header=BB4_60 Depth=1
	;DEBUG_VALUE: len <- 0
	;DEBUG_VALUE: processing_aliases <- 0
	;DEBUG_VALUE: function_start_has_declare <- [DW_OP_plus_uconst 52] [$sp+0]
	;DEBUG_VALUE: main:function_start_type <- [DW_OP_plus_uconst 36] [$sp+0]
	;DEBUG_VALUE: main:argc <- [DW_OP_plus_uconst 32] [$sp+0]
	;DEBUG_VALUE: main:path_list <- [DW_OP_plus_uconst 56] [$sp+0]
	;DEBUG_VALUE: main:fail_count <- 0
	;DEBUG_VALUE: main:argv <- $x20
	;DEBUG_VALUE: p <- $x26
	.loc	1 0 18                          ; which.c:0:18
	adrp	x9, ___llvm_gcov_ctr.6@PAGE+376
	.loc	1 617 2 is_stmt 1               ; which.c:617:2
	ldr	x8, [x9, ___llvm_gcov_ctr.6@PAGEOFF+376]
	add	x8, x8, #1
	str	x8, [x9, ___llvm_gcov_ctr.6@PAGEOFF+376]
Ltmp544:
	;DEBUG_VALUE: p <- $x26
	;DEBUG_VALUE: len <- 0
	.loc	1 619 8                         ; which.c:619:8
	ldrb	w8, [x26]
	.loc	1 619 11 is_stmt 0              ; which.c:619:11
	cbz	w8, LBB4_105
Ltmp545:
LBB4_99:                                ; %.lr.ph321.preheader
                                        ;   in Loop: Header=BB4_60 Depth=1
	;DEBUG_VALUE: p <- $x26
	;DEBUG_VALUE: len <- 0
	;DEBUG_VALUE: processing_aliases <- 0
	;DEBUG_VALUE: function_start_has_declare <- [DW_OP_plus_uconst 52] [$sp+0]
	;DEBUG_VALUE: main:function_start_type <- [DW_OP_plus_uconst 36] [$sp+0]
	;DEBUG_VALUE: main:argc <- [DW_OP_plus_uconst 32] [$sp+0]
	;DEBUG_VALUE: main:path_list <- [DW_OP_plus_uconst 56] [$sp+0]
	;DEBUG_VALUE: main:fail_count <- 0
	;DEBUG_VALUE: main:argv <- $x20
	.loc	1 0 11                          ; which.c:0:11
	mov	x24, #0
	.loc	1 619 15                        ; which.c:619:15
	ldr	x8, [x15, ___llvm_gcov_ctr.6@PAGEOFF+384]
	.loc	1 619 2                         ; which.c:619:2
	add	x8, x8, #1
Ltmp546:
LBB4_100:                               ; %.lr.ph321
                                        ;   Parent Loop BB4_60 Depth=1
                                        ; =>  This Inner Loop Header: Depth=2
	;DEBUG_VALUE: processing_aliases <- 0
	;DEBUG_VALUE: function_start_has_declare <- [DW_OP_plus_uconst 52] [$sp+0]
	;DEBUG_VALUE: main:function_start_type <- [DW_OP_plus_uconst 36] [$sp+0]
	;DEBUG_VALUE: main:argc <- [DW_OP_plus_uconst 32] [$sp+0]
	;DEBUG_VALUE: main:path_list <- [DW_OP_plus_uconst 56] [$sp+0]
	;DEBUG_VALUE: main:fail_count <- 0
	;DEBUG_VALUE: main:argv <- $x20
	;DEBUG_VALUE: p <- [DW_OP_LLVM_arg 0, DW_OP_LLVM_arg 1, DW_OP_plus, DW_OP_stack_value] $x24, $x26
	;DEBUG_VALUE: len <- $x24
	.loc	1 619 15                        ; which.c:619:15
	add	x9, x8, x24
	str	x9, [x15, ___llvm_gcov_ctr.6@PAGEOFF+384]
	.loc	1 619 14                        ; which.c:619:14
	ldrb	w9, [x26, x24]
	.loc	1 619 2                         ; which.c:619:2
	cmp	w9, #32
	b.eq	LBB4_102
Ltmp547:
; %bb.101:                              ;   in Loop: Header=BB4_100 Depth=2
	;DEBUG_VALUE: len <- $x24
	;DEBUG_VALUE: p <- [DW_OP_LLVM_arg 0, DW_OP_LLVM_arg 1, DW_OP_plus, DW_OP_stack_value] $x24, $x26
	;DEBUG_VALUE: processing_aliases <- 0
	;DEBUG_VALUE: function_start_has_declare <- [DW_OP_plus_uconst 52] [$sp+0]
	;DEBUG_VALUE: main:function_start_type <- [DW_OP_plus_uconst 36] [$sp+0]
	;DEBUG_VALUE: main:argc <- [DW_OP_plus_uconst 32] [$sp+0]
	;DEBUG_VALUE: main:path_list <- [DW_OP_plus_uconst 56] [$sp+0]
	;DEBUG_VALUE: main:fail_count <- 0
	;DEBUG_VALUE: main:argv <- $x20
	.loc	1 620 4 is_stmt 1               ; which.c:620:4
	ldr	x9, [x16, ___llvm_gcov_ctr.6@PAGEOFF+392]
	add	x9, x9, #1
	str	x9, [x16, ___llvm_gcov_ctr.6@PAGEOFF+392]
Ltmp548:
	;DEBUG_VALUE: p <- [DW_OP_LLVM_arg 0, DW_OP_consts 1, DW_OP_LLVM_arg 1, DW_OP_plus, DW_OP_plus, DW_OP_stack_value] $x24, $x26
	.loc	1 620 9 is_stmt 0               ; which.c:620:9
	add	x9, x26, x24
Ltmp549:
	;DEBUG_VALUE: len <- [DW_OP_consts 1, DW_OP_plus, DW_OP_stack_value] $x24
	.loc	1 619 8 is_stmt 1               ; which.c:619:8
	ldrb	w9, [x9, #1]
	.loc	1 619 11 is_stmt 0              ; which.c:619:11
	add	x24, x24, #1
Ltmp550:
	cbnz	w9, LBB4_100
Ltmp551:
LBB4_102:                               ; %.lr.ph321..critedge79.loopexit_crit_edge
                                        ;   in Loop: Header=BB4_60 Depth=1
	;DEBUG_VALUE: processing_aliases <- 0
	;DEBUG_VALUE: function_start_has_declare <- [DW_OP_plus_uconst 52] [$sp+0]
	;DEBUG_VALUE: main:function_start_type <- [DW_OP_plus_uconst 36] [$sp+0]
	;DEBUG_VALUE: main:argc <- [DW_OP_plus_uconst 32] [$sp+0]
	;DEBUG_VALUE: main:path_list <- [DW_OP_plus_uconst 56] [$sp+0]
	;DEBUG_VALUE: main:fail_count <- 0
	;DEBUG_VALUE: main:argv <- $x20
	.loc	1 0 0                           ; which.c:0:0
	add	x26, x26, x24
	b	LBB4_106
Ltmp552:
LBB4_103:                               ;   in Loop: Header=BB4_60 Depth=1
	;DEBUG_VALUE: function_start_has_declare <- [DW_OP_plus_uconst 52] [$sp+0]
	;DEBUG_VALUE: main:function_start_type <- [DW_OP_plus_uconst 36] [$sp+0]
	;DEBUG_VALUE: main:argc <- [DW_OP_plus_uconst 32] [$sp+0]
	;DEBUG_VALUE: processing_aliases <- $w23
	;DEBUG_VALUE: main:path_list <- [DW_OP_plus_uconst 56] [$sp+0]
	;DEBUG_VALUE: main:fail_count <- 0
	;DEBUG_VALUE: main:argv <- $x20
	adrp	x9, ___llvm_gcov_ctr.6@PAGE+336
	ldr	x8, [x9, ___llvm_gcov_ctr.6@PAGEOFF+336]
	add	x8, x8, #1
	str	x8, [x9, ___llvm_gcov_ctr.6@PAGEOFF+336]
	mov	w23, #1
Ltmp553:
	;DEBUG_VALUE: processing_aliases <- 1
	b	LBB4_59
Ltmp554:
LBB4_104:                               ;   in Loop: Header=BB4_60 Depth=1
	;DEBUG_VALUE: len <- 0
	;DEBUG_VALUE: p <- [DW_OP_plus_uconst 80, DW_OP_stack_value] $sp
	;DEBUG_VALUE: processing_aliases <- 0
	;DEBUG_VALUE: function_start_has_declare <- [DW_OP_plus_uconst 52] [$sp+0]
	;DEBUG_VALUE: main:function_start_type <- [DW_OP_plus_uconst 36] [$sp+0]
	;DEBUG_VALUE: main:argc <- [DW_OP_plus_uconst 32] [$sp+0]
	;DEBUG_VALUE: main:path_list <- [DW_OP_plus_uconst 56] [$sp+0]
	;DEBUG_VALUE: main:fail_count <- 0
	;DEBUG_VALUE: main:argv <- $x20
	add	x26, sp, #80
	adrp	x21, _func_count@PAGE
	adrp	x14, _max_func_count@PAGE
	adrp	x15, ___llvm_gcov_ctr.6@PAGE+384
	adrp	x16, ___llvm_gcov_ctr.6@PAGE+392
Ltmp555:
	;DEBUG_VALUE: p <- $x26
	;DEBUG_VALUE: len <- 0
	.loc	1 619 8                         ; which.c:619:8
	ldrb	w8, [x26]
	.loc	1 619 11                        ; which.c:619:11
	cbnz	w8, LBB4_99
Ltmp556:
LBB4_105:                               ;   in Loop: Header=BB4_60 Depth=1
	;DEBUG_VALUE: p <- $x26
	;DEBUG_VALUE: len <- 0
	;DEBUG_VALUE: processing_aliases <- 0
	;DEBUG_VALUE: function_start_has_declare <- [DW_OP_plus_uconst 52] [$sp+0]
	;DEBUG_VALUE: main:function_start_type <- [DW_OP_plus_uconst 36] [$sp+0]
	;DEBUG_VALUE: main:argc <- [DW_OP_plus_uconst 32] [$sp+0]
	;DEBUG_VALUE: main:path_list <- [DW_OP_plus_uconst 56] [$sp+0]
	;DEBUG_VALUE: main:fail_count <- 0
	;DEBUG_VALUE: main:argv <- $x20
	.loc	1 0 11                          ; which.c:0:11
	mov	w24, #0
Ltmp557:
LBB4_106:                               ; %.critedge79
                                        ;   in Loop: Header=BB4_60 Depth=1
	;DEBUG_VALUE: processing_aliases <- 0
	;DEBUG_VALUE: function_start_has_declare <- [DW_OP_plus_uconst 52] [$sp+0]
	;DEBUG_VALUE: main:function_start_type <- [DW_OP_plus_uconst 36] [$sp+0]
	;DEBUG_VALUE: main:argc <- [DW_OP_plus_uconst 32] [$sp+0]
	;DEBUG_VALUE: main:path_list <- [DW_OP_plus_uconst 56] [$sp+0]
	;DEBUG_VALUE: main:fail_count <- 0
	;DEBUG_VALUE: main:argv <- $x20
	.loc	1 622 6 is_stmt 1               ; which.c:622:6
	ldr	w19, [x21, _func_count@PAGEOFF]
	.loc	1 622 20 is_stmt 0              ; which.c:622:20
	ldr	w8, [x14, _max_func_count@PAGEOFF]
Ltmp558:
	.loc	1 622 6                         ; which.c:622:6
	cmp	w19, w8
	b.ne	LBB4_108
Ltmp559:
; %bb.107:                              ;   in Loop: Header=BB4_60 Depth=1
	;DEBUG_VALUE: processing_aliases <- 0
	;DEBUG_VALUE: function_start_has_declare <- [DW_OP_plus_uconst 52] [$sp+0]
	;DEBUG_VALUE: main:function_start_type <- [DW_OP_plus_uconst 36] [$sp+0]
	;DEBUG_VALUE: main:argc <- [DW_OP_plus_uconst 32] [$sp+0]
	;DEBUG_VALUE: main:path_list <- [DW_OP_plus_uconst 56] [$sp+0]
	;DEBUG_VALUE: main:fail_count <- 0
	;DEBUG_VALUE: main:argv <- $x20
	.loc	1 0 6                           ; which.c:0:6
	adrp	x9, ___llvm_gcov_ctr.6@PAGE+400
Ltmp560:
	.loc	1 624 19 is_stmt 1              ; which.c:624:19
	ldr	x8, [x9, ___llvm_gcov_ctr.6@PAGEOFF+400]
	add	x8, x8, #1
	str	x8, [x9, ___llvm_gcov_ctr.6@PAGEOFF+400]
	add	w8, w19, #16
	str	w8, [x14, _max_func_count@PAGEOFF]
	adrp	x19, _functions@PAGE
	.loc	1 625 47                        ; which.c:625:47
	ldr	x0, [x19, _functions@PAGEOFF]
	.loc	1 625 73 is_stmt 0              ; which.c:625:73
	sbfiz	x1, x8, #5, #32
	.loc	1 625 38                        ; which.c:625:38
	bl	_xrealloc
Ltmp561:
	mov	x23, x0
	.loc	1 625 14                        ; which.c:625:14
	str	x0, [x19, _functions@PAGEOFF]
Ltmp562:
	.loc	1 627 34 is_stmt 1              ; which.c:627:34
	ldr	w19, [x21, _func_count@PAGEOFF]
	b	LBB4_109
Ltmp563:
LBB4_108:                               ; %.critedge79._crit_edge
                                        ;   in Loop: Header=BB4_60 Depth=1
	;DEBUG_VALUE: processing_aliases <- 0
	;DEBUG_VALUE: function_start_has_declare <- [DW_OP_plus_uconst 52] [$sp+0]
	;DEBUG_VALUE: main:function_start_type <- [DW_OP_plus_uconst 36] [$sp+0]
	;DEBUG_VALUE: main:argc <- [DW_OP_plus_uconst 32] [$sp+0]
	;DEBUG_VALUE: main:path_list <- [DW_OP_plus_uconst 56] [$sp+0]
	;DEBUG_VALUE: main:fail_count <- 0
	;DEBUG_VALUE: main:argv <- $x20
	.loc	1 627 14 is_stmt 0              ; which.c:627:14
Lloh213:
	adrp	x8, _functions@PAGE
Lloh214:
	ldr	x23, [x8, _functions@PAGEOFF]
Ltmp564:
LBB4_109:                               ;   in Loop: Header=BB4_60 Depth=1
	;DEBUG_VALUE: processing_aliases <- 0
	;DEBUG_VALUE: function_start_has_declare <- [DW_OP_plus_uconst 52] [$sp+0]
	;DEBUG_VALUE: main:function_start_type <- [DW_OP_plus_uconst 36] [$sp+0]
	;DEBUG_VALUE: main:argc <- [DW_OP_plus_uconst 32] [$sp+0]
	;DEBUG_VALUE: main:path_list <- [DW_OP_plus_uconst 56] [$sp+0]
	;DEBUG_VALUE: main:fail_count <- 0
	;DEBUG_VALUE: main:argv <- $x20
	.loc	1 627 34                        ; which.c:627:34
	add	w8, w19, #1
	str	w8, [x21, _func_count@PAGEOFF]
Ltmp565:
	;DEBUG_VALUE: function <- [DW_OP_LLVM_arg 0, DW_OP_LLVM_arg 0, DW_OP_constu 32, DW_OP_mul, DW_OP_plus, DW_OP_stack_value] undef
	.loc	1 628 39 is_stmt 1              ; which.c:628:39
	add	w0, w24, #1
	adrp	x21, ___llvm_gcov_ctr.5@PAGE
	ldr	x8, [x21, ___llvm_gcov_ctr.5@PAGEOFF]
	add	x8, x8, #1
	str	x8, [x21, ___llvm_gcov_ctr.5@PAGEOFF]
Ltmp566:
	;DEBUG_VALUE: xmalloc:size <- $x0
	.loc	1 680 15                        ; which.c:680:15
	bl	_malloc
Ltmp567:
	;DEBUG_VALUE: xmalloc:ptr <- $x0
	.loc	1 681 7                         ; which.c:681:7
	cbz	x0, LBB4_144
Ltmp568:
; %bb.110:                              ; %xmalloc.exit250
                                        ;   in Loop: Header=BB4_60 Depth=1
	;DEBUG_VALUE: processing_aliases <- 0
	;DEBUG_VALUE: function_start_has_declare <- [DW_OP_plus_uconst 52] [$sp+0]
	;DEBUG_VALUE: main:function_start_type <- [DW_OP_plus_uconst 36] [$sp+0]
	;DEBUG_VALUE: main:argc <- [DW_OP_plus_uconst 32] [$sp+0]
	;DEBUG_VALUE: main:path_list <- [DW_OP_plus_uconst 56] [$sp+0]
	;DEBUG_VALUE: main:fail_count <- 0
	;DEBUG_VALUE: main:argv <- $x20
	.loc	1 0 0 is_stmt 0                 ; which.c:0:0
	sxtw	x8, w19
Ltmp569:
	;DEBUG_VALUE: function <- [DW_OP_LLVM_arg 0, DW_OP_LLVM_arg 1, DW_OP_constu 32, DW_OP_mul, DW_OP_plus, DW_OP_stack_value] $x23, $x8
	.loc	1 627 14 is_stmt 1              ; which.c:627:14
	add	x19, x23, x8, lsl #5
Ltmp570:
	;DEBUG_VALUE: function <- $x19
	.loc	1 628 17                        ; which.c:628:17
	str	x0, [x19]
	.loc	1 629 46                        ; which.c:629:46
	neg	w8, w24
	.loc	1 629 44 is_stmt 0              ; which.c:629:44
	add	x1, x26, w8, sxtw
	.loc	1 629 53                        ; which.c:629:53
	mov	w23, w24
	.loc	1 629 2                         ; which.c:629:2
	mov	x2, x23
	bl	_strncpy
Ltmp571:
	.loc	1 630 12 is_stmt 1              ; which.c:630:12
	ldr	x8, [x19]
	.loc	1 630 22 is_stmt 0              ; which.c:630:22
	strb	wzr, [x8, x23]
	.loc	1 631 16 is_stmt 1              ; which.c:631:16
	str	x23, [x19, #8]
Ltmp572:
	;DEBUG_VALUE: max_line_count <- 32
	.loc	1 0 16 is_stmt 0                ; which.c:0:16
	ldr	x8, [x21, ___llvm_gcov_ctr.5@PAGEOFF]
	add	x8, x8, #1
	str	x8, [x21, ___llvm_gcov_ctr.5@PAGEOFF]
Ltmp573:
	;DEBUG_VALUE: xmalloc:size <- 256
	.loc	1 680 15 is_stmt 1              ; which.c:680:15
	mov	w0, #256
	bl	_malloc
Ltmp574:
	;DEBUG_VALUE: xmalloc:ptr <- $x0
	.loc	1 0 15 is_stmt 0                ; which.c:0:15
	add	x21, sp, #80
	.loc	1 681 7 is_stmt 1               ; which.c:681:7
	cbz	x0, LBB4_144
Ltmp575:
; %bb.111:                              ; %xmalloc.exit253
                                        ;   in Loop: Header=BB4_60 Depth=1
	;DEBUG_VALUE: max_line_count <- 32
	;DEBUG_VALUE: function <- $x19
	;DEBUG_VALUE: processing_aliases <- 0
	;DEBUG_VALUE: function_start_has_declare <- [DW_OP_plus_uconst 52] [$sp+0]
	;DEBUG_VALUE: main:function_start_type <- [DW_OP_plus_uconst 36] [$sp+0]
	;DEBUG_VALUE: main:argc <- [DW_OP_plus_uconst 32] [$sp+0]
	;DEBUG_VALUE: main:path_list <- [DW_OP_plus_uconst 56] [$sp+0]
	;DEBUG_VALUE: main:fail_count <- 0
	;DEBUG_VALUE: main:argv <- $x20
	.loc	1 633 18                        ; which.c:633:18
	str	x0, [x19, #16]!
Ltmp576:
	.loc	1 634 23                        ; which.c:634:23
	mov	x23, x19
	str	wzr, [x23, #8]!
	;DEBUG_VALUE: max_line_count <- 32
Lloh215:
	adrp	x26, ___stdinp@GOTPAGE
Lloh216:
	ldr	x26, [x26, ___stdinp@GOTPAGEOFF]
	.loc	1 635 33                        ; which.c:635:33
	ldr	x2, [x26]
	.loc	1 635 9 is_stmt 0               ; which.c:635:9
	add	x0, sp, #80
	mov	w1, #1024
	bl	_fgets
Ltmp577:
	.loc	1 635 2                         ; which.c:635:2
	cbz	x0, LBB4_56
Ltmp578:
; %bb.112:                              ; %.lr.ph329.preheader
                                        ;   in Loop: Header=BB4_60 Depth=1
	;DEBUG_VALUE: max_line_count <- 32
	;DEBUG_VALUE: processing_aliases <- 0
	;DEBUG_VALUE: function_start_has_declare <- [DW_OP_plus_uconst 52] [$sp+0]
	;DEBUG_VALUE: main:function_start_type <- [DW_OP_plus_uconst 36] [$sp+0]
	;DEBUG_VALUE: main:argc <- [DW_OP_plus_uconst 32] [$sp+0]
	;DEBUG_VALUE: main:path_list <- [DW_OP_plus_uconst 56] [$sp+0]
	;DEBUG_VALUE: main:fail_count <- 0
	;DEBUG_VALUE: main:argv <- $x20
	.loc	1 0 2                           ; which.c:0:2
	mov	w24, #32
	b	LBB4_114
Ltmp579:
LBB4_113:                               ;   in Loop: Header=BB4_114 Depth=2
	;DEBUG_VALUE: max_line_count <- $w24
	;DEBUG_VALUE: processing_aliases <- 0
	;DEBUG_VALUE: function_start_has_declare <- [DW_OP_plus_uconst 52] [$sp+0]
	;DEBUG_VALUE: main:function_start_type <- [DW_OP_plus_uconst 36] [$sp+0]
	;DEBUG_VALUE: main:argc <- [DW_OP_plus_uconst 32] [$sp+0]
	;DEBUG_VALUE: main:path_list <- [DW_OP_plus_uconst 56] [$sp+0]
	;DEBUG_VALUE: main:fail_count <- 0
	;DEBUG_VALUE: main:argv <- $x20
	;DEBUG_VALUE: max_line_count <- undef
Lloh217:
	adrp	x8, ___llvm_gcov_ctr.6@PAGE+424
Lloh218:
	add	x8, x8, ___llvm_gcov_ctr.6@PAGEOFF+424
	.loc	1 646 2 is_stmt 1               ; which.c:646:2
	ldr	q0, [x8]
	ldr	q1, [sp, #64]                   ; 16-byte Folded Reload
	add.2d	v0, v0, v1
	str	q0, [x8]
Ltmp580:
	;DEBUG_VALUE: max_line_count <- $w24
	.loc	1 635 33                        ; which.c:635:33
	ldr	x2, [x26]
	.loc	1 635 9 is_stmt 0               ; which.c:635:9
	add	x0, sp, #80
	mov	w1, #1024
	bl	_fgets
Ltmp581:
	.loc	1 635 2                         ; which.c:635:2
	cbz	x0, LBB4_56
Ltmp582:
LBB4_114:                               ; %.lr.ph329
                                        ;   Parent Loop BB4_60 Depth=1
                                        ; =>  This Inner Loop Header: Depth=2
	;DEBUG_VALUE: processing_aliases <- 0
	;DEBUG_VALUE: function_start_has_declare <- [DW_OP_plus_uconst 52] [$sp+0]
	;DEBUG_VALUE: main:function_start_type <- [DW_OP_plus_uconst 36] [$sp+0]
	;DEBUG_VALUE: main:argc <- [DW_OP_plus_uconst 32] [$sp+0]
	;DEBUG_VALUE: main:path_list <- [DW_OP_plus_uconst 56] [$sp+0]
	;DEBUG_VALUE: main:fail_count <- 0
	;DEBUG_VALUE: main:argv <- $x20
	;DEBUG_VALUE: max_line_count <- $w24
	.loc	1 637 18 is_stmt 1              ; which.c:637:18
	add	x0, sp, #80
	bl	_strlen
Ltmp583:
	;DEBUG_VALUE: blen <- $x0
	.loc	1 638 91                        ; which.c:638:91
	add	x0, x0, #1
Ltmp584:
	.loc	1 0 91 is_stmt 0                ; which.c:0:91
	adrp	x9, ___llvm_gcov_ctr.5@PAGE
	ldr	x8, [x9, ___llvm_gcov_ctr.5@PAGEOFF]
	add	x8, x8, #1
	str	x8, [x9, ___llvm_gcov_ctr.5@PAGEOFF]
Ltmp585:
	;DEBUG_VALUE: xmalloc:size <- $x0
	.loc	1 680 15 is_stmt 1              ; which.c:680:15
	bl	_malloc
Ltmp586:
	;DEBUG_VALUE: xmalloc:ptr <- $x0
	.loc	1 681 7                         ; which.c:681:7
	cbz	x0, LBB4_144
Ltmp587:
; %bb.115:                              ; %xmalloc.exit256
                                        ;   in Loop: Header=BB4_114 Depth=2
	;DEBUG_VALUE: max_line_count <- $w24
	;DEBUG_VALUE: processing_aliases <- 0
	;DEBUG_VALUE: function_start_has_declare <- [DW_OP_plus_uconst 52] [$sp+0]
	;DEBUG_VALUE: main:function_start_type <- [DW_OP_plus_uconst 36] [$sp+0]
	;DEBUG_VALUE: main:argc <- [DW_OP_plus_uconst 32] [$sp+0]
	;DEBUG_VALUE: main:path_list <- [DW_OP_plus_uconst 56] [$sp+0]
	;DEBUG_VALUE: main:fail_count <- 0
	;DEBUG_VALUE: main:argv <- $x20
	.loc	1 638 46                        ; which.c:638:46
	add	x1, sp, #80
	bl	_strcpy
Ltmp588:
	.loc	1 638 14 is_stmt 0              ; which.c:638:14
	ldr	x9, [x19]
	.loc	1 638 40                        ; which.c:638:40
	ldrsw	x10, [x23]
	add	w8, w10, #1
	str	w8, [x23]
	.loc	1 638 44                        ; which.c:638:44
	str	x0, [x9, x10, lsl  #3]
Ltmp589:
	.loc	1 639 9 is_stmt 1               ; which.c:639:9
	ldrh	w9, [sp, #80]
	mov	w10, #2685
	eor	w9, w9, w10
	ldrb	w10, [sp, #82]
	orr	w9, w9, w10
Ltmp590:
	.loc	1 639 8 is_stmt 0               ; which.c:639:8
	cbz	w9, LBB4_55
Ltmp591:
; %bb.116:                              ;   in Loop: Header=BB4_114 Depth=2
	;DEBUG_VALUE: max_line_count <- $w24
	;DEBUG_VALUE: processing_aliases <- 0
	;DEBUG_VALUE: function_start_has_declare <- [DW_OP_plus_uconst 52] [$sp+0]
	;DEBUG_VALUE: main:function_start_type <- [DW_OP_plus_uconst 36] [$sp+0]
	;DEBUG_VALUE: main:argc <- [DW_OP_plus_uconst 32] [$sp+0]
	;DEBUG_VALUE: main:path_list <- [DW_OP_plus_uconst 56] [$sp+0]
	;DEBUG_VALUE: main:fail_count <- 0
	;DEBUG_VALUE: main:argv <- $x20
	.loc	1 641 15 is_stmt 1              ; which.c:641:15
	cmp	w8, w24
	b.ne	LBB4_113
Ltmp592:
; %bb.117:                              ;   in Loop: Header=BB4_114 Depth=2
	;DEBUG_VALUE: max_line_count <- $w24
	;DEBUG_VALUE: processing_aliases <- 0
	;DEBUG_VALUE: function_start_has_declare <- [DW_OP_plus_uconst 52] [$sp+0]
	;DEBUG_VALUE: main:function_start_type <- [DW_OP_plus_uconst 36] [$sp+0]
	;DEBUG_VALUE: main:argc <- [DW_OP_plus_uconst 32] [$sp+0]
	;DEBUG_VALUE: main:path_list <- [DW_OP_plus_uconst 56] [$sp+0]
	;DEBUG_VALUE: main:fail_count <- 0
	;DEBUG_VALUE: main:argv <- $x20
	.loc	1 0 15 is_stmt 0                ; which.c:0:15
	adrp	x9, ___llvm_gcov_ctr.6@PAGE+416
Ltmp593:
	.loc	1 643 21 is_stmt 1              ; which.c:643:21
	ldr	x8, [x9, ___llvm_gcov_ctr.6@PAGEOFF+416]
	add	x8, x8, #1
	str	x8, [x9, ___llvm_gcov_ctr.6@PAGEOFF+416]
	add	w24, w24, #32
Ltmp594:
	;DEBUG_VALUE: max_line_count <- $w24
	.loc	1 644 52                        ; which.c:644:52
	ldr	x0, [x19]
	.loc	1 644 74 is_stmt 0              ; which.c:644:74
	sbfiz	x1, x24, #3, #32
	.loc	1 644 33                        ; which.c:644:33
	bl	_xrealloc
Ltmp595:
	.loc	1 644 22                        ; which.c:644:22
	str	x0, [x19]
	b	LBB4_113
Ltmp596:
LBB4_118:
	;DEBUG_VALUE: main:argc <- [DW_OP_plus_uconst 32] [$sp+0]
	;DEBUG_VALUE: processing_aliases <- $w23
	;DEBUG_VALUE: main:function_start_type <- 0
	;DEBUG_VALUE: main:path_list <- [DW_OP_plus_uconst 56] [$sp+0]
	;DEBUG_VALUE: main:fail_count <- 0
	;DEBUG_VALUE: main:argv <- $x20
	.loc	1 0 22                          ; which.c:0:22
	str	wzr, [sp, #36]                  ; 4-byte Folded Spill
Ltmp597:
LBB4_119:                               ; %._crit_edge336
	;DEBUG_VALUE: main:argc <- [DW_OP_plus_uconst 32] [$sp+0]
	;DEBUG_VALUE: processing_aliases <- $w23
	;DEBUG_VALUE: main:path_list <- [DW_OP_plus_uconst 56] [$sp+0]
	;DEBUG_VALUE: main:fail_count <- 0
	;DEBUG_VALUE: main:argv <- $x20
	.loc	1 649 9 is_stmt 1               ; which.c:649:9
	adrp	x8, _read_alias@PAGE
	ldrb	w8, [x8, _read_alias@PAGEOFF]
Ltmp598:
	.loc	1 649 9 is_stmt 0               ; which.c:649:9
	cmp	w8, #1
	ldr	x23, [sp, #56]                  ; 8-byte Folded Reload
Ltmp599:
	.loc	1 0 9                           ; which.c:0:9
	ldp	w24, w26, [sp, #32]             ; 8-byte Folded Reload
	.loc	1 649 9                         ; which.c:649:9
	b.ne	LBB4_124
Ltmp600:
; %bb.120:                              ; %.preheader
	;DEBUG_VALUE: main:argc <- [DW_OP_plus_uconst 32] [$sp+0]
	;DEBUG_VALUE: main:path_list <- [DW_OP_plus_uconst 56] [$sp+0]
	;DEBUG_VALUE: main:fail_count <- 0
	;DEBUG_VALUE: main:argv <- $x20
	;DEBUG_VALUE: i <- 0
	.loc	1 0 9                           ; which.c:0:9
	adrp	x25, _alias_count@PAGE
Ltmp601:
	.loc	1 652 23 is_stmt 1              ; which.c:652:23
	ldr	w8, [x25, _alias_count@PAGEOFF]
Ltmp602:
	.loc	1 652 7 is_stmt 0               ; which.c:652:7
	cmp	w8, #1
	b.lt	LBB4_123
Ltmp603:
; %bb.121:                              ; %.lr.ph339.preheader
	;DEBUG_VALUE: i <- 0
	;DEBUG_VALUE: main:argc <- [DW_OP_plus_uconst 32] [$sp+0]
	;DEBUG_VALUE: main:path_list <- [DW_OP_plus_uconst 56] [$sp+0]
	;DEBUG_VALUE: main:fail_count <- 0
	;DEBUG_VALUE: main:argv <- $x20
	.loc	1 0 7                           ; which.c:0:7
	mov	x19, #0
	adrp	x21, ___llvm_gcov_ctr.6@PAGE+464
	adrp	x22, _aliases@PAGE
Ltmp604:
LBB4_122:                               ; %.lr.ph339
                                        ; =>This Inner Loop Header: Depth=1
	;DEBUG_VALUE: main:argc <- [DW_OP_plus_uconst 32] [$sp+0]
	;DEBUG_VALUE: main:path_list <- [DW_OP_plus_uconst 56] [$sp+0]
	;DEBUG_VALUE: main:fail_count <- 0
	;DEBUG_VALUE: main:argv <- $x20
	;DEBUG_VALUE: i <- $x19
	.loc	1 653 16 is_stmt 1              ; which.c:653:16
