	.file	"compress.c"
	.text
.Ltext0:
	.file 0 "/root/rustmap/bzip2-real-test" "compress.c"
	.p2align 4
	.type	generateMTFValues, @function
generateMTFValues:
.LVL0:
.LFB59:
	.file 1 "compress.c"
	.loc 1 121 1 view -0
	.cfi_startproc
	.loc 1 121 1 is_stmt 0 view .LVU1
	pushq	%r15
	.cfi_def_cfa_offset 16
	.cfi_offset 15, -16
	leaq	384(%rdi), %rcx
	pushq	%r14
	.cfi_def_cfa_offset 24
	.cfi_offset 14, -24
	pushq	%r13
	.cfi_def_cfa_offset 32
	.cfi_offset 13, -32
	pushq	%r12
	.cfi_def_cfa_offset 40
	.cfi_offset 12, -40
	pushq	%rbp
	.cfi_def_cfa_offset 48
	.cfi_offset 6, -48
	movq	%rdi, %rbp
	pushq	%rbx
	.cfi_def_cfa_offset 56
	.cfi_offset 3, -56
.LBB74:
.LBB75:
	.loc 1 109 14 view .LVU2
	xorl	%ebx, %ebx
.LBE75:
.LBE74:
	.loc 1 121 1 view .LVU3
	subq	$296, %rsp
	.cfi_def_cfa_offset 352
	.loc 1 150 12 view .LVU4
	movq	56(%rdi), %r12
	.loc 1 151 11 view .LVU5
	movq	64(%rdi), %r13
	.loc 1 121 1 view .LVU6
	movq	%fs:40, %rax
	movq	%rax, 280(%rsp)
	xorl	%eax, %eax
	.loc 1 122 4 is_stmt 1 view .LVU7
	.loc 1 123 4 view .LVU8
	.loc 1 124 4 view .LVU9
	.loc 1 125 4 view .LVU10
	.loc 1 126 4 view .LVU11
	.loc 1 150 4 view .LVU12
.LVL1:
	.loc 1 151 4 view .LVU13
	.loc 1 152 4 view .LVU14
.LBB78:
.LBB76:
	.loc 1 109 14 is_stmt 0 view .LVU15
	movl	$0, 124(%rdi)
.LBE76:
.LBE78:
	.loc 1 152 12 view .LVU16
	movq	72(%rdi), %r14
.LVL2:
	.loc 1 154 4 is_stmt 1 view .LVU17
.LBB79:
.LBI74:
	.loc 1 106 6 view .LVU18
.LBB77:
	.loc 1 108 4 view .LVU19
	.loc 1 109 4 view .LVU20
	.loc 1 110 4 view .LVU21
	.loc 1 110 18 view .LVU22
	leaq	128(%rdi), %rax
.LVL3:
	.p2align 4,,10
	.p2align 3
.L3:
	.loc 1 111 7 view .LVU23
	.loc 1 111 10 is_stmt 0 view .LVU24
	cmpb	$0, (%rax)
	je	.L2
	.loc 1 113 19 view .LVU25
	leal	1(%rbx), %edx
	.loc 1 112 10 is_stmt 1 view .LVU26
	.loc 1 112 27 is_stmt 0 view .LVU27
	movb	%bl, 256(%rax)
	.loc 1 113 10 is_stmt 1 view .LVU28
	.loc 1 113 19 is_stmt 0 view .LVU29
	movl	%edx, 124(%rbp)
	movl	%edx, %ebx
.L2:
	.loc 1 110 26 is_stmt 1 view .LVU30
.LVL4:
	.loc 1 110 18 view .LVU31
	addq	$1, %rax
.LVL5:
	.loc 1 110 18 is_stmt 0 view .LVU32
	cmpq	%rax, %rcx
	jne	.L3
.LVL6:
	.loc 1 110 18 view .LVU33
.LBE77:
.LBE79:
	.loc 1 155 4 is_stmt 1 view .LVU34
	.loc 1 155 8 is_stmt 0 view .LVU35
	leal	1(%rbx), %ecx
.LVL7:
	.loc 1 157 4 is_stmt 1 view .LVU36
	.loc 1 157 18 view .LVU37
	.loc 1 157 45 is_stmt 0 view .LVU38
	xorl	%esi, %esi
	leaq	672(%rbp), %rdi
.LVL8:
	.loc 1 157 45 view .LVU39
	movslq	%ecx, %r15
	movl	%ecx, 12(%rsp)
	leaq	4(,%r15,4), %rdx
	call	memset@PLT
.LVL9:
	.loc 1 161 18 is_stmt 1 view .LVU40
	xorl	%eax, %eax
	testl	%ebx, %ebx
	movl	12(%rsp), %ecx
	movslq	%ebx, %rsi
	leaq	16(%rsp), %rdx
	je	.L8
.LVL10:
	.p2align 4,,10
	.p2align 3
.L7:
	.loc 1 161 36 discriminator 3 view .LVU41
	.loc 1 161 42 is_stmt 0 discriminator 3 view .LVU42
	movb	%al, (%rdx,%rax)
	.loc 1 161 32 is_stmt 1 discriminator 3 view .LVU43
.LVL11:
	.loc 1 161 18 discriminator 3 view .LVU44
	addq	$1, %rax
.LVL12:
	.loc 1 161 18 is_stmt 0 discriminator 3 view .LVU45
	cmpq	%rax, %rsi
	jne	.L7
.L8:
.LVL13:
	.loc 1 163 18 is_stmt 1 view .LVU46
	.loc 1 163 21 is_stmt 0 view .LVU47
	movl	108(%rbp), %esi
	.loc 1 163 18 view .LVU48
	movl	$1, %edx
	testl	%esi, %esi
	jle	.L6
	leal	-1(%rsi), %eax
	.loc 1 159 7 view .LVU49
	xorl	%edx, %edx
.LBB80:
.LBB81:
	.loc 1 205 23 view .LVU50
	leaq	16(%rsp), %r8
.LBE81:
.LBE80:
	.loc 1 160 10 view .LVU51
	xorl	%r9d, %r9d
	leaq	4(%r12,%rax,4), %rdi
	jmp	.L18
.LVL14:
	.p2align 4,,10
	.p2align 3
.L37:
.LBB87:
	.loc 1 171 10 is_stmt 1 view .LVU52
.LBE87:
	.loc 1 163 18 is_stmt 0 view .LVU53
	addq	$4, %r12
.LVL15:
.LBB88:
	.loc 1 171 15 view .LVU54
	addl	$1, %r9d
.LVL16:
	.loc 1 171 15 view .LVU55
.LBE88:
	.loc 1 163 32 is_stmt 1 view .LVU56
	.loc 1 163 18 view .LVU57
	cmpq	%r12, %rdi
	je	.L36
.LVL17:
.L18:
.LBB89:
	.loc 1 164 7 view .LVU58
	.loc 1 165 7 view .LVU59
	.loc 1 166 7 view .LVU60
	.loc 1 166 17 is_stmt 0 view .LVU61
	movl	(%r12), %eax
	.loc 1 170 13 view .LVU62
	movzbl	16(%rsp), %r11d
	.loc 1 166 17 view .LVU63
	subl	$1, %eax
.LVL18:
	.loc 1 166 21 is_stmt 1 view .LVU64
	.loc 1 166 34 is_stmt 0 view .LVU65
	leal	(%rax,%rsi), %r10d
	cmovs	%r10d, %eax
.LVL19:
	.loc 1 167 7 is_stmt 1 view .LVU66
	.loc 1 167 33 is_stmt 0 view .LVU67
	cltq
	.loc 1 167 12 view .LVU68
	movzbl	0(%r13,%rax), %eax
.LVL20:
	.loc 1 167 12 view .LVU69
	movzbl	384(%rbp,%rax), %r10d
.LVL21:
	.loc 1 168 7 is_stmt 1 view .LVU70
	.loc 1 170 7 view .LVU71
	.loc 1 170 10 is_stmt 0 view .LVU72
	cmpb	%r10b, %r11b
.LVL22:
	.loc 1 170 10 view .LVU73
	je	.L37
	.loc 1 174 10 is_stmt 1 view .LVU74
	.loc 1 174 13 is_stmt 0 view .LVU75
	testl	%r9d, %r9d
	jne	.L38
.LVL23:
.L12:
.LBB83:
	.loc 1 190 13 is_stmt 1 view .LVU76
	.loc 1 191 13 view .LVU77
	.loc 1 192 13 view .LVU78
	.loc 1 193 13 view .LVU79
	.loc 1 193 18 is_stmt 0 view .LVU80
	movzbl	17(%rsp), %r9d
.LVL24:
	.loc 1 194 13 is_stmt 1 view .LVU81
	.loc 1 194 19 is_stmt 0 view .LVU82
	movb	%r11b, 17(%rsp)
	.loc 1 195 13 is_stmt 1 view .LVU83
.LVL25:
	.loc 1 196 13 view .LVU84
	.loc 1 197 13 view .LVU85
	.loc 1 197 27 view .LVU86
	cmpb	%r9b, %r10b
	je	.L25
	.loc 1 195 19 is_stmt 0 view .LVU87
	leaq	17(%rsp), %rax
.LVL26:
	.p2align 4,,10
	.p2align 3
.L17:
.LBB82:
	.loc 1 198 16 is_stmt 1 view .LVU88
	.loc 1 199 16 view .LVU89
	.loc 1 199 21 is_stmt 0 view .LVU90
	addq	$1, %rax
.LVL27:
	.loc 1 200 16 is_stmt 1 view .LVU91
	.loc 1 201 16 view .LVU92
	movl	%r9d, %r11d
	.loc 1 201 21 is_stmt 0 view .LVU93
	movzbl	(%rax), %r9d
.LVL28:
	.loc 1 202 16 is_stmt 1 view .LVU94
	.loc 1 202 23 is_stmt 0 view .LVU95
	movb	%r11b, (%rax)
	.loc 1 202 23 view .LVU96
.LBE82:
	.loc 1 197 27 is_stmt 1 view .LVU97
	cmpb	%r9b, %r10b
	jne	.L17
	.loc 1 205 23 is_stmt 0 view .LVU98
	subq	%r8, %rax
.LVL29:
	.loc 1 206 25 view .LVU99
	leal	1(%rax), %r10d
.LVL30:
	.loc 1 206 47 view .LVU100
	addl	$1, %eax
.LVL31:
.L16:
	.loc 1 203 14 is_stmt 1 view .LVU101
	.loc 1 204 13 view .LVU102
	.loc 1 204 19 is_stmt 0 view .LVU103
	movb	%r9b, 16(%rsp)
	.loc 1 205 13 is_stmt 1 view .LVU104
	.loc 1 206 13 view .LVU105
	.loc 1 206 50 is_stmt 0 view .LVU106
	cltq
	.loc 1 206 17 view .LVU107
	movslq	%edx, %r9
.LVL32:
	.loc 1 206 17 view .LVU108
.LBE83:
.LBE89:
	.loc 1 163 18 view .LVU109
	addq	$4, %r12
.LBB90:
.LBB84:
	.loc 1 206 22 view .LVU110
	movw	%r10w, (%r14,%r9,2)
	.loc 1 206 29 is_stmt 1 view .LVU111
	.loc 1 206 31 is_stmt 0 view .LVU112
	addl	$1, %edx
.LVL33:
	.loc 1 206 35 is_stmt 1 view .LVU113
	.loc 1 206 50 is_stmt 0 view .LVU114
	xorl	%r9d, %r9d
.LVL34:
	.loc 1 206 50 view .LVU115
.LBE84:
.LBE90:
	.loc 1 163 32 is_stmt 1 view .LVU116
	.loc 1 163 18 view .LVU117
.LBB91:
.LBB85:
	.loc 1 206 50 is_stmt 0 view .LVU118
	addl	$1, 672(%rbp,%rax,4)
.LBE85:
.LBE91:
	.loc 1 163 18 view .LVU119
	cmpq	%r12, %rdi
	jne	.L18
.LVL35:
.L36:
	.loc 1 212 4 is_stmt 1 view .LVU120
	.loc 1 212 7 is_stmt 0 view .LVU121
	testl	%r9d, %r9d
	je	.L39
	.loc 1 213 7 is_stmt 1 view .LVU122
	movslq	%edx, %rsi
	.loc 1 213 12 is_stmt 0 view .LVU123
	leal	-1(%r9), %eax
.LVL36:
	.loc 1 213 12 view .LVU124
	leaq	(%r14,%rsi,2), %rsi
	jmp	.L23
	.p2align 4,,10
	.p2align 3
.L41:
	.loc 1 216 13 is_stmt 1 view .LVU125
	.loc 1 216 22 is_stmt 0 view .LVU126
	movl	$1, %r9d
	.loc 1 222 13 view .LVU127
	addq	$2, %rsi
	.loc 1 216 22 view .LVU128
	movw	%r9w, -2(%rsi)
	.loc 1 216 27 is_stmt 1 view .LVU129
.LVL37:
	.loc 1 217 13 view .LVU130
	.loc 1 217 26 is_stmt 0 view .LVU131
	addl	$1, 676(%rbp)
.LVL38:
	.loc 1 222 10 is_stmt 1 view .LVU132
	.loc 1 222 13 is_stmt 0 view .LVU133
	cmpl	$1, %eax
	jle	.L40
.L22:
	.loc 1 223 10 is_stmt 1 view .LVU134
	.loc 1 223 25 is_stmt 0 view .LVU135
	subl	$2, %eax
.LVL39:
	.loc 1 216 29 view .LVU136
	movl	%edi, %edx
	.loc 1 223 16 view .LVU137
	sarl	%eax
.LVL40:
	.loc 1 214 13 is_stmt 1 view .LVU138
.L23:
	.loc 1 214 7 view .LVU139
	.loc 1 215 10 view .LVU140
	.loc 1 216 29 is_stmt 0 view .LVU141
	leal	1(%rdx), %edi
	.loc 1 215 13 view .LVU142
	testb	$1, %al
	jne	.L41
	.loc 1 219 13 is_stmt 1 view .LVU143
	.loc 1 219 22 is_stmt 0 view .LVU144
	xorl	%r8d, %r8d
	.loc 1 222 13 view .LVU145
	addq	$2, %rsi
	.loc 1 219 22 view .LVU146
	movw	%r8w, -2(%rsi)
	.loc 1 219 27 is_stmt 1 view .LVU147
.LVL41:
	.loc 1 220 13 view .LVU148
	.loc 1 220 26 is_stmt 0 view .LVU149
	addl	$1, 672(%rbp)
	.loc 1 222 10 is_stmt 1 view .LVU150
	.loc 1 222 13 is_stmt 0 view .LVU151
	cmpl	$1, %eax
	jg	.L22
.L40:
	.loc 1 228 8 view .LVU152
	movslq	%edi, %rdi
	.loc 1 228 22 view .LVU153
	addl	$2, %edx
	.loc 1 228 8 view .LVU154
	leaq	(%r14,%rdi,2), %r14
.LVL42:
.L6:
	.loc 1 228 4 is_stmt 1 view .LVU155
	.loc 1 228 13 is_stmt 0 view .LVU156
	movw	%cx, (%r14)
	.loc 1 228 20 is_stmt 1 view .LVU157
	.loc 1 228 26 view .LVU158
	.loc 1 228 41 is_stmt 0 view .LVU159
	addl	$1, 672(%rbp,%r15,4)
	.loc 1 230 4 is_stmt 1 view .LVU160
	.loc 1 230 12 is_stmt 0 view .LVU161
	movl	%edx, 668(%rbp)
	.loc 1 231 1 view .LVU162
	movq	280(%rsp), %rax
	subq	%fs:40, %rax
	jne	.L42
	addq	$296, %rsp
	.cfi_remember_state
	.cfi_def_cfa_offset 56
	popq	%rbx
	.cfi_def_cfa_offset 48
	popq	%rbp
	.cfi_def_cfa_offset 40
.LVL43:
	.loc 1 231 1 view .LVU163
	popq	%r12
	.cfi_def_cfa_offset 32
	popq	%r13
	.cfi_def_cfa_offset 24
.LVL44:
	.loc 1 231 1 view .LVU164
	popq	%r14
	.cfi_def_cfa_offset 16
	popq	%r15
	.cfi_def_cfa_offset 8
	ret
.LVL45:
	.p2align 4,,10
	.p2align 3
.L38:
	.cfi_restore_state
.LBB92:
	.loc 1 175 13 is_stmt 1 view .LVU165
	.loc 1 175 18 is_stmt 0 view .LVU166
	leal	-1(%r9), %eax
.LVL46:
	.loc 1 175 18 view .LVU167
	movslq	%edx, %r9
	leaq	(%r14,%r9,2), %r9
	jmp	.L15
.LVL47:
	.p2align 4,,10
	.p2align 3
.L43:
	.loc 1 178 19 is_stmt 1 view .LVU168
	.loc 1 178 28 is_stmt 0 view .LVU169
	movl	$1, %ebx
	movw	%bx, (%r9)
	.loc 1 178 33 is_stmt 1 view .LVU170
.LVL48:
	.loc 1 179 19 view .LVU171
	.loc 1 179 32 is_stmt 0 view .LVU172
	addl	$1, 676(%rbp)
.LVL49:
.L14:
	.loc 1 184 16 is_stmt 1 view .LVU173
	.loc 1 184 19 is_stmt 0 view .LVU174
	addq	$2, %r9
	cmpl	$1, %eax
	jle	.L12
	.loc 1 185 16 is_stmt 1 view .LVU175
	.loc 1 185 31 is_stmt 0 view .LVU176
	subl	$2, %eax
.LVL50:
	.loc 1 185 22 view .LVU177
	sarl	%eax
.LVL51:
	.loc 1 176 19 is_stmt 1 view .LVU178
.L15:
	.loc 1 176 13 view .LVU179
	.loc 1 177 16 view .LVU180
	.loc 1 178 35 is_stmt 0 view .LVU181
	addl	$1, %edx
.LVL52:
	.loc 1 177 19 view .LVU182
	testb	$1, %al
	jne	.L43
	.loc 1 181 19 is_stmt 1 view .LVU183
	.loc 1 181 28 is_stmt 0 view .LVU184
	xorl	%ebx, %ebx
	movw	%bx, (%r9)
	.loc 1 181 33 is_stmt 1 view .LVU185
.LVL53:
	.loc 1 182 19 view .LVU186
	.loc 1 182 32 is_stmt 0 view .LVU187
	addl	$1, 672(%rbp)
	jmp	.L14
.LVL54:
.L25:
.LBB86:
	.loc 1 197 27 view .LVU188
	movl	$2, %eax
	movl	$2, %r10d
.LVL55:
	.loc 1 197 27 view .LVU189
	jmp	.L16
.LVL56:
.L39:
	.loc 1 197 27 view .LVU190
.LBE86:
.LBE92:
	.loc 1 216 17 view .LVU191
	movslq	%edx, %rax
	.loc 1 216 29 view .LVU192
	addl	$1, %edx
.LVL57:
	.loc 1 216 17 view .LVU193
	leaq	(%r14,%rax,2), %r14
.LVL58:
	.loc 1 216 17 view .LVU194
	jmp	.L6
.LVL59:
.L42:
	.loc 1 231 1 view .LVU195
	call	__stack_chk_fail@PLT
.LVL60:
	.cfi_endproc
.LFE59:
	.size	generateMTFValues, .-generateMTFValues
	.p2align 4
	.type	bsPutUInt32, @function
bsPutUInt32:
.LVL61:
.LFB56:
	.loc 1 84 1 is_stmt 1 view -0
	.cfi_startproc
	.loc 1 85 4 view .LVU197
	.loc 1 84 1 is_stmt 0 view .LVU198
	pushq	%rbx
	.cfi_def_cfa_offset 16
	.cfi_offset 3, -16
.LBB101:
.LBB102:
	.loc 1 75 14 view .LVU199
	movl	644(%rdi), %r8d
.LBE102:
.LBE101:
	.loc 1 84 1 view .LVU200
	movl	%esi, %ebx
	movq	%rdi, %rax
.LBB107:
.LBB103:
	.loc 1 76 14 view .LVU201
	movl	640(%rdi), %edx
.LBE103:
.LBE107:
	.loc 1 85 4 view .LVU202
	shrl	$24, %esi
.LVL62:
.LBB108:
.LBI101:
	.loc 1 73 6 is_stmt 1 view .LVU203
.LBB104:
	.loc 1 75 6 view .LVU204
	.loc 1 75 23 view .LVU205
	cmpl	$7, %r8d
	jle	.L45
	.loc 1 75 41 is_stmt 0 view .LVU206
	movl	116(%rdi), %ecx
.LVL63:
	.p2align 4,,10
	.p2align 3
.L46:
	.loc 1 75 31 is_stmt 1 view .LVU207
	.loc 1 75 49 is_stmt 0 view .LVU208
	movq	80(%rax), %rdi
	.loc 1 75 41 view .LVU209
	movslq	%ecx, %rcx
	.loc 1 75 69 view .LVU210
	shrl	$24, %edx
	.loc 1 75 51 view .LVU211
	movb	%dl, (%rdi,%rcx)
	.loc 1 75 77 is_stmt 1 view .LVU212
	.loc 1 75 84 is_stmt 0 view .LVU213
	movl	116(%rax), %edi
	.loc 1 75 98 view .LVU214
	movl	640(%rax), %edx
	.loc 1 75 84 view .LVU215
	leal	1(%rdi), %ecx
	.loc 1 75 115 view .LVU216
	movl	644(%rax), %edi
	.loc 1 75 98 view .LVU217
	sall	$8, %edx
	.loc 1 75 84 view .LVU218
	movl	%ecx, 116(%rax)
	.loc 1 75 88 is_stmt 1 view .LVU219
	.loc 1 75 115 is_stmt 0 view .LVU220
	leal	-8(%rdi), %r8d
	.loc 1 75 98 view .LVU221
	movl	%edx, 640(%rax)
	.loc 1 75 105 is_stmt 1 view .LVU222
	.loc 1 75 115 is_stmt 0 view .LVU223
	movl	%r8d, 644(%rax)
	.loc 1 75 23 is_stmt 1 view .LVU224
	cmpl	$7, %r8d
	jg	.L46
.L47:
	.loc 1 75 124 view .LVU225
	.loc 1 76 4 view .LVU226
	.loc 1 76 39 is_stmt 0 view .LVU227
	movl	$24, %ecx
	.loc 1 77 14 view .LVU228
	movl	%edi, 644(%rax)
	.loc 1 76 39 view .LVU229
	subl	%r8d, %ecx
	.loc 1 76 20 view .LVU230
	sall	%cl, %esi
.LVL64:
	.loc 1 76 14 view .LVU231
	orl	%edx, %esi
.LBE104:
.LBE108:
	.loc 1 86 19 view .LVU232
	movl	%ebx, %edx
	shrl	$16, %edx
.LBB109:
.LBB105:
	.loc 1 76 14 view .LVU233
	movl	%esi, 640(%rax)
	.loc 1 77 4 is_stmt 1 view .LVU234
.LVL65:
	.loc 1 77 4 is_stmt 0 view .LVU235
.LBE105:
.LBE109:
	.loc 1 86 4 is_stmt 1 view .LVU236
	movzbl	%dl, %edx
.LVL66:
.LBB110:
.LBI110:
	.loc 1 73 6 view .LVU237
.LBB111:
	.loc 1 75 23 view .LVU238
	cmpl	$7, %edi
	jle	.L48
	.loc 1 75 41 is_stmt 0 view .LVU239
	movl	116(%rax), %ecx
	.p2align 4,,10
	.p2align 3
.L49:
	.loc 1 75 31 is_stmt 1 view .LVU240
	.loc 1 75 49 is_stmt 0 view .LVU241
	movq	80(%rax), %rdi
	.loc 1 75 41 view .LVU242
	movslq	%ecx, %rcx
	.loc 1 75 69 view .LVU243
	shrl	$24, %esi
	.loc 1 75 51 view .LVU244
	movb	%sil, (%rdi,%rcx)
	.loc 1 75 77 is_stmt 1 view .LVU245
	.loc 1 75 84 is_stmt 0 view .LVU246
	movl	116(%rax), %esi
	.loc 1 75 115 view .LVU247
	movl	644(%rax), %r8d
	.loc 1 75 84 view .LVU248
	leal	1(%rsi), %ecx
	.loc 1 75 98 view .LVU249
	movl	640(%rax), %esi
	.loc 1 75 115 view .LVU250
	leal	-8(%r8), %edi
	.loc 1 75 84 view .LVU251
	movl	%ecx, 116(%rax)
	.loc 1 75 88 is_stmt 1 view .LVU252
	.loc 1 75 98 is_stmt 0 view .LVU253
	sall	$8, %esi
	.loc 1 75 115 view .LVU254
	movl	%edi, 644(%rax)
	.loc 1 75 98 view .LVU255
	movl	%esi, 640(%rax)
	.loc 1 75 105 is_stmt 1 view .LVU256
	.loc 1 75 23 view .LVU257
	cmpl	$7, %edi
	jg	.L49
.L50:
	.loc 1 75 124 view .LVU258
	.loc 1 76 4 view .LVU259
	.loc 1 76 39 is_stmt 0 view .LVU260
	movl	$24, %ecx
	.loc 1 77 14 view .LVU261
	movl	%r8d, 644(%rax)
	.loc 1 76 39 view .LVU262
	subl	%edi, %ecx
	.loc 1 76 20 view .LVU263
	sall	%cl, %edx
.LVL67:
	.loc 1 76 14 view .LVU264
	orl	%esi, %edx
.LBE111:
.LBE110:
	.loc 1 87 4 view .LVU265
	movzbl	%bh, %esi
.LBB114:
.LBB112:
	.loc 1 76 14 view .LVU266
	movl	%edx, 640(%rax)
	.loc 1 77 4 is_stmt 1 view .LVU267
.LVL68:
	.loc 1 77 4 is_stmt 0 view .LVU268
.LBE112:
.LBE114:
	.loc 1 87 4 is_stmt 1 view .LVU269
.LBB115:
.LBI115:
	.loc 1 73 6 view .LVU270
.LBB116:
	.loc 1 75 23 view .LVU271
	cmpl	$7, %r8d
	jle	.L51
	.loc 1 75 41 is_stmt 0 view .LVU272
	movl	116(%rax), %ecx
	.p2align 4,,10
	.p2align 3
.L52:
	.loc 1 75 31 is_stmt 1 view .LVU273
	.loc 1 75 49 is_stmt 0 view .LVU274
	movq	80(%rax), %rdi
	.loc 1 75 41 view .LVU275
	movslq	%ecx, %rcx
	.loc 1 75 69 view .LVU276
	shrl	$24, %edx
	.loc 1 75 51 view .LVU277
	movb	%dl, (%rdi,%rcx)
	.loc 1 75 77 is_stmt 1 view .LVU278
	.loc 1 75 84 is_stmt 0 view .LVU279
	movl	116(%rax), %edi
	.loc 1 75 98 view .LVU280
	movl	640(%rax), %edx
	.loc 1 75 84 view .LVU281
	leal	1(%rdi), %ecx
	.loc 1 75 115 view .LVU282
	movl	644(%rax), %edi
	.loc 1 75 98 view .LVU283
	sall	$8, %edx
	.loc 1 75 84 view .LVU284
	movl	%ecx, 116(%rax)
	.loc 1 75 88 is_stmt 1 view .LVU285
	.loc 1 75 115 is_stmt 0 view .LVU286
	leal	-8(%rdi), %r8d
	.loc 1 75 98 view .LVU287
	movl	%edx, 640(%rax)
	.loc 1 75 105 is_stmt 1 view .LVU288
	.loc 1 75 115 is_stmt 0 view .LVU289
	movl	%r8d, 644(%rax)
	.loc 1 75 23 is_stmt 1 view .LVU290
	cmpl	$7, %r8d
	jg	.L52
.L53:
	.loc 1 75 124 view .LVU291
	.loc 1 76 4 view .LVU292
	.loc 1 76 39 is_stmt 0 view .LVU293
	movl	$24, %ecx
	.loc 1 77 14 view .LVU294
	movl	%edi, 644(%rax)
.LBE116:
.LBE115:
	.loc 1 88 4 view .LVU295
	movzbl	%bl, %ebx
.LVL69:
.LBB119:
.LBB117:
	.loc 1 76 39 view .LVU296
	subl	%r8d, %ecx
	.loc 1 76 20 view .LVU297
	sall	%cl, %esi
.LVL70:
	.loc 1 76 14 view .LVU298
	orl	%esi, %edx
	movl	%edx, 640(%rax)
	.loc 1 77 4 is_stmt 1 view .LVU299
.LVL71:
	.loc 1 77 4 is_stmt 0 view .LVU300
.LBE117:
.LBE119:
	.loc 1 88 4 is_stmt 1 view .LVU301
.LBB120:
.LBI120:
	.loc 1 73 6 view .LVU302
.LBB121:
	.loc 1 75 23 view .LVU303
	cmpl	$7, %edi
	jle	.L54
	.loc 1 75 41 is_stmt 0 view .LVU304
	movl	116(%rax), %ecx
	.p2align 4,,10
	.p2align 3
.L55:
	.loc 1 75 31 is_stmt 1 view .LVU305
	.loc 1 75 49 is_stmt 0 view .LVU306
	movq	80(%rax), %rsi
	.loc 1 75 41 view .LVU307
	movslq	%ecx, %rcx
	.loc 1 75 69 view .LVU308
	shrl	$24, %edx
	.loc 1 75 51 view .LVU309
	movb	%dl, (%rsi,%rcx)
	.loc 1 75 77 is_stmt 1 view .LVU310
	.loc 1 75 84 is_stmt 0 view .LVU311
	movl	116(%rax), %esi
	.loc 1 75 98 view .LVU312
	movl	640(%rax), %edx
	.loc 1 75 84 view .LVU313
	leal	1(%rsi), %ecx
	.loc 1 75 115 view .LVU314
	movl	644(%rax), %esi
	.loc 1 75 98 view .LVU315
	sall	$8, %edx
	.loc 1 75 84 view .LVU316
	movl	%ecx, 116(%rax)
	.loc 1 75 88 is_stmt 1 view .LVU317
	.loc 1 75 115 is_stmt 0 view .LVU318
	leal	-8(%rsi), %edi
	.loc 1 75 98 view .LVU319
	movl	%edx, 640(%rax)
	.loc 1 75 105 is_stmt 1 view .LVU320
	.loc 1 75 115 is_stmt 0 view .LVU321
	movl	%edi, 644(%rax)
	.loc 1 75 23 is_stmt 1 view .LVU322
	cmpl	$7, %edi
	jg	.L55
.L56:
	.loc 1 75 124 view .LVU323
	.loc 1 76 4 view .LVU324
	.loc 1 76 39 is_stmt 0 view .LVU325
	movl	$24, %ecx
	.loc 1 77 14 view .LVU326
	movl	%esi, 644(%rax)
	.loc 1 76 39 view .LVU327
	subl	%edi, %ecx
	.loc 1 76 20 view .LVU328
	sall	%cl, %ebx
.LVL72:
	.loc 1 76 14 view .LVU329
	orl	%edx, %ebx
	movl	%ebx, 640(%rax)
	.loc 1 77 4 is_stmt 1 view .LVU330
.LVL73:
	.loc 1 77 4 is_stmt 0 view .LVU331
.LBE121:
.LBE120:
	.loc 1 89 1 view .LVU332
	popq	%rbx
	.cfi_remember_state
	.cfi_def_cfa_offset 8
	ret
.LVL74:
	.p2align 4,,10
	.p2align 3
.L45:
	.cfi_restore_state
.LBB123:
.LBB106:
	.loc 1 77 14 view .LVU333
	leal	8(%r8), %edi
	jmp	.L47
.LVL75:
	.p2align 4,,10
	.p2align 3
.L48:
	.loc 1 77 14 view .LVU334
.LBE106:
.LBE123:
.LBB124:
.LBB113:
	leal	8(%rdi), %r8d
	jmp	.L50
.LVL76:
	.p2align 4,,10
	.p2align 3
.L51:
	.loc 1 77 14 view .LVU335
.LBE113:
.LBE124:
.LBB125:
.LBB118:
	leal	8(%r8), %edi
	jmp	.L53
.LVL77:
	.p2align 4,,10
	.p2align 3
.L54:
	.loc 1 77 14 view .LVU336
.LBE118:
.LBE125:
.LBB126:
.LBB122:
	leal	8(%rdi), %esi
	jmp	.L56
.LBE122:
.LBE126:
	.cfi_endproc
.LFE56:
	.size	bsPutUInt32, .-bsPutUInt32
	.p2align 4
	.globl	BZ2_bsInitWrite
	.type	BZ2_bsInitWrite, @function
BZ2_bsInitWrite:
.LVL78:
.LFB53:
	.loc 1 38 1 is_stmt 1 view -0
	.cfi_startproc
	.loc 1 38 1 is_stmt 0 view .LVU338
	endbr64
	.loc 1 39 4 is_stmt 1 view .LVU339
	.loc 1 40 4 view .LVU340
	.loc 1 40 14 is_stmt 0 view .LVU341
	movq	$0, 640(%rdi)
	.loc 1 41 1 view .LVU342
	ret
	.cfi_endproc
.LFE53:
	.size	BZ2_bsInitWrite, .-BZ2_bsInitWrite
	.section	.rodata.str1.8,"aMS",@progbits,1
	.align 8
.LC0:
	.string	"    block %d: crc = 0x%08x, combined CRC = 0x%08x, size = %d\n"
	.align 8
.LC1:
	.string	"      %d in block, %d after MTF & 1-2 coding, %d+2 syms in use\n"
	.align 8
.LC3:
	.string	"      initial group %d, [%d .. %d], has %d syms (%4.1f%%)\n"
	.align 8
.LC4:
	.string	"      pass %d: size is %d, grp uses are "
	.section	.rodata.str1.1,"aMS",@progbits,1
.LC5:
	.string	"%d "
.LC6:
	.string	"      bytes: mapping %d, "
.LC7:
	.string	"selectors %d, "
.LC8:
	.string	"code lengths %d, "
.LC9:
	.string	"codes %d\n"
	.section	.rodata.str1.8
	.align 8
.LC10:
	.string	"    final combined CRC = 0x%08x\n   "
	.text
	.p2align 4
	.globl	BZ2_compressBlock
	.type	BZ2_compressBlock, @function
BZ2_compressBlock:
.LVL79:
.LFB61:
	.loc 1 603 1 is_stmt 1 view -0
	.cfi_startproc
	.loc 1 603 1 is_stmt 0 view .LVU344
	endbr64
	pushq	%r15
	.cfi_def_cfa_offset 16
	.cfi_offset 15, -16
	pushq	%r14
	.cfi_def_cfa_offset 24
	.cfi_offset 14, -24
	pushq	%r13
	.cfi_def_cfa_offset 32
	.cfi_offset 13, -32
	pushq	%r12
	.cfi_def_cfa_offset 40
	.cfi_offset 12, -40
	pushq	%rbp
	.cfi_def_cfa_offset 48
	.cfi_offset 6, -48
	pushq	%rbx
	.cfi_def_cfa_offset 56
	.cfi_offset 3, -56
	movq	%rdi, %rbx
	subq	$280, %rsp
	.cfi_def_cfa_offset 336
	.loc 1 603 1 view .LVU345
	movl	%esi, 172(%rsp)
	movq	%fs:40, %rax
	movq	%rax, 264(%rsp)
	xorl	%eax, %eax
	.loc 1 604 4 is_stmt 1 view .LVU346
	.loc 1 604 9 is_stmt 0 view .LVU347
	movslq	108(%rdi), %rax
	.loc 1 604 7 view .LVU348
	testl	%eax, %eax
	jle	.L64
	.loc 1 606 23 view .LVU349
	movl	648(%rdi), %r8d
	.loc 1 607 46 view .LVU350
	movl	652(%rdi), %r9d
	.loc 1 609 12 view .LVU351
	movl	660(%rdi), %ecx
	.loc 1 606 9 is_stmt 1 view .LVU352
	.loc 1 606 23 is_stmt 0 view .LVU353
	notl	%r8d
	.loc 1 607 46 view .LVU354
	roll	%r9d
	.loc 1 608 22 view .LVU355
	xorl	%r8d, %r9d
	.loc 1 606 21 view .LVU356
	movl	%r8d, 648(%rdi)
	.loc 1 606 40 is_stmt 1 view .LVU357
	.loc 1 607 7 view .LVU358
	.loc 1 608 7 view .LVU359
	.loc 1 608 22 is_stmt 0 view .LVU360
	movl	%r9d, 652(%rdi)
	.loc 1 609 7 is_stmt 1 view .LVU361
	.loc 1 609 10 is_stmt 0 view .LVU362
	cmpl	$1, %ecx
	jle	.L65
	.loc 1 609 27 is_stmt 1 discriminator 1 view .LVU363
	.loc 1 609 35 is_stmt 0 discriminator 1 view .LVU364
	movl	$0, 116(%rdi)
.L65:
	.loc 1 611 7 is_stmt 1 view .LVU365
	.loc 1 611 10 is_stmt 0 view .LVU366
	cmpl	$1, 656(%rbx)
	jg	.L529
.LVL80:
.L66:
	.loc 1 616 7 is_stmt 1 view .LVU367
	movq	%rbx, %rdi
	call	BZ2_blockSort@PLT
.LVL81:
	.loc 1 619 45 is_stmt 0 view .LVU368
	movslq	108(%rbx), %rdx
	movq	%rdx, %rax
	.loc 1 619 4 is_stmt 1 view .LVU369
	.loc 1 619 15 is_stmt 0 view .LVU370
	addq	32(%rbx), %rdx
	.loc 1 622 7 view .LVU371
	cmpl	$1, 660(%rbx)
	.loc 1 619 13 view .LVU372
	movq	%rdx, 80(%rbx)
	.loc 1 622 4 is_stmt 1 view .LVU373
	.loc 1 622 7 is_stmt 0 view .LVU374
	je	.L360
	.loc 1 630 4 is_stmt 1 view .LVU375
	.loc 1 630 7 is_stmt 0 view .LVU376
	testl	%eax, %eax
	jle	.L76
.L535:
.LBB356:
.LBB357:
.LBB358:
	.loc 1 75 23 is_stmt 1 view .LVU377
	.loc 1 75 14 is_stmt 0 view .LVU378
	movl	644(%rbx), %edi
	.loc 1 76 14 view .LVU379
	movl	640(%rbx), %edx
	.loc 1 75 23 view .LVU380
	cmpl	$7, %edi
	jle	.L77
	.loc 1 75 41 view .LVU381
	movl	116(%rbx), %eax
.L78:
	.loc 1 75 31 is_stmt 1 view .LVU382
	.loc 1 75 49 is_stmt 0 view .LVU383
	movq	80(%rbx), %rcx
	.loc 1 75 41 view .LVU384
	cltq
	.loc 1 75 69 view .LVU385
	shrl	$24, %edx
	.loc 1 75 51 view .LVU386
	movb	%dl, (%rcx,%rax)
	.loc 1 75 77 is_stmt 1 view .LVU387
	.loc 1 75 84 is_stmt 0 view .LVU388
	movl	116(%rbx), %eax
	.loc 1 75 98 view .LVU389
	movl	640(%rbx), %edx
	.loc 1 75 115 view .LVU390
	movl	644(%rbx), %esi
	.loc 1 75 84 view .LVU391
	addl	$1, %eax
	.loc 1 75 98 view .LVU392
	sall	$8, %edx
	.loc 1 75 115 view .LVU393
	leal	-8(%rsi), %edi
	.loc 1 75 84 view .LVU394
	movl	%eax, 116(%rbx)
	.loc 1 75 88 is_stmt 1 view .LVU395
	.loc 1 75 98 is_stmt 0 view .LVU396
	movl	%edx, 640(%rbx)
	.loc 1 75 105 is_stmt 1 view .LVU397
	.loc 1 75 115 is_stmt 0 view .LVU398
	movl	%edi, 644(%rbx)
	.loc 1 75 23 is_stmt 1 view .LVU399
	cmpl	$7, %edi
	jg	.L78
.L79:
	.loc 1 75 124 view .LVU400
	.loc 1 76 4 view .LVU401
	.loc 1 76 39 is_stmt 0 view .LVU402
	movl	$24, %ecx
	.loc 1 76 20 view .LVU403
	movl	$49, %eax
	.loc 1 77 14 view .LVU404
	movl	%esi, 644(%rbx)
	.loc 1 76 39 view .LVU405
	subl	%edi, %ecx
	.loc 1 76 20 view .LVU406
	sall	%cl, %eax
	.loc 1 76 14 view .LVU407
	orl	%eax, %edx
	movl	%edx, 640(%rbx)
	.loc 1 77 4 is_stmt 1 view .LVU408
.LBE358:
.LBE357:
.LBE356:
.LBB361:
.LBB362:
.LBB363:
	.loc 1 75 23 view .LVU409
	cmpl	$7, %esi
	jle	.L80
	.loc 1 75 41 is_stmt 0 view .LVU410
	movl	116(%rbx), %eax
.L81:
	.loc 1 75 31 is_stmt 1 view .LVU411
	.loc 1 75 49 is_stmt 0 view .LVU412
	movq	80(%rbx), %rcx
	.loc 1 75 41 view .LVU413
	cltq
	.loc 1 75 69 view .LVU414
	shrl	$24, %edx
	.loc 1 75 51 view .LVU415
	movb	%dl, (%rcx,%rax)
	.loc 1 75 77 is_stmt 1 view .LVU416
	.loc 1 75 84 is_stmt 0 view .LVU417
	movl	116(%rbx), %eax
	.loc 1 75 98 view .LVU418
	movl	640(%rbx), %edx
	.loc 1 75 115 view .LVU419
	movl	644(%rbx), %edi
	.loc 1 75 84 view .LVU420
	addl	$1, %eax
	.loc 1 75 98 view .LVU421
	sall	$8, %edx
	.loc 1 75 115 view .LVU422
	leal	-8(%rdi), %esi
	.loc 1 75 84 view .LVU423
	movl	%eax, 116(%rbx)
	.loc 1 75 88 is_stmt 1 view .LVU424
	.loc 1 75 98 is_stmt 0 view .LVU425
	movl	%edx, 640(%rbx)
	.loc 1 75 105 is_stmt 1 view .LVU426
	.loc 1 75 115 is_stmt 0 view .LVU427
	movl	%esi, 644(%rbx)
	.loc 1 75 23 is_stmt 1 view .LVU428
	cmpl	$7, %esi
	jg	.L81
.L82:
	.loc 1 75 124 view .LVU429
	.loc 1 76 4 view .LVU430
	.loc 1 76 39 is_stmt 0 view .LVU431
	movl	$24, %ecx
	.loc 1 76 20 view .LVU432
	movl	$65, %eax
	.loc 1 77 14 view .LVU433
	movl	%edi, 644(%rbx)
	.loc 1 76 39 view .LVU434
	subl	%esi, %ecx
	.loc 1 76 20 view .LVU435
	sall	%cl, %eax
	.loc 1 76 14 view .LVU436
	orl	%eax, %edx
	movl	%edx, 640(%rbx)
	.loc 1 77 4 is_stmt 1 view .LVU437
.LBE363:
.LBE362:
.LBE361:
.LBB366:
.LBB367:
.LBB368:
	.loc 1 75 23 view .LVU438
	cmpl	$7, %edi
	jle	.L83
	.loc 1 75 41 is_stmt 0 view .LVU439
	movl	116(%rbx), %eax
.L84:
	.loc 1 75 31 is_stmt 1 view .LVU440
	.loc 1 75 49 is_stmt 0 view .LVU441
	movq	80(%rbx), %rcx
	.loc 1 75 41 view .LVU442
	cltq
	.loc 1 75 69 view .LVU443
	shrl	$24, %edx
	.loc 1 75 51 view .LVU444
	movb	%dl, (%rcx,%rax)
	.loc 1 75 77 is_stmt 1 view .LVU445
	.loc 1 75 84 is_stmt 0 view .LVU446
	movl	116(%rbx), %eax
	.loc 1 75 98 view .LVU447
	movl	640(%rbx), %edx
	.loc 1 75 115 view .LVU448
	movl	644(%rbx), %esi
	.loc 1 75 84 view .LVU449
	addl	$1, %eax
	.loc 1 75 98 view .LVU450
	sall	$8, %edx
	.loc 1 75 115 view .LVU451
	leal	-8(%rsi), %edi
	.loc 1 75 84 view .LVU452
	movl	%eax, 116(%rbx)
	.loc 1 75 88 is_stmt 1 view .LVU453
	.loc 1 75 98 is_stmt 0 view .LVU454
	movl	%edx, 640(%rbx)
	.loc 1 75 105 is_stmt 1 view .LVU455
	.loc 1 75 115 is_stmt 0 view .LVU456
	movl	%edi, 644(%rbx)
	.loc 1 75 23 is_stmt 1 view .LVU457
	cmpl	$7, %edi
	jg	.L84
.L85:
	.loc 1 75 124 view .LVU458
	.loc 1 76 4 view .LVU459
	.loc 1 76 39 is_stmt 0 view .LVU460
	movl	$24, %ecx
	.loc 1 76 20 view .LVU461
	movl	$89, %eax
	.loc 1 77 14 view .LVU462
	movl	%esi, 644(%rbx)
	.loc 1 76 39 view .LVU463
	subl	%edi, %ecx
	.loc 1 76 20 view .LVU464
	sall	%cl, %eax
	.loc 1 76 14 view .LVU465
	orl	%eax, %edx
	movl	%edx, 640(%rbx)
	.loc 1 77 4 is_stmt 1 view .LVU466
.LBE368:
.LBE367:
.LBE366:
.LBB371:
.LBB372:
.LBB373:
	.loc 1 75 23 view .LVU467
	cmpl	$7, %esi
	jle	.L86
	.loc 1 75 41 is_stmt 0 view .LVU468
	movl	116(%rbx), %eax
.L87:
	.loc 1 75 31 is_stmt 1 view .LVU469
	.loc 1 75 49 is_stmt 0 view .LVU470
	movq	80(%rbx), %rcx
	.loc 1 75 41 view .LVU471
	cltq
	.loc 1 75 69 view .LVU472
	shrl	$24, %edx
	.loc 1 75 51 view .LVU473
	movb	%dl, (%rcx,%rax)
	.loc 1 75 77 is_stmt 1 view .LVU474
	.loc 1 75 84 is_stmt 0 view .LVU475
	movl	116(%rbx), %eax
	.loc 1 75 98 view .LVU476
	movl	640(%rbx), %edx
	.loc 1 75 115 view .LVU477
	movl	644(%rbx), %edi
	.loc 1 75 84 view .LVU478
	addl	$1, %eax
	.loc 1 75 98 view .LVU479
	sall	$8, %edx
	.loc 1 75 115 view .LVU480
	leal	-8(%rdi), %esi
	.loc 1 75 84 view .LVU481
	movl	%eax, 116(%rbx)
	.loc 1 75 88 is_stmt 1 view .LVU482
	.loc 1 75 98 is_stmt 0 view .LVU483
	movl	%edx, 640(%rbx)
	.loc 1 75 105 is_stmt 1 view .LVU484
	.loc 1 75 115 is_stmt 0 view .LVU485
	movl	%esi, 644(%rbx)
	.loc 1 75 23 is_stmt 1 view .LVU486
	cmpl	$7, %esi
	jg	.L87
.L88:
	.loc 1 75 124 view .LVU487
	.loc 1 76 4 view .LVU488
	.loc 1 76 39 is_stmt 0 view .LVU489
	movl	$24, %ecx
	.loc 1 76 20 view .LVU490
	movl	$38, %eax
	.loc 1 77 14 view .LVU491
	movl	%edi, 644(%rbx)
	.loc 1 76 39 view .LVU492
	subl	%esi, %ecx
	.loc 1 76 20 view .LVU493
	sall	%cl, %eax
	.loc 1 76 14 view .LVU494
	orl	%eax, %edx
	movl	%edx, 640(%rbx)
	.loc 1 77 4 is_stmt 1 view .LVU495
.LBE373:
.LBE372:
.LBE371:
.LBB376:
.LBB377:
.LBB378:
	.loc 1 75 23 view .LVU496
	cmpl	$7, %edi
	jle	.L89
	.loc 1 75 41 is_stmt 0 view .LVU497
	movl	116(%rbx), %eax
.L90:
	.loc 1 75 31 is_stmt 1 view .LVU498
	.loc 1 75 49 is_stmt 0 view .LVU499
	movq	80(%rbx), %rcx
	.loc 1 75 41 view .LVU500
	cltq
	.loc 1 75 69 view .LVU501
	shrl	$24, %edx
	.loc 1 75 51 view .LVU502
	movb	%dl, (%rcx,%rax)
	.loc 1 75 77 is_stmt 1 view .LVU503
	.loc 1 75 84 is_stmt 0 view .LVU504
	movl	116(%rbx), %eax
	.loc 1 75 98 view .LVU505
	movl	640(%rbx), %edx
	.loc 1 75 115 view .LVU506
	movl	644(%rbx), %esi
	.loc 1 75 84 view .LVU507
	addl	$1, %eax
	.loc 1 75 98 view .LVU508
	sall	$8, %edx
	.loc 1 75 115 view .LVU509
	leal	-8(%rsi), %edi
	.loc 1 75 84 view .LVU510
	movl	%eax, 116(%rbx)
	.loc 1 75 88 is_stmt 1 view .LVU511
	.loc 1 75 98 is_stmt 0 view .LVU512
	movl	%edx, 640(%rbx)
	.loc 1 75 105 is_stmt 1 view .LVU513
	.loc 1 75 115 is_stmt 0 view .LVU514
	movl	%edi, 644(%rbx)
	.loc 1 75 23 is_stmt 1 view .LVU515
	cmpl	$7, %edi
	jg	.L90
.L91:
	.loc 1 75 124 view .LVU516
	.loc 1 76 4 view .LVU517
	.loc 1 76 39 is_stmt 0 view .LVU518
	movl	$24, %ecx
	.loc 1 76 20 view .LVU519
	movl	$83, %eax
	.loc 1 77 14 view .LVU520
	movl	%esi, 644(%rbx)
	.loc 1 76 39 view .LVU521
	subl	%edi, %ecx
	.loc 1 76 20 view .LVU522
	sall	%cl, %eax
	.loc 1 76 14 view .LVU523
	orl	%edx, %eax
	movl	%eax, 640(%rbx)
	.loc 1 77 4 is_stmt 1 view .LVU524
.LBE378:
.LBE377:
.LBE376:
.LBB381:
.LBB382:
.LBB383:
	.loc 1 75 23 view .LVU525
	cmpl	$7, %esi
	jle	.L92
	.loc 1 75 41 is_stmt 0 view .LVU526
	movl	116(%rbx), %edx
.L93:
	.loc 1 75 31 is_stmt 1 view .LVU527
	.loc 1 75 49 is_stmt 0 view .LVU528
	movq	80(%rbx), %rcx
	.loc 1 75 41 view .LVU529
	movslq	%edx, %rdx
	.loc 1 75 69 view .LVU530
	shrl	$24, %eax
	.loc 1 75 51 view .LVU531
	movb	%al, (%rcx,%rdx)
	.loc 1 75 77 is_stmt 1 view .LVU532
	.loc 1 75 84 is_stmt 0 view .LVU533
	movl	116(%rbx), %eax
	.loc 1 75 115 view .LVU534
	movl	644(%rbx), %edi
	.loc 1 75 84 view .LVU535
	leal	1(%rax), %edx
	.loc 1 75 98 view .LVU536
	movl	640(%rbx), %eax
	.loc 1 75 115 view .LVU537
	leal	-8(%rdi), %esi
	.loc 1 75 84 view .LVU538
	movl	%edx, 116(%rbx)
	.loc 1 75 88 is_stmt 1 view .LVU539
	.loc 1 75 98 is_stmt 0 view .LVU540
	sall	$8, %eax
	.loc 1 75 115 view .LVU541
	movl	%esi, 644(%rbx)
	.loc 1 75 98 view .LVU542
	movl	%eax, 640(%rbx)
	.loc 1 75 105 is_stmt 1 view .LVU543
	.loc 1 75 23 view .LVU544
	cmpl	$7, %esi
	jg	.L93
.L94:
	.loc 1 75 124 view .LVU545
	.loc 1 76 4 view .LVU546
	.loc 1 76 39 is_stmt 0 view .LVU547
	movl	$24, %ecx
	.loc 1 76 20 view .LVU548
	movl	$89, %edx
	.loc 1 77 14 view .LVU549
	movl	%edi, 644(%rbx)
.LBE383:
.LBE382:
.LBE381:
	.loc 1 637 7 view .LVU550
	movq	%rbx, %rdi
.LBB390:
.LBB387:
.LBB384:
	.loc 1 76 39 view .LVU551
	subl	%esi, %ecx
.LBE384:
.LBE387:
.LBE390:
	.loc 1 637 7 view .LVU552
	movl	648(%rbx), %esi
.LBB391:
.LBB388:
.LBB385:
	.loc 1 76 20 view .LVU553
	sall	%cl, %edx
	.loc 1 76 14 view .LVU554
	orl	%edx, %eax
	movl	%eax, 640(%rbx)
	.loc 1 77 4 is_stmt 1 view .LVU555
.LBE385:
.LBE388:
.LBE391:
	.loc 1 637 7 view .LVU556
	call	bsPutUInt32
.LVL82:
	.loc 1 648 7 view .LVU557
.LBB392:
.LBI392:
	.loc 1 73 6 view .LVU558
.LBB393:
	.loc 1 75 23 view .LVU559
	.loc 1 75 14 is_stmt 0 view .LVU560
	movl	644(%rbx), %edx
.LBE393:
.LBE392:
.LBB396:
.LBB397:
	.loc 1 76 14 view .LVU561
	movl	640(%rbx), %eax
.LBE397:
.LBE396:
.LBB400:
.LBB394:
	.loc 1 75 23 view .LVU562
	cmpl	$7, %edx
	jle	.L97
	.loc 1 75 41 view .LVU563
	movl	116(%rbx), %ecx
.L96:
	.loc 1 75 31 is_stmt 1 view .LVU564
	.loc 1 75 49 is_stmt 0 view .LVU565
	movq	80(%rbx), %rdx
	.loc 1 75 41 view .LVU566
	movslq	%ecx, %rcx
	.loc 1 75 69 view .LVU567
	shrl	$24, %eax
	.loc 1 75 51 view .LVU568
	movb	%al, (%rdx,%rcx)
	.loc 1 75 77 is_stmt 1 view .LVU569
	.loc 1 75 84 is_stmt 0 view .LVU570
	movl	116(%rbx), %eax
	.loc 1 75 115 view .LVU571
	movl	644(%rbx), %edi
	.loc 1 75 84 view .LVU572
	leal	1(%rax), %ecx
	.loc 1 75 98 view .LVU573
	movl	640(%rbx), %eax
	.loc 1 75 115 view .LVU574
	leal	-8(%rdi), %edx
	.loc 1 75 84 view .LVU575
	movl	%ecx, 116(%rbx)
	.loc 1 75 88 is_stmt 1 view .LVU576
	.loc 1 75 98 is_stmt 0 view .LVU577
	sall	$8, %eax
	.loc 1 75 115 view .LVU578
	movl	%edx, 644(%rbx)
	.loc 1 75 98 view .LVU579
	movl	%eax, 640(%rbx)
	.loc 1 75 105 is_stmt 1 view .LVU580
	.loc 1 75 23 view .LVU581
	cmpl	$7, %edx
	jg	.L96
.L97:
	.loc 1 75 124 view .LVU582
	.loc 1 76 4 view .LVU583
	.loc 1 77 4 view .LVU584
	.loc 1 77 14 is_stmt 0 view .LVU585
	addl	$1, %edx
.LBE394:
.LBE400:
	.loc 1 650 7 view .LVU586
	movl	48(%rbx), %esi
.LBB401:
.LBB395:
	.loc 1 77 14 view .LVU587
	movl	%edx, 644(%rbx)
.LVL83:
	.loc 1 77 14 view .LVU588
.LBE395:
.LBE401:
	.loc 1 650 7 is_stmt 1 view .LVU589
.LBB402:
.LBI396:
	.loc 1 73 6 view .LVU590
.LBB398:
	.loc 1 75 23 view .LVU591
	cmpl	$8, %edx
	jne	.L98
	.loc 1 75 41 is_stmt 0 view .LVU592
	movl	116(%rbx), %ecx
.L99:
	.loc 1 75 31 is_stmt 1 view .LVU593
	.loc 1 75 49 is_stmt 0 view .LVU594
	movq	80(%rbx), %rdx
	.loc 1 75 41 view .LVU595
	movslq	%ecx, %rcx
	.loc 1 75 69 view .LVU596
	shrl	$24, %eax
	.loc 1 75 51 view .LVU597
	movb	%al, (%rdx,%rcx)
	.loc 1 75 77 is_stmt 1 view .LVU598
	.loc 1 75 84 is_stmt 0 view .LVU599
	movl	116(%rbx), %eax
	.loc 1 75 115 view .LVU600
	movl	644(%rbx), %edi
	.loc 1 75 84 view .LVU601
	leal	1(%rax), %ecx
	.loc 1 75 98 view .LVU602
	movl	640(%rbx), %eax
	.loc 1 75 115 view .LVU603
	leal	-8(%rdi), %edx
	.loc 1 75 84 view .LVU604
	movl	%ecx, 116(%rbx)
	.loc 1 75 88 is_stmt 1 view .LVU605
	.loc 1 75 98 is_stmt 0 view .LVU606
	sall	$8, %eax
	.loc 1 75 115 view .LVU607
	movl	%edx, 644(%rbx)
	.loc 1 75 98 view .LVU608
	movl	%eax, 640(%rbx)
	.loc 1 75 105 is_stmt 1 view .LVU609
	.loc 1 75 23 view .LVU610
	cmpl	$7, %edx
	jg	.L99
.L98:
	.loc 1 75 124 view .LVU611
	.loc 1 76 4 view .LVU612
	.loc 1 76 39 is_stmt 0 view .LVU613
	movl	$8, %ecx
.LBE398:
.LBE402:
	.loc 1 651 7 view .LVU614
	movq	%rbx, %rdi
.LBB403:
.LBB399:
	.loc 1 76 39 view .LVU615
	subl	%edx, %ecx
	.loc 1 77 14 view .LVU616
	addl	$24, %edx
	.loc 1 76 20 view .LVU617
	sall	%cl, %esi
.LVL84:
	.loc 1 77 14 view .LVU618
	movl	%edx, 644(%rbx)
	.loc 1 76 14 view .LVU619
	orl	%esi, %eax
	movl	%eax, 640(%rbx)
	.loc 1 77 4 is_stmt 1 view .LVU620
.LVL85:
	.loc 1 77 4 is_stmt 0 view .LVU621
.LBE399:
.LBE403:
	.loc 1 651 7 is_stmt 1 view .LVU622
	call	generateMTFValues
.LVL86:
	.loc 1 652 7 view .LVU623
.LBB404:
.LBI404:
	.loc 1 239 6 view .LVU624
.LBB405:
	.loc 1 241 4 view .LVU625
	.loc 1 242 4 view .LVU626
	.loc 1 243 4 view .LVU627
	.loc 1 256 4 view .LVU628
	.loc 1 257 4 view .LVU629
	.loc 1 259 4 view .LVU630
	.loc 1 261 7 is_stmt 0 view .LVU631
	cmpl	$2, 656(%rbx)
	.loc 1 259 12 view .LVU632
	movq	72(%rbx), %rbp
.LVL87:
	.loc 1 261 4 is_stmt 1 view .LVU633
	.loc 1 261 7 is_stmt 0 view .LVU634
	jg	.L530
.L100:
	.loc 1 266 4 is_stmt 1 view .LVU635
	.loc 1 266 17 is_stmt 0 view .LVU636
	movl	124(%rbx), %eax
	leaq	37708(%rbx), %rcx
	movq	%rbx, 56(%rsp)
	movq	%rcx, 40(%rsp)
	.loc 1 266 14 view .LVU637
	leal	2(%rax), %edi
	leal	1(%rax), %r12d
	movl	%edi, 36(%rsp)
.LVL88:
	.loc 1 267 4 is_stmt 1 view .LVU638
	.loc 1 267 18 view .LVU639
	leaq	39256(%rbx), %rdi
.LVL89:
	.loc 1 267 18 is_stmt 0 view .LVU640
	movq	%rdi, 112(%rsp)
	movl	%r12d, 16(%rsp)
.LVL90:
.L101:
	.loc 1 268 21 is_stmt 1 view .LVU641
	movl	36(%rsp), %edi
	testl	%edi, %edi
	jle	.L104
	.loc 1 269 23 is_stmt 0 view .LVU642
	movq	%rcx, %rdi
	leaq	1(%r12), %rdx
	movl	$15, %esi
	call	memset@PLT
.LVL91:
	.loc 1 269 23 view .LVU643
	movq	%rax, %rcx
.L104:
.LVL92:
	.loc 1 267 24 is_stmt 1 view .LVU644
	.loc 1 267 18 view .LVU645
	addq	$258, %rcx
.LVL93:
	.loc 1 267 18 is_stmt 0 view .LVU646
	cmpq	%rcx, 112(%rsp)
	jne	.L101
	.loc 1 272 6 is_stmt 1 view .LVU647
	.loc 1 272 13 is_stmt 0 view .LVU648
	movl	668(%rbx), %r11d
	.loc 1 272 9 view .LVU649
	testl	%r11d, %r11d
	jle	.L531
.LVL94:
.L105:
	.loc 1 272 59 is_stmt 1 view .LVU650
	.loc 1 273 4 view .LVU651
	.loc 1 273 7 is_stmt 0 view .LVU652
	cmpl	$199, %r11d
	jle	.L362
	.loc 1 274 4 is_stmt 1 view .LVU653
	.loc 1 274 7 is_stmt 0 view .LVU654
	cmpl	$599, %r11d
	jle	.L363
	.loc 1 275 4 is_stmt 1 view .LVU655
	.loc 1 275 7 is_stmt 0 view .LVU656
	cmpl	$1199, %r11d
	jle	.L364
	.loc 1 276 4 is_stmt 1 view .LVU657
	.loc 1 276 7 is_stmt 0 view .LVU658
	cmpl	$2400, %r11d
	setge	%al
	setge	%r13b
	movzbl	%al, %eax
	movzbl	%r13b, %r13d
	addl	$5, %eax
	addl	$5, %r13d
	movl	%eax, 68(%rsp)
	jmp	.L106
.LVL95:
.L64:
	.loc 1 276 7 view .LVU659
.LBE405:
.LBE404:
	.loc 1 619 4 is_stmt 1 view .LVU660
	.loc 1 619 15 is_stmt 0 view .LVU661
	addq	32(%rdi), %rax
	.loc 1 622 7 view .LVU662
	cmpl	$1, 660(%rdi)
	.loc 1 619 13 view .LVU663
	movq	%rax, 80(%rbx)
	.loc 1 622 4 is_stmt 1 view .LVU664
	.loc 1 619 15 is_stmt 0 view .LVU665
	movq	%rax, %rdx
	.loc 1 622 7 view .LVU666
	je	.L360
.LVL96:
.L76:
	.loc 1 657 4 is_stmt 1 view .LVU667
	.loc 1 657 7 is_stmt 0 view .LVU668
	cmpb	$0, 172(%rsp)
	jne	.L532
.L63:
	.loc 1 667 1 view .LVU669
	movq	264(%rsp), %rax
	subq	%fs:40, %rax
	jne	.L533
	addq	$280, %rsp
	.cfi_remember_state
	.cfi_def_cfa_offset 56
	popq	%rbx
	.cfi_def_cfa_offset 48
	popq	%rbp
	.cfi_def_cfa_offset 40
	popq	%r12
	.cfi_def_cfa_offset 32
	popq	%r13
	.cfi_def_cfa_offset 24
	popq	%r14
	.cfi_def_cfa_offset 16
	popq	%r15
	.cfi_def_cfa_offset 8
	ret
.LVL97:
.L529:
	.cfi_restore_state
	.loc 1 612 10 is_stmt 1 view .LVU670
.LBB754:
.LBI754:
	.file 2 "/usr/include/x86_64-linux-gnu/bits/stdio2.h"
	.loc 2 103 1 view .LVU671
.LBB755:
	.loc 2 105 3 view .LVU672
	.loc 2 105 10 is_stmt 0 view .LVU673
	subq	$8, %rsp
	.cfi_def_cfa_offset 344
	movq	stderr(%rip), %rdi
	movl	$1, %esi
.LVL98:
	.loc 2 105 10 view .LVU674
	leaq	.LC0(%rip), %rdx
	pushq	%rax
	.cfi_def_cfa_offset 352
	xorl	%eax, %eax
	call	__fprintf_chk@PLT
.LVL99:
	.loc 2 105 10 view .LVU675
	popq	%r8
	.cfi_def_cfa_offset 344
	popq	%r9
	.cfi_def_cfa_offset 336
	jmp	.L66
.LVL100:
.L360:
	.loc 2 105 10 view .LVU676
.LBE755:
.LBE754:
	.loc 1 623 7 is_stmt 1 view .LVU677
	.loc 1 624 7 view .LVU678
.LBB756:
.LBI756:
	.loc 1 94 6 view .LVU679
	.loc 1 96 4 view .LVU680
.LBB757:
.LBI757:
	.loc 1 73 6 view .LVU681
.LBB758:
	.loc 1 75 6 view .LVU682
	.loc 1 75 23 view .LVU683
	.loc 1 75 124 view .LVU684
	.loc 1 76 4 view .LVU685
	.loc 1 77 4 view .LVU686
	.loc 1 76 14 is_stmt 0 view .LVU687
	movabsq	$35467034624, %rax
.LBE758:
.LBE757:
.LBE756:
.LBB761:
.LBB762:
.LBB763:
	.loc 1 75 41 view .LVU688
	movl	$1107296256, %esi
.LBE763:
.LBE762:
.LBE761:
.LBB766:
.LBB760:
.LBB759:
	.loc 1 76 14 view .LVU689
	movq	%rax, 640(%rbx)
.LVL101:
	.loc 1 76 14 view .LVU690
.LBE759:
.LBE760:
.LBE766:
.LBB767:
.LBB765:
.LBB764:
	.loc 1 75 23 is_stmt 1 view .LVU691
	.loc 1 75 41 is_stmt 0 view .LVU692
	movl	116(%rbx), %eax
	jmp	.L69
.L534:
	.loc 1 75 32 view .LVU693
	movq	80(%rbx), %rdx
.L69:
	.loc 1 75 31 is_stmt 1 view .LVU694
	.loc 1 75 41 is_stmt 0 view .LVU695
	cltq
	.loc 1 75 69 view .LVU696
	shrl	$24, %esi
	.loc 1 75 51 view .LVU697
	movb	%sil, (%rdx,%rax)
	.loc 1 75 77 is_stmt 1 view .LVU698
	.loc 1 75 84 is_stmt 0 view .LVU699
	movl	116(%rbx), %eax
	.loc 1 75 98 view .LVU700
	movl	640(%rbx), %esi
	.loc 1 75 115 view .LVU701
	movl	644(%rbx), %edi
	.loc 1 75 84 view .LVU702
	addl	$1, %eax
	.loc 1 75 98 view .LVU703
	sall	$8, %esi
	.loc 1 75 115 view .LVU704
	leal	-8(%rdi), %edx
	.loc 1 75 84 view .LVU705
	movl	%eax, 116(%rbx)
	.loc 1 75 88 is_stmt 1 view .LVU706
	.loc 1 75 98 is_stmt 0 view .LVU707
	movl	%esi, 640(%rbx)
	.loc 1 75 105 is_stmt 1 view .LVU708
	.loc 1 75 115 is_stmt 0 view .LVU709
	movl	%edx, 644(%rbx)
	.loc 1 75 23 is_stmt 1 view .LVU710
	cmpl	$7, %edx
	jg	.L534
	.loc 1 75 124 view .LVU711
	.loc 1 76 4 view .LVU712
	.loc 1 76 39 is_stmt 0 view .LVU713
	movl	$24, %ecx
	.loc 1 77 14 view .LVU714
	movl	%edi, 644(%rbx)
	.loc 1 76 39 view .LVU715
	subl	%edx, %ecx
	.loc 1 76 20 view .LVU716
	movl	$90, %edx
	sall	%cl, %edx
	.loc 1 76 14 view .LVU717
	orl	%esi, %edx
	movl	%edx, 640(%rbx)
	.loc 1 77 4 is_stmt 1 view .LVU718
.LBE764:
.LBE765:
.LBE767:
.LBB768:
.LBB769:
.LBB770:
	.loc 1 75 23 view .LVU719
	cmpl	$7, %edi
	jle	.L70
.L71:
	.loc 1 75 31 view .LVU720
	.loc 1 75 49 is_stmt 0 view .LVU721
	movq	80(%rbx), %rcx
	.loc 1 75 41 view .LVU722
	cltq
	.loc 1 75 69 view .LVU723
	shrl	$24, %edx
	.loc 1 75 51 view .LVU724
	movb	%dl, (%rcx,%rax)
	.loc 1 75 77 is_stmt 1 view .LVU725
	.loc 1 75 84 is_stmt 0 view .LVU726
	movl	116(%rbx), %eax
	.loc 1 75 98 view .LVU727
	movl	640(%rbx), %edx
	.loc 1 75 115 view .LVU728
	movl	644(%rbx), %esi
	.loc 1 75 84 view .LVU729
	addl	$1, %eax
	.loc 1 75 98 view .LVU730
	sall	$8, %edx
	.loc 1 75 115 view .LVU731
	leal	-8(%rsi), %edi
	.loc 1 75 84 view .LVU732
	movl	%eax, 116(%rbx)
	.loc 1 75 88 is_stmt 1 view .LVU733
	.loc 1 75 98 is_stmt 0 view .LVU734
	movl	%edx, 640(%rbx)
	.loc 1 75 105 is_stmt 1 view .LVU735
	.loc 1 75 115 is_stmt 0 view .LVU736
	movl	%edi, 644(%rbx)
	.loc 1 75 23 is_stmt 1 view .LVU737
	cmpl	$7, %edi
	jg	.L71
.L72:
	.loc 1 75 124 view .LVU738
	.loc 1 76 4 view .LVU739
	.loc 1 76 39 is_stmt 0 view .LVU740
	movl	$24, %ecx
	.loc 1 76 20 view .LVU741
	movl	$104, %eax
	.loc 1 77 14 view .LVU742
	movl	%esi, 644(%rbx)
	.loc 1 76 39 view .LVU743
	subl	%edi, %ecx
.LBE770:
.LBE769:
.LBE768:
	.loc 1 627 23 view .LVU744
	movzbl	664(%rbx), %edi
.LBB777:
.LBB774:
.LBB771:
	.loc 1 76 20 view .LVU745
	sall	%cl, %eax
	.loc 1 76 14 view .LVU746
	orl	%edx, %eax
.LBE771:
.LBE774:
.LBE777:
	.loc 1 627 23 view .LVU747
	leal	48(%rdi), %edx
.LBB778:
.LBB775:
.LBB772:
	.loc 1 76 14 view .LVU748
	movl	%eax, 640(%rbx)
	.loc 1 77 4 is_stmt 1 view .LVU749
.LBE772:
.LBE775:
.LBE778:
	.loc 1 627 7 view .LVU750
.LVL102:
.LBB779:
.LBI779:
	.loc 1 94 6 view .LVU751
.LBB780:
	.loc 1 96 4 view .LVU752
	movzbl	%dl, %edx
.LVL103:
.LBB781:
.LBI781:
	.loc 1 73 6 view .LVU753
.LBB782:
	.loc 1 75 23 view .LVU754
	cmpl	$7, %esi
	jle	.L73
	.loc 1 75 41 is_stmt 0 view .LVU755
	movl	116(%rbx), %ecx
.LVL104:
.L74:
	.loc 1 75 31 is_stmt 1 view .LVU756
	.loc 1 75 49 is_stmt 0 view .LVU757
	movq	80(%rbx), %rsi
	.loc 1 75 41 view .LVU758
	movslq	%ecx, %rcx
	.loc 1 75 69 view .LVU759
	shrl	$24, %eax
	.loc 1 75 51 view .LVU760
	movb	%al, (%rsi,%rcx)
	.loc 1 75 77 is_stmt 1 view .LVU761
	.loc 1 75 84 is_stmt 0 view .LVU762
	movl	116(%rbx), %eax
	.loc 1 75 115 view .LVU763
	movl	644(%rbx), %edi
	.loc 1 75 84 view .LVU764
	leal	1(%rax), %ecx
	.loc 1 75 98 view .LVU765
	movl	640(%rbx), %eax
	.loc 1 75 115 view .LVU766
	leal	-8(%rdi), %esi
	.loc 1 75 84 view .LVU767
	movl	%ecx, 116(%rbx)
	.loc 1 75 88 is_stmt 1 view .LVU768
	.loc 1 75 98 is_stmt 0 view .LVU769
	sall	$8, %eax
	.loc 1 75 115 view .LVU770
	movl	%esi, 644(%rbx)
	.loc 1 75 98 view .LVU771
	movl	%eax, 640(%rbx)
	.loc 1 75 105 is_stmt 1 view .LVU772
	.loc 1 75 23 view .LVU773
	cmpl	$7, %esi
	jg	.L74
.L75:
	.loc 1 75 124 view .LVU774
	.loc 1 76 4 view .LVU775
	.loc 1 76 39 is_stmt 0 view .LVU776
	movl	$24, %ecx
	.loc 1 77 14 view .LVU777
	movl	%edi, 644(%rbx)
	.loc 1 76 39 view .LVU778
	subl	%esi, %ecx
	.loc 1 76 20 view .LVU779
	sall	%cl, %edx
.LVL105:
	.loc 1 76 14 view .LVU780
	orl	%edx, %eax
	movl	%eax, 640(%rbx)
	.loc 1 77 4 is_stmt 1 view .LVU781
.LBE782:
.LBE781:
.LBE780:
.LBE779:
	.loc 1 630 9 is_stmt 0 view .LVU782
	movl	108(%rbx), %eax
.LVL106:
	.loc 1 630 4 is_stmt 1 view .LVU783
	.loc 1 630 7 is_stmt 0 view .LVU784
	testl	%eax, %eax
	jg	.L535
	jmp	.L76
.LVL107:
.L532:
.LBB786:
.LBB787:
.LBB788:
	.loc 1 75 23 is_stmt 1 view .LVU785
	.loc 1 75 14 is_stmt 0 view .LVU786
	movl	644(%rbx), %edi
	.loc 1 76 14 view .LVU787
	movl	640(%rbx), %edx
	.loc 1 75 23 view .LVU788
	cmpl	$7, %edi
	jle	.L339
	.loc 1 75 41 view .LVU789
	movl	116(%rbx), %eax
.L340:
	.loc 1 75 31 is_stmt 1 view .LVU790
	.loc 1 75 49 is_stmt 0 view .LVU791
	movq	80(%rbx), %rcx
	.loc 1 75 41 view .LVU792
	cltq
	.loc 1 75 69 view .LVU793
	shrl	$24, %edx
	.loc 1 75 51 view .LVU794
	movb	%dl, (%rcx,%rax)
	.loc 1 75 77 is_stmt 1 view .LVU795
	.loc 1 75 84 is_stmt 0 view .LVU796
	movl	116(%rbx), %eax
	.loc 1 75 98 view .LVU797
	movl	640(%rbx), %edx
	.loc 1 75 115 view .LVU798
	movl	644(%rbx), %esi
	.loc 1 75 84 view .LVU799
	addl	$1, %eax
	.loc 1 75 98 view .LVU800
	sall	$8, %edx
	.loc 1 75 115 view .LVU801
	leal	-8(%rsi), %edi
	.loc 1 75 84 view .LVU802
	movl	%eax, 116(%rbx)
	.loc 1 75 88 is_stmt 1 view .LVU803
	.loc 1 75 98 is_stmt 0 view .LVU804
	movl	%edx, 640(%rbx)
	.loc 1 75 105 is_stmt 1 view .LVU805
	.loc 1 75 115 is_stmt 0 view .LVU806
	movl	%edi, 644(%rbx)
	.loc 1 75 23 is_stmt 1 view .LVU807
	cmpl	$7, %edi
	jg	.L340
.L341:
	.loc 1 75 124 view .LVU808
	.loc 1 76 4 view .LVU809
	.loc 1 76 39 is_stmt 0 view .LVU810
	movl	$24, %ecx
	.loc 1 76 20 view .LVU811
	movl	$23, %eax
	.loc 1 77 14 view .LVU812
	movl	%esi, 644(%rbx)
	.loc 1 76 39 view .LVU813
	subl	%edi, %ecx
	.loc 1 76 20 view .LVU814
	sall	%cl, %eax
	.loc 1 76 14 view .LVU815
	orl	%eax, %edx
	movl	%edx, 640(%rbx)
	.loc 1 77 4 is_stmt 1 view .LVU816
.LBE788:
.LBE787:
.LBE786:
.LBB791:
.LBB792:
.LBB793:
	.loc 1 75 23 view .LVU817
	cmpl	$7, %esi
	jle	.L342
	.loc 1 75 41 is_stmt 0 view .LVU818
	movl	116(%rbx), %eax
.L343:
	.loc 1 75 31 is_stmt 1 view .LVU819
	.loc 1 75 49 is_stmt 0 view .LVU820
	movq	80(%rbx), %rcx
	.loc 1 75 41 view .LVU821
	cltq
	.loc 1 75 69 view .LVU822
	shrl	$24, %edx
	.loc 1 75 51 view .LVU823
	movb	%dl, (%rcx,%rax)
	.loc 1 75 77 is_stmt 1 view .LVU824
	.loc 1 75 84 is_stmt 0 view .LVU825
	movl	116(%rbx), %eax
	.loc 1 75 98 view .LVU826
	movl	640(%rbx), %edx
	.loc 1 75 115 view .LVU827
	movl	644(%rbx), %edi
	.loc 1 75 84 view .LVU828
	addl	$1, %eax
	.loc 1 75 98 view .LVU829
	sall	$8, %edx
	.loc 1 75 115 view .LVU830
	leal	-8(%rdi), %esi
	.loc 1 75 84 view .LVU831
	movl	%eax, 116(%rbx)
	.loc 1 75 88 is_stmt 1 view .LVU832
	.loc 1 75 98 is_stmt 0 view .LVU833
	movl	%edx, 640(%rbx)
	.loc 1 75 105 is_stmt 1 view .LVU834
	.loc 1 75 115 is_stmt 0 view .LVU835
	movl	%esi, 644(%rbx)
	.loc 1 75 23 is_stmt 1 view .LVU836
	cmpl	$7, %esi
	jg	.L343
.L344:
	.loc 1 75 124 view .LVU837
	.loc 1 76 4 view .LVU838
	.loc 1 76 39 is_stmt 0 view .LVU839
	movl	$24, %ecx
	.loc 1 76 20 view .LVU840
	movl	$114, %eax
	.loc 1 77 14 view .LVU841
	movl	%edi, 644(%rbx)
	.loc 1 76 39 view .LVU842
	subl	%esi, %ecx
	.loc 1 76 20 view .LVU843
	sall	%cl, %eax
	.loc 1 76 14 view .LVU844
	orl	%eax, %edx
	movl	%edx, 640(%rbx)
	.loc 1 77 4 is_stmt 1 view .LVU845
.LBE793:
.LBE792:
.LBE791:
.LBB796:
.LBB797:
.LBB798:
	.loc 1 75 23 view .LVU846
	cmpl	$7, %edi
	jle	.L345
	.loc 1 75 41 is_stmt 0 view .LVU847
	movl	116(%rbx), %eax
.L346:
	.loc 1 75 31 is_stmt 1 view .LVU848
	.loc 1 75 49 is_stmt 0 view .LVU849
	movq	80(%rbx), %rcx
	.loc 1 75 41 view .LVU850
	cltq
	.loc 1 75 69 view .LVU851
	shrl	$24, %edx
	.loc 1 75 51 view .LVU852
	movb	%dl, (%rcx,%rax)
	.loc 1 75 77 is_stmt 1 view .LVU853
	.loc 1 75 84 is_stmt 0 view .LVU854
	movl	116(%rbx), %eax
	.loc 1 75 98 view .LVU855
	movl	640(%rbx), %edx
	.loc 1 75 115 view .LVU856
	movl	644(%rbx), %esi
	.loc 1 75 84 view .LVU857
	addl	$1, %eax
	.loc 1 75 98 view .LVU858
	sall	$8, %edx
	.loc 1 75 115 view .LVU859
	leal	-8(%rsi), %edi
	.loc 1 75 84 view .LVU860
	movl	%eax, 116(%rbx)
	.loc 1 75 88 is_stmt 1 view .LVU861
	.loc 1 75 98 is_stmt 0 view .LVU862
	movl	%edx, 640(%rbx)
	.loc 1 75 105 is_stmt 1 view .LVU863
	.loc 1 75 115 is_stmt 0 view .LVU864
	movl	%edi, 644(%rbx)
	.loc 1 75 23 is_stmt 1 view .LVU865
	cmpl	$7, %edi
	jg	.L346
.L347:
	.loc 1 75 124 view .LVU866
	.loc 1 76 4 view .LVU867
	.loc 1 76 39 is_stmt 0 view .LVU868
	movl	$24, %ecx
	.loc 1 76 20 view .LVU869
	movl	$69, %eax
	.loc 1 77 14 view .LVU870
	movl	%esi, 644(%rbx)
	.loc 1 76 39 view .LVU871
	subl	%edi, %ecx
	.loc 1 76 20 view .LVU872
	sall	%cl, %eax
	.loc 1 76 14 view .LVU873
	orl	%eax, %edx
	movl	%edx, 640(%rbx)
	.loc 1 77 4 is_stmt 1 view .LVU874
.LBE798:
.LBE797:
.LBE796:
.LBB801:
.LBB802:
.LBB803:
	.loc 1 75 23 view .LVU875
	cmpl	$7, %esi
	jle	.L348
	.loc 1 75 41 is_stmt 0 view .LVU876
	movl	116(%rbx), %eax
.L349:
	.loc 1 75 31 is_stmt 1 view .LVU877
	.loc 1 75 49 is_stmt 0 view .LVU878
	movq	80(%rbx), %rcx
	.loc 1 75 41 view .LVU879
	cltq
	.loc 1 75 69 view .LVU880
	shrl	$24, %edx
	.loc 1 75 51 view .LVU881
	movb	%dl, (%rcx,%rax)
	.loc 1 75 77 is_stmt 1 view .LVU882
	.loc 1 75 84 is_stmt 0 view .LVU883
	movl	116(%rbx), %eax
	.loc 1 75 98 view .LVU884
	movl	640(%rbx), %edx
	.loc 1 75 115 view .LVU885
	movl	644(%rbx), %edi
	.loc 1 75 84 view .LVU886
	addl	$1, %eax
	.loc 1 75 98 view .LVU887
	sall	$8, %edx
	.loc 1 75 115 view .LVU888
	leal	-8(%rdi), %esi
	.loc 1 75 84 view .LVU889
	movl	%eax, 116(%rbx)
	.loc 1 75 88 is_stmt 1 view .LVU890
	.loc 1 75 98 is_stmt 0 view .LVU891
	movl	%edx, 640(%rbx)
	.loc 1 75 105 is_stmt 1 view .LVU892
	.loc 1 75 115 is_stmt 0 view .LVU893
	movl	%esi, 644(%rbx)
	.loc 1 75 23 is_stmt 1 view .LVU894
	cmpl	$7, %esi
	jg	.L349
.L350:
	.loc 1 75 124 view .LVU895
	.loc 1 76 4 view .LVU896
	.loc 1 76 39 is_stmt 0 view .LVU897
	movl	$24, %ecx
	.loc 1 76 20 view .LVU898
	movl	$56, %eax
	.loc 1 77 14 view .LVU899
	movl	%edi, 644(%rbx)
	.loc 1 76 39 view .LVU900
	subl	%esi, %ecx
	.loc 1 76 20 view .LVU901
	sall	%cl, %eax
	.loc 1 76 14 view .LVU902
	orl	%eax, %edx
	movl	%edx, 640(%rbx)
	.loc 1 77 4 is_stmt 1 view .LVU903
.LBE803:
.LBE802:
.LBE801:
.LBB806:
.LBB807:
.LBB808:
	.loc 1 75 23 view .LVU904
	cmpl	$7, %edi
	jle	.L351
	.loc 1 75 41 is_stmt 0 view .LVU905
	movl	116(%rbx), %eax
.L352:
	.loc 1 75 31 is_stmt 1 view .LVU906
	.loc 1 75 49 is_stmt 0 view .LVU907
	movq	80(%rbx), %rcx
	.loc 1 75 41 view .LVU908
	cltq
	.loc 1 75 69 view .LVU909
	shrl	$24, %edx
	.loc 1 75 51 view .LVU910
	movb	%dl, (%rcx,%rax)
	.loc 1 75 77 is_stmt 1 view .LVU911
	.loc 1 75 84 is_stmt 0 view .LVU912
	movl	116(%rbx), %eax
	.loc 1 75 98 view .LVU913
	movl	640(%rbx), %edx
	.loc 1 75 115 view .LVU914
	movl	644(%rbx), %esi
	.loc 1 75 84 view .LVU915
	addl	$1, %eax
	.loc 1 75 98 view .LVU916
	sall	$8, %edx
	.loc 1 75 115 view .LVU917
	leal	-8(%rsi), %edi
	.loc 1 75 84 view .LVU918
	movl	%eax, 116(%rbx)
	.loc 1 75 88 is_stmt 1 view .LVU919
	.loc 1 75 98 is_stmt 0 view .LVU920
	movl	%edx, 640(%rbx)
	.loc 1 75 105 is_stmt 1 view .LVU921
	.loc 1 75 115 is_stmt 0 view .LVU922
	movl	%edi, 644(%rbx)
	.loc 1 75 23 is_stmt 1 view .LVU923
	cmpl	$7, %edi
	jg	.L352
.L353:
	.loc 1 75 124 view .LVU924
	.loc 1 76 4 view .LVU925
	.loc 1 76 39 is_stmt 0 view .LVU926
	movl	$24, %ecx
	.loc 1 76 20 view .LVU927
	movl	$80, %eax
	.loc 1 77 14 view .LVU928
	movl	%esi, 644(%rbx)
	.loc 1 76 39 view .LVU929
	subl	%edi, %ecx
	.loc 1 76 20 view .LVU930
	sall	%cl, %eax
	.loc 1 76 14 view .LVU931
	orl	%edx, %eax
	movl	%eax, 640(%rbx)
	.loc 1 77 4 is_stmt 1 view .LVU932
.LBE808:
.LBE807:
.LBE806:
.LBB811:
.LBB812:
.LBB813:
	.loc 1 75 23 view .LVU933
	cmpl	$7, %esi
	jle	.L354
	.loc 1 75 41 is_stmt 0 view .LVU934
	movl	116(%rbx), %edx
.L355:
	.loc 1 75 31 is_stmt 1 view .LVU935
	.loc 1 75 49 is_stmt 0 view .LVU936
	movq	80(%rbx), %rcx
	.loc 1 75 41 view .LVU937
	movslq	%edx, %rdx
	.loc 1 75 69 view .LVU938
	shrl	$24, %eax
	.loc 1 75 51 view .LVU939
	movb	%al, (%rcx,%rdx)
	.loc 1 75 77 is_stmt 1 view .LVU940
	.loc 1 75 84 is_stmt 0 view .LVU941
	movl	116(%rbx), %eax
	.loc 1 75 115 view .LVU942
	movl	644(%rbx), %edi
	.loc 1 75 84 view .LVU943
	leal	1(%rax), %edx
	.loc 1 75 98 view .LVU944
	movl	640(%rbx), %eax
	.loc 1 75 115 view .LVU945
	leal	-8(%rdi), %esi
	.loc 1 75 84 view .LVU946
	movl	%edx, 116(%rbx)
	.loc 1 75 88 is_stmt 1 view .LVU947
	.loc 1 75 98 is_stmt 0 view .LVU948
	sall	$8, %eax
	.loc 1 75 115 view .LVU949
	movl	%esi, 644(%rbx)
	.loc 1 75 98 view .LVU950
	movl	%eax, 640(%rbx)
	.loc 1 75 105 is_stmt 1 view .LVU951
	.loc 1 75 23 view .LVU952
	cmpl	$7, %esi
	jg	.L355
.L356:
	.loc 1 75 124 view .LVU953
	.loc 1 76 4 view .LVU954
	.loc 1 76 39 is_stmt 0 view .LVU955
	movl	$24, %ecx
	.loc 1 76 20 view .LVU956
	movl	$144, %edx
	.loc 1 77 14 view .LVU957
	movl	%edi, 644(%rbx)
.LBE813:
.LBE812:
.LBE811:
	.loc 1 662 7 view .LVU958
	movq	%rbx, %rdi
.LBB820:
.LBB817:
.LBB814:
	.loc 1 76 39 view .LVU959
	subl	%esi, %ecx
.LBE814:
.LBE817:
.LBE820:
	.loc 1 662 7 view .LVU960
	movl	652(%rbx), %esi
.LBB821:
.LBB818:
.LBB815:
	.loc 1 76 20 view .LVU961
	sall	%cl, %edx
	.loc 1 76 14 view .LVU962
	orl	%edx, %eax
	movl	%eax, 640(%rbx)
	.loc 1 77 4 is_stmt 1 view .LVU963
.LBE815:
.LBE818:
.LBE821:
	.loc 1 662 7 view .LVU964
	call	bsPutUInt32
.LVL108:
	.loc 1 663 7 view .LVU965
	.loc 1 663 10 is_stmt 0 view .LVU966
	cmpl	$1, 656(%rbx)
	jg	.L536
.L357:
.LBB822:
.LBB823:
	.loc 1 48 21 is_stmt 1 view .LVU967
	movl	644(%rbx), %eax
	testl	%eax, %eax
	jle	.L63
	.loc 1 49 36 is_stmt 0 view .LVU968
	movl	640(%rbx), %edx
	.loc 1 49 17 view .LVU969
	movl	116(%rbx), %eax
.L359:
	.loc 1 49 7 is_stmt 1 view .LVU970
	.loc 1 49 25 is_stmt 0 view .LVU971
	movq	80(%rbx), %rcx
	.loc 1 49 17 view .LVU972
	cltq
	.loc 1 49 45 view .LVU973
	shrl	$24, %edx
	.loc 1 49 27 view .LVU974
	movb	%dl, (%rcx,%rax)
	.loc 1 50 7 is_stmt 1 view .LVU975
	.loc 1 50 14 is_stmt 0 view .LVU976
	movl	116(%rbx), %eax
	.loc 1 51 17 view .LVU977
	movl	640(%rbx), %edx
	.loc 1 52 17 view .LVU978
	movl	644(%rbx), %edi
	.loc 1 50 14 view .LVU979
	addl	$1, %eax
	.loc 1 51 17 view .LVU980
	sall	$8, %edx
	.loc 1 52 17 view .LVU981
	leal	-8(%rdi), %ecx
	.loc 1 50 14 view .LVU982
	movl	%eax, 116(%rbx)
	.loc 1 51 7 is_stmt 1 view .LVU983
	.loc 1 51 17 is_stmt 0 view .LVU984
	movl	%edx, 640(%rbx)
	.loc 1 52 7 is_stmt 1 view .LVU985
	.loc 1 52 17 is_stmt 0 view .LVU986
	movl	%ecx, 644(%rbx)
	.loc 1 48 21 is_stmt 1 view .LVU987
	testl	%ecx, %ecx
	jg	.L359
	jmp	.L63
.LVL109:
.L362:
	.loc 1 48 21 is_stmt 0 view .LVU988
.LBE823:
.LBE822:
.LBB824:
.LBB752:
	movl	$2, 68(%rsp)
	.loc 1 273 31 view .LVU989
	movl	$2, %r13d
.L106:
.LVL110:
.LBB406:
	.loc 1 281 7 is_stmt 1 view .LVU990
	.loc 1 283 7 view .LVU991
	.loc 1 284 7 view .LVU992
	.loc 1 285 7 view .LVU993
	.loc 1 286 7 view .LVU994
	.loc 1 286 20 view .LVU995
	.loc 1 302 15 is_stmt 0 view .LVU996
	movl	656(%rbx), %eax
	movslq	%r13d, %rdx
	movl	%r11d, (%rsp)
	.loc 1 285 10 view .LVU997
	xorl	%r15d, %r15d
	.loc 1 302 15 view .LVU998
	movl	%r13d, 64(%rsp)
	movl	%eax, 72(%rsp)
	movq	%rdx, %rax
	salq	$7, %rax
	addq	%rdx, %rax
	leaq	-258(%rbx,%rax,2), %r10
.LVL111:
.L116:
	.loc 1 287 10 is_stmt 1 view .LVU999
	.loc 1 287 16 is_stmt 0 view .LVU1000
	movl	64(%rsp), %esi
	movl	%r11d, %eax
	.loc 1 288 13 view .LVU1001
	leal	-1(%r15), %r14d
	.loc 1 287 16 view .LVU1002
	cltd
	idivl	%esi
.LVL112:
	.loc 1 288 10 is_stmt 1 view .LVU1003
	.loc 1 289 10 view .LVU1004
	.loc 1 290 10 view .LVU1005
	.loc 1 290 31 view .LVU1006
	.loc 1 296 23 is_stmt 0 view .LVU1007
	cmpl	%esi, %r13d
	setne	%dil
	.loc 1 296 34 view .LVU1008
	cmpl	$1, %esi
	setne	%r8b
	.loc 1 290 31 view .LVU1009
	testl	%eax, %eax
	jle	.L367
	.loc 1 290 31 view .LVU1010
	movl	16(%rsp), %esi
	cmpl	%esi, %r14d
	jge	.L367
	movl	%esi, %ecx
	movslq	%r15d, %rdx
	.loc 1 289 16 view .LVU1011
	xorl	%r12d, %r12d
	subl	%r15d, %ecx
	leaq	1(%rdx,%rcx), %rsi
	jmp	.L110
.LVL113:
	.p2align 4,,10
	.p2align 3
.L108:
	.loc 1 290 31 view .LVU1012
	addq	$1, %rdx
.LVL114:
	.loc 1 290 31 view .LVU1013
	cmpq	%rdx, %rsi
	je	.L520
.LVL115:
.L110:
	.loc 1 291 13 is_stmt 1 view .LVU1014
	.loc 1 292 19 is_stmt 0 view .LVU1015
	movl	672(%rbx,%rdx,4), %ecx
	.loc 1 291 15 view .LVU1016
	movl	%edx, %r14d
.LVL116:
	.loc 1 292 13 is_stmt 1 view .LVU1017
	.loc 1 292 19 is_stmt 0 view .LVU1018
	addl	%r12d, %ecx
	movl	%ecx, %r12d
.LVL117:
	.loc 1 290 31 is_stmt 1 view .LVU1019
	cmpl	%ecx, %eax
	jg	.L108
.LVL118:
.L520:
	.loc 1 296 34 is_stmt 0 view .LVU1020
	movl	%edi, %eax
.LVL119:
	.loc 1 296 34 view .LVU1021
	andl	%r8d, %eax
	.loc 1 295 17 view .LVU1022
	cmpl	%r15d, %r14d
	setg	%dl
	.loc 1 296 34 view .LVU1023
	andl	%edx, %eax
	.loc 1 295 10 is_stmt 1 view .LVU1024
	.loc 1 296 34 is_stmt 0 view .LVU1025
	testb	%al, %al
	jne	.L537
.LVL120:
.L521:
	.loc 1 314 13 view .LVU1026
	leal	1(%r14), %eax
	.loc 1 302 13 view .LVU1027
	cmpl	$2, 72(%rsp)
	.loc 1 314 13 view .LVU1028
	movl	%eax, 8(%rsp)
.LVL121:
	.loc 1 302 10 is_stmt 1 view .LVU1029
	.loc 1 302 13 is_stmt 0 view .LVU1030
	jg	.L538
.LVL122:
.L114:
	.loc 1 308 24 is_stmt 1 view .LVU1031
	.loc 1 308 24 is_stmt 0 view .LVU1032
	movl	36(%rsp), %edx
	.loc 1 313 15 view .LVU1033
	subl	$1, 64(%rsp)
.LVL123:
	.loc 1 308 24 view .LVU1034
	xorl	%eax, %eax
	movl	16(%rsp), %ecx
	testl	%edx, %edx
	jg	.L119
	jmp	.L120
.LVL124:
	.p2align 4,,10
	.p2align 3
.L118:
	.loc 1 310 35 view .LVU1035
	movb	%dl, 37708(%r10,%rax)
	.loc 1 308 38 is_stmt 1 view .LVU1036
.LVL125:
	.loc 1 308 24 view .LVU1037
	leaq	1(%rax), %rdx
	cmpq	%rax, %rcx
	je	.L120
	.loc 1 308 24 is_stmt 0 view .LVU1038
	movq	%rdx, %rax
.LVL126:
.L119:
	.loc 1 309 13 is_stmt 1 view .LVU1039
	.loc 1 309 16 is_stmt 0 view .LVU1040
	cmpl	%eax, %r15d
	jg	.L369
	xorl	%edx, %edx
	cmpl	%eax, %r14d
	jge	.L118
.L369:
	movl	$15, %edx
	jmp	.L118
.LVL127:
.L120:
	.loc 1 313 10 is_stmt 1 view .LVU1041
	.loc 1 314 10 view .LVU1042
	.loc 1 315 10 view .LVU1043
	.loc 1 286 20 is_stmt 0 view .LVU1044
	movl	64(%rsp), %eax
	.loc 1 315 15 view .LVU1045
	subl	%r12d, %r11d
.LVL128:
	.loc 1 286 20 is_stmt 1 view .LVU1046
	subq	$258, %r10
	testl	%eax, %eax
	je	.L539
	.loc 1 314 13 is_stmt 0 view .LVU1047
	movl	8(%rsp), %r15d
	jmp	.L116
.LVL129:
.L537:
	.loc 1 297 34 view .LVU1048
	movl	%r13d, %eax
	subl	64(%rsp), %eax
	.loc 1 297 14 view .LVU1049
	testb	$1, %al
	je	.L521
	.loc 1 298 13 is_stmt 1 view .LVU1050
	.loc 1 298 32 is_stmt 0 view .LVU1051
	movslq	%r14d, %rax
	.loc 1 299 15 view .LVU1052
	movl	%r14d, 8(%rsp)
	subl	$1, %r14d
.LVL130:
	.loc 1 298 19 view .LVU1053
	subl	672(%rbx,%rax,4), %ecx
.LVL131:
	.loc 1 302 13 view .LVU1054
	cmpl	$2, 72(%rsp)
	.loc 1 298 19 view .LVU1055
	movl	%ecx, %r12d
.LVL132:
	.loc 1 299 13 is_stmt 1 view .LVU1056
	.loc 1 302 10 view .LVU1057
	.loc 1 302 13 is_stmt 0 view .LVU1058
	jle	.L114
.LVL133:
.L538:
	.loc 1 303 105 view .LVU1059
	pxor	%xmm0, %xmm0
	.loc 1 303 121 view .LVU1060
	pxor	%xmm1, %xmm1
	movq	%r10, 48(%rsp)
.LBB407:
.LBB408:
	.loc 2 105 10 view .LVU1061
	movl	%r14d, %r9d
.LBE408:
.LBE407:
	.loc 1 303 105 view .LVU1062
	cvtsi2ssl	%r12d, %xmm0
	movl	%r11d, 24(%rsp)
	.loc 1 303 13 is_stmt 1 view .LVU1063
.LVL134:
.LBB413:
.LBI407:
	.loc 2 103 1 view .LVU1064
.LBB409:
	.loc 2 105 3 view .LVU1065
	.loc 2 105 10 is_stmt 0 view .LVU1066
	subq	$8, %rsp
	.cfi_def_cfa_offset 344
	movl	%r15d, %r8d
.LBE409:
.LBE413:
	.loc 1 303 121 view .LVU1067
	cvtsi2ssl	8(%rsp), %xmm1
.LBB414:
.LBB410:
	.loc 2 105 10 view .LVU1068
	pushq	%r12
	.cfi_def_cfa_offset 352
	movq	stderr(%rip), %rdi
	movl	$1, %esi
	movl	80(%rsp), %ecx
	leaq	.LC3(%rip), %rdx
	movl	$1, %eax
.LBE410:
.LBE414:
	.loc 1 303 105 view .LVU1069
	cvtss2sd	%xmm0, %xmm0
	.loc 1 303 103 view .LVU1070
	mulsd	.LC2(%rip), %xmm0
	.loc 1 303 121 view .LVU1071
	cvtss2sd	%xmm1, %xmm1
	.loc 1 303 13 view .LVU1072
	divsd	%xmm1, %xmm0
.LBB415:
.LBB411:
	.loc 2 105 10 view .LVU1073
	call	__fprintf_chk@PLT
.LVL135:
	.loc 2 105 10 view .LVU1074
.LBE411:
.LBE415:
.LBE406:
	.loc 1 348 21 view .LVU1075
	movl	668(%rbx), %eax
	movl	%eax, 16(%rsp)
	.loc 1 436 12 view .LVU1076
	movl	656(%rbx), %eax
	movl	%eax, 88(%rsp)
.LBB417:
.LBB416:
.LBB412:
	.loc 2 105 10 view .LVU1077
	popq	%rcx
	.cfi_def_cfa_offset 344
	popq	%rsi
	.cfi_def_cfa_offset 336
	movq	48(%rsp), %r10
	movl	24(%rsp), %r11d
	jmp	.L114
.LVL136:
.L539:
	.loc 2 105 10 view .LVU1078
.LBE412:
.LBE416:
.LBE417:
	.loc 1 324 45 view .LVU1079
	movl	%r13d, %ecx
	leal	-1(%r13), %edx
	.loc 1 322 14 view .LVU1080
	movl	$0, 84(%rsp)
	leaq	196(%rsp), %r14
	.loc 1 324 45 view .LVU1081
	leaq	0(,%rcx,4), %rax
	leaq	198(%rsp,%rdx,2), %r12
.LVL137:
	.loc 1 324 45 view .LVU1082
	movq	%rax, 104(%rsp)
	movq	%rdx, %rax
	salq	$7, %rax
	addq	%rdx, %rax
	leaq	46480(%rbx,%rax,8), %rdi
	addq	%rax, %rax
	movq	%rdi, 120(%rsp)
	.loc 1 328 28 view .LVU1083
	movl	16(%rsp), %edi
	movq	%rax, 176(%rsp)
	leaq	37966(%rbx,%rax), %rax
	leaq	4(,%rdi,4), %rsi
	movq	%rdi, 160(%rsp)
	salq	$4, %rdi
	leaq	51656(%rbx,%rdi), %rdi
	movq	%rax, 96(%rsp)
	leaq	45448(%rbx), %rax
	movq	%rdi, 128(%rsp)
	.loc 1 356 48 view .LVU1084
	leaq	(%rcx,%rcx), %rdi
	movq	%rdi, 8(%rsp)
	leaq	208(%rsp), %rdi
	movq	%rdi, 88(%rsp)
	leaq	212(%rsp,%rdx,4), %rdi
	.loc 1 328 28 view .LVU1085
	movq	%rsi, 152(%rsp)
	movq	%rdi, 136(%rsp)
	movq	%rax, 184(%rsp)
.LVL138:
.L117:
	.loc 1 324 21 is_stmt 1 view .LVU1086
	.loc 1 324 45 is_stmt 0 view .LVU1087
	movl	104(%rsp), %ecx
	movq	88(%rsp), %rdi
	xorl	%esi, %esi
	xorl	%eax, %eax
	andl	$-8, %ecx
.L156:
	movl	%eax, %edx
	addl	$8, %eax
	movq	%rsi, (%rdi,%rdx)
	cmpl	%ecx, %eax
	jb	.L156
	addq	88(%rsp), %rax
	testb	$4, 104(%rsp)
	je	.L160
	movl	$0, (%rax)
.LVL139:
.L160:
	.loc 1 324 45 view .LVU1088
	movq	184(%rsp), %rcx
	movq	%rbp, 16(%rsp)
	movq	%rbx, 24(%rsp)
	movq	120(%rsp), %rbp
	movq	%rcx, 144(%rsp)
	movq	152(%rsp), %r15
	movl	36(%rsp), %ebx
.L161:
.LVL140:
	.loc 1 327 24 is_stmt 1 view .LVU1089
	testl	%ebx, %ebx
	jle	.L123
	.loc 1 328 28 is_stmt 0 view .LVU1090
	movq	%rcx, %rdi
	movq	%r15, %rdx
	xorl	%esi, %esi
	call	memset@PLT
.LVL141:
	.loc 1 328 28 view .LVU1091
	movq	%rax, %rcx
.L123:
.LVL142:
	.loc 1 326 33 is_stmt 1 view .LVU1092
	.loc 1 326 21 view .LVU1093
	addq	$1032, %rcx
.LVL143:
	.loc 1 326 21 is_stmt 0 view .LVU1094
	cmpq	%rcx, %rbp
	jne	.L161
	.loc 1 334 10 view .LVU1095
	movq	16(%rsp), %rbp
	movq	24(%rsp), %rbx
	.loc 1 334 7 is_stmt 1 view .LVU1096
	.loc 1 334 10 is_stmt 0 view .LVU1097
	cmpl	$6, %r13d
	je	.L124
.L127:
.LVL144:
	.loc 1 345 7 is_stmt 1 view .LVU1098
	.loc 1 348 10 view .LVU1099
	.loc 1 348 13 is_stmt 0 view .LVU1100
	movl	(%rsp), %eax
	testl	%eax, %eax
	jle	.L371
.LVL145:
.L551:
	.loc 1 350 32 view .LVU1101
	subl	$1, %eax
	.loc 1 348 13 view .LVU1102
	movl	$0, 16(%rsp)
	xorl	%ecx, %ecx
	movl	$1, %r8d
	.loc 1 350 32 view .LVU1103
	movl	%eax, 76(%rsp)
	.loc 1 356 48 view .LVU1104
	movq	8(%rsp), %rax
	leaq	(%r14,%rax), %rdi
	movq	%rdi, 48(%rsp)
	movl	%eax, %edi
	andl	$2, %eax
	movl	%eax, 168(%rsp)
	andl	$4, %edi
	leaq	2(%rbp), %rax
	movl	%edi, 80(%rsp)
	movq	%rax, 24(%rsp)
.LVL146:
.L126:
	.loc 1 349 10 is_stmt 1 view .LVU1105
	.loc 1 349 13 is_stmt 0 view .LVU1106
	leal	49(%rcx), %edi
	.loc 1 350 10 is_stmt 1 view .LVU1107
	.loc 1 434 13 is_stmt 0 view .LVU1108
	leal	50(%rcx), %r9d
	.loc 1 350 13 view .LVU1109
	cmpl	(%rsp), %edi
	jl	.L130
	.loc 1 350 29 is_stmt 1 view .LVU1110
.LVL147:
	.loc 1 350 32 is_stmt 0 view .LVU1111
	movl	76(%rsp), %edi
	.loc 1 350 32 view .LVU1112
	movl	(%rsp), %r9d
.LVL148:
.L130:
	.loc 1 356 10 is_stmt 1 view .LVU1113
	.loc 1 356 24 view .LVU1114
	.loc 1 356 48 is_stmt 0 view .LVU1115
	cmpl	$8, 8(%rsp)
	jnb	.L131
	movl	80(%rsp), %eax
	testl	%eax, %eax
	jne	.L540
	movl	8(%rsp), %r15d
	testl	%r15d, %r15d
	je	.L132
	movb	$0, (%r14)
	movl	168(%rsp), %r11d
	testl	%r11d, %r11d
	jne	.L541
.LVL149:
.L132:
	.loc 1 358 10 is_stmt 1 view .LVU1116
	.loc 1 358 13 is_stmt 0 view .LVU1117
	cmpl	$6, %r13d
	jne	.L137
	.loc 1 358 38 view .LVU1118
	movl	%edi, %eax
	subl	%ecx, %eax
	.loc 1 358 27 view .LVU1119
	cmpl	$49, %eax
	jne	.L137
.LBB418:
	.loc 1 360 13 is_stmt 1 view .LVU1120
	.loc 1 361 13 view .LVU1121
	.loc 1 362 13 view .LVU1122
.LVL150:
	.loc 1 370 13 view .LVU1123
	.loc 1 370 23 is_stmt 0 view .LVU1124
	movslq	%ecx, %rsi
.LVL151:
	.loc 1 370 33 is_stmt 1 view .LVU1125
	.loc 1 370 64 view .LVU1126
	.loc 1 370 95 view .LVU1127
	.loc 1 370 125 view .LVU1128
	.loc 1 370 127 view .LVU1129
	.loc 1 370 147 view .LVU1130
	.loc 1 370 178 view .LVU1131
	.loc 1 370 209 view .LVU1132
	.loc 1 370 239 view .LVU1133
	.loc 1 370 241 view .LVU1134
	.loc 1 370 261 view .LVU1135
	.loc 1 370 173 is_stmt 0 view .LVU1136
	movzwl	2(%rbp,%rsi,2), %r15d
	.loc 1 370 287 view .LVU1137
	movzwl	4(%rbp,%rsi,2), %edx
	.loc 1 370 59 view .LVU1138
	movzwl	0(%rbp,%rsi,2), %r11d
	.loc 1 370 173 view .LVU1139
	movq	%r15, %r10
	.loc 1 370 287 view .LVU1140
	movq	%rdx, %rax
	.loc 1 370 204 view .LVU1141
	salq	$4, %r15
	.loc 1 370 173 view .LVU1142
	salq	$4, %r10
	.loc 1 370 287 view .LVU1143
	salq	$4, %rax
	.loc 1 370 204 view .LVU1144
	addq	%rbx, %r15
	.loc 1 370 268 view .LVU1145
	movl	51640(%rax,%rbx), %eax
	.loc 1 370 318 view .LVU1146
	salq	$4, %rdx
	.loc 1 370 268 view .LVU1147
	addl	51640(%rbx,%r10), %eax
	.loc 1 370 59 view .LVU1148
	movq	%r11, %r10
	.loc 1 370 90 view .LVU1149
	salq	$4, %r11
	.loc 1 370 59 view .LVU1150
	salq	$4, %r10
	.loc 1 370 318 view .LVU1151
	addq	%rbx, %rdx
	.loc 1 370 90 view .LVU1152
	addq	%rbx, %r11
	.loc 1 370 268 view .LVU1153
	addl	51640(%rbx,%r10), %eax
.LVL152:
	.loc 1 370 292 is_stmt 1 view .LVU1154
	.loc 1 370 299 is_stmt 0 view .LVU1155
	movl	51644(%rdx), %r10d
	.loc 1 370 330 view .LVU1156
	movl	51648(%rdx), %edx
	.loc 1 370 299 view .LVU1157
	addl	51644(%r15), %r10d
	.loc 1 370 330 view .LVU1158
	addl	51648(%r15), %edx
	.loc 1 370 299 view .LVU1159
	addl	51644(%r11), %r10d
.LVL153:
	.loc 1 370 323 is_stmt 1 view .LVU1160
	.loc 1 370 330 is_stmt 0 view .LVU1161
	addl	51648(%r11), %edx
.LVL154:
	.loc 1 370 353 is_stmt 1 view .LVU1162
	.loc 1 370 355 view .LVU1163
	.loc 1 370 375 view .LVU1164
	.loc 1 370 401 is_stmt 0 view .LVU1165
	movzwl	6(%rbp,%rsi,2), %r11d
	movq	%r11, %r15
	salq	$4, %r15
	.loc 1 370 432 view .LVU1166
	movq	%r15, %r11
	.loc 1 370 382 view .LVU1167
	addl	51640(%rbx,%r15), %eax
.LVL155:
	.loc 1 370 406 is_stmt 1 view .LVU1168
	.loc 1 370 432 is_stmt 0 view .LVU1169
	addq	%rbx, %r11
	.loc 1 370 413 view .LVU1170
	addl	51644(%r11), %r10d
.LVL156:
	.loc 1 370 437 is_stmt 1 view .LVU1171
	.loc 1 370 444 is_stmt 0 view .LVU1172
	addl	51648(%r11), %edx
.LVL157:
	.loc 1 370 467 is_stmt 1 view .LVU1173
	.loc 1 370 469 view .LVU1174
	.loc 1 370 489 view .LVU1175
	.loc 1 370 515 is_stmt 0 view .LVU1176
	movzwl	8(%rbp,%rsi,2), %r11d
	movq	%r11, %r15
	salq	$4, %r15
	.loc 1 370 546 view .LVU1177
	movq	%r15, %r11
	.loc 1 370 496 view .LVU1178
	addl	51640(%rbx,%r15), %eax
.LVL158:
	.loc 1 370 520 is_stmt 1 view .LVU1179
	.loc 1 370 546 is_stmt 0 view .LVU1180
	addq	%rbx, %r11
	.loc 1 370 527 view .LVU1181
	addl	51644(%r11), %r10d
.LVL159:
	.loc 1 370 551 is_stmt 1 view .LVU1182
	.loc 1 370 558 is_stmt 0 view .LVU1183
	addl	51648(%r11), %edx
.LVL160:
	.loc 1 370 581 is_stmt 1 view .LVU1184
	.loc 1 371 13 view .LVU1185
	.loc 1 371 33 view .LVU1186
	.loc 1 371 59 is_stmt 0 view .LVU1187
	movzwl	10(%rbp,%rsi,2), %r11d
	movq	%r11, %r15
	salq	$4, %r15
	.loc 1 371 90 view .LVU1188
	movq	%r15, %r11
	.loc 1 371 40 view .LVU1189
	addl	51640(%rbx,%r15), %eax
.LVL161:
	.loc 1 371 64 is_stmt 1 view .LVU1190
	.loc 1 371 90 is_stmt 0 view .LVU1191
	addq	%rbx, %r11
	.loc 1 371 71 view .LVU1192
	addl	51644(%r11), %r10d
.LVL162:
	.loc 1 371 95 is_stmt 1 view .LVU1193
	.loc 1 371 102 is_stmt 0 view .LVU1194
	addl	51648(%r11), %edx
.LVL163:
	.loc 1 371 125 is_stmt 1 view .LVU1195
	.loc 1 371 127 view .LVU1196
	.loc 1 371 147 view .LVU1197
	.loc 1 371 173 is_stmt 0 view .LVU1198
	movzwl	12(%rbp,%rsi,2), %r11d
	movq	%r11, %r15
	salq	$4, %r15
	.loc 1 371 204 view .LVU1199
	movq	%r15, %r11
	.loc 1 371 154 view .LVU1200
	addl	51640(%rbx,%r15), %eax
.LVL164:
	.loc 1 371 178 is_stmt 1 view .LVU1201
	.loc 1 371 204 is_stmt 0 view .LVU1202
	addq	%rbx, %r11
	.loc 1 371 185 view .LVU1203
	addl	51644(%r11), %r10d
.LVL165:
	.loc 1 371 209 is_stmt 1 view .LVU1204
	.loc 1 371 216 is_stmt 0 view .LVU1205
	addl	51648(%r11), %edx
.LVL166:
	.loc 1 371 239 is_stmt 1 view .LVU1206
	.loc 1 371 241 view .LVU1207
	.loc 1 371 261 view .LVU1208
	.loc 1 371 287 is_stmt 0 view .LVU1209
	movzwl	14(%rbp,%rsi,2), %r11d
	movq	%r11, %r15
	salq	$4, %r15
	.loc 1 371 318 view .LVU1210
	movq	%r15, %r11
	.loc 1 371 268 view .LVU1211
	addl	51640(%rbx,%r15), %eax
.LVL167:
	.loc 1 371 292 is_stmt 1 view .LVU1212
	.loc 1 371 318 is_stmt 0 view .LVU1213
	addq	%rbx, %r11
	.loc 1 371 299 view .LVU1214
	addl	51644(%r11), %r10d
.LVL168:
	.loc 1 371 323 is_stmt 1 view .LVU1215
	.loc 1 371 330 is_stmt 0 view .LVU1216
	addl	51648(%r11), %edx
.LVL169:
	.loc 1 371 353 is_stmt 1 view .LVU1217
	.loc 1 371 355 view .LVU1218
	.loc 1 371 375 view .LVU1219
	.loc 1 371 401 is_stmt 0 view .LVU1220
	movzwl	16(%rbp,%rsi,2), %r11d
	movq	%r11, %r15
	salq	$4, %r15
	.loc 1 371 432 view .LVU1221
	movq	%r15, %r11
	.loc 1 371 382 view .LVU1222
	addl	51640(%rbx,%r15), %eax
.LVL170:
	.loc 1 371 406 is_stmt 1 view .LVU1223
	.loc 1 371 432 is_stmt 0 view .LVU1224
	addq	%rbx, %r11
	.loc 1 371 413 view .LVU1225
	addl	51644(%r11), %r10d
.LVL171:
	.loc 1 371 437 is_stmt 1 view .LVU1226
	.loc 1 371 444 is_stmt 0 view .LVU1227
	addl	51648(%r11), %edx
.LVL172:
	.loc 1 371 467 is_stmt 1 view .LVU1228
	.loc 1 371 469 view .LVU1229
	.loc 1 371 489 view .LVU1230
	.loc 1 371 515 is_stmt 0 view .LVU1231
	movzwl	18(%rbp,%rsi,2), %r11d
	movq	%r11, %r15
	salq	$4, %r15
	.loc 1 371 546 view .LVU1232
	movq	%r15, %r11
	.loc 1 371 496 view .LVU1233
	addl	51640(%rbx,%r15), %eax
.LVL173:
	.loc 1 371 520 is_stmt 1 view .LVU1234
	.loc 1 371 546 is_stmt 0 view .LVU1235
	addq	%rbx, %r11
	.loc 1 371 527 view .LVU1236
	addl	51644(%r11), %r10d
.LVL174:
	.loc 1 371 551 is_stmt 1 view .LVU1237
	.loc 1 371 558 is_stmt 0 view .LVU1238
	addl	51648(%r11), %edx
.LVL175:
	.loc 1 371 581 is_stmt 1 view .LVU1239
	.loc 1 372 13 view .LVU1240
	.loc 1 372 34 view .LVU1241
	.loc 1 372 60 is_stmt 0 view .LVU1242
	movzwl	20(%rbp,%rsi,2), %r11d
	movq	%r11, %r15
	salq	$4, %r15
	.loc 1 372 91 view .LVU1243
	movq	%r15, %r11
	.loc 1 372 41 view .LVU1244
	addl	51640(%rbx,%r15), %eax
.LVL176:
	.loc 1 372 65 is_stmt 1 view .LVU1245
	.loc 1 372 91 is_stmt 0 view .LVU1246
	addq	%rbx, %r11
	.loc 1 372 72 view .LVU1247
	addl	51644(%r11), %r10d
.LVL177:
	.loc 1 372 96 is_stmt 1 view .LVU1248
	.loc 1 372 103 is_stmt 0 view .LVU1249
	addl	51648(%r11), %edx
.LVL178:
	.loc 1 372 126 is_stmt 1 view .LVU1250
	.loc 1 372 128 view .LVU1251
	.loc 1 372 149 view .LVU1252
	.loc 1 372 175 is_stmt 0 view .LVU1253
	movzwl	22(%rbp,%rsi,2), %r11d
	movq	%r11, %r15
	salq	$4, %r15
	.loc 1 372 206 view .LVU1254
	movq	%r15, %r11
	.loc 1 372 156 view .LVU1255
	addl	51640(%rbx,%r15), %eax
.LVL179:
	.loc 1 372 180 is_stmt 1 view .LVU1256
	.loc 1 372 206 is_stmt 0 view .LVU1257
	addq	%rbx, %r11
	.loc 1 372 187 view .LVU1258
	addl	51644(%r11), %r10d
.LVL180:
	.loc 1 372 211 is_stmt 1 view .LVU1259
	.loc 1 372 218 is_stmt 0 view .LVU1260
	addl	51648(%r11), %edx
.LVL181:
	.loc 1 372 241 is_stmt 1 view .LVU1261
	.loc 1 372 243 view .LVU1262
	.loc 1 372 264 view .LVU1263
	.loc 1 372 290 is_stmt 0 view .LVU1264
	movzwl	24(%rbp,%rsi,2), %r11d
	movq	%r11, %r15
	salq	$4, %r15
	.loc 1 372 321 view .LVU1265
	movq	%r15, %r11
	.loc 1 372 271 view .LVU1266
	addl	51640(%rbx,%r15), %eax
.LVL182:
	.loc 1 372 295 is_stmt 1 view .LVU1267
	.loc 1 372 321 is_stmt 0 view .LVU1268
	addq	%rbx, %r11
	.loc 1 372 302 view .LVU1269
	addl	51644(%r11), %r10d
.LVL183:
	.loc 1 372 326 is_stmt 1 view .LVU1270
	.loc 1 372 333 is_stmt 0 view .LVU1271
	addl	51648(%r11), %edx
.LVL184:
	.loc 1 372 356 is_stmt 1 view .LVU1272
	.loc 1 372 358 view .LVU1273
	.loc 1 372 379 view .LVU1274
	.loc 1 372 405 is_stmt 0 view .LVU1275
	movzwl	26(%rbp,%rsi,2), %r11d
	movq	%r11, %r15
	salq	$4, %r15
	.loc 1 372 436 view .LVU1276
	movq	%r15, %r11
	.loc 1 372 386 view .LVU1277
	addl	51640(%rbx,%r15), %eax
.LVL185:
	.loc 1 372 410 is_stmt 1 view .LVU1278
	.loc 1 372 436 is_stmt 0 view .LVU1279
	addq	%rbx, %r11
	.loc 1 372 417 view .LVU1280
	addl	51644(%r11), %r10d
.LVL186:
	.loc 1 372 441 is_stmt 1 view .LVU1281
	.loc 1 372 448 is_stmt 0 view .LVU1282
	addl	51648(%r11), %edx
.LVL187:
	.loc 1 372 471 is_stmt 1 view .LVU1283
	.loc 1 372 473 view .LVU1284
	.loc 1 372 494 view .LVU1285
	.loc 1 372 520 is_stmt 0 view .LVU1286
	movzwl	28(%rbp,%rsi,2), %r11d
	movq	%r11, %r15
	salq	$4, %r15
	.loc 1 372 551 view .LVU1287
	movq	%r15, %r11
	.loc 1 372 501 view .LVU1288
	addl	51640(%rbx,%r15), %eax
.LVL188:
	.loc 1 372 525 is_stmt 1 view .LVU1289
	.loc 1 372 551 is_stmt 0 view .LVU1290
	addq	%rbx, %r11
	.loc 1 372 532 view .LVU1291
	addl	51644(%r11), %r10d
.LVL189:
	.loc 1 372 556 is_stmt 1 view .LVU1292
	.loc 1 372 563 is_stmt 0 view .LVU1293
	addl	51648(%r11), %edx
.LVL190:
	.loc 1 372 586 is_stmt 1 view .LVU1294
	.loc 1 373 13 view .LVU1295
	.loc 1 373 34 view .LVU1296
	.loc 1 373 60 is_stmt 0 view .LVU1297
	movzwl	30(%rbp,%rsi,2), %r11d
	movq	%r11, %r15
	salq	$4, %r15
	.loc 1 373 91 view .LVU1298
	movq	%r15, %r11
	.loc 1 373 41 view .LVU1299
	addl	51640(%rbx,%r15), %eax
.LVL191:
	.loc 1 373 65 is_stmt 1 view .LVU1300
	.loc 1 373 91 is_stmt 0 view .LVU1301
	addq	%rbx, %r11
	.loc 1 373 72 view .LVU1302
	addl	51644(%r11), %r10d
.LVL192:
	.loc 1 373 96 is_stmt 1 view .LVU1303
	.loc 1 373 103 is_stmt 0 view .LVU1304
	addl	51648(%r11), %edx
.LVL193:
	.loc 1 373 126 is_stmt 1 view .LVU1305
	.loc 1 373 128 view .LVU1306
	.loc 1 373 149 view .LVU1307
	.loc 1 373 175 is_stmt 0 view .LVU1308
	movzwl	32(%rbp,%rsi,2), %r11d
	movq	%r11, %r15
	salq	$4, %r15
	.loc 1 373 206 view .LVU1309
	movq	%r15, %r11
	.loc 1 373 156 view .LVU1310
	addl	51640(%rbx,%r15), %eax
.LVL194:
	.loc 1 373 180 is_stmt 1 view .LVU1311
	.loc 1 373 206 is_stmt 0 view .LVU1312
	addq	%rbx, %r11
	.loc 1 373 187 view .LVU1313
	addl	51644(%r11), %r10d
.LVL195:
	.loc 1 373 211 is_stmt 1 view .LVU1314
	.loc 1 373 218 is_stmt 0 view .LVU1315
	addl	51648(%r11), %edx
.LVL196:
	.loc 1 373 241 is_stmt 1 view .LVU1316
	.loc 1 373 243 view .LVU1317
	.loc 1 373 264 view .LVU1318
	.loc 1 373 290 is_stmt 0 view .LVU1319
	movzwl	34(%rbp,%rsi,2), %r11d
	movq	%r11, %r15
	salq	$4, %r15
	.loc 1 373 321 view .LVU1320
	movq	%r15, %r11
	.loc 1 373 271 view .LVU1321
	addl	51640(%rbx,%r15), %eax
.LVL197:
	.loc 1 373 295 is_stmt 1 view .LVU1322
	.loc 1 373 321 is_stmt 0 view .LVU1323
	addq	%rbx, %r11
	.loc 1 373 302 view .LVU1324
	addl	51644(%r11), %r10d
.LVL198:
	.loc 1 373 326 is_stmt 1 view .LVU1325
	.loc 1 373 333 is_stmt 0 view .LVU1326
	addl	51648(%r11), %edx
.LVL199:
	.loc 1 373 356 is_stmt 1 view .LVU1327
	.loc 1 373 358 view .LVU1328
	.loc 1 373 379 view .LVU1329
	.loc 1 373 405 is_stmt 0 view .LVU1330
	movzwl	36(%rbp,%rsi,2), %r11d
	movq	%r11, %r15
	salq	$4, %r15
	.loc 1 373 436 view .LVU1331
	movq	%r15, %r11
	.loc 1 373 386 view .LVU1332
	addl	51640(%rbx,%r15), %eax
.LVL200:
	.loc 1 373 410 is_stmt 1 view .LVU1333
	.loc 1 373 436 is_stmt 0 view .LVU1334
	addq	%rbx, %r11
	.loc 1 373 417 view .LVU1335
	addl	51644(%r11), %r10d
.LVL201:
	.loc 1 373 441 is_stmt 1 view .LVU1336
	.loc 1 373 448 is_stmt 0 view .LVU1337
	addl	51648(%r11), %edx
.LVL202:
	.loc 1 373 471 is_stmt 1 view .LVU1338
	.loc 1 373 473 view .LVU1339
	.loc 1 373 494 view .LVU1340
	.loc 1 373 520 is_stmt 0 view .LVU1341
	movzwl	38(%rbp,%rsi,2), %r11d
	movq	%r11, %r15
	salq	$4, %r15
	.loc 1 373 551 view .LVU1342
	movq	%r15, %r11
	.loc 1 373 501 view .LVU1343
	addl	51640(%rbx,%r15), %eax
.LVL203:
	.loc 1 373 525 is_stmt 1 view .LVU1344
	.loc 1 373 551 is_stmt 0 view .LVU1345
	addq	%rbx, %r11
	.loc 1 373 532 view .LVU1346
	addl	51644(%r11), %r10d
.LVL204:
	.loc 1 373 556 is_stmt 1 view .LVU1347
	.loc 1 373 563 is_stmt 0 view .LVU1348
	addl	51648(%r11), %edx
.LVL205:
	.loc 1 373 586 is_stmt 1 view .LVU1349
	.loc 1 374 13 view .LVU1350
	.loc 1 374 34 view .LVU1351
	.loc 1 374 60 is_stmt 0 view .LVU1352
	movzwl	40(%rbp,%rsi,2), %r11d
	movq	%r11, %r15
	salq	$4, %r15
	.loc 1 374 91 view .LVU1353
	movq	%r15, %r11
	.loc 1 374 41 view .LVU1354
	addl	51640(%rbx,%r15), %eax
.LVL206:
	.loc 1 374 65 is_stmt 1 view .LVU1355
	.loc 1 374 91 is_stmt 0 view .LVU1356
	addq	%rbx, %r11
	.loc 1 374 72 view .LVU1357
	addl	51644(%r11), %r10d
.LVL207:
	.loc 1 374 96 is_stmt 1 view .LVU1358
	.loc 1 374 103 is_stmt 0 view .LVU1359
	addl	51648(%r11), %edx
.LVL208:
	.loc 1 374 126 is_stmt 1 view .LVU1360
	.loc 1 374 128 view .LVU1361
	.loc 1 374 149 view .LVU1362
	.loc 1 374 175 is_stmt 0 view .LVU1363
	movzwl	42(%rbp,%rsi,2), %r11d
	movq	%r11, %r15
	salq	$4, %r15
	.loc 1 374 206 view .LVU1364
	movq	%r15, %r11
	.loc 1 374 156 view .LVU1365
	addl	51640(%rbx,%r15), %eax
.LVL209:
	.loc 1 374 180 is_stmt 1 view .LVU1366
	.loc 1 374 206 is_stmt 0 view .LVU1367
	addq	%rbx, %r11
	.loc 1 374 187 view .LVU1368
	addl	51644(%r11), %r10d
.LVL210:
	.loc 1 374 211 is_stmt 1 view .LVU1369
	.loc 1 374 218 is_stmt 0 view .LVU1370
	addl	51648(%r11), %edx
.LVL211:
	.loc 1 374 241 is_stmt 1 view .LVU1371
	.loc 1 374 243 view .LVU1372
	.loc 1 374 264 view .LVU1373
	.loc 1 374 290 is_stmt 0 view .LVU1374
	movzwl	44(%rbp,%rsi,2), %r11d
	movq	%r11, %r15
	salq	$4, %r15
	.loc 1 374 321 view .LVU1375
	movq	%r15, %r11
	.loc 1 374 271 view .LVU1376
	addl	51640(%rbx,%r15), %eax
.LVL212:
	.loc 1 374 295 is_stmt 1 view .LVU1377
	.loc 1 374 321 is_stmt 0 view .LVU1378
	addq	%rbx, %r11
	.loc 1 374 302 view .LVU1379
	addl	51644(%r11), %r10d
.LVL213:
	.loc 1 374 326 is_stmt 1 view .LVU1380
	.loc 1 374 333 is_stmt 0 view .LVU1381
	addl	51648(%r11), %edx
.LVL214:
	.loc 1 374 356 is_stmt 1 view .LVU1382
	.loc 1 374 358 view .LVU1383
	.loc 1 374 379 view .LVU1384
	.loc 1 374 405 is_stmt 0 view .LVU1385
	movzwl	46(%rbp,%rsi,2), %r11d
	movq	%r11, %r15
	salq	$4, %r15
	.loc 1 374 436 view .LVU1386
	movq	%r15, %r11
	.loc 1 374 386 view .LVU1387
	addl	51640(%rbx,%r15), %eax
.LVL215:
	.loc 1 374 410 is_stmt 1 view .LVU1388
	.loc 1 374 436 is_stmt 0 view .LVU1389
	addq	%rbx, %r11
	.loc 1 374 417 view .LVU1390
	addl	51644(%r11), %r10d
.LVL216:
	.loc 1 374 441 is_stmt 1 view .LVU1391
	.loc 1 374 448 is_stmt 0 view .LVU1392
	addl	51648(%r11), %edx
.LVL217:
	.loc 1 374 471 is_stmt 1 view .LVU1393
	.loc 1 374 473 view .LVU1394
	.loc 1 374 494 view .LVU1395
	.loc 1 374 520 is_stmt 0 view .LVU1396
	movzwl	48(%rbp,%rsi,2), %r11d
	movq	%r11, %r15
	salq	$4, %r15
	.loc 1 374 551 view .LVU1397
	movq	%r15, %r11
	.loc 1 374 501 view .LVU1398
	addl	51640(%rbx,%r15), %eax
.LVL218:
	.loc 1 374 525 is_stmt 1 view .LVU1399
	.loc 1 374 551 is_stmt 0 view .LVU1400
	addq	%rbx, %r11
	.loc 1 374 563 view .LVU1401
	addl	51648(%r11), %edx
.LVL219:
	.loc 1 374 532 view .LVU1402
	addl	51644(%r11), %r10d
.LVL220:
	.loc 1 374 556 is_stmt 1 view .LVU1403
	.loc 1 374 586 view .LVU1404
	.loc 1 375 13 view .LVU1405
	.loc 1 375 34 view .LVU1406
	.loc 1 375 60 is_stmt 0 view .LVU1407
	movzwl	50(%rbp,%rsi,2), %r11d
	movq	%r11, %r15
	salq	$4, %r15
	.loc 1 375 91 view .LVU1408
	movq	%r15, %r11
	.loc 1 375 41 view .LVU1409
	addl	51640(%rbx,%r15), %eax
.LVL221:
	.loc 1 375 65 is_stmt 1 view .LVU1410
	.loc 1 375 91 is_stmt 0 view .LVU1411
	addq	%rbx, %r11
	.loc 1 375 72 view .LVU1412
	addl	51644(%r11), %r10d
.LVL222:
	.loc 1 375 96 is_stmt 1 view .LVU1413
	.loc 1 375 103 is_stmt 0 view .LVU1414
	addl	51648(%r11), %edx
.LVL223:
	.loc 1 375 126 is_stmt 1 view .LVU1415
	.loc 1 375 128 view .LVU1416
	.loc 1 375 149 view .LVU1417
	.loc 1 375 175 is_stmt 0 view .LVU1418
	movzwl	52(%rbp,%rsi,2), %r11d
	movq	%r11, %r15
	salq	$4, %r15
	.loc 1 375 206 view .LVU1419
	movq	%r15, %r11
	.loc 1 375 156 view .LVU1420
	addl	51640(%rbx,%r15), %eax
.LVL224:
	.loc 1 375 180 is_stmt 1 view .LVU1421
	.loc 1 375 206 is_stmt 0 view .LVU1422
	addq	%rbx, %r11
	.loc 1 375 187 view .LVU1423
	addl	51644(%r11), %r10d
.LVL225:
	.loc 1 375 211 is_stmt 1 view .LVU1424
	.loc 1 375 218 is_stmt 0 view .LVU1425
	addl	51648(%r11), %edx
.LVL226:
	.loc 1 375 241 is_stmt 1 view .LVU1426
	.loc 1 375 243 view .LVU1427
	.loc 1 375 264 view .LVU1428
	.loc 1 375 290 is_stmt 0 view .LVU1429
	movzwl	54(%rbp,%rsi,2), %r11d
	movq	%r11, %r15
	salq	$4, %r15
	.loc 1 375 321 view .LVU1430
	movq	%r15, %r11
	.loc 1 375 271 view .LVU1431
	addl	51640(%rbx,%r15), %eax
.LVL227:
	.loc 1 375 295 is_stmt 1 view .LVU1432
	.loc 1 375 321 is_stmt 0 view .LVU1433
	addq	%rbx, %r11
	.loc 1 375 302 view .LVU1434
	addl	51644(%r11), %r10d
.LVL228:
	.loc 1 375 326 is_stmt 1 view .LVU1435
	.loc 1 375 333 is_stmt 0 view .LVU1436
	addl	51648(%r11), %edx
.LVL229:
	.loc 1 375 356 is_stmt 1 view .LVU1437
	.loc 1 375 358 view .LVU1438
	.loc 1 375 379 view .LVU1439
	.loc 1 375 405 is_stmt 0 view .LVU1440
	movzwl	56(%rbp,%rsi,2), %r11d
	movq	%r11, %r15
	salq	$4, %r15
	.loc 1 375 436 view .LVU1441
	movq	%r15, %r11
	.loc 1 375 386 view .LVU1442
	addl	51640(%rbx,%r15), %eax
.LVL230:
	.loc 1 375 410 is_stmt 1 view .LVU1443
	.loc 1 375 436 is_stmt 0 view .LVU1444
	addq	%rbx, %r11
	.loc 1 375 417 view .LVU1445
	addl	51644(%r11), %r10d
.LVL231:
	.loc 1 375 441 is_stmt 1 view .LVU1446
	.loc 1 375 448 is_stmt 0 view .LVU1447
	addl	51648(%r11), %edx
.LVL232:
	.loc 1 375 471 is_stmt 1 view .LVU1448
	.loc 1 375 473 view .LVU1449
	.loc 1 375 494 view .LVU1450
	.loc 1 375 520 is_stmt 0 view .LVU1451
	movzwl	58(%rbp,%rsi,2), %r11d
	movq	%r11, %r15
	salq	$4, %r15
	.loc 1 375 551 view .LVU1452
	movq	%r15, %r11
	.loc 1 375 501 view .LVU1453
	addl	51640(%rbx,%r15), %eax
.LVL233:
	.loc 1 375 525 is_stmt 1 view .LVU1454
	.loc 1 375 551 is_stmt 0 view .LVU1455
	addq	%rbx, %r11
	.loc 1 375 532 view .LVU1456
	addl	51644(%r11), %r10d
.LVL234:
	.loc 1 375 556 is_stmt 1 view .LVU1457
	.loc 1 375 563 is_stmt 0 view .LVU1458
	addl	51648(%r11), %edx
.LVL235:
	.loc 1 375 586 is_stmt 1 view .LVU1459
	.loc 1 376 13 view .LVU1460
	.loc 1 376 34 view .LVU1461
	.loc 1 376 60 is_stmt 0 view .LVU1462
	movzwl	60(%rbp,%rsi,2), %r11d
	movq	%r11, %r15
	salq	$4, %r15
	.loc 1 376 91 view .LVU1463
	movq	%r15, %r11
	.loc 1 376 41 view .LVU1464
	addl	51640(%rbx,%r15), %eax
.LVL236:
	.loc 1 376 65 is_stmt 1 view .LVU1465
	.loc 1 376 91 is_stmt 0 view .LVU1466
	addq	%rbx, %r11
	.loc 1 376 72 view .LVU1467
	addl	51644(%r11), %r10d
.LVL237:
	.loc 1 376 96 is_stmt 1 view .LVU1468
	.loc 1 376 103 is_stmt 0 view .LVU1469
	addl	51648(%r11), %edx
.LVL238:
	.loc 1 376 126 is_stmt 1 view .LVU1470
	.loc 1 376 128 view .LVU1471
	.loc 1 376 149 view .LVU1472
	.loc 1 376 175 is_stmt 0 view .LVU1473
	movzwl	62(%rbp,%rsi,2), %r11d
	movq	%r11, %r15
	salq	$4, %r15
	.loc 1 376 206 view .LVU1474
	movq	%r15, %r11
	.loc 1 376 156 view .LVU1475
	addl	51640(%rbx,%r15), %eax
.LVL239:
	.loc 1 376 180 is_stmt 1 view .LVU1476
	.loc 1 376 206 is_stmt 0 view .LVU1477
	addq	%rbx, %r11
	.loc 1 376 187 view .LVU1478
	addl	51644(%r11), %r10d
.LVL240:
	.loc 1 376 211 is_stmt 1 view .LVU1479
	.loc 1 376 218 is_stmt 0 view .LVU1480
	addl	51648(%r11), %edx
.LVL241:
	.loc 1 376 241 is_stmt 1 view .LVU1481
	.loc 1 376 243 view .LVU1482
	.loc 1 376 264 view .LVU1483
	.loc 1 376 290 is_stmt 0 view .LVU1484
	movzwl	64(%rbp,%rsi,2), %r11d
	movq	%r11, %r15
	salq	$4, %r15
	.loc 1 376 321 view .LVU1485
	movq	%r15, %r11
	.loc 1 376 271 view .LVU1486
	addl	51640(%rbx,%r15), %eax
.LVL242:
	.loc 1 376 295 is_stmt 1 view .LVU1487
	.loc 1 376 321 is_stmt 0 view .LVU1488
	addq	%rbx, %r11
	.loc 1 376 302 view .LVU1489
	addl	51644(%r11), %r10d
.LVL243:
	.loc 1 376 326 is_stmt 1 view .LVU1490
	.loc 1 376 333 is_stmt 0 view .LVU1491
	addl	51648(%r11), %edx
.LVL244:
	.loc 1 376 356 is_stmt 1 view .LVU1492
	.loc 1 376 358 view .LVU1493
	.loc 1 376 379 view .LVU1494
	.loc 1 376 405 is_stmt 0 view .LVU1495
	movzwl	66(%rbp,%rsi,2), %r11d
	movq	%r11, %r15
	salq	$4, %r15
	.loc 1 376 436 view .LVU1496
	movq	%r15, %r11
	.loc 1 376 386 view .LVU1497
	addl	51640(%rbx,%r15), %eax
.LVL245:
	.loc 1 376 410 is_stmt 1 view .LVU1498
	.loc 1 376 436 is_stmt 0 view .LVU1499
	addq	%rbx, %r11
	.loc 1 376 417 view .LVU1500
	addl	51644(%r11), %r10d
.LVL246:
	.loc 1 376 441 is_stmt 1 view .LVU1501
	.loc 1 376 448 is_stmt 0 view .LVU1502
	addl	51648(%r11), %edx
.LVL247:
	.loc 1 376 471 is_stmt 1 view .LVU1503
	.loc 1 376 473 view .LVU1504
	.loc 1 376 494 view .LVU1505
	.loc 1 376 520 is_stmt 0 view .LVU1506
	movzwl	68(%rbp,%rsi,2), %r11d
	movq	%r11, %r15
	salq	$4, %r15
	.loc 1 376 551 view .LVU1507
	movq	%r15, %r11
	.loc 1 376 501 view .LVU1508
	addl	51640(%rbx,%r15), %eax
.LVL248:
	.loc 1 376 525 is_stmt 1 view .LVU1509
	.loc 1 376 551 is_stmt 0 view .LVU1510
	addq	%rbx, %r11
	.loc 1 376 532 view .LVU1511
	addl	51644(%r11), %r10d
.LVL249:
	.loc 1 376 556 is_stmt 1 view .LVU1512
	.loc 1 376 563 is_stmt 0 view .LVU1513
	addl	51648(%r11), %edx
.LVL250:
	.loc 1 376 586 is_stmt 1 view .LVU1514
	.loc 1 377 13 view .LVU1515
	.loc 1 377 34 view .LVU1516
	.loc 1 377 60 is_stmt 0 view .LVU1517
	movzwl	70(%rbp,%rsi,2), %r11d
	movq	%r11, %r15
	salq	$4, %r15
	.loc 1 377 91 view .LVU1518
	movq	%r15, %r11
	.loc 1 377 41 view .LVU1519
	addl	51640(%rbx,%r15), %eax
.LVL251:
	.loc 1 377 65 is_stmt 1 view .LVU1520
	.loc 1 377 91 is_stmt 0 view .LVU1521
	addq	%rbx, %r11
	.loc 1 377 72 view .LVU1522
	addl	51644(%r11), %r10d
.LVL252:
	.loc 1 377 96 is_stmt 1 view .LVU1523
	.loc 1 377 103 is_stmt 0 view .LVU1524
	addl	51648(%r11), %edx
.LVL253:
	.loc 1 377 126 is_stmt 1 view .LVU1525
	.loc 1 377 128 view .LVU1526
	.loc 1 377 149 view .LVU1527
	.loc 1 377 175 is_stmt 0 view .LVU1528
	movzwl	72(%rbp,%rsi,2), %r11d
	movq	%r11, %r15
	salq	$4, %r15
	.loc 1 377 206 view .LVU1529
	movq	%r15, %r11
	.loc 1 377 156 view .LVU1530
	addl	51640(%rbx,%r15), %eax
.LVL254:
	.loc 1 377 180 is_stmt 1 view .LVU1531
	.loc 1 377 206 is_stmt 0 view .LVU1532
	addq	%rbx, %r11
	.loc 1 377 187 view .LVU1533
	addl	51644(%r11), %r10d
.LVL255:
	.loc 1 377 211 is_stmt 1 view .LVU1534
	.loc 1 377 218 is_stmt 0 view .LVU1535
	addl	51648(%r11), %edx
.LVL256:
	.loc 1 377 241 is_stmt 1 view .LVU1536
	.loc 1 377 243 view .LVU1537
	.loc 1 377 264 view .LVU1538
	.loc 1 377 290 is_stmt 0 view .LVU1539
	movzwl	74(%rbp,%rsi,2), %r11d
	movq	%r11, %r15
	salq	$4, %r15
	.loc 1 377 321 view .LVU1540
	movq	%r15, %r11
	.loc 1 377 271 view .LVU1541
	addl	51640(%rbx,%r15), %eax
.LVL257:
	.loc 1 377 295 is_stmt 1 view .LVU1542
	.loc 1 377 321 is_stmt 0 view .LVU1543
	addq	%rbx, %r11
	.loc 1 377 302 view .LVU1544
	addl	51644(%r11), %r10d
.LVL258:
	.loc 1 377 326 is_stmt 1 view .LVU1545
	.loc 1 377 333 is_stmt 0 view .LVU1546
	addl	51648(%r11), %edx
.LVL259:
	.loc 1 377 356 is_stmt 1 view .LVU1547
	.loc 1 377 358 view .LVU1548
	.loc 1 377 379 view .LVU1549
	.loc 1 377 405 is_stmt 0 view .LVU1550
	movzwl	76(%rbp,%rsi,2), %r11d
	movq	%r11, %r15
	salq	$4, %r15
	.loc 1 377 436 view .LVU1551
	movq	%r15, %r11
	.loc 1 377 386 view .LVU1552
	addl	51640(%rbx,%r15), %eax
.LVL260:
	.loc 1 377 410 is_stmt 1 view .LVU1553
	.loc 1 377 436 is_stmt 0 view .LVU1554
	addq	%rbx, %r11
	.loc 1 377 417 view .LVU1555
	addl	51644(%r11), %r10d
.LVL261:
	.loc 1 377 441 is_stmt 1 view .LVU1556
	.loc 1 377 448 is_stmt 0 view .LVU1557
	addl	51648(%r11), %edx
.LVL262:
	.loc 1 377 471 is_stmt 1 view .LVU1558
	.loc 1 377 473 view .LVU1559
	.loc 1 377 494 view .LVU1560
	.loc 1 377 520 is_stmt 0 view .LVU1561
	movzwl	78(%rbp,%rsi,2), %r11d
	movq	%r11, %r15
	salq	$4, %r15
	.loc 1 377 551 view .LVU1562
	movq	%r15, %r11
	.loc 1 377 501 view .LVU1563
	addl	51640(%rbx,%r15), %eax
.LVL263:
	.loc 1 377 525 is_stmt 1 view .LVU1564
	.loc 1 377 551 is_stmt 0 view .LVU1565
	addq	%rbx, %r11
	.loc 1 377 532 view .LVU1566
	addl	51644(%r11), %r10d
.LVL264:
	.loc 1 377 556 is_stmt 1 view .LVU1567
	.loc 1 377 563 is_stmt 0 view .LVU1568
	addl	51648(%r11), %edx
.LVL265:
	.loc 1 377 586 is_stmt 1 view .LVU1569
	.loc 1 378 13 view .LVU1570
	.loc 1 378 34 view .LVU1571
	.loc 1 378 60 is_stmt 0 view .LVU1572
	movzwl	80(%rbp,%rsi,2), %r11d
	movq	%r11, %r15
	salq	$4, %r15
	.loc 1 378 91 view .LVU1573
	movq	%r15, %r11
	.loc 1 378 41 view .LVU1574
	addl	51640(%rbx,%r15), %eax
.LVL266:
	.loc 1 378 65 is_stmt 1 view .LVU1575
	.loc 1 378 91 is_stmt 0 view .LVU1576
	addq	%rbx, %r11
	.loc 1 378 72 view .LVU1577
	addl	51644(%r11), %r10d
.LVL267:
	.loc 1 378 96 is_stmt 1 view .LVU1578
	.loc 1 378 103 is_stmt 0 view .LVU1579
	addl	51648(%r11), %edx
.LVL268:
	.loc 1 378 126 is_stmt 1 view .LVU1580
	.loc 1 378 128 view .LVU1581
	.loc 1 378 149 view .LVU1582
	.loc 1 378 175 is_stmt 0 view .LVU1583
	movzwl	82(%rbp,%rsi,2), %r11d
	movq	%r11, %r15
	salq	$4, %r15
	.loc 1 378 206 view .LVU1584
	movq	%r15, %r11
	.loc 1 378 156 view .LVU1585
	addl	51640(%rbx,%r15), %eax
.LVL269:
	.loc 1 378 180 is_stmt 1 view .LVU1586
	.loc 1 378 206 is_stmt 0 view .LVU1587
	addq	%rbx, %r11
	.loc 1 378 187 view .LVU1588
	addl	51644(%r11), %r10d
.LVL270:
	.loc 1 378 211 is_stmt 1 view .LVU1589
	.loc 1 378 218 is_stmt 0 view .LVU1590
	addl	51648(%r11), %edx
.LVL271:
	.loc 1 378 241 is_stmt 1 view .LVU1591
	.loc 1 378 243 view .LVU1592
	.loc 1 378 264 view .LVU1593
	.loc 1 378 290 is_stmt 0 view .LVU1594
	movzwl	84(%rbp,%rsi,2), %r11d
	movq	%r11, %r15
	salq	$4, %r15
	.loc 1 378 321 view .LVU1595
	movq	%r15, %r11
	.loc 1 378 271 view .LVU1596
	addl	51640(%rbx,%r15), %eax
.LVL272:
	.loc 1 378 295 is_stmt 1 view .LVU1597
	.loc 1 378 321 is_stmt 0 view .LVU1598
	addq	%rbx, %r11
	.loc 1 378 302 view .LVU1599
	addl	51644(%r11), %r10d
.LVL273:
	.loc 1 378 326 is_stmt 1 view .LVU1600
	.loc 1 378 333 is_stmt 0 view .LVU1601
	addl	51648(%r11), %edx
.LVL274:
	.loc 1 378 356 is_stmt 1 view .LVU1602
	.loc 1 378 358 view .LVU1603
	.loc 1 378 379 view .LVU1604
	.loc 1 378 405 is_stmt 0 view .LVU1605
	movzwl	86(%rbp,%rsi,2), %r11d
	movq	%r11, %r15
	salq	$4, %r15
	.loc 1 378 436 view .LVU1606
	movq	%r15, %r11
	.loc 1 378 386 view .LVU1607
	addl	51640(%rbx,%r15), %eax
.LVL275:
	.loc 1 378 410 is_stmt 1 view .LVU1608
	.loc 1 378 436 is_stmt 0 view .LVU1609
	addq	%rbx, %r11
	.loc 1 378 417 view .LVU1610
	addl	51644(%r11), %r10d
.LVL276:
	.loc 1 378 441 is_stmt 1 view .LVU1611
	.loc 1 378 448 is_stmt 0 view .LVU1612
	addl	51648(%r11), %edx
.LVL277:
	.loc 1 378 471 is_stmt 1 view .LVU1613
	.loc 1 378 473 view .LVU1614
	.loc 1 378 494 view .LVU1615
	.loc 1 378 520 is_stmt 0 view .LVU1616
	movzwl	88(%rbp,%rsi,2), %r11d
	movq	%r11, %r15
	salq	$4, %r15
	.loc 1 378 551 view .LVU1617
	movq	%r15, %r11
	.loc 1 378 501 view .LVU1618
	addl	51640(%rbx,%r15), %eax
.LVL278:
	.loc 1 378 525 is_stmt 1 view .LVU1619
	.loc 1 378 551 is_stmt 0 view .LVU1620
	addq	%rbx, %r11
	.loc 1 378 532 view .LVU1621
	addl	51644(%r11), %r10d
.LVL279:
	.loc 1 378 556 is_stmt 1 view .LVU1622
	.loc 1 378 563 is_stmt 0 view .LVU1623
	addl	51648(%r11), %edx
.LVL280:
	.loc 1 378 586 is_stmt 1 view .LVU1624
	.loc 1 379 13 view .LVU1625
	.loc 1 379 34 view .LVU1626
	.loc 1 379 60 is_stmt 0 view .LVU1627
	movzwl	90(%rbp,%rsi,2), %r11d
	movq	%r11, %r15
	salq	$4, %r15
	.loc 1 379 91 view .LVU1628
	movq	%r15, %r11
	.loc 1 379 41 view .LVU1629
	addl	51640(%rbx,%r15), %eax
.LVL281:
	.loc 1 379 65 is_stmt 1 view .LVU1630
	.loc 1 379 91 is_stmt 0 view .LVU1631
	addq	%rbx, %r11
	.loc 1 379 72 view .LVU1632
	addl	51644(%r11), %r10d
.LVL282:
	.loc 1 379 96 is_stmt 1 view .LVU1633
	.loc 1 379 103 is_stmt 0 view .LVU1634
	addl	51648(%r11), %edx
.LVL283:
	.loc 1 379 126 is_stmt 1 view .LVU1635
	.loc 1 379 128 view .LVU1636
	.loc 1 379 149 view .LVU1637
	.loc 1 379 175 is_stmt 0 view .LVU1638
	movzwl	92(%rbp,%rsi,2), %r11d
	movq	%r11, %r15
	salq	$4, %r15
	.loc 1 379 206 view .LVU1639
	movq	%r15, %r11
	.loc 1 379 156 view .LVU1640
	addl	51640(%rbx,%r15), %eax
.LVL284:
	.loc 1 379 180 is_stmt 1 view .LVU1641
	.loc 1 379 206 is_stmt 0 view .LVU1642
	addq	%rbx, %r11
	.loc 1 379 187 view .LVU1643
	addl	51644(%r11), %r10d
.LVL285:
	.loc 1 379 211 is_stmt 1 view .LVU1644
	.loc 1 379 218 is_stmt 0 view .LVU1645
	addl	51648(%r11), %edx
.LVL286:
	.loc 1 379 241 is_stmt 1 view .LVU1646
	.loc 1 379 243 view .LVU1647
	.loc 1 379 264 view .LVU1648
	.loc 1 379 290 is_stmt 0 view .LVU1649
	movzwl	94(%rbp,%rsi,2), %r11d
	movq	%r11, %r15
	salq	$4, %r15
	.loc 1 379 321 view .LVU1650
	movq	%r15, %r11
	.loc 1 379 271 view .LVU1651
	addl	51640(%rbx,%r15), %eax
.LVL287:
	.loc 1 379 295 is_stmt 1 view .LVU1652
	.loc 1 379 321 is_stmt 0 view .LVU1653
	addq	%rbx, %r11
	.loc 1 379 302 view .LVU1654
	addl	51644(%r11), %r10d
.LVL288:
	.loc 1 379 326 is_stmt 1 view .LVU1655
	.loc 1 379 333 is_stmt 0 view .LVU1656
	addl	51648(%r11), %edx
.LVL289:
	.loc 1 379 356 is_stmt 1 view .LVU1657
	.loc 1 379 358 view .LVU1658
	.loc 1 379 379 view .LVU1659
	.loc 1 379 405 is_stmt 0 view .LVU1660
	movzwl	96(%rbp,%rsi,2), %r11d
	.loc 1 379 520 view .LVU1661
	movzwl	98(%rbp,%rsi,2), %esi
.LVL290:
	.loc 1 379 405 view .LVU1662
	movq	%r11, %r15
	salq	$4, %r15
	.loc 1 379 436 view .LVU1663
	movq	%r15, %r11
	.loc 1 379 386 view .LVU1664
	addl	51640(%rbx,%r15), %eax
.LVL291:
	.loc 1 379 410 is_stmt 1 view .LVU1665
	.loc 1 379 436 is_stmt 0 view .LVU1666
	addq	%rbx, %r11
	.loc 1 379 417 view .LVU1667
	addl	51644(%r11), %r10d
.LVL292:
	.loc 1 379 441 is_stmt 1 view .LVU1668
	.loc 1 379 448 is_stmt 0 view .LVU1669
	addl	51648(%r11), %edx
.LVL293:
	.loc 1 379 471 is_stmt 1 view .LVU1670
	.loc 1 379 473 view .LVU1671
	.loc 1 379 494 view .LVU1672
	.loc 1 379 520 is_stmt 0 view .LVU1673
	movq	%rsi, %r11
	salq	$4, %r11
	.loc 1 379 551 view .LVU1674
	movq	%r11, %rsi
	.loc 1 379 501 view .LVU1675
	addl	51640(%rbx,%r11), %eax
.LVL294:
	.loc 1 379 525 is_stmt 1 view .LVU1676
	.loc 1 379 551 is_stmt 0 view .LVU1677
	addq	%rbx, %rsi
	.loc 1 383 21 view .LVU1678
	movl	%eax, 196(%rsp)
	.loc 1 379 532 view .LVU1679
	addl	51644(%rsi), %r10d
.LVL295:
	.loc 1 379 556 is_stmt 1 view .LVU1680
	.loc 1 379 563 is_stmt 0 view .LVU1681
	addl	51648(%rsi), %edx
.LVL296:
	.loc 1 379 586 is_stmt 1 view .LVU1682
	.loc 1 383 13 view .LVU1683
	.loc 1 383 21 is_stmt 0 view .LVU1684
	movzwl	%ax, %esi
	.loc 1 383 40 is_stmt 1 view .LVU1685
	.loc 1 384 13 view .LVU1686
	.loc 1 384 40 view .LVU1687
	.loc 1 384 21 is_stmt 0 view .LVU1688
	movl	%r10d, 200(%rsp)
	.loc 1 385 13 is_stmt 1 view .LVU1689
	.loc 1 385 40 view .LVU1690
	.loc 1 385 21 is_stmt 0 view .LVU1691
	movl	%edx, 204(%rsp)
.LVL297:
.L140:
	.loc 1 385 21 view .LVU1692
.LBE418:
	.loc 1 399 10 is_stmt 1 view .LVU1693
	.loc 1 399 26 view .LVU1694
	.loc 1 400 10 view .LVU1695
	.loc 1 400 24 view .LVU1696
	.loc 1 401 13 view .LVU1697
	.loc 1 400 17 is_stmt 0 view .LVU1698
	xorl	%r10d, %r10d
	.loc 1 401 21 view .LVU1699
	movl	$1, %eax
	jmp	.L143
.LVL298:
	.p2align 4,,10
	.p2align 3
.L145:
	.loc 1 401 13 is_stmt 1 view .LVU1700
	.loc 1 401 21 is_stmt 0 view .LVU1701
	movzwl	(%r14,%rax,2), %edx
	.loc 1 401 16 view .LVU1702
	cmpl	%esi, %edx
	jge	.L144
	.loc 1 401 16 view .LVU1703
	movl	%edx, %esi
.LVL299:
	.loc 1 400 36 view .LVU1704
	movl	%eax, %r10d
.LVL300:
.L144:
	.loc 1 400 36 view .LVU1705
	addq	$1, %rax
.LVL301:
.L143:
	.loc 1 400 36 is_stmt 1 view .LVU1706
	.loc 1 400 24 view .LVU1707
	cmpl	%eax, %r13d
	jg	.L145
	.loc 1 401 56 view .LVU1708
	.loc 1 402 10 view .LVU1709
.LVL302:
	.loc 1 403 10 view .LVU1710
	.loc 1 403 18 is_stmt 0 view .LVU1711
	movslq	%r10d, %rdx
	.loc 1 402 15 view .LVU1712
	addl	%esi, 16(%rsp)
.LVL303:
	.loc 1 405 20 view .LVU1713
	movl	%r8d, %r15d
	.loc 1 403 18 view .LVU1714
	addl	$1, 208(%rsp,%rdx,4)
	.loc 1 404 10 is_stmt 1 view .LVU1715
	.loc 1 404 34 is_stmt 0 view .LVU1716
	movb	%r10b, 1703(%rbx,%r8)
	.loc 1 405 10 is_stmt 1 view .LVU1717
.LVL304:
	.loc 1 410 10 view .LVU1718
	.loc 1 410 13 is_stmt 0 view .LVU1719
	cmpl	$6, %r13d
	jne	.L146
.LVL305:
	.loc 1 410 38 view .LVU1720
	movl	%edi, %eax
.LVL306:
	.loc 1 410 38 view .LVU1721
	subl	%ecx, %eax
	.loc 1 410 27 view .LVU1722
	cmpl	$49, %eax
	jne	.L146
	.loc 1 415 13 is_stmt 1 view .LVU1723
	.loc 1 415 41 is_stmt 0 view .LVU1724
	movq	%rdx, %rax
	movzwl	0(%rbp,%rcx,2), %esi
.LVL307:
	.loc 1 415 41 view .LVU1725
	salq	$7, %rax
	addq	%rdx, %rax
	addq	%rax, %rax
	leaq	11360(%rsi,%rax), %rdx
	addl	$1, 8(%rbx,%rdx,4)
	.loc 1 415 45 is_stmt 1 view .LVU1726
	.loc 1 415 73 is_stmt 0 view .LVU1727
	movzwl	2(%rbp,%rcx,2), %edx
	leaq	11360(%rax,%rdx), %rdx
	addl	$1, 8(%rbx,%rdx,4)
	.loc 1 415 77 is_stmt 1 view .LVU1728
	.loc 1 415 105 is_stmt 0 view .LVU1729
	movzwl	4(%rbp,%rcx,2), %edx
	leaq	11360(%rax,%rdx), %rdx
	addl	$1, 8(%rbx,%rdx,4)
	.loc 1 415 109 is_stmt 1 view .LVU1730
	.loc 1 415 137 is_stmt 0 view .LVU1731
	movzwl	6(%rbp,%rcx,2), %edx
	leaq	11360(%rax,%rdx), %rdx
	addl	$1, 8(%rbx,%rdx,4)
	.loc 1 415 141 is_stmt 1 view .LVU1732
	.loc 1 415 169 is_stmt 0 view .LVU1733
	movzwl	8(%rbp,%rcx,2), %edx
	leaq	11360(%rax,%rdx), %rdx
	addl	$1, 8(%rbx,%rdx,4)
	.loc 1 416 13 is_stmt 1 view .LVU1734
	.loc 1 416 41 is_stmt 0 view .LVU1735
	movzwl	10(%rbp,%rcx,2), %edx
	leaq	11360(%rax,%rdx), %rdx
	addl	$1, 8(%rbx,%rdx,4)
	.loc 1 416 45 is_stmt 1 view .LVU1736
	.loc 1 416 73 is_stmt 0 view .LVU1737
	movzwl	12(%rbp,%rcx,2), %edx
	leaq	11360(%rax,%rdx), %rdx
	addl	$1, 8(%rbx,%rdx,4)
	.loc 1 416 77 is_stmt 1 view .LVU1738
	.loc 1 416 105 is_stmt 0 view .LVU1739
	movzwl	14(%rbp,%rcx,2), %edx
	leaq	11360(%rax,%rdx), %rdx
	addl	$1, 8(%rbx,%rdx,4)
	.loc 1 416 109 is_stmt 1 view .LVU1740
	.loc 1 416 137 is_stmt 0 view .LVU1741
	movzwl	16(%rbp,%rcx,2), %edx
	leaq	11360(%rax,%rdx), %rdx
	addl	$1, 8(%rbx,%rdx,4)
	.loc 1 416 141 is_stmt 1 view .LVU1742
	.loc 1 416 169 is_stmt 0 view .LVU1743
	movzwl	18(%rbp,%rcx,2), %edx
	leaq	11360(%rax,%rdx), %rdx
	addl	$1, 8(%rbx,%rdx,4)
	.loc 1 417 13 is_stmt 1 view .LVU1744
	.loc 1 417 42 is_stmt 0 view .LVU1745
	movzwl	20(%rbp,%rcx,2), %edx
	leaq	11360(%rax,%rdx), %rdx
	addl	$1, 8(%rbx,%rdx,4)
	.loc 1 417 46 is_stmt 1 view .LVU1746
	.loc 1 417 75 is_stmt 0 view .LVU1747
	movzwl	22(%rbp,%rcx,2), %edx
	leaq	11360(%rax,%rdx), %rdx
	addl	$1, 8(%rbx,%rdx,4)
	.loc 1 417 79 is_stmt 1 view .LVU1748
	.loc 1 417 108 is_stmt 0 view .LVU1749
	movzwl	24(%rbp,%rcx,2), %edx
	leaq	11360(%rax,%rdx), %rdx
	addl	$1, 8(%rbx,%rdx,4)
	.loc 1 417 112 is_stmt 1 view .LVU1750
	.loc 1 417 141 is_stmt 0 view .LVU1751
	movzwl	26(%rbp,%rcx,2), %edx
	leaq	11360(%rax,%rdx), %rdx
	addl	$1, 8(%rbx,%rdx,4)
	.loc 1 417 145 is_stmt 1 view .LVU1752
	.loc 1 417 174 is_stmt 0 view .LVU1753
	movzwl	28(%rbp,%rcx,2), %edx
	leaq	11360(%rax,%rdx), %rdx
	addl	$1, 8(%rbx,%rdx,4)
	.loc 1 418 13 is_stmt 1 view .LVU1754
	.loc 1 418 42 is_stmt 0 view .LVU1755
	movzwl	30(%rbp,%rcx,2), %edx
	leaq	11360(%rax,%rdx), %rdx
	addl	$1, 8(%rbx,%rdx,4)
	.loc 1 418 46 is_stmt 1 view .LVU1756
	.loc 1 418 75 is_stmt 0 view .LVU1757
	movzwl	32(%rbp,%rcx,2), %edx
	leaq	11360(%rax,%rdx), %rdx
	addl	$1, 8(%rbx,%rdx,4)
	.loc 1 418 79 is_stmt 1 view .LVU1758
	.loc 1 418 108 is_stmt 0 view .LVU1759
	movzwl	34(%rbp,%rcx,2), %edx
	leaq	11360(%rax,%rdx), %rdx
	addl	$1, 8(%rbx,%rdx,4)
	.loc 1 418 112 is_stmt 1 view .LVU1760
	.loc 1 418 141 is_stmt 0 view .LVU1761
	movzwl	36(%rbp,%rcx,2), %edx
	leaq	11360(%rax,%rdx), %rdx
	addl	$1, 8(%rbx,%rdx,4)
	.loc 1 418 145 is_stmt 1 view .LVU1762
	.loc 1 418 174 is_stmt 0 view .LVU1763
	movzwl	38(%rbp,%rcx,2), %edx
	leaq	11360(%rax,%rdx), %rdx
	addl	$1, 8(%rbx,%rdx,4)
	.loc 1 419 13 is_stmt 1 view .LVU1764
	.loc 1 419 42 is_stmt 0 view .LVU1765
	movzwl	40(%rbp,%rcx,2), %edx
	leaq	11360(%rax,%rdx), %rdx
	addl	$1, 8(%rbx,%rdx,4)
	.loc 1 419 46 is_stmt 1 view .LVU1766
	.loc 1 419 75 is_stmt 0 view .LVU1767
	movzwl	42(%rbp,%rcx,2), %edx
	leaq	11360(%rax,%rdx), %rdx
	addl	$1, 8(%rbx,%rdx,4)
	.loc 1 419 79 is_stmt 1 view .LVU1768
	.loc 1 419 108 is_stmt 0 view .LVU1769
	movzwl	44(%rbp,%rcx,2), %edx
	leaq	11360(%rax,%rdx), %rdx
	addl	$1, 8(%rbx,%rdx,4)
	.loc 1 419 112 is_stmt 1 view .LVU1770
	.loc 1 419 141 is_stmt 0 view .LVU1771
	movzwl	46(%rbp,%rcx,2), %edx
	leaq	11360(%rax,%rdx), %rdx
	addl	$1, 8(%rbx,%rdx,4)
	.loc 1 419 145 is_stmt 1 view .LVU1772
	.loc 1 419 174 is_stmt 0 view .LVU1773
	movzwl	48(%rbp,%rcx,2), %edx
	leaq	11360(%rax,%rdx), %rdx
	addl	$1, 8(%rbx,%rdx,4)
	.loc 1 420 13 is_stmt 1 view .LVU1774
	.loc 1 420 42 is_stmt 0 view .LVU1775
	movzwl	50(%rbp,%rcx,2), %edx
	leaq	11360(%rax,%rdx), %rdx
	addl	$1, 8(%rbx,%rdx,4)
	.loc 1 420 46 is_stmt 1 view .LVU1776
	.loc 1 420 75 is_stmt 0 view .LVU1777
	movzwl	52(%rbp,%rcx,2), %edx
	leaq	11360(%rax,%rdx), %rdx
	addl	$1, 8(%rbx,%rdx,4)
	.loc 1 420 79 is_stmt 1 view .LVU1778
	.loc 1 420 108 is_stmt 0 view .LVU1779
	movzwl	54(%rbp,%rcx,2), %edx
	leaq	11360(%rax,%rdx), %rdx
	addl	$1, 8(%rbx,%rdx,4)
	.loc 1 420 112 is_stmt 1 view .LVU1780
	.loc 1 420 141 is_stmt 0 view .LVU1781
	movzwl	56(%rbp,%rcx,2), %edx
	leaq	11360(%rax,%rdx), %rdx
	addl	$1, 8(%rbx,%rdx,4)
	.loc 1 420 145 is_stmt 1 view .LVU1782
	.loc 1 420 174 is_stmt 0 view .LVU1783
	movzwl	58(%rbp,%rcx,2), %edx
	leaq	11360(%rax,%rdx), %rdx
	addl	$1, 8(%rbx,%rdx,4)
	.loc 1 421 13 is_stmt 1 view .LVU1784
	.loc 1 421 42 is_stmt 0 view .LVU1785
	movzwl	60(%rbp,%rcx,2), %edx
	leaq	11360(%rax,%rdx), %rdx
	addl	$1, 8(%rbx,%rdx,4)
	.loc 1 421 46 is_stmt 1 view .LVU1786
	.loc 1 421 75 is_stmt 0 view .LVU1787
	movzwl	62(%rbp,%rcx,2), %edx
	leaq	11360(%rax,%rdx), %rdx
	addl	$1, 8(%rbx,%rdx,4)
	.loc 1 421 79 is_stmt 1 view .LVU1788
	.loc 1 421 108 is_stmt 0 view .LVU1789
	movzwl	64(%rbp,%rcx,2), %edx
	leaq	11360(%rax,%rdx), %rdx
	addl	$1, 8(%rbx,%rdx,4)
	.loc 1 421 112 is_stmt 1 view .LVU1790
	.loc 1 421 141 is_stmt 0 view .LVU1791
	movzwl	66(%rbp,%rcx,2), %edx
	leaq	11360(%rax,%rdx), %rdx
	addl	$1, 8(%rbx,%rdx,4)
	.loc 1 421 145 is_stmt 1 view .LVU1792
	.loc 1 421 174 is_stmt 0 view .LVU1793
	movzwl	68(%rbp,%rcx,2), %edx
	leaq	11360(%rax,%rdx), %rdx
	addl	$1, 8(%rbx,%rdx,4)
	.loc 1 422 13 is_stmt 1 view .LVU1794
	.loc 1 422 42 is_stmt 0 view .LVU1795
	movzwl	70(%rbp,%rcx,2), %edx
	leaq	11360(%rax,%rdx), %rdx
	addl	$1, 8(%rbx,%rdx,4)
	.loc 1 422 46 is_stmt 1 view .LVU1796
	.loc 1 422 75 is_stmt 0 view .LVU1797
	movzwl	72(%rbp,%rcx,2), %edx
	leaq	11360(%rax,%rdx), %rdx
	addl	$1, 8(%rbx,%rdx,4)
	.loc 1 422 79 is_stmt 1 view .LVU1798
	.loc 1 422 108 is_stmt 0 view .LVU1799
	movzwl	74(%rbp,%rcx,2), %edx
	leaq	11360(%rax,%rdx), %rdx
	addl	$1, 8(%rbx,%rdx,4)
	.loc 1 422 112 is_stmt 1 view .LVU1800
	.loc 1 422 141 is_stmt 0 view .LVU1801
	movzwl	76(%rbp,%rcx,2), %edx
	leaq	11360(%rax,%rdx), %rdx
	addl	$1, 8(%rbx,%rdx,4)
	.loc 1 422 145 is_stmt 1 view .LVU1802
	.loc 1 422 174 is_stmt 0 view .LVU1803
	movzwl	78(%rbp,%rcx,2), %edx
	leaq	11360(%rax,%rdx), %rdx
	addl	$1, 8(%rbx,%rdx,4)
	.loc 1 423 13 is_stmt 1 view .LVU1804
	.loc 1 423 42 is_stmt 0 view .LVU1805
	movzwl	80(%rbp,%rcx,2), %edx
	leaq	11360(%rax,%rdx), %rdx
	addl	$1, 8(%rbx,%rdx,4)
	.loc 1 423 46 is_stmt 1 view .LVU1806
	.loc 1 423 75 is_stmt 0 view .LVU1807
	movzwl	82(%rbp,%rcx,2), %edx
	leaq	11360(%rax,%rdx), %rdx
	addl	$1, 8(%rbx,%rdx,4)
	.loc 1 423 79 is_stmt 1 view .LVU1808
	.loc 1 423 108 is_stmt 0 view .LVU1809
	movzwl	84(%rbp,%rcx,2), %edx
	leaq	11360(%rax,%rdx), %rdx
	addl	$1, 8(%rbx,%rdx,4)
	.loc 1 423 112 is_stmt 1 view .LVU1810
	.loc 1 423 141 is_stmt 0 view .LVU1811
	movzwl	86(%rbp,%rcx,2), %edx
	leaq	11360(%rax,%rdx), %rdx
	addl	$1, 8(%rbx,%rdx,4)
	.loc 1 423 145 is_stmt 1 view .LVU1812
	.loc 1 423 174 is_stmt 0 view .LVU1813
	movzwl	88(%rbp,%rcx,2), %edx
	leaq	11360(%rax,%rdx), %rdx
	addl	$1, 8(%rbx,%rdx,4)
	.loc 1 424 13 is_stmt 1 view .LVU1814
	.loc 1 424 42 is_stmt 0 view .LVU1815
	movzwl	90(%rbp,%rcx,2), %edx
	leaq	11360(%rax,%rdx), %rdx
	addl	$1, 8(%rbx,%rdx,4)
	.loc 1 424 46 is_stmt 1 view .LVU1816
	.loc 1 424 75 is_stmt 0 view .LVU1817
	movzwl	92(%rbp,%rcx,2), %edx
	leaq	11360(%rax,%rdx), %rdx
	addl	$1, 8(%rbx,%rdx,4)
	.loc 1 424 79 is_stmt 1 view .LVU1818
	.loc 1 424 108 is_stmt 0 view .LVU1819
	movzwl	94(%rbp,%rcx,2), %edx
	leaq	11360(%rax,%rdx), %rdx
	addl	$1, 8(%rbx,%rdx,4)
	.loc 1 424 112 is_stmt 1 view .LVU1820
	.loc 1 424 141 is_stmt 0 view .LVU1821
	movzwl	96(%rbp,%rcx,2), %edx
	leaq	11360(%rax,%rdx), %rdx
	addl	$1, 8(%rbx,%rdx,4)
	.loc 1 424 145 is_stmt 1 view .LVU1822
	.loc 1 424 174 is_stmt 0 view .LVU1823
	movzwl	98(%rbp,%rcx,2), %edx
	leaq	11360(%rax,%rdx), %rax
	addl	$1, 8(%rbx,%rax,4)
.L149:
	.loc 1 434 10 is_stmt 1 view .LVU1824
	.loc 1 345 13 view .LVU1825
.LVL308:
	.loc 1 345 7 view .LVU1826
	.loc 1 348 10 view .LVU1827
	.loc 1 348 13 is_stmt 0 view .LVU1828
	addq	$1, %r8
.LVL309:
	.loc 1 348 13 view .LVU1829
	cmpl	%r9d, (%rsp)
	jle	.L125
.L372:
	.loc 1 348 13 view .LVU1830
	movslq	%r9d, %rcx
	jmp	.L126
.LVL310:
.L137:
	.loc 1 389 28 is_stmt 1 view .LVU1831
	.loc 1 401 21 is_stmt 0 view .LVU1832
	movzwl	196(%rsp), %esi
	.loc 1 389 28 view .LVU1833
	cmpl	%ecx, %edi
	jl	.L140
	movl	%edi, %eax
	movslq	%ecx, %rsi
	subl	%ecx, %eax
	leaq	0(%rbp,%rsi,2), %rdx
	addq	%rsi, %rax
	movq	24(%rsp), %rsi
	leaq	(%rsi,%rax,2), %r11
	.p2align 4,,10
	.p2align 3
.L142:
.LBB419:
	.loc 1 390 16 is_stmt 1 view .LVU1834
.LVL311:
	.loc 1 391 16 view .LVU1835
	.loc 1 391 30 view .LVU1836
	movzwl	(%rdx), %eax
	leaq	37708(%rbx,%rax), %rsi
	.loc 1 390 23 is_stmt 0 view .LVU1837
	movq	%r14, %rax
.LVL312:
.L141:
	.loc 1 391 46 is_stmt 1 view .LVU1838
	.loc 1 391 66 is_stmt 0 view .LVU1839
	movzbl	(%rsi), %r10d
	.loc 1 391 54 view .LVU1840
	addw	%r10w, (%rax)
	.loc 1 391 42 is_stmt 1 view .LVU1841
.LVL313:
	.loc 1 391 30 view .LVU1842
	addq	$2, %rax
.LVL314:
	.loc 1 391 30 is_stmt 0 view .LVU1843
	addq	$258, %rsi
	cmpq	%rax, %r12
	jne	.L141
.LBE419:
	.loc 1 389 36 is_stmt 1 view .LVU1844
	.loc 1 389 28 view .LVU1845
	addq	$2, %rdx
.LVL315:
	.loc 1 389 28 is_stmt 0 view .LVU1846
	cmpq	%rdx, %r11
	jne	.L142
	.loc 1 401 21 view .LVU1847
	movzwl	196(%rsp), %esi
	jmp	.L140
.LVL316:
.L146:
	.loc 1 430 28 is_stmt 1 view .LVU1848
	cmpl	%ecx, %edi
	jl	.L149
	movslq	%ecx, %rsi
.LVL317:
	.loc 1 430 28 is_stmt 0 view .LVU1849
	subl	%ecx, %edi
	addq	%rsi, %rdi
	leaq	0(%rbp,%rsi,2), %rax
	movq	24(%rsp), %rsi
	leaq	(%rsi,%rdi,2), %rcx
	.loc 1 431 39 view .LVU1850
	movq	%rdx, %rsi
	salq	$7, %rsi
	addq	%rdx, %rsi
	addq	%rsi, %rsi
	.p2align 4,,10
	.p2align 3
.L150:
	.loc 1 431 16 is_stmt 1 view .LVU1851
	.loc 1 431 39 is_stmt 0 view .LVU1852
	movzwl	(%rax), %edx
	.loc 1 430 28 view .LVU1853
	addq	$2, %rax
	.loc 1 431 39 view .LVU1854
	leaq	11360(%rdx,%rsi), %rdx
	addl	$1, 8(%rbx,%rdx,4)
	.loc 1 430 36 is_stmt 1 view .LVU1855
	.loc 1 430 28 view .LVU1856
	cmpq	%rax, %rcx
	jne	.L150
	.loc 1 434 10 view .LVU1857
	.loc 1 345 13 view .LVU1858
.LVL318:
	.loc 1 345 7 view .LVU1859
	.loc 1 348 10 view .LVU1860
	.loc 1 348 13 is_stmt 0 view .LVU1861
	addq	$1, %r8
.LVL319:
	.loc 1 348 13 view .LVU1862
	cmpl	%r9d, (%rsp)
	jg	.L372
.LVL320:
.L125:
	.loc 1 436 7 is_stmt 1 view .LVU1863
	.loc 1 437 10 is_stmt 0 view .LVU1864
	addl	$1, 84(%rsp)
	.loc 1 436 10 view .LVU1865
	cmpl	$2, 72(%rsp)
	jg	.L542
.L152:
.LBB420:
.LBB421:
	.loc 2 105 10 view .LVU1866
	movq	40(%rsp), %rax
	movq	%rbp, (%rsp)
	movq	%r12, 24(%rsp)
	movl	36(%rsp), %ebp
	movq	%rbx, 48(%rsp)
	movq	144(%rsp), %r12
	movq	96(%rsp), %rbx
	movl	%r13d, 16(%rsp)
	movq	%rax, %r13
.L154:
.LVL321:
	.loc 2 105 10 view .LVU1867
.LBE421:
.LBE420:
	.loc 1 450 10 is_stmt 1 view .LVU1868
	movq	%r12, %rsi
	movq	%r13, %rdi
	movl	$17, %ecx
	movl	%ebp, %edx
	.loc 1 449 21 is_stmt 0 view .LVU1869
	addq	$258, %r13
.LVL322:
	.loc 1 449 21 view .LVU1870
	addq	$1032, %r12
	.loc 1 450 10 view .LVU1871
	call	BZ2_hbMakeCodeLengths@PLT
.LVL323:
	.loc 1 449 33 is_stmt 1 view .LVU1872
	.loc 1 449 21 view .LVU1873
	cmpq	%r13, %rbx
	jne	.L154
	.loc 1 322 24 is_stmt 0 view .LVU1874
	cmpl	$4, 84(%rsp)
	movq	(%rsp), %rbp
	movl	16(%rsp), %r13d
	movq	24(%rsp), %r12
	movq	48(%rsp), %rbx
	.loc 1 322 33 is_stmt 1 view .LVU1875
.LVL324:
	.loc 1 322 24 view .LVU1876
	je	.L373
	.loc 1 436 12 is_stmt 0 view .LVU1877
	movl	656(%rbx), %eax
	movl	%eax, 72(%rsp)
	.loc 1 348 21 view .LVU1878
	movl	668(%rbx), %eax
	movl	%eax, (%rsp)
	jmp	.L117
.LVL325:
.L131:
	.loc 1 356 48 view .LVU1879
	movq	$0, (%r14)
	movq	48(%rsp), %rax
	leaq	200(%rsp), %r10
	movq	%r14, %rdx
	subq	%r10, %rdx
	movq	$0, -8(%rax)
.LVL326:
	.loc 1 356 48 view .LVU1880
	addl	8(%rsp), %edx
	andl	$-8, %edx
	cmpl	$8, %edx
	jb	.L132
	andl	$-8, %edx
	xorl	%eax, %eax
.L135:
	movl	%eax, %esi
	addl	$8, %eax
	movq	$0, (%r10,%rsi)
	cmpl	%edx, %eax
	jb	.L135
	jmp	.L132
.LVL327:
.L540:
	.loc 1 356 48 view .LVU1881
	movl	$0, (%r14)
	movq	48(%rsp), %rax
	movl	$0, -4(%rax)
.LVL328:
	.loc 1 356 48 view .LVU1882
	jmp	.L132
.LVL329:
.L373:
	.loc 1 356 48 view .LVU1883
	leaq	240(%rsp), %rdi
	xorl	%eax, %eax
	movq	%rdi, (%rsp)
.L155:
.LVL330:
.LBB424:
	.loc 1 464 37 is_stmt 1 view .LVU1884
	.loc 1 464 44 is_stmt 0 view .LVU1885
	movq	(%rsp), %rdi
	movb	%al, (%rdi,%rax)
	.loc 1 464 33 is_stmt 1 view .LVU1886
.LVL331:
	.loc 1 464 21 view .LVU1887
	addq	$1, %rax
.LVL332:
	.loc 1 464 21 is_stmt 0 view .LVU1888
	cmpl	%eax, %r13d
	jg	.L155
.LVL333:
	.loc 1 465 21 is_stmt 1 view .LVU1889
	testl	%r15d, %r15d
	je	.L162
	leal	-1(%r15), %eax
	movzbl	240(%rsp), %edx
	leaq	1704(%rbx), %rdi
	leaq	1705(%rbx,%rax), %r8
.LVL334:
.L165:
	.loc 1 466 10 view .LVU1890
	.loc 1 466 15 is_stmt 0 view .LVU1891
	movzbl	(%rdi), %r9d
.LVL335:
	.loc 1 467 10 is_stmt 1 view .LVU1892
	.loc 1 468 10 view .LVU1893
	.loc 1 469 10 view .LVU1894
	.loc 1 469 23 view .LVU1895
	cmpb	%dl, %r9b
	je	.L374
	movq	(%rsp), %rax
	.loc 1 467 12 is_stmt 0 view .LVU1896
	xorl	%ecx, %ecx
.LVL336:
	.p2align 4,,10
	.p2align 3
.L164:
	.loc 1 470 13 is_stmt 1 view .LVU1897
	movl	%edx, %esi
	.loc 1 472 17 is_stmt 0 view .LVU1898
	movzbl	1(%rax), %edx
.LVL337:
	.loc 1 470 14 view .LVU1899
	addl	$1, %ecx
.LVL338:
	.loc 1 471 13 is_stmt 1 view .LVU1900
	.loc 1 472 13 view .LVU1901
	.loc 1 473 13 view .LVU1902
	.loc 1 469 23 is_stmt 0 view .LVU1903
	addq	$1, %rax
	.loc 1 473 20 view .LVU1904
	movb	%sil, (%rax)
	.loc 1 469 23 is_stmt 1 view .LVU1905
	cmpb	%dl, %r9b
	jne	.L164
	.loc 1 474 11 view .LVU1906
	.loc 1 475 10 view .LVU1907
	.loc 1 476 10 view .LVU1908
	.loc 1 476 28 is_stmt 0 view .LVU1909
	movb	%cl, 18002(%rdi)
	.loc 1 465 36 is_stmt 1 view .LVU1910
.LVL339:
	.loc 1 465 21 view .LVU1911
	addq	$1, %rdi
.LVL340:
	.loc 1 465 21 is_stmt 0 view .LVU1912
	cmpq	%rdi, %r8
	jne	.L165
.LVL341:
.L162:
	.loc 1 465 21 view .LVU1913
.LBE424:
	.loc 1 478 5 is_stmt 1 view .LVU1914
	.loc 1 481 4 view .LVU1915
	.loc 1 481 18 view .LVU1916
	movq	112(%rsp), %rax
	movq	%rax, 8(%rsp)
	movq	160(%rsp), %rax
	leaq	1(%rbx,%rax), %r14
.LBB425:
	movq	%r14, %r12
.LVL342:
.L166:
	.loc 1 481 18 is_stmt 0 view .LVU1917
.LBE425:
	.loc 1 484 21 is_stmt 1 view .LVU1918
	movq	40(%rsp), %rax
	movl	36(%rsp), %edi
	.loc 1 483 14 is_stmt 0 view .LVU1919
	xorl	%ecx, %ecx
	.loc 1 482 14 view .LVU1920
	movl	$32, %r9d
	leaq	-37708(%rax), %rsi
	.loc 1 484 21 view .LVU1921
	testl	%edi, %edi
	jle	.L169
.LVL343:
	.p2align 4,,10
	.p2align 3
.L167:
	.loc 1 485 10 is_stmt 1 view .LVU1922
	.loc 1 485 23 is_stmt 0 view .LVU1923
	movzbl	37708(%rsi), %eax
	cmpl	%eax, %ecx
	cmovl	%eax, %ecx
.LVL344:
	.loc 1 486 10 is_stmt 1 view .LVU1924
	cmpl	%eax, %r9d
	cmovg	%eax, %r9d
.LVL345:
	.loc 1 484 35 view .LVU1925
	.loc 1 484 21 view .LVU1926
	addq	$1, %rsi
.LVL346:
	.loc 1 484 21 is_stmt 0 view .LVU1927
	cmpq	%rsi, %r12
	jne	.L167
	.loc 1 488 9 is_stmt 1 view .LVU1928
	.loc 1 488 12 is_stmt 0 view .LVU1929
	cmpl	$17, %ecx
	jle	.L168
	.loc 1 488 33 view .LVU1930
	movl	$3004, %edi
	movl	%r9d, 24(%rsp)
	movl	%ecx, 16(%rsp)
	.loc 1 488 33 is_stmt 1 view .LVU1931
	call	BZ2_bz__AssertH__fail@PLT
.LVL347:
	.loc 1 488 33 is_stmt 0 view .LVU1932
	movl	24(%rsp), %r9d
	movl	16(%rsp), %ecx
.LVL348:
.L168:
	.loc 1 488 66 is_stmt 1 view .LVU1933
	.loc 1 489 9 view .LVU1934
	.loc 1 489 12 is_stmt 0 view .LVU1935
	testl	%r9d, %r9d
	je	.L543
.L169:
	.loc 1 489 64 is_stmt 1 view .LVU1936
	.loc 1 490 7 view .LVU1937
	movl	36(%rsp), %r8d
	movq	40(%rsp), %rsi
	movl	%r9d, %edx
	.loc 1 481 18 is_stmt 0 view .LVU1938
	addq	$258, %r12
	.loc 1 490 7 view .LVU1939
	movq	8(%rsp), %rdi
	call	BZ2_hbAssignCodes@PLT
.LVL349:
	.loc 1 481 30 is_stmt 1 view .LVU1940
	.loc 1 481 18 view .LVU1941
	addq	$258, 40(%rsp)
	movq	40(%rsp), %rax
	addq	$1032, 8(%rsp)
.LVL350:
	.loc 1 481 18 is_stmt 0 view .LVU1942
	cmpq	%rax, 96(%rsp)
	jne	.L166
	movq	(%rsp), %rcx
.LBB426:
	.loc 1 498 22 view .LVU1943
	pxor	%xmm0, %xmm0
	leaq	144(%rbx), %rdi
	leaq	256(%rsp), %r9
	movaps	%xmm0, 240(%rsp)
	movq	%rdi, %rdx
	movq	%rcx, %r8
.L174:
.LVL351:
	.loc 1 498 11 is_stmt 1 view .LVU1944
	.loc 1 499 11 view .LVU1945
	.loc 1 499 25 view .LVU1946
	leaq	-16(%rdx), %rax
.LVL352:
	.p2align 4,,10
	.p2align 3
.L173:
	.loc 1 500 14 view .LVU1947
	.loc 1 500 17 is_stmt 0 view .LVU1948
	cmpb	$0, (%rax)
	je	.L172
	.loc 1 500 40 is_stmt 1 view .LVU1949
	.loc 1 500 51 is_stmt 0 view .LVU1950
	movb	$1, (%rcx)
.L172:
	.loc 1 499 32 is_stmt 1 view .LVU1951
	.loc 1 499 25 view .LVU1952
	addq	$1, %rax
	.loc 1 499 25 is_stmt 0 view .LVU1953
	cmpq	%rax, %rdx
	jne	.L173
	.loc 1 497 28 is_stmt 1 view .LVU1954
.LVL353:
	.loc 1 497 21 view .LVU1955
	addq	$1, %rcx
.LVL354:
	.loc 1 497 21 is_stmt 0 view .LVU1956
	addq	$16, %rdx
	cmpq	%rcx, %r9
	jne	.L174
	.loc 1 503 7 is_stmt 1 view .LVU1957
	.loc 1 503 14 is_stmt 0 view .LVU1958
	movl	116(%rbx), %eax
	movq	(%rsp), %rsi
.LBB427:
.LBB428:
	.loc 1 76 20 view .LVU1959
	movl	$-2147483648, %r11d
.LBE428:
.LBE427:
	.loc 1 503 14 view .LVU1960
	movl	%eax, %r12d
.LVL355:
	.loc 1 504 7 is_stmt 1 view .LVU1961
	.loc 1 504 21 view .LVU1962
.L182:
	.loc 1 505 10 view .LVU1963
	.loc 1 505 13 is_stmt 0 view .LVU1964
	cmpb	$0, (%rsi)
.LBB432:
.LBB433:
	.loc 1 75 14 view .LVU1965
	movl	644(%rbx), %ecx
.LBE433:
.LBE432:
	.loc 1 505 13 view .LVU1966
	jne	.L175
.LBB436:
.LBB434:
	.loc 1 75 23 is_stmt 1 view .LVU1967
	cmpl	$7, %ecx
	jle	.L177
	.loc 1 75 60 is_stmt 0 view .LVU1968
	movl	640(%rbx), %edx
	.p2align 4,,10
	.p2align 3
.L181:
	.loc 1 75 31 is_stmt 1 view .LVU1969
	.loc 1 75 49 is_stmt 0 view .LVU1970
	movq	80(%rbx), %rcx
	.loc 1 75 41 view .LVU1971
	cltq
	.loc 1 75 69 view .LVU1972
	shrl	$24, %edx
	.loc 1 75 51 view .LVU1973
	movb	%dl, (%rcx,%rax)
	.loc 1 75 77 is_stmt 1 view .LVU1974
	.loc 1 75 84 is_stmt 0 view .LVU1975
	movl	116(%rbx), %eax
	.loc 1 75 98 view .LVU1976
	movl	640(%rbx), %edx
	.loc 1 75 115 view .LVU1977
	movl	644(%rbx), %ecx
	.loc 1 75 84 view .LVU1978
	addl	$1, %eax
	.loc 1 75 98 view .LVU1979
	sall	$8, %edx
	.loc 1 75 115 view .LVU1980
	subl	$8, %ecx
	.loc 1 75 84 view .LVU1981
	movl	%eax, 116(%rbx)
	.loc 1 75 88 is_stmt 1 view .LVU1982
	.loc 1 75 98 is_stmt 0 view .LVU1983
	movl	%edx, 640(%rbx)
	.loc 1 75 105 is_stmt 1 view .LVU1984
	.loc 1 75 115 is_stmt 0 view .LVU1985
	movl	%ecx, 644(%rbx)
	.loc 1 75 23 is_stmt 1 view .LVU1986
	cmpl	$7, %ecx
	jg	.L181
.L177:
	.loc 1 75 124 view .LVU1987
	.loc 1 76 4 view .LVU1988
	.loc 1 77 4 view .LVU1989
	.loc 1 77 14 is_stmt 0 view .LVU1990
	addl	$1, %ecx
.L180:
.LBE434:
.LBE436:
	.loc 1 504 21 view .LVU1991
	addq	$1, %rsi
.LVL356:
.LBB437:
.LBB429:
	.loc 1 77 14 view .LVU1992
	movl	%ecx, 644(%rbx)
.LBE429:
.LBE437:
	.loc 1 504 28 is_stmt 1 view .LVU1993
	.loc 1 504 21 view .LVU1994
	cmpq	%rsi, %r9
	jne	.L182
.LBB438:
.LBB439:
	.loc 1 76 20 is_stmt 0 view .LVU1995
	movl	$-2147483648, %r11d
	jmp	.L192
.LVL357:
	.p2align 4,,10
	.p2align 3
.L183:
	.loc 1 76 20 view .LVU1996
.LBE439:
.LBE438:
	.loc 1 507 28 is_stmt 1 view .LVU1997
	.loc 1 507 21 view .LVU1998
	addq	$1, %r8
.LVL358:
	.loc 1 507 21 is_stmt 0 view .LVU1999
	addq	$16, %rdi
	cmpq	%r8, %r9
	je	.L544
.L192:
.LVL359:
	.loc 1 508 10 is_stmt 1 view .LVU2000
	.loc 1 508 13 is_stmt 0 view .LVU2001
	cmpb	$0, (%r8)
	je	.L183
	.loc 1 510 19 view .LVU2002
	cmpb	$0, -16(%rdi)
	leaq	-16(%rdi), %rsi
	.loc 1 510 16 is_stmt 1 view .LVU2003
.LBB443:
.LBB444:
	.loc 1 75 14 is_stmt 0 view .LVU2004
	movl	644(%rbx), %ecx
.LBE444:
.LBE443:
	.loc 1 510 19 view .LVU2005
	jne	.L184
.L545:
.LBB448:
.LBB445:
	.loc 1 75 23 is_stmt 1 view .LVU2006
	cmpl	$7, %ecx
	jle	.L186
	.loc 1 75 60 is_stmt 0 view .LVU2007
	movl	640(%rbx), %edx
	.p2align 4,,10
	.p2align 3
.L190:
	.loc 1 75 31 is_stmt 1 view .LVU2008
	.loc 1 75 49 is_stmt 0 view .LVU2009
	movq	80(%rbx), %rcx
	.loc 1 75 41 view .LVU2010
	cltq
	.loc 1 75 69 view .LVU2011
	shrl	$24, %edx
	.loc 1 75 51 view .LVU2012
	movb	%dl, (%rcx,%rax)
	.loc 1 75 77 is_stmt 1 view .LVU2013
	.loc 1 75 84 is_stmt 0 view .LVU2014
	movl	116(%rbx), %eax
	.loc 1 75 98 view .LVU2015
	movl	640(%rbx), %edx
	.loc 1 75 115 view .LVU2016
	movl	644(%rbx), %ecx
	.loc 1 75 84 view .LVU2017
	addl	$1, %eax
	.loc 1 75 98 view .LVU2018
	sall	$8, %edx
	.loc 1 75 115 view .LVU2019
	subl	$8, %ecx
	.loc 1 75 84 view .LVU2020
	movl	%eax, 116(%rbx)
	.loc 1 75 88 is_stmt 1 view .LVU2021
	.loc 1 75 98 is_stmt 0 view .LVU2022
	movl	%edx, 640(%rbx)
	.loc 1 75 105 is_stmt 1 view .LVU2023
	.loc 1 75 115 is_stmt 0 view .LVU2024
	movl	%ecx, 644(%rbx)
	.loc 1 75 23 is_stmt 1 view .LVU2025
	cmpl	$7, %ecx
	jg	.L190
.L186:
	.loc 1 75 124 view .LVU2026
	.loc 1 76 4 view .LVU2027
	.loc 1 77 4 view .LVU2028
	.loc 1 77 14 is_stmt 0 view .LVU2029
	addl	$1, %ecx
.L189:
.LBE445:
.LBE448:
	.loc 1 509 27 view .LVU2030
	addq	$1, %rsi
.LBB449:
.LBB440:
	.loc 1 77 14 view .LVU2031
	movl	%ecx, 644(%rbx)
.LBE440:
.LBE449:
	.loc 1 509 34 is_stmt 1 view .LVU2032
	.loc 1 509 27 view .LVU2033
	cmpq	%rsi, %rdi
	je	.L183
	.loc 1 510 16 view .LVU2034
	.loc 1 510 19 is_stmt 0 view .LVU2035
	cmpb	$0, (%rsi)
.LBB450:
.LBB446:
	.loc 1 75 14 view .LVU2036
	movl	644(%rbx), %ecx
.LBE446:
.LBE450:
	.loc 1 510 19 view .LVU2037
	je	.L545
.L184:
.LBB451:
.LBB441:
	.loc 1 75 23 is_stmt 1 view .LVU2038
.LBE441:
.LBE451:
.LBB452:
.LBB447:
	.loc 1 75 60 is_stmt 0 view .LVU2039
	movl	640(%rbx), %edx
.LBE447:
.LBE452:
.LBB453:
.LBB442:
	.loc 1 75 23 view .LVU2040
	cmpl	$7, %ecx
	jle	.L187
	.p2align 4,,10
	.p2align 3
.L188:
	.loc 1 75 31 is_stmt 1 view .LVU2041
	.loc 1 75 49 is_stmt 0 view .LVU2042
	movq	80(%rbx), %rcx
	.loc 1 75 41 view .LVU2043
	cltq
	.loc 1 75 69 view .LVU2044
	shrl	$24, %edx
	.loc 1 75 51 view .LVU2045
	movb	%dl, (%rcx,%rax)
	.loc 1 75 77 is_stmt 1 view .LVU2046
	.loc 1 75 84 is_stmt 0 view .LVU2047
	movl	116(%rbx), %eax
	.loc 1 75 98 view .LVU2048
	movl	640(%rbx), %edx
	.loc 1 75 115 view .LVU2049
	movl	644(%rbx), %ecx
	.loc 1 75 84 view .LVU2050
	addl	$1, %eax
	.loc 1 75 98 view .LVU2051
	sall	$8, %edx
	.loc 1 75 115 view .LVU2052
	subl	$8, %ecx
	.loc 1 75 84 view .LVU2053
	movl	%eax, 116(%rbx)
	.loc 1 75 88 is_stmt 1 view .LVU2054
	.loc 1 75 98 is_stmt 0 view .LVU2055
	movl	%edx, 640(%rbx)
	.loc 1 75 105 is_stmt 1 view .LVU2056
	.loc 1 75 115 is_stmt 0 view .LVU2057
	movl	%ecx, 644(%rbx)
	.loc 1 75 23 is_stmt 1 view .LVU2058
	cmpl	$7, %ecx
	jg	.L188
.L187:
	.loc 1 75 124 view .LVU2059
	.loc 1 76 4 view .LVU2060
	.loc 1 76 20 is_stmt 0 view .LVU2061
	movl	%r11d, %r10d
	shrl	%cl, %r10d
	.loc 1 77 14 view .LVU2062
	addl	$1, %ecx
	.loc 1 76 14 view .LVU2063
	orl	%r10d, %edx
	movl	%edx, 640(%rbx)
	.loc 1 77 4 is_stmt 1 view .LVU2064
	.loc 1 78 1 is_stmt 0 view .LVU2065
	jmp	.L189
.LVL360:
.L175:
	.loc 1 78 1 view .LVU2066
.LBE442:
.LBE453:
.LBB454:
.LBB430:
	.loc 1 75 23 is_stmt 1 view .LVU2067
.LBE430:
.LBE454:
.LBB455:
.LBB435:
	.loc 1 75 60 is_stmt 0 view .LVU2068
	movl	640(%rbx), %edx
.LBE435:
.LBE455:
.LBB456:
.LBB431:
	.loc 1 75 23 view .LVU2069
	cmpl	$7, %ecx
	jle	.L178
	.p2align 4,,10
	.p2align 3
.L179:
	.loc 1 75 31 is_stmt 1 view .LVU2070
	.loc 1 75 49 is_stmt 0 view .LVU2071
	movq	80(%rbx), %rcx
	.loc 1 75 41 view .LVU2072
	cltq
	.loc 1 75 69 view .LVU2073
	shrl	$24, %edx
	.loc 1 75 51 view .LVU2074
	movb	%dl, (%rcx,%rax)
	.loc 1 75 77 is_stmt 1 view .LVU2075
	.loc 1 75 84 is_stmt 0 view .LVU2076
	movl	116(%rbx), %eax
	.loc 1 75 98 view .LVU2077
	movl	640(%rbx), %edx
	.loc 1 75 115 view .LVU2078
	movl	644(%rbx), %ecx
	.loc 1 75 84 view .LVU2079
	addl	$1, %eax
	.loc 1 75 98 view .LVU2080
	sall	$8, %edx
	.loc 1 75 115 view .LVU2081
	subl	$8, %ecx
	.loc 1 75 84 view .LVU2082
	movl	%eax, 116(%rbx)
	.loc 1 75 88 is_stmt 1 view .LVU2083
	.loc 1 75 98 is_stmt 0 view .LVU2084
	movl	%edx, 640(%rbx)
	.loc 1 75 105 is_stmt 1 view .LVU2085
	.loc 1 75 115 is_stmt 0 view .LVU2086
	movl	%ecx, 644(%rbx)
	.loc 1 75 23 is_stmt 1 view .LVU2087
	cmpl	$7, %ecx
	jg	.L179
.L178:
	.loc 1 75 124 view .LVU2088
	.loc 1 76 4 view .LVU2089
	.loc 1 76 20 is_stmt 0 view .LVU2090
	movl	%r11d, %r10d
	shrl	%cl, %r10d
	.loc 1 77 14 view .LVU2091
	addl	$1, %ecx
	.loc 1 76 14 view .LVU2092
	orl	%r10d, %edx
	movl	%edx, 640(%rbx)
	.loc 1 77 4 is_stmt 1 view .LVU2093
	.loc 1 78 1 is_stmt 0 view .LVU2094
	jmp	.L180
.LVL361:
.L543:
	.loc 1 78 1 view .LVU2095
.LBE431:
.LBE456:
.LBE426:
	.loc 1 489 31 view .LVU2096
	movl	$3005, %edi
	movl	%r9d, 24(%rsp)
	movl	%ecx, 16(%rsp)
	.loc 1 489 31 is_stmt 1 view .LVU2097
	call	BZ2_bz__AssertH__fail@PLT
.LVL362:
	movl	24(%rsp), %r9d
	movl	16(%rsp), %ecx
	jmp	.L169
.LVL363:
.L374:
.LBB465:
	.loc 1 469 23 is_stmt 0 view .LVU2098
	xorl	%ecx, %ecx
	.loc 1 474 11 is_stmt 1 view .LVU2099
	.loc 1 475 10 view .LVU2100
	.loc 1 476 10 view .LVU2101
	.loc 1 465 21 is_stmt 0 view .LVU2102
	addq	$1, %rdi
.LVL364:
	.loc 1 476 28 view .LVU2103
	movb	%cl, 18001(%rdi)
	.loc 1 465 36 is_stmt 1 view .LVU2104
	.loc 1 465 21 view .LVU2105
	cmpq	%rdi, %r8
	jne	.L165
	jmp	.L162
.LVL365:
.L544:
	.loc 1 465 21 is_stmt 0 view .LVU2106
.LBE465:
.LBB466:
	.loc 1 513 7 is_stmt 1 view .LVU2107
	.loc 1 513 10 is_stmt 0 view .LVU2108
	cmpl	$2, 656(%rbx)
	jg	.L546
.L193:
.LBE466:
	.loc 1 518 4 is_stmt 1 view .LVU2109
.LVL366:
	.loc 1 519 4 view .LVU2110
.LBB467:
.LBI467:
	.loc 1 73 6 view .LVU2111
.LBB468:
	.loc 1 75 6 view .LVU2112
	.loc 1 75 23 view .LVU2113
	.loc 1 75 14 is_stmt 0 view .LVU2114
	movl	644(%rbx), %r8d
	.loc 1 76 14 view .LVU2115
	movl	640(%rbx), %edi
	.loc 1 75 23 view .LVU2116
	movl	%eax, %edx
	cmpl	$7, %r8d
	jle	.L194
.LVL367:
.L195:
	.loc 1 75 31 is_stmt 1 view .LVU2117
	.loc 1 75 49 is_stmt 0 view .LVU2118
	movq	80(%rbx), %rcx
	.loc 1 75 41 view .LVU2119
	movslq	%edx, %rdx
	.loc 1 75 69 view .LVU2120
	shrl	$24, %edi
	.loc 1 75 51 view .LVU2121
	movb	%dil, (%rcx,%rdx)
	.loc 1 75 77 is_stmt 1 view .LVU2122
	.loc 1 75 84 is_stmt 0 view .LVU2123
	movl	116(%rbx), %edi
	.loc 1 75 115 view .LVU2124
	movl	644(%rbx), %esi
	.loc 1 75 84 view .LVU2125
	leal	1(%rdi), %edx
	.loc 1 75 98 view .LVU2126
	movl	640(%rbx), %edi
	.loc 1 75 115 view .LVU2127
	leal	-8(%rsi), %r8d
	.loc 1 75 84 view .LVU2128
	movl	%edx, 116(%rbx)
	.loc 1 75 88 is_stmt 1 view .LVU2129
	.loc 1 75 98 is_stmt 0 view .LVU2130
	sall	$8, %edi
	.loc 1 75 115 view .LVU2131
	movl	%r8d, 644(%rbx)
	.loc 1 75 98 view .LVU2132
	movl	%edi, 640(%rbx)
	.loc 1 75 105 is_stmt 1 view .LVU2133
	.loc 1 75 23 view .LVU2134
	cmpl	$7, %r8d
	jg	.L195
.L194:
	.loc 1 75 124 view .LVU2135
	.loc 1 76 4 view .LVU2136
	.loc 1 76 20 is_stmt 0 view .LVU2137
	movl	68(%rsp), %esi
	.loc 1 76 39 view .LVU2138
	movl	$29, %ecx
	subl	%r8d, %ecx
	.loc 1 76 20 view .LVU2139
	sall	%cl, %esi
	.loc 1 76 14 view .LVU2140
	orl	%edi, %esi
	.loc 1 77 14 view .LVU2141
	leal	3(%r8), %edi
	.loc 1 76 14 view .LVU2142
	movl	%esi, 640(%rbx)
	.loc 1 77 4 is_stmt 1 view .LVU2143
	.loc 1 77 14 is_stmt 0 view .LVU2144
	movl	%edi, 644(%rbx)
.LVL368:
	.loc 1 77 14 view .LVU2145
.LBE468:
.LBE467:
	.loc 1 520 4 is_stmt 1 view .LVU2146
.LBB469:
.LBI469:
	.loc 1 73 6 view .LVU2147
.LBB470:
	.loc 1 75 23 view .LVU2148
	cmpl	$7, %edi
	jle	.L196
.L197:
	.loc 1 75 31 view .LVU2149
	.loc 1 75 49 is_stmt 0 view .LVU2150
	movq	80(%rbx), %rcx
	.loc 1 75 41 view .LVU2151
	movslq	%edx, %rdx
	.loc 1 75 69 view .LVU2152
	shrl	$24, %esi
	.loc 1 75 51 view .LVU2153
	movb	%sil, (%rcx,%rdx)
	.loc 1 75 77 is_stmt 1 view .LVU2154
	.loc 1 75 84 is_stmt 0 view .LVU2155
	movl	116(%rbx), %edi
	.loc 1 75 98 view .LVU2156
	movl	640(%rbx), %esi
	.loc 1 75 84 view .LVU2157
	leal	1(%rdi), %edx
	.loc 1 75 115 view .LVU2158
	movl	644(%rbx), %edi
	.loc 1 75 98 view .LVU2159
	sall	$8, %esi
	.loc 1 75 84 view .LVU2160
	movl	%edx, 116(%rbx)
	.loc 1 75 88 is_stmt 1 view .LVU2161
	.loc 1 75 115 is_stmt 0 view .LVU2162
	subl	$8, %edi
	.loc 1 75 98 view .LVU2163
	movl	%esi, 640(%rbx)
	.loc 1 75 105 is_stmt 1 view .LVU2164
	.loc 1 75 115 is_stmt 0 view .LVU2165
	movl	%edi, 644(%rbx)
	.loc 1 75 23 is_stmt 1 view .LVU2166
	cmpl	$7, %edi
	jg	.L197
.L196:
	.loc 1 75 124 view .LVU2167
	.loc 1 76 4 view .LVU2168
	.loc 1 76 39 is_stmt 0 view .LVU2169
	movl	$17, %ecx
	.loc 1 76 20 view .LVU2170
	movl	%r15d, %r10d
	.loc 1 76 39 view .LVU2171
	subl	%edi, %ecx
	.loc 1 76 20 view .LVU2172
	sall	%cl, %r10d
	movl	%r10d, %ecx
	.loc 1 76 14 view .LVU2173
	orl	%esi, %ecx
	movl	%ecx, 640(%rbx)
	.loc 1 77 4 is_stmt 1 view .LVU2174
	.loc 1 77 14 is_stmt 0 view .LVU2175
	leal	15(%rdi), %ecx
	movl	%ecx, 644(%rbx)
.LVL369:
	.loc 1 77 14 view .LVU2176
.LBE470:
.LBE469:
	.loc 1 521 18 is_stmt 1 view .LVU2177
	testl	%r15d, %r15d
	je	.L198
	leal	-1(%r15), %esi
	leaq	19706(%rbx), %r8
.LBB471:
.LBB472:
	.loc 1 76 20 is_stmt 0 view .LVU2178
	movl	$-2147483648, %r9d
	leaq	19707(%rbx,%rsi), %r11
.LVL370:
.L199:
	.loc 1 76 20 view .LVU2179
.LBE472:
.LBE471:
	.loc 1 522 21 is_stmt 1 view .LVU2180
	cmpb	$0, (%r8)
	je	.L201
.LBB476:
.LBB473:
	.loc 1 76 14 is_stmt 0 view .LVU2181
	movl	640(%rbx), %esi
.LBE473:
.LBE476:
	.loc 1 522 14 view .LVU2182
	xorl	%edi, %edi
	jmp	.L523
.LVL371:
	.p2align 4,,10
	.p2align 3
.L200:
.LBB477:
.LBB474:
	.loc 1 75 31 is_stmt 1 view .LVU2183
	.loc 1 75 49 is_stmt 0 view .LVU2184
	movq	80(%rbx), %rcx
	.loc 1 75 41 view .LVU2185
	movslq	%edx, %rdx
	.loc 1 75 69 view .LVU2186
	shrl	$24, %esi
	.loc 1 75 51 view .LVU2187
	movb	%sil, (%rcx,%rdx)
	.loc 1 75 77 is_stmt 1 view .LVU2188
	.loc 1 75 84 is_stmt 0 view .LVU2189
	movl	116(%rbx), %esi
	.loc 1 75 115 view .LVU2190
	movl	644(%rbx), %ecx
	.loc 1 75 84 view .LVU2191
	leal	1(%rsi), %edx
	.loc 1 75 98 view .LVU2192
	movl	640(%rbx), %esi
	.loc 1 75 115 view .LVU2193
	subl	$8, %ecx
	.loc 1 75 84 view .LVU2194
	movl	%edx, 116(%rbx)
	.loc 1 75 88 is_stmt 1 view .LVU2195
	.loc 1 75 98 is_stmt 0 view .LVU2196
	sall	$8, %esi
	.loc 1 75 115 view .LVU2197
	movl	%ecx, 644(%rbx)
	.loc 1 75 98 view .LVU2198
	movl	%esi, 640(%rbx)
	.loc 1 75 105 is_stmt 1 view .LVU2199
.L523:
	.loc 1 75 23 view .LVU2200
	cmpl	$7, %ecx
	jg	.L200
	.loc 1 75 124 view .LVU2201
	.loc 1 76 4 view .LVU2202
	.loc 1 76 20 is_stmt 0 view .LVU2203
	movl	%r9d, %r10d
.LBE474:
.LBE477:
	.loc 1 522 43 view .LVU2204
	addl	$1, %edi
.LBB478:
.LBB475:
	.loc 1 76 20 view .LVU2205
	shrl	%cl, %r10d
	.loc 1 77 14 view .LVU2206
	addl	$1, %ecx
	.loc 1 76 14 view .LVU2207
	orl	%r10d, %esi
	.loc 1 77 14 view .LVU2208
	movl	%ecx, 644(%rbx)
	.loc 1 76 14 view .LVU2209
	movl	%esi, 640(%rbx)
	.loc 1 77 4 is_stmt 1 view .LVU2210
.LBE475:
.LBE478:
	.loc 1 522 43 view .LVU2211
.LVL372:
	.loc 1 522 21 view .LVU2212
	.loc 1 522 37 is_stmt 0 view .LVU2213
	movzbl	(%r8), %r10d
	.loc 1 522 21 view .LVU2214
	cmpl	%r10d, %edi
	jl	.L523
.LVL373:
.L201:
.LBB479:
.LBB480:
	.loc 1 75 23 is_stmt 1 view .LVU2215
	cmpl	$7, %ecx
	jle	.L203
	.loc 1 75 60 is_stmt 0 view .LVU2216
	movl	640(%rbx), %esi
	.p2align 4,,10
	.p2align 3
.L204:
	.loc 1 75 31 is_stmt 1 view .LVU2217
	.loc 1 75 49 is_stmt 0 view .LVU2218
	movq	80(%rbx), %rcx
	.loc 1 75 41 view .LVU2219
	movslq	%edx, %rdx
	.loc 1 75 69 view .LVU2220
	shrl	$24, %esi
	.loc 1 75 51 view .LVU2221
	movb	%sil, (%rcx,%rdx)
	.loc 1 75 77 is_stmt 1 view .LVU2222
	.loc 1 75 84 is_stmt 0 view .LVU2223
	movl	116(%rbx), %edi
	.loc 1 75 98 view .LVU2224
	movl	640(%rbx), %esi
	.loc 1 75 84 view .LVU2225
	leal	1(%rdi), %edx
	.loc 1 75 115 view .LVU2226
	movl	644(%rbx), %edi
	.loc 1 75 98 view .LVU2227
	sall	$8, %esi
	.loc 1 75 84 view .LVU2228
	movl	%edx, 116(%rbx)
	.loc 1 75 88 is_stmt 1 view .LVU2229
	.loc 1 75 115 is_stmt 0 view .LVU2230
	leal	-8(%rdi), %ecx
	.loc 1 75 98 view .LVU2231
	movl	%esi, 640(%rbx)
	.loc 1 75 105 is_stmt 1 view .LVU2232
	.loc 1 75 115 is_stmt 0 view .LVU2233
	movl	%ecx, 644(%rbx)
	.loc 1 75 23 is_stmt 1 view .LVU2234
	cmpl	$7, %ecx
	jg	.L204
.L203:
	.loc 1 75 124 view .LVU2235
	.loc 1 76 4 view .LVU2236
	.loc 1 77 4 view .LVU2237
	.loc 1 77 14 is_stmt 0 view .LVU2238
	addl	$1, %ecx
.LBE480:
.LBE479:
	.loc 1 521 18 view .LVU2239
	addq	$1, %r8
.LVL374:
.LBB482:
.LBB481:
	.loc 1 77 14 view .LVU2240
	movl	%ecx, 644(%rbx)
.LBE481:
.LBE482:
	.loc 1 521 33 is_stmt 1 view .LVU2241
	.loc 1 521 18 view .LVU2242
	cmpq	%r8, %r11
	jne	.L199
.L198:
	.loc 1 525 4 view .LVU2243
	.loc 1 525 7 is_stmt 0 view .LVU2244
	cmpl	$2, 656(%rbx)
	jg	.L547
.L206:
	.loc 1 529 4 is_stmt 1 view .LVU2245
.LVL375:
	.loc 1 531 4 view .LVU2246
	.loc 1 531 18 view .LVU2247
	.loc 1 522 14 is_stmt 0 view .LVU2248
	movl	%edx, %r12d
	movq	176(%rsp), %rax
.LBB483:
.LBB484:
.LBB485:
	.loc 1 76 39 view .LVU2249
	movl	$30, %r9d
	.loc 1 76 20 view .LVU2250
	movl	$2, %r11d
	leaq	258(%rbx,%rax), %rax
	movq	%rax, (%rsp)
.LVL376:
.L221:
	.loc 1 76 20 view .LVU2251
.LBE485:
.LBE484:
	.loc 1 532 7 is_stmt 1 view .LVU2252
	.loc 1 532 13 is_stmt 0 view .LVU2253
	movq	56(%rsp), %rax
.LBB488:
.LBB489:
	.loc 1 76 14 view .LVU2254
	movl	640(%rbx), %esi
.LBE489:
.LBE488:
	.loc 1 532 13 view .LVU2255
	movzbl	37708(%rax), %edi
.LVL377:
	.loc 1 533 7 is_stmt 1 view .LVU2256
.LBB492:
.LBI488:
	.loc 1 73 6 view .LVU2257
.LBB490:
	.loc 1 75 6 view .LVU2258
	.loc 1 75 23 view .LVU2259
	.loc 1 75 14 is_stmt 0 view .LVU2260
	movl	644(%rbx), %eax
	.loc 1 75 23 view .LVU2261
	cmpl	$7, %eax
	jle	.L207
	.p2align 4,,10
	.p2align 3
.L208:
	.loc 1 75 31 is_stmt 1 view .LVU2262
	.loc 1 75 49 is_stmt 0 view .LVU2263
	movq	80(%rbx), %rax
	.loc 1 75 41 view .LVU2264
	movslq	%r12d, %r12
	.loc 1 75 69 view .LVU2265
	shrl	$24, %esi
	.loc 1 75 51 view .LVU2266
	movb	%sil, (%rax,%r12)
	.loc 1 75 77 is_stmt 1 view .LVU2267
	.loc 1 75 84 is_stmt 0 view .LVU2268
	movl	116(%rbx), %eax
	.loc 1 75 98 view .LVU2269
	movl	640(%rbx), %esi
	.loc 1 75 84 view .LVU2270
	leal	1(%rax), %r12d
	.loc 1 75 115 view .LVU2271
	movl	644(%rbx), %eax
	.loc 1 75 98 view .LVU2272
	sall	$8, %esi
	.loc 1 75 84 view .LVU2273
	movl	%r12d, 116(%rbx)
	.loc 1 75 88 is_stmt 1 view .LVU2274
	.loc 1 75 115 is_stmt 0 view .LVU2275
	subl	$8, %eax
	.loc 1 75 98 view .LVU2276
	movl	%esi, 640(%rbx)
	.loc 1 75 105 is_stmt 1 view .LVU2277
	.loc 1 75 115 is_stmt 0 view .LVU2278
	movl	%eax, 644(%rbx)
	.loc 1 75 23 is_stmt 1 view .LVU2279
	cmpl	$7, %eax
	jg	.L208
.L207:
	.loc 1 75 124 view .LVU2280
	.loc 1 76 4 view .LVU2281
	.loc 1 76 39 is_stmt 0 view .LVU2282
	movl	$27, %ecx
	.loc 1 76 20 view .LVU2283
	movl	%edi, %r10d
.LBE490:
.LBE492:
	.loc 1 534 21 view .LVU2284
	movq	56(%rsp), %r8
.LBB493:
.LBB491:
	.loc 1 76 39 view .LVU2285
	subl	%eax, %ecx
	.loc 1 77 14 view .LVU2286
	addl	$5, %eax
	.loc 1 76 20 view .LVU2287
	sall	%cl, %r10d
	.loc 1 77 14 view .LVU2288
	movl	%eax, 644(%rbx)
	.loc 1 76 20 view .LVU2289
	movl	%r10d, %ecx
	.loc 1 76 14 view .LVU2290
	orl	%esi, %ecx
	movl	%ecx, 640(%rbx)
	.loc 1 77 4 is_stmt 1 view .LVU2291
.LVL378:
	.loc 1 77 4 is_stmt 0 view .LVU2292
.LBE491:
.LBE493:
	.loc 1 534 7 is_stmt 1 view .LVU2293
	.loc 1 534 21 view .LVU2294
	movl	36(%rsp), %ecx
	testl	%ecx, %ecx
	jle	.L210
.LVL379:
	.p2align 4,,10
	.p2align 3
.L209:
	.loc 1 535 22 view .LVU2295
	.loc 1 535 33 is_stmt 0 view .LVU2296
	movzbl	37708(%r8), %ecx
	.loc 1 535 22 view .LVU2297
	cmpl	%edi, %ecx
	jle	.L212
.LBB494:
.LBB486:
	.loc 1 76 14 view .LVU2298
	movl	640(%rbx), %esi
	jmp	.L525
	.p2align 4,,10
	.p2align 3
.L211:
	.loc 1 75 31 is_stmt 1 view .LVU2299
	.loc 1 75 49 is_stmt 0 view .LVU2300
	movq	80(%rbx), %rax
	.loc 1 75 41 view .LVU2301
	movslq	%r12d, %r12
	.loc 1 75 69 view .LVU2302
	shrl	$24, %esi
	.loc 1 75 51 view .LVU2303
	movb	%sil, (%rax,%r12)
	.loc 1 75 77 is_stmt 1 view .LVU2304
	.loc 1 75 84 is_stmt 0 view .LVU2305
	movl	116(%rbx), %eax
	.loc 1 75 98 view .LVU2306
	movl	640(%rbx), %esi
	.loc 1 75 84 view .LVU2307
	leal	1(%rax), %r12d
	.loc 1 75 115 view .LVU2308
	movl	644(%rbx), %eax
	.loc 1 75 98 view .LVU2309
	sall	$8, %esi
	.loc 1 75 84 view .LVU2310
	movl	%r12d, 116(%rbx)
	.loc 1 75 88 is_stmt 1 view .LVU2311
	.loc 1 75 115 is_stmt 0 view .LVU2312
	subl	$8, %eax
	.loc 1 75 98 view .LVU2313
	movl	%esi, 640(%rbx)
	.loc 1 75 105 is_stmt 1 view .LVU2314
	.loc 1 75 115 is_stmt 0 view .LVU2315
	movl	%eax, 644(%rbx)
.L525:
	.loc 1 75 23 is_stmt 1 view .LVU2316
	cmpl	$7, %eax
	jg	.L211
	.loc 1 75 124 view .LVU2317
	.loc 1 76 4 view .LVU2318
	.loc 1 76 39 is_stmt 0 view .LVU2319
	movl	%r9d, %ecx
	.loc 1 76 20 view .LVU2320
	movl	%r11d, %r10d
.LBE486:
.LBE494:
	.loc 1 535 56 view .LVU2321
	addl	$1, %edi
.LVL380:
.LBB495:
.LBB487:
	.loc 1 76 39 view .LVU2322
	subl	%eax, %ecx
	.loc 1 77 14 view .LVU2323
	addl	$2, %eax
	.loc 1 76 20 view .LVU2324
	sall	%cl, %r10d
	.loc 1 77 14 view .LVU2325
	movl	%eax, 644(%rbx)
	.loc 1 76 14 view .LVU2326
	orl	%r10d, %esi
	movl	%esi, 640(%rbx)
	.loc 1 77 4 is_stmt 1 view .LVU2327
.LBE487:
.LBE495:
	.loc 1 535 52 view .LVU2328
.LVL381:
	.loc 1 535 22 view .LVU2329
	.loc 1 535 33 is_stmt 0 view .LVU2330
	movzbl	37708(%r8), %ecx
	.loc 1 535 22 view .LVU2331
	cmpl	%ecx, %edi
	jl	.L525
.L212:
	.loc 1 536 22 is_stmt 1 view .LVU2332
	cmpl	%ecx, %edi
	jle	.L214
.LBB496:
.LBB497:
	.loc 1 76 14 is_stmt 0 view .LVU2333
	movl	640(%rbx), %esi
	jmp	.L527
	.p2align 4,,10
	.p2align 3
.L216:
	.loc 1 75 31 is_stmt 1 view .LVU2334
	.loc 1 75 49 is_stmt 0 view .LVU2335
	movq	80(%rbx), %rax
	.loc 1 75 41 view .LVU2336
	movslq	%r12d, %r12
	.loc 1 75 69 view .LVU2337
	shrl	$24, %esi
	.loc 1 75 51 view .LVU2338
	movb	%sil, (%rax,%r12)
	.loc 1 75 77 is_stmt 1 view .LVU2339
	.loc 1 75 84 is_stmt 0 view .LVU2340
	movl	116(%rbx), %eax
	.loc 1 75 98 view .LVU2341
	movl	640(%rbx), %esi
	.loc 1 75 84 view .LVU2342
	leal	1(%rax), %r12d
	.loc 1 75 115 view .LVU2343
	movl	644(%rbx), %eax
	.loc 1 75 98 view .LVU2344
	sall	$8, %esi
	.loc 1 75 84 view .LVU2345
	movl	%r12d, 116(%rbx)
	.loc 1 75 88 is_stmt 1 view .LVU2346
	.loc 1 75 115 is_stmt 0 view .LVU2347
	subl	$8, %eax
	.loc 1 75 98 view .LVU2348
	movl	%esi, 640(%rbx)
	.loc 1 75 105 is_stmt 1 view .LVU2349
	.loc 1 75 115 is_stmt 0 view .LVU2350
	movl	%eax, 644(%rbx)
.L527:
	.loc 1 75 23 is_stmt 1 view .LVU2351
	cmpl	$7, %eax
	jg	.L216
	.loc 1 75 124 view .LVU2352
	.loc 1 76 4 view .LVU2353
	.loc 1 76 39 is_stmt 0 view .LVU2354
	movl	%r9d, %ecx
	.loc 1 76 20 view .LVU2355
	movl	$3, %r10d
.LBE497:
.LBE496:
	.loc 1 536 56 view .LVU2356
	subl	$1, %edi
.LVL382:
.LBB499:
.LBB498:
	.loc 1 76 39 view .LVU2357
	subl	%eax, %ecx
	.loc 1 77 14 view .LVU2358
	addl	$2, %eax
	.loc 1 76 20 view .LVU2359
	sall	%cl, %r10d
	.loc 1 77 14 view .LVU2360
	movl	%eax, 644(%rbx)
	.loc 1 76 14 view .LVU2361
	orl	%r10d, %esi
	movl	%esi, 640(%rbx)
	.loc 1 77 4 is_stmt 1 view .LVU2362
.LBE498:
.LBE499:
	.loc 1 536 52 view .LVU2363
.LVL383:
	.loc 1 536 22 view .LVU2364
	.loc 1 536 33 is_stmt 0 view .LVU2365
	movzbl	37708(%r8), %ecx
	.loc 1 536 22 view .LVU2366
	cmpl	%ecx, %edi
	jg	.L527
.L214:
.LBB500:
.LBB501:
	.loc 1 75 23 is_stmt 1 view .LVU2367
	cmpl	$7, %eax
	jle	.L218
	.loc 1 75 60 is_stmt 0 view .LVU2368
	movl	640(%rbx), %ecx
	.p2align 4,,10
	.p2align 3
.L219:
	.loc 1 75 31 is_stmt 1 view .LVU2369
	.loc 1 75 49 is_stmt 0 view .LVU2370
	movq	80(%rbx), %rax
	.loc 1 75 41 view .LVU2371
	movslq	%r12d, %r12
	.loc 1 75 69 view .LVU2372
	shrl	$24, %ecx
	.loc 1 75 51 view .LVU2373
	movb	%cl, (%rax,%r12)
	.loc 1 75 77 is_stmt 1 view .LVU2374
	.loc 1 75 84 is_stmt 0 view .LVU2375
	movl	116(%rbx), %eax
	.loc 1 75 98 view .LVU2376
	movl	640(%rbx), %ecx
	.loc 1 75 84 view .LVU2377
	leal	1(%rax), %r12d
	.loc 1 75 115 view .LVU2378
	movl	644(%rbx), %eax
	.loc 1 75 98 view .LVU2379
	sall	$8, %ecx
	.loc 1 75 84 view .LVU2380
	movl	%r12d, 116(%rbx)
	.loc 1 75 88 is_stmt 1 view .LVU2381
	.loc 1 75 115 is_stmt 0 view .LVU2382
	subl	$8, %eax
	.loc 1 75 98 view .LVU2383
	movl	%ecx, 640(%rbx)
	.loc 1 75 105 is_stmt 1 view .LVU2384
	.loc 1 75 115 is_stmt 0 view .LVU2385
	movl	%eax, 644(%rbx)
	.loc 1 75 23 is_stmt 1 view .LVU2386
	cmpl	$7, %eax
	jg	.L219
.L218:
	.loc 1 75 124 view .LVU2387
	.loc 1 76 4 view .LVU2388
	.loc 1 77 4 view .LVU2389
	.loc 1 77 14 is_stmt 0 view .LVU2390
	addl	$1, %eax
.LBE501:
.LBE500:
	.loc 1 534 21 view .LVU2391
	addq	$1, %r8
.LVL384:
.LBB503:
.LBB502:
	.loc 1 77 14 view .LVU2392
	movl	%eax, 644(%rbx)
.LBE502:
.LBE503:
	.loc 1 534 35 is_stmt 1 view .LVU2393
	.loc 1 534 21 view .LVU2394
	cmpq	%r8, %r14
	jne	.L209
.L210:
	.loc 1 534 21 is_stmt 0 view .LVU2395
.LBE483:
	.loc 1 531 30 is_stmt 1 view .LVU2396
.LVL385:
	.loc 1 531 18 view .LVU2397
	addq	$258, 56(%rsp)
.LVL386:
	.loc 1 531 18 is_stmt 0 view .LVU2398
	addq	$258, %r14
	movq	56(%rsp), %rax
	cmpq	%rax, (%rsp)
	jne	.L221
	.loc 1 541 4 is_stmt 1 view .LVU2399
	.loc 1 541 7 is_stmt 0 view .LVU2400
	cmpl	$2, 656(%rbx)
	jg	.L548
.LVL387:
.L222:
	.loc 1 545 4 is_stmt 1 view .LVU2401
	.loc 1 546 4 view .LVU2402
	.loc 1 547 4 view .LVU2403
	.loc 1 548 4 view .LVU2404
	.loc 1 549 7 view .LVU2405
	.loc 1 549 18 is_stmt 0 view .LVU2406
	movl	668(%rbx), %eax
	.loc 1 549 10 view .LVU2407
	testl	%eax, %eax
	jle	.L223
	leaq	2(%rbp), %rdi
	movslq	64(%rsp), %rcx
	movl	$1, %r14d
	movl	%r12d, %r10d
	movq	%rdi, (%rsp)
.LVL388:
.L335:
	.loc 1 550 7 is_stmt 1 view .LVU2408
	.loc 1 550 10 is_stmt 0 view .LVU2409
	leal	49(%rcx), %r8d
	.loc 1 551 7 is_stmt 1 view .LVU2410
	.loc 1 591 10 is_stmt 0 view .LVU2411
	leal	50(%rcx), %r12d
	.loc 1 551 10 view .LVU2412
	cmpl	%eax, %r8d
	jl	.L225
	.loc 1 551 26 is_stmt 1 view .LVU2413
.LVL389:
	.loc 1 551 29 is_stmt 0 view .LVU2414
	leal	-1(%rax), %r8d
.LVL390:
	.loc 1 551 29 view .LVU2415
	movl	%eax, %r12d
.LVL391:
.L225:
	.loc 1 552 9 is_stmt 1 view .LVU2416
	.loc 1 552 26 is_stmt 0 view .LVU2417
	movzbl	1703(%rbx,%r14), %eax
	.loc 1 552 12 view .LVU2418
	cmpl	%eax, %r13d
	jle	.L549
.L226:
	.loc 1 552 80 is_stmt 1 view .LVU2419
	.loc 1 554 7 view .LVU2420
	.loc 1 554 10 is_stmt 0 view .LVU2421
	cmpl	$6, %r13d
	jne	.L227
	.loc 1 554 35 view .LVU2422
	movl	%r8d, %eax
	subl	%ecx, %eax
	.loc 1 554 24 view .LVU2423
	cmpl	$49, %eax
	je	.L228
.L227:
	.loc 1 583 25 is_stmt 1 view .LVU2424
	cmpl	%ecx, %r8d
	jl	.L230
	movslq	%ecx, %rdi
	subl	%ecx, %r8d
.LBB504:
.LBB505:
.LBB506:
	.loc 1 75 14 is_stmt 0 view .LVU2425
	movl	644(%rbx), %edx
.LBE506:
.LBE505:
.LBE504:
.LBB709:
.LBB710:
	.loc 1 76 14 view .LVU2426
	movl	640(%rbx), %eax
	leaq	(%r8,%rdi), %rcx
	leaq	0(%rbp,%rdi,2), %rsi
	movq	(%rsp), %rdi
	.loc 1 76 27 view .LVU2427
	movl	$32, %r9d
	leaq	(%rdi,%rcx,2), %r11
	.p2align 4,,10
	.p2align 3
.L333:
	.loc 1 76 27 view .LVU2428
.LBE710:
.LBE709:
	.loc 1 584 13 is_stmt 1 view .LVU2429
	.loc 1 586 49 is_stmt 0 view .LVU2430
	movzbl	1703(%rbx,%r14), %edi
	movzwl	(%rsi), %r8d
	movq	%rdi, %rcx
	salq	$7, %rcx
	addq	%rdi, %rcx
	addq	%rcx, %rcx
	leaq	9812(%r8,%rcx), %rdi
	.loc 1 585 48 view .LVU2431
	addq	%rbx, %rcx
	.loc 1 584 13 view .LVU2432
	movzbl	37708(%r8,%rcx), %r8d
.LVL392:
	.loc 1 584 13 view .LVU2433
	movl	8(%rbx,%rdi,4), %edi
.LVL393:
.LBB714:
.LBI709:
	.loc 1 73 6 is_stmt 1 view .LVU2434
.LBB711:
	.loc 1 75 6 view .LVU2435
	.loc 1 75 23 view .LVU2436
	cmpl	$7, %edx
	jle	.L331
	.loc 1 75 41 is_stmt 0 view .LVU2437
	movl	116(%rbx), %ecx
	.p2align 4,,10
	.p2align 3
.L332:
	.loc 1 75 31 is_stmt 1 view .LVU2438
	.loc 1 75 49 is_stmt 0 view .LVU2439
	movq	80(%rbx), %rdx
	.loc 1 75 41 view .LVU2440
	movslq	%ecx, %rcx
	.loc 1 75 69 view .LVU2441
	shrl	$24, %eax
	.loc 1 75 51 view .LVU2442
	movb	%al, (%rdx,%rcx)
	.loc 1 75 77 is_stmt 1 view .LVU2443
	.loc 1 75 84 is_stmt 0 view .LVU2444
	movl	116(%rbx), %eax
	.loc 1 75 115 view .LVU2445
	movl	644(%rbx), %edx
	.loc 1 75 84 view .LVU2446
	leal	1(%rax), %ecx
	.loc 1 75 98 view .LVU2447
	movl	640(%rbx), %eax
	.loc 1 75 115 view .LVU2448
	subl	$8, %edx
	.loc 1 75 84 view .LVU2449
	movl	%ecx, 116(%rbx)
	.loc 1 75 88 is_stmt 1 view .LVU2450
	.loc 1 75 98 is_stmt 0 view .LVU2451
	sall	$8, %eax
	.loc 1 75 115 view .LVU2452
	movl	%edx, 644(%rbx)
	.loc 1 75 98 view .LVU2453
	movl	%eax, 640(%rbx)
	.loc 1 75 105 is_stmt 1 view .LVU2454
	.loc 1 75 23 view .LVU2455
	cmpl	$7, %edx
	jg	.L332
.L331:
	.loc 1 75 124 view .LVU2456
	.loc 1 76 4 view .LVU2457
	.loc 1 76 27 is_stmt 0 view .LVU2458
	movl	%r9d, %ecx
.LBE711:
.LBE714:
	.loc 1 583 25 view .LVU2459
	addq	$2, %rsi
.LBB715:
.LBB712:
	.loc 1 76 27 view .LVU2460
	subl	%edx, %ecx
	.loc 1 77 14 view .LVU2461
	addl	%r8d, %edx
	.loc 1 76 39 view .LVU2462
	subl	%r8d, %ecx
	.loc 1 77 14 view .LVU2463
	movl	%edx, 644(%rbx)
	.loc 1 76 20 view .LVU2464
	sall	%cl, %edi
.LVL394:
	.loc 1 76 14 view .LVU2465
	orl	%edi, %eax
	movl	%eax, 640(%rbx)
	.loc 1 77 4 is_stmt 1 view .LVU2466
.LVL395:
	.loc 1 77 4 is_stmt 0 view .LVU2467
.LBE712:
.LBE715:
	.loc 1 583 33 is_stmt 1 view .LVU2468
	.loc 1 583 25 view .LVU2469
	cmpq	%rsi, %r11
	jne	.L333
.L230:
	.loc 1 591 7 view .LVU2470
	.loc 1 592 7 view .LVU2471
.LVL396:
	.loc 1 549 18 is_stmt 0 view .LVU2472
	movl	668(%rbx), %eax
	.loc 1 592 13 view .LVU2473
	movl	%r14d, %ecx
.LVL397:
	.loc 1 548 10 is_stmt 1 view .LVU2474
	.loc 1 548 4 view .LVU2475
	.loc 1 549 7 view .LVU2476
	.loc 1 549 10 is_stmt 0 view .LVU2477
	addq	$1, %r14
.LVL398:
	.loc 1 549 10 view .LVU2478
	cmpl	%r12d, %eax
	jle	.L550
.LVL399:
	.loc 1 549 10 view .LVU2479
	movslq	%r12d, %rcx
	jmp	.L335
.LVL400:
.L549:
	.loc 1 552 47 view .LVU2480
	movl	$3006, %edi
	movl	%r10d, 24(%rsp)
	movl	%ecx, 16(%rsp)
	movl	%r8d, 8(%rsp)
	.loc 1 552 47 is_stmt 1 view .LVU2481
	call	BZ2_bz__AssertH__fail@PLT
.LVL401:
	movl	24(%rsp), %r10d
	movslq	16(%rsp), %rcx
	movl	8(%rsp), %r8d
	jmp	.L226
.L228:
.LBB716:
	.loc 1 556 13 view .LVU2482
	.loc 1 557 13 view .LVU2483
	movzbl	1703(%rbx,%r14), %edx
.LBB511:
.LBB507:
	.loc 1 75 14 is_stmt 0 view .LVU2484
	movl	644(%rbx), %r8d
.LBE507:
.LBE511:
	.loc 1 568 26 view .LVU2485
	leaq	(%rcx,%rcx), %rdi
	.loc 1 557 20 view .LVU2486
	movq	%rdx, %rax
	salq	$7, %rax
	addq	%rdx, %rax
	leaq	37708(%rbx,%rax,2), %rdx
.LVL402:
	.loc 1 559 13 is_stmt 1 view .LVU2487
	.loc 1 559 20 is_stmt 0 view .LVU2488
	leaq	39256(%rbx,%rax,8), %rsi
.LVL403:
	.loc 1 568 13 is_stmt 1 view .LVU2489
	.loc 1 568 36 view .LVU2490
	.loc 1 568 88 is_stmt 0 view .LVU2491
	movzwl	0(%rbp,%rcx,2), %eax
	.loc 1 568 36 view .LVU2492
	movl	(%rsi,%rax,4), %r9d
	movzbl	(%rdx,%rax), %r11d
.LVL404:
.LBB512:
.LBI505:
	.loc 1 73 6 is_stmt 1 view .LVU2493
.LBB508:
	.loc 1 75 6 view .LVU2494
	.loc 1 75 23 view .LVU2495
.LBE508:
.LBE512:
.LBE716:
.LBB717:
.LBB713:
	.loc 1 76 14 is_stmt 0 view .LVU2496
	movl	640(%rbx), %eax
.LBE713:
.LBE717:
.LBB718:
.LBB513:
.LBB509:
	.loc 1 75 23 view .LVU2497
	cmpl	$7, %r8d
	jle	.L231
	.loc 1 75 41 view .LVU2498
	movl	116(%rbx), %ecx
.LVL405:
.L232:
	.loc 1 75 31 is_stmt 1 view .LVU2499
	.loc 1 75 49 is_stmt 0 view .LVU2500
	movq	80(%rbx), %r8
	.loc 1 75 41 view .LVU2501
	movslq	%ecx, %rcx
	.loc 1 75 69 view .LVU2502
	shrl	$24, %eax
	.loc 1 75 51 view .LVU2503
	movb	%al, (%r8,%rcx)
	.loc 1 75 77 is_stmt 1 view .LVU2504
	.loc 1 75 84 is_stmt 0 view .LVU2505
	movl	116(%rbx), %eax
	.loc 1 75 115 view .LVU2506
	movl	644(%rbx), %r8d
	.loc 1 75 84 view .LVU2507
	leal	1(%rax), %ecx
	.loc 1 75 98 view .LVU2508
	movl	640(%rbx), %eax
	.loc 1 75 115 view .LVU2509
	subl	$8, %r8d
	.loc 1 75 84 view .LVU2510
	movl	%ecx, 116(%rbx)
	.loc 1 75 88 is_stmt 1 view .LVU2511
	.loc 1 75 98 is_stmt 0 view .LVU2512
	sall	$8, %eax
	.loc 1 75 115 view .LVU2513
	movl	%r8d, 644(%rbx)
	.loc 1 75 98 view .LVU2514
	movl	%eax, 640(%rbx)
	.loc 1 75 105 is_stmt 1 view .LVU2515
	.loc 1 75 23 view .LVU2516
	cmpl	$7, %r8d
	jg	.L232
.L231:
	.loc 1 75 124 view .LVU2517
	.loc 1 76 4 view .LVU2518
	.loc 1 76 27 is_stmt 0 view .LVU2519
	movl	$32, %ecx
	subl	%r8d, %ecx
	.loc 1 76 39 view .LVU2520
	subl	%r11d, %ecx
	.loc 1 76 20 view .LVU2521
	sall	%cl, %r9d
.LVL406:
	.loc 1 76 20 view .LVU2522
.LBE509:
.LBE513:
	.loc 1 568 175 view .LVU2523
	movzwl	2(%rbp,%rdi), %ecx
.LBB514:
.LBB510:
	.loc 1 76 14 view .LVU2524
	orl	%eax, %r9d
	.loc 1 77 14 view .LVU2525
	leal	(%r11,%r8), %eax
	.loc 1 76 14 view .LVU2526
	movl	%r9d, 640(%rbx)
	.loc 1 77 4 is_stmt 1 view .LVU2527
	.loc 1 77 14 is_stmt 0 view .LVU2528
	movl	%eax, 644(%rbx)
.LVL407:
	.loc 1 77 14 view .LVU2529
.LBE510:
.LBE514:
	.loc 1 568 100 is_stmt 1 view .LVU2530
	.loc 1 568 123 view .LVU2531
	movl	(%rsi,%rcx,4), %r8d
	movzbl	(%rdx,%rcx), %r11d
.LVL408:
.LBB515:
.LBI515:
	.loc 1 73 6 view .LVU2532
.LBB516:
	.loc 1 75 23 view .LVU2533
	cmpl	$7, %eax
	jle	.L233
	.loc 1 75 41 is_stmt 0 view .LVU2534
	movl	116(%rbx), %ecx
.LVL409:
.L234:
	.loc 1 75 31 is_stmt 1 view .LVU2535
	.loc 1 75 49 is_stmt 0 view .LVU2536
	movq	80(%rbx), %rax
	.loc 1 75 41 view .LVU2537
	movslq	%ecx, %rcx
	.loc 1 75 69 view .LVU2538
	shrl	$24, %r9d
	.loc 1 75 51 view .LVU2539
	movb	%r9b, (%rax,%rcx)
	.loc 1 75 77 is_stmt 1 view .LVU2540
	.loc 1 75 84 is_stmt 0 view .LVU2541
	movl	116(%rbx), %eax
	.loc 1 75 98 view .LVU2542
	movl	640(%rbx), %r9d
	.loc 1 75 84 view .LVU2543
	leal	1(%rax), %ecx
	.loc 1 75 115 view .LVU2544
	movl	644(%rbx), %eax
	.loc 1 75 98 view .LVU2545
	sall	$8, %r9d
	.loc 1 75 84 view .LVU2546
	movl	%ecx, 116(%rbx)
	.loc 1 75 88 is_stmt 1 view .LVU2547
	.loc 1 75 115 is_stmt 0 view .LVU2548
	subl	$8, %eax
	.loc 1 75 98 view .LVU2549
	movl	%r9d, 640(%rbx)
	.loc 1 75 105 is_stmt 1 view .LVU2550
	.loc 1 75 115 is_stmt 0 view .LVU2551
	movl	%eax, 644(%rbx)
	.loc 1 75 23 is_stmt 1 view .LVU2552
	cmpl	$7, %eax
	jg	.L234
.L233:
	.loc 1 75 124 view .LVU2553
	.loc 1 76 4 view .LVU2554
	.loc 1 76 27 is_stmt 0 view .LVU2555
	movl	$32, %ecx
	subl	%eax, %ecx
	.loc 1 77 14 view .LVU2556
	addl	%r11d, %eax
	.loc 1 76 39 view .LVU2557
	subl	%r11d, %ecx
	.loc 1 77 14 view .LVU2558
	movl	%eax, 644(%rbx)
	.loc 1 76 20 view .LVU2559
	sall	%cl, %r8d
.LVL410:
	.loc 1 76 20 view .LVU2560
.LBE516:
.LBE515:
	.loc 1 568 262 view .LVU2561
	movzwl	4(%rbp,%rdi), %ecx
.LBB518:
.LBB517:
	.loc 1 76 14 view .LVU2562
	orl	%r9d, %r8d
	movl	%r8d, 640(%rbx)
	.loc 1 77 4 is_stmt 1 view .LVU2563
.LVL411:
	.loc 1 77 4 is_stmt 0 view .LVU2564
.LBE517:
.LBE518:
	.loc 1 568 187 is_stmt 1 view .LVU2565
	.loc 1 568 210 view .LVU2566
	movl	(%rsi,%rcx,4), %r9d
	movzbl	(%rdx,%rcx), %r11d
.LVL412:
.LBB519:
.LBI519:
	.loc 1 73 6 view .LVU2567
.LBB520:
	.loc 1 75 23 view .LVU2568
	cmpl	$7, %eax
	jle	.L235
	.loc 1 75 41 is_stmt 0 view .LVU2569
	movl	116(%rbx), %ecx
.LVL413:
.L236:
	.loc 1 75 31 is_stmt 1 view .LVU2570
	.loc 1 75 49 is_stmt 0 view .LVU2571
	movq	80(%rbx), %rax
	.loc 1 75 41 view .LVU2572
	movslq	%ecx, %rcx
	.loc 1 75 69 view .LVU2573
	shrl	$24, %r8d
	.loc 1 75 51 view .LVU2574
	movb	%r8b, (%rax,%rcx)
	.loc 1 75 77 is_stmt 1 view .LVU2575
	.loc 1 75 84 is_stmt 0 view .LVU2576
	movl	116(%rbx), %eax
	.loc 1 75 98 view .LVU2577
	movl	640(%rbx), %r8d
	.loc 1 75 84 view .LVU2578
	leal	1(%rax), %ecx
	.loc 1 75 115 view .LVU2579
	movl	644(%rbx), %eax
	.loc 1 75 98 view .LVU2580
	sall	$8, %r8d
	.loc 1 75 84 view .LVU2581
	movl	%ecx, 116(%rbx)
	.loc 1 75 88 is_stmt 1 view .LVU2582
	.loc 1 75 115 is_stmt 0 view .LVU2583
	subl	$8, %eax
	.loc 1 75 98 view .LVU2584
	movl	%r8d, 640(%rbx)
	.loc 1 75 105 is_stmt 1 view .LVU2585
	.loc 1 75 115 is_stmt 0 view .LVU2586
	movl	%eax, 644(%rbx)
	.loc 1 75 23 is_stmt 1 view .LVU2587
	cmpl	$7, %eax
	jg	.L236
.L235:
	.loc 1 75 124 view .LVU2588
	.loc 1 76 4 view .LVU2589
	.loc 1 76 27 is_stmt 0 view .LVU2590
	movl	$32, %ecx
	subl	%eax, %ecx
	.loc 1 77 14 view .LVU2591
	addl	%r11d, %eax
	.loc 1 76 39 view .LVU2592
	subl	%r11d, %ecx
	.loc 1 77 14 view .LVU2593
	movl	%eax, 644(%rbx)
	.loc 1 76 20 view .LVU2594
	sall	%cl, %r9d
.LVL414:
	.loc 1 76 20 view .LVU2595
.LBE520:
.LBE519:
	.loc 1 568 349 view .LVU2596
	movzwl	6(%rbp,%rdi), %ecx
.LBB522:
.LBB521:
	.loc 1 76 14 view .LVU2597
	orl	%r8d, %r9d
	movl	%r9d, 640(%rbx)
	.loc 1 77 4 is_stmt 1 view .LVU2598
.LVL415:
	.loc 1 77 4 is_stmt 0 view .LVU2599
.LBE521:
.LBE522:
	.loc 1 568 274 is_stmt 1 view .LVU2600
	.loc 1 568 297 view .LVU2601
	movl	(%rsi,%rcx,4), %r8d
	movzbl	(%rdx,%rcx), %r11d
.LVL416:
.LBB523:
.LBI523:
	.loc 1 73 6 view .LVU2602
.LBB524:
	.loc 1 75 23 view .LVU2603
	cmpl	$7, %eax
	jle	.L237
	.loc 1 75 41 is_stmt 0 view .LVU2604
	movl	116(%rbx), %ecx
.LVL417:
.L238:
	.loc 1 75 31 is_stmt 1 view .LVU2605
	.loc 1 75 49 is_stmt 0 view .LVU2606
	movq	80(%rbx), %rax
	.loc 1 75 41 view .LVU2607
	movslq	%ecx, %rcx
	.loc 1 75 69 view .LVU2608
	shrl	$24, %r9d
	.loc 1 75 51 view .LVU2609
	movb	%r9b, (%rax,%rcx)
	.loc 1 75 77 is_stmt 1 view .LVU2610
	.loc 1 75 84 is_stmt 0 view .LVU2611
	movl	116(%rbx), %eax
	.loc 1 75 98 view .LVU2612
	movl	640(%rbx), %r9d
	.loc 1 75 84 view .LVU2613
	leal	1(%rax), %ecx
	.loc 1 75 115 view .LVU2614
	movl	644(%rbx), %eax
	.loc 1 75 98 view .LVU2615
	sall	$8, %r9d
	.loc 1 75 84 view .LVU2616
	movl	%ecx, 116(%rbx)
	.loc 1 75 88 is_stmt 1 view .LVU2617
	.loc 1 75 115 is_stmt 0 view .LVU2618
	subl	$8, %eax
	.loc 1 75 98 view .LVU2619
	movl	%r9d, 640(%rbx)
	.loc 1 75 105 is_stmt 1 view .LVU2620
	.loc 1 75 115 is_stmt 0 view .LVU2621
	movl	%eax, 644(%rbx)
	.loc 1 75 23 is_stmt 1 view .LVU2622
	cmpl	$7, %eax
	jg	.L238
.L237:
	.loc 1 75 124 view .LVU2623
	.loc 1 76 4 view .LVU2624
	.loc 1 76 27 is_stmt 0 view .LVU2625
	movl	$32, %ecx
	subl	%eax, %ecx
	.loc 1 77 14 view .LVU2626
	addl	%r11d, %eax
	.loc 1 76 39 view .LVU2627
	subl	%r11d, %ecx
	.loc 1 77 14 view .LVU2628
	movl	%eax, 644(%rbx)
	.loc 1 76 20 view .LVU2629
	sall	%cl, %r8d
.LVL418:
	.loc 1 76 20 view .LVU2630
.LBE524:
.LBE523:
	.loc 1 568 436 view .LVU2631
	movzwl	8(%rbp,%rdi), %ecx
.LBB526:
.LBB525:
	.loc 1 76 14 view .LVU2632
	orl	%r9d, %r8d
	movl	%r8d, 640(%rbx)
	.loc 1 77 4 is_stmt 1 view .LVU2633
.LVL419:
	.loc 1 77 4 is_stmt 0 view .LVU2634
.LBE525:
.LBE526:
	.loc 1 568 361 is_stmt 1 view .LVU2635
	.loc 1 568 384 view .LVU2636
	movl	(%rsi,%rcx,4), %r9d
	movzbl	(%rdx,%rcx), %r11d
.LVL420:
.LBB527:
.LBI527:
	.loc 1 73 6 view .LVU2637
.LBB528:
	.loc 1 75 23 view .LVU2638
	cmpl	$7, %eax
	jle	.L239
	.loc 1 75 41 is_stmt 0 view .LVU2639
	movl	116(%rbx), %ecx
.LVL421:
.L240:
	.loc 1 75 31 is_stmt 1 view .LVU2640
	.loc 1 75 49 is_stmt 0 view .LVU2641
	movq	80(%rbx), %rax
	.loc 1 75 41 view .LVU2642
	movslq	%ecx, %rcx
	.loc 1 75 69 view .LVU2643
	shrl	$24, %r8d
	.loc 1 75 51 view .LVU2644
	movb	%r8b, (%rax,%rcx)
	.loc 1 75 77 is_stmt 1 view .LVU2645
	.loc 1 75 84 is_stmt 0 view .LVU2646
	movl	116(%rbx), %eax
	.loc 1 75 98 view .LVU2647
	movl	640(%rbx), %r8d
	.loc 1 75 84 view .LVU2648
	leal	1(%rax), %ecx
	.loc 1 75 115 view .LVU2649
	movl	644(%rbx), %eax
	.loc 1 75 98 view .LVU2650
	sall	$8, %r8d
	.loc 1 75 84 view .LVU2651
	movl	%ecx, 116(%rbx)
	.loc 1 75 88 is_stmt 1 view .LVU2652
	.loc 1 75 115 is_stmt 0 view .LVU2653
	subl	$8, %eax
	.loc 1 75 98 view .LVU2654
	movl	%r8d, 640(%rbx)
	.loc 1 75 105 is_stmt 1 view .LVU2655
	.loc 1 75 115 is_stmt 0 view .LVU2656
	movl	%eax, 644(%rbx)
	.loc 1 75 23 is_stmt 1 view .LVU2657
	cmpl	$7, %eax
	jg	.L240
.L239:
	.loc 1 75 124 view .LVU2658
	.loc 1 76 4 view .LVU2659
	.loc 1 76 27 is_stmt 0 view .LVU2660
	movl	$32, %ecx
	subl	%eax, %ecx
	.loc 1 77 14 view .LVU2661
	addl	%r11d, %eax
	.loc 1 76 39 view .LVU2662
	subl	%r11d, %ecx
	.loc 1 77 14 view .LVU2663
	movl	%eax, 644(%rbx)
	.loc 1 76 20 view .LVU2664
	sall	%cl, %r9d
.LVL422:
	.loc 1 76 20 view .LVU2665
.LBE528:
.LBE527:
	.loc 1 569 88 view .LVU2666
	movzwl	10(%rbp,%rdi), %ecx
.LBB530:
.LBB529:
	.loc 1 76 14 view .LVU2667
	orl	%r8d, %r9d
	movl	%r9d, 640(%rbx)
	.loc 1 77 4 is_stmt 1 view .LVU2668
.LVL423:
	.loc 1 77 4 is_stmt 0 view .LVU2669
.LBE529:
.LBE530:
	.loc 1 569 13 is_stmt 1 view .LVU2670
	.loc 1 569 36 view .LVU2671
	movl	(%rsi,%rcx,4), %r8d
	movzbl	(%rdx,%rcx), %r11d
.LVL424:
.LBB531:
.LBI531:
	.loc 1 73 6 view .LVU2672
.LBB532:
	.loc 1 75 23 view .LVU2673
	cmpl	$7, %eax
	jle	.L241
	.loc 1 75 41 is_stmt 0 view .LVU2674
	movl	116(%rbx), %ecx
.LVL425:
.L242:
	.loc 1 75 31 is_stmt 1 view .LVU2675
	.loc 1 75 49 is_stmt 0 view .LVU2676
	movq	80(%rbx), %rax
	.loc 1 75 41 view .LVU2677
	movslq	%ecx, %rcx
	.loc 1 75 69 view .LVU2678
	shrl	$24, %r9d
	.loc 1 75 51 view .LVU2679
	movb	%r9b, (%rax,%rcx)
	.loc 1 75 77 is_stmt 1 view .LVU2680
	.loc 1 75 84 is_stmt 0 view .LVU2681
	movl	116(%rbx), %eax
	.loc 1 75 98 view .LVU2682
	movl	640(%rbx), %r9d
	.loc 1 75 84 view .LVU2683
	leal	1(%rax), %ecx
	.loc 1 75 115 view .LVU2684
	movl	644(%rbx), %eax
	.loc 1 75 98 view .LVU2685
	sall	$8, %r9d
	.loc 1 75 84 view .LVU2686
	movl	%ecx, 116(%rbx)
	.loc 1 75 88 is_stmt 1 view .LVU2687
	.loc 1 75 115 is_stmt 0 view .LVU2688
	subl	$8, %eax
	.loc 1 75 98 view .LVU2689
	movl	%r9d, 640(%rbx)
	.loc 1 75 105 is_stmt 1 view .LVU2690
	.loc 1 75 115 is_stmt 0 view .LVU2691
	movl	%eax, 644(%rbx)
	.loc 1 75 23 is_stmt 1 view .LVU2692
	cmpl	$7, %eax
	jg	.L242
.L241:
	.loc 1 75 124 view .LVU2693
	.loc 1 76 4 view .LVU2694
	.loc 1 76 27 is_stmt 0 view .LVU2695
	movl	$32, %ecx
	subl	%eax, %ecx
	.loc 1 77 14 view .LVU2696
	addl	%r11d, %eax
	.loc 1 76 39 view .LVU2697
	subl	%r11d, %ecx
	.loc 1 77 14 view .LVU2698
	movl	%eax, 644(%rbx)
	.loc 1 76 20 view .LVU2699
	sall	%cl, %r8d
.LVL426:
	.loc 1 76 20 view .LVU2700
.LBE532:
.LBE531:
	.loc 1 569 175 view .LVU2701
	movzwl	12(%rbp,%rdi), %ecx
.LBB534:
.LBB533:
	.loc 1 76 14 view .LVU2702
	orl	%r9d, %r8d
	movl	%r8d, 640(%rbx)
	.loc 1 77 4 is_stmt 1 view .LVU2703
.LVL427:
	.loc 1 77 4 is_stmt 0 view .LVU2704
.LBE533:
.LBE534:
	.loc 1 569 100 is_stmt 1 view .LVU2705
	.loc 1 569 123 view .LVU2706
	movl	(%rsi,%rcx,4), %r9d
	movzbl	(%rdx,%rcx), %r11d
.LVL428:
.LBB535:
.LBI535:
	.loc 1 73 6 view .LVU2707
.LBB536:
	.loc 1 75 23 view .LVU2708
	cmpl	$7, %eax
	jle	.L243
	.loc 1 75 41 is_stmt 0 view .LVU2709
	movl	116(%rbx), %ecx
.LVL429:
.L244:
	.loc 1 75 31 is_stmt 1 view .LVU2710
	.loc 1 75 49 is_stmt 0 view .LVU2711
	movq	80(%rbx), %rax
	.loc 1 75 41 view .LVU2712
	movslq	%ecx, %rcx
	.loc 1 75 69 view .LVU2713
	shrl	$24, %r8d
	.loc 1 75 51 view .LVU2714
	movb	%r8b, (%rax,%rcx)
	.loc 1 75 77 is_stmt 1 view .LVU2715
	.loc 1 75 84 is_stmt 0 view .LVU2716
	movl	116(%rbx), %eax
	.loc 1 75 98 view .LVU2717
	movl	640(%rbx), %r8d
	.loc 1 75 84 view .LVU2718
	leal	1(%rax), %ecx
	.loc 1 75 115 view .LVU2719
	movl	644(%rbx), %eax
	.loc 1 75 98 view .LVU2720
	sall	$8, %r8d
	.loc 1 75 84 view .LVU2721
	movl	%ecx, 116(%rbx)
	.loc 1 75 88 is_stmt 1 view .LVU2722
	.loc 1 75 115 is_stmt 0 view .LVU2723
	subl	$8, %eax
	.loc 1 75 98 view .LVU2724
	movl	%r8d, 640(%rbx)
	.loc 1 75 105 is_stmt 1 view .LVU2725
	.loc 1 75 115 is_stmt 0 view .LVU2726
	movl	%eax, 644(%rbx)
	.loc 1 75 23 is_stmt 1 view .LVU2727
	cmpl	$7, %eax
	jg	.L244
.L243:
	.loc 1 75 124 view .LVU2728
	.loc 1 76 4 view .LVU2729
	.loc 1 76 27 is_stmt 0 view .LVU2730
	movl	$32, %ecx
	subl	%eax, %ecx
	.loc 1 77 14 view .LVU2731
	addl	%r11d, %eax
	.loc 1 76 39 view .LVU2732
	subl	%r11d, %ecx
	.loc 1 77 14 view .LVU2733
	movl	%eax, 644(%rbx)
	.loc 1 76 20 view .LVU2734
	sall	%cl, %r9d
.LVL430:
	.loc 1 76 20 view .LVU2735
.LBE536:
.LBE535:
	.loc 1 569 262 view .LVU2736
	movzwl	14(%rbp,%rdi), %ecx
.LBB538:
.LBB537:
	.loc 1 76 14 view .LVU2737
	orl	%r8d, %r9d
	movl	%r9d, 640(%rbx)
	.loc 1 77 4 is_stmt 1 view .LVU2738
.LVL431:
	.loc 1 77 4 is_stmt 0 view .LVU2739
.LBE537:
.LBE538:
	.loc 1 569 187 is_stmt 1 view .LVU2740
	.loc 1 569 210 view .LVU2741
	movl	(%rsi,%rcx,4), %r8d
	movzbl	(%rdx,%rcx), %r11d
.LVL432:
.LBB539:
.LBI539:
	.loc 1 73 6 view .LVU2742
.LBB540:
	.loc 1 75 23 view .LVU2743
	cmpl	$7, %eax
	jle	.L245
	.loc 1 75 41 is_stmt 0 view .LVU2744
	movl	116(%rbx), %ecx
.LVL433:
.L246:
	.loc 1 75 31 is_stmt 1 view .LVU2745
	.loc 1 75 49 is_stmt 0 view .LVU2746
	movq	80(%rbx), %rax
	.loc 1 75 41 view .LVU2747
	movslq	%ecx, %rcx
	.loc 1 75 69 view .LVU2748
	shrl	$24, %r9d
	.loc 1 75 51 view .LVU2749
	movb	%r9b, (%rax,%rcx)
	.loc 1 75 77 is_stmt 1 view .LVU2750
	.loc 1 75 84 is_stmt 0 view .LVU2751
	movl	116(%rbx), %eax
	.loc 1 75 98 view .LVU2752
	movl	640(%rbx), %r9d
	.loc 1 75 84 view .LVU2753
	leal	1(%rax), %ecx
	.loc 1 75 115 view .LVU2754
	movl	644(%rbx), %eax
	.loc 1 75 98 view .LVU2755
	sall	$8, %r9d
	.loc 1 75 84 view .LVU2756
	movl	%ecx, 116(%rbx)
	.loc 1 75 88 is_stmt 1 view .LVU2757
	.loc 1 75 115 is_stmt 0 view .LVU2758
	subl	$8, %eax
	.loc 1 75 98 view .LVU2759
	movl	%r9d, 640(%rbx)
	.loc 1 75 105 is_stmt 1 view .LVU2760
	.loc 1 75 115 is_stmt 0 view .LVU2761
	movl	%eax, 644(%rbx)
	.loc 1 75 23 is_stmt 1 view .LVU2762
	cmpl	$7, %eax
	jg	.L246
.L245:
	.loc 1 75 124 view .LVU2763
	.loc 1 76 4 view .LVU2764
	.loc 1 76 27 is_stmt 0 view .LVU2765
	movl	$32, %ecx
	subl	%eax, %ecx
	.loc 1 77 14 view .LVU2766
	addl	%r11d, %eax
	.loc 1 76 39 view .LVU2767
	subl	%r11d, %ecx
	.loc 1 77 14 view .LVU2768
	movl	%eax, 644(%rbx)
	.loc 1 76 20 view .LVU2769
	sall	%cl, %r8d
.LVL434:
	.loc 1 76 20 view .LVU2770
.LBE540:
.LBE539:
	.loc 1 569 349 view .LVU2771
	movzwl	16(%rbp,%rdi), %ecx
.LBB542:
.LBB541:
	.loc 1 76 14 view .LVU2772
	orl	%r9d, %r8d
	movl	%r8d, 640(%rbx)
	.loc 1 77 4 is_stmt 1 view .LVU2773
.LVL435:
	.loc 1 77 4 is_stmt 0 view .LVU2774
.LBE541:
.LBE542:
	.loc 1 569 274 is_stmt 1 view .LVU2775
	.loc 1 569 297 view .LVU2776
	movl	(%rsi,%rcx,4), %r9d
	movzbl	(%rdx,%rcx), %r11d
.LVL436:
.LBB543:
.LBI543:
	.loc 1 73 6 view .LVU2777
.LBB544:
	.loc 1 75 23 view .LVU2778
	cmpl	$7, %eax
	jle	.L247
	.loc 1 75 41 is_stmt 0 view .LVU2779
	movl	116(%rbx), %ecx
.LVL437:
.L248:
	.loc 1 75 31 is_stmt 1 view .LVU2780
	.loc 1 75 49 is_stmt 0 view .LVU2781
	movq	80(%rbx), %rax
	.loc 1 75 41 view .LVU2782
	movslq	%ecx, %rcx
	.loc 1 75 69 view .LVU2783
	shrl	$24, %r8d
	.loc 1 75 51 view .LVU2784
	movb	%r8b, (%rax,%rcx)
	.loc 1 75 77 is_stmt 1 view .LVU2785
	.loc 1 75 84 is_stmt 0 view .LVU2786
	movl	116(%rbx), %eax
	.loc 1 75 98 view .LVU2787
	movl	640(%rbx), %r8d
	.loc 1 75 84 view .LVU2788
	leal	1(%rax), %ecx
	.loc 1 75 115 view .LVU2789
	movl	644(%rbx), %eax
	.loc 1 75 98 view .LVU2790
	sall	$8, %r8d
	.loc 1 75 84 view .LVU2791
	movl	%ecx, 116(%rbx)
	.loc 1 75 88 is_stmt 1 view .LVU2792
	.loc 1 75 115 is_stmt 0 view .LVU2793
	subl	$8, %eax
	.loc 1 75 98 view .LVU2794
	movl	%r8d, 640(%rbx)
	.loc 1 75 105 is_stmt 1 view .LVU2795
	.loc 1 75 115 is_stmt 0 view .LVU2796
	movl	%eax, 644(%rbx)
	.loc 1 75 23 is_stmt 1 view .LVU2797
	cmpl	$7, %eax
	jg	.L248
.L247:
	.loc 1 75 124 view .LVU2798
	.loc 1 76 4 view .LVU2799
	.loc 1 76 27 is_stmt 0 view .LVU2800
	movl	$32, %ecx
	subl	%eax, %ecx
	.loc 1 77 14 view .LVU2801
	addl	%r11d, %eax
	.loc 1 76 39 view .LVU2802
	subl	%r11d, %ecx
	.loc 1 77 14 view .LVU2803
	movl	%eax, 644(%rbx)
	.loc 1 76 20 view .LVU2804
	sall	%cl, %r9d
.LVL438:
	.loc 1 76 20 view .LVU2805
.LBE544:
.LBE543:
	.loc 1 569 436 view .LVU2806
	movzwl	18(%rbp,%rdi), %ecx
.LBB546:
.LBB545:
	.loc 1 76 14 view .LVU2807
	orl	%r8d, %r9d
	movl	%r9d, 640(%rbx)
	.loc 1 77 4 is_stmt 1 view .LVU2808
.LVL439:
	.loc 1 77 4 is_stmt 0 view .LVU2809
.LBE545:
.LBE546:
	.loc 1 569 361 is_stmt 1 view .LVU2810
	.loc 1 569 384 view .LVU2811
	movl	(%rsi,%rcx,4), %r8d
	movzbl	(%rdx,%rcx), %r11d
.LVL440:
.LBB547:
.LBI547:
	.loc 1 73 6 view .LVU2812
.LBB548:
	.loc 1 75 23 view .LVU2813
	cmpl	$7, %eax
	jle	.L249
	.loc 1 75 41 is_stmt 0 view .LVU2814
	movl	116(%rbx), %ecx
.LVL441:
.L250:
	.loc 1 75 31 is_stmt 1 view .LVU2815
	.loc 1 75 49 is_stmt 0 view .LVU2816
	movq	80(%rbx), %rax
	.loc 1 75 41 view .LVU2817
	movslq	%ecx, %rcx
	.loc 1 75 69 view .LVU2818
	shrl	$24, %r9d
	.loc 1 75 51 view .LVU2819
	movb	%r9b, (%rax,%rcx)
	.loc 1 75 77 is_stmt 1 view .LVU2820
	.loc 1 75 84 is_stmt 0 view .LVU2821
	movl	116(%rbx), %eax
	.loc 1 75 98 view .LVU2822
	movl	640(%rbx), %r9d
	.loc 1 75 84 view .LVU2823
	leal	1(%rax), %ecx
	.loc 1 75 115 view .LVU2824
	movl	644(%rbx), %eax
	.loc 1 75 98 view .LVU2825
	sall	$8, %r9d
	.loc 1 75 84 view .LVU2826
	movl	%ecx, 116(%rbx)
	.loc 1 75 88 is_stmt 1 view .LVU2827
	.loc 1 75 115 is_stmt 0 view .LVU2828
	subl	$8, %eax
	.loc 1 75 98 view .LVU2829
	movl	%r9d, 640(%rbx)
	.loc 1 75 105 is_stmt 1 view .LVU2830
	.loc 1 75 115 is_stmt 0 view .LVU2831
	movl	%eax, 644(%rbx)
	.loc 1 75 23 is_stmt 1 view .LVU2832
	cmpl	$7, %eax
	jg	.L250
.L249:
	.loc 1 75 124 view .LVU2833
	.loc 1 76 4 view .LVU2834
	.loc 1 76 27 is_stmt 0 view .LVU2835
	movl	$32, %ecx
	subl	%eax, %ecx
	.loc 1 77 14 view .LVU2836
	addl	%r11d, %eax
	.loc 1 76 39 view .LVU2837
	subl	%r11d, %ecx
	.loc 1 77 14 view .LVU2838
	movl	%eax, 644(%rbx)
	.loc 1 76 20 view .LVU2839
	sall	%cl, %r8d
.LVL442:
	.loc 1 76 20 view .LVU2840
.LBE548:
.LBE547:
	.loc 1 570 89 view .LVU2841
	movzwl	20(%rbp,%rdi), %ecx
.LBB550:
.LBB549:
	.loc 1 76 14 view .LVU2842
	orl	%r9d, %r8d
	movl	%r8d, 640(%rbx)
	.loc 1 77 4 is_stmt 1 view .LVU2843
.LVL443:
	.loc 1 77 4 is_stmt 0 view .LVU2844
.LBE549:
.LBE550:
	.loc 1 570 13 is_stmt 1 view .LVU2845
	.loc 1 570 37 view .LVU2846
	movl	(%rsi,%rcx,4), %r9d
	movzbl	(%rdx,%rcx), %r11d
.LVL444:
.LBB551:
.LBI551:
	.loc 1 73 6 view .LVU2847
.LBB552:
	.loc 1 75 23 view .LVU2848
	cmpl	$7, %eax
	jle	.L251
	.loc 1 75 41 is_stmt 0 view .LVU2849
	movl	116(%rbx), %ecx
.LVL445:
.L252:
	.loc 1 75 31 is_stmt 1 view .LVU2850
	.loc 1 75 49 is_stmt 0 view .LVU2851
	movq	80(%rbx), %rax
	.loc 1 75 41 view .LVU2852
	movslq	%ecx, %rcx
	.loc 1 75 69 view .LVU2853
	shrl	$24, %r8d
	.loc 1 75 51 view .LVU2854
	movb	%r8b, (%rax,%rcx)
	.loc 1 75 77 is_stmt 1 view .LVU2855
	.loc 1 75 84 is_stmt 0 view .LVU2856
	movl	116(%rbx), %eax
	.loc 1 75 98 view .LVU2857
	movl	640(%rbx), %r8d
	.loc 1 75 84 view .LVU2858
	leal	1(%rax), %ecx
	.loc 1 75 115 view .LVU2859
	movl	644(%rbx), %eax
	.loc 1 75 98 view .LVU2860
	sall	$8, %r8d
	.loc 1 75 84 view .LVU2861
	movl	%ecx, 116(%rbx)
	.loc 1 75 88 is_stmt 1 view .LVU2862
	.loc 1 75 115 is_stmt 0 view .LVU2863
	subl	$8, %eax
	.loc 1 75 98 view .LVU2864
	movl	%r8d, 640(%rbx)
	.loc 1 75 105 is_stmt 1 view .LVU2865
	.loc 1 75 115 is_stmt 0 view .LVU2866
	movl	%eax, 644(%rbx)
	.loc 1 75 23 is_stmt 1 view .LVU2867
	cmpl	$7, %eax
	jg	.L252
.L251:
	.loc 1 75 124 view .LVU2868
	.loc 1 76 4 view .LVU2869
	.loc 1 76 27 is_stmt 0 view .LVU2870
	movl	$32, %ecx
	subl	%eax, %ecx
	.loc 1 77 14 view .LVU2871
	addl	%r11d, %eax
	.loc 1 76 39 view .LVU2872
	subl	%r11d, %ecx
	.loc 1 77 14 view .LVU2873
	movl	%eax, 644(%rbx)
	.loc 1 76 20 view .LVU2874
	sall	%cl, %r9d
.LVL446:
	.loc 1 76 20 view .LVU2875
.LBE552:
.LBE551:
	.loc 1 570 177 view .LVU2876
	movzwl	22(%rbp,%rdi), %ecx
.LBB554:
.LBB553:
	.loc 1 76 14 view .LVU2877
	orl	%r8d, %r9d
	movl	%r9d, 640(%rbx)
	.loc 1 77 4 is_stmt 1 view .LVU2878
.LVL447:
	.loc 1 77 4 is_stmt 0 view .LVU2879
.LBE553:
.LBE554:
	.loc 1 570 101 is_stmt 1 view .LVU2880
	.loc 1 570 125 view .LVU2881
	movl	(%rsi,%rcx,4), %r8d
	movzbl	(%rdx,%rcx), %r11d
.LVL448:
.LBB555:
.LBI555:
	.loc 1 73 6 view .LVU2882
.LBB556:
	.loc 1 75 23 view .LVU2883
	cmpl	$7, %eax
	jle	.L253
	.loc 1 75 41 is_stmt 0 view .LVU2884
	movl	116(%rbx), %ecx
.LVL449:
.L254:
	.loc 1 75 31 is_stmt 1 view .LVU2885
	.loc 1 75 49 is_stmt 0 view .LVU2886
	movq	80(%rbx), %rax
	.loc 1 75 41 view .LVU2887
	movslq	%ecx, %rcx
	.loc 1 75 69 view .LVU2888
	shrl	$24, %r9d
	.loc 1 75 51 view .LVU2889
	movb	%r9b, (%rax,%rcx)
	.loc 1 75 77 is_stmt 1 view .LVU2890
	.loc 1 75 84 is_stmt 0 view .LVU2891
	movl	116(%rbx), %eax
	.loc 1 75 98 view .LVU2892
	movl	640(%rbx), %r9d
	.loc 1 75 84 view .LVU2893
	leal	1(%rax), %ecx
	.loc 1 75 115 view .LVU2894
	movl	644(%rbx), %eax
	.loc 1 75 98 view .LVU2895
	sall	$8, %r9d
	.loc 1 75 84 view .LVU2896
	movl	%ecx, 116(%rbx)
	.loc 1 75 88 is_stmt 1 view .LVU2897
	.loc 1 75 115 is_stmt 0 view .LVU2898
	subl	$8, %eax
	.loc 1 75 98 view .LVU2899
	movl	%r9d, 640(%rbx)
	.loc 1 75 105 is_stmt 1 view .LVU2900
	.loc 1 75 115 is_stmt 0 view .LVU2901
	movl	%eax, 644(%rbx)
	.loc 1 75 23 is_stmt 1 view .LVU2902
	cmpl	$7, %eax
	jg	.L254
.L253:
	.loc 1 75 124 view .LVU2903
	.loc 1 76 4 view .LVU2904
	.loc 1 76 27 is_stmt 0 view .LVU2905
	movl	$32, %ecx
	subl	%eax, %ecx
	.loc 1 76 39 view .LVU2906
	subl	%r11d, %ecx
	.loc 1 77 14 view .LVU2907
	addl	%eax, %r11d
.LVL450:
	.loc 1 76 20 view .LVU2908
	sall	%cl, %r8d
.LVL451:
	.loc 1 76 20 view .LVU2909
.LBE556:
.LBE555:
	.loc 1 570 265 view .LVU2910
	movzwl	24(%rbp,%rdi), %ecx
.LBB558:
.LBB557:
	.loc 1 77 14 view .LVU2911
	movl	%r11d, 644(%rbx)
	.loc 1 76 14 view .LVU2912
	orl	%r9d, %r8d
	movl	%r8d, 640(%rbx)
	.loc 1 77 4 is_stmt 1 view .LVU2913
.LVL452:
	.loc 1 77 4 is_stmt 0 view .LVU2914
.LBE557:
.LBE558:
	.loc 1 570 189 is_stmt 1 view .LVU2915
	.loc 1 570 213 view .LVU2916
	movl	(%rsi,%rcx,4), %eax
	movzbl	(%rdx,%rcx), %r9d
.LVL453:
.LBB559:
.LBI559:
	.loc 1 73 6 view .LVU2917
.LBB560:
	.loc 1 75 23 view .LVU2918
	cmpl	$7, %r11d
	jle	.L255
	.loc 1 75 41 is_stmt 0 view .LVU2919
	movl	116(%rbx), %ecx
.LVL454:
.L256:
	.loc 1 75 31 is_stmt 1 view .LVU2920
	.loc 1 75 49 is_stmt 0 view .LVU2921
	movq	80(%rbx), %r11
	.loc 1 75 41 view .LVU2922
	movslq	%ecx, %rcx
	.loc 1 75 69 view .LVU2923
	shrl	$24, %r8d
	.loc 1 75 51 view .LVU2924
	movb	%r8b, (%r11,%rcx)
	.loc 1 75 77 is_stmt 1 view .LVU2925
	.loc 1 75 84 is_stmt 0 view .LVU2926
	movl	116(%rbx), %ecx
	.loc 1 75 98 view .LVU2927
	movl	640(%rbx), %r8d
	.loc 1 75 115 view .LVU2928
	movl	644(%rbx), %r11d
	.loc 1 75 84 view .LVU2929
	addl	$1, %ecx
	.loc 1 75 98 view .LVU2930
	sall	$8, %r8d
	.loc 1 75 115 view .LVU2931
	subl	$8, %r11d
	.loc 1 75 84 view .LVU2932
	movl	%ecx, 116(%rbx)
	.loc 1 75 88 is_stmt 1 view .LVU2933
	.loc 1 75 98 is_stmt 0 view .LVU2934
	movl	%r8d, 640(%rbx)
	.loc 1 75 105 is_stmt 1 view .LVU2935
	.loc 1 75 115 is_stmt 0 view .LVU2936
	movl	%r11d, 644(%rbx)
	.loc 1 75 23 is_stmt 1 view .LVU2937
	cmpl	$7, %r11d
	jg	.L256
.L255:
	.loc 1 75 124 view .LVU2938
	.loc 1 76 4 view .LVU2939
	.loc 1 76 27 is_stmt 0 view .LVU2940
	movl	$32, %ecx
	subl	%r11d, %ecx
	.loc 1 76 39 view .LVU2941
	subl	%r9d, %ecx
	.loc 1 77 14 view .LVU2942
	addl	%r11d, %r9d
.LVL455:
	.loc 1 76 20 view .LVU2943
	sall	%cl, %eax
.LVL456:
	.loc 1 76 20 view .LVU2944
.LBE560:
.LBE559:
	.loc 1 570 353 view .LVU2945
	movzwl	26(%rbp,%rdi), %ecx
.LBB562:
.LBB561:
	.loc 1 77 14 view .LVU2946
	movl	%r9d, 644(%rbx)
	.loc 1 76 14 view .LVU2947
	orl	%r8d, %eax
	movl	%eax, 640(%rbx)
	.loc 1 77 4 is_stmt 1 view .LVU2948
.LVL457:
	.loc 1 77 4 is_stmt 0 view .LVU2949
.LBE561:
.LBE562:
	.loc 1 570 277 is_stmt 1 view .LVU2950
	.loc 1 570 301 view .LVU2951
	movl	(%rsi,%rcx,4), %r8d
	movzbl	(%rdx,%rcx), %r11d
.LVL458:
.LBB563:
.LBI563:
	.loc 1 73 6 view .LVU2952
.LBB564:
	.loc 1 75 23 view .LVU2953
	cmpl	$7, %r9d
	jle	.L257
	.loc 1 75 41 is_stmt 0 view .LVU2954
	movl	116(%rbx), %ecx
.LVL459:
.L258:
	.loc 1 75 31 is_stmt 1 view .LVU2955
	.loc 1 75 49 is_stmt 0 view .LVU2956
	movq	80(%rbx), %r9
	.loc 1 75 41 view .LVU2957
	movslq	%ecx, %rcx
	.loc 1 75 69 view .LVU2958
	shrl	$24, %eax
	.loc 1 75 51 view .LVU2959
	movb	%al, (%r9,%rcx)
	.loc 1 75 77 is_stmt 1 view .LVU2960
	.loc 1 75 84 is_stmt 0 view .LVU2961
	movl	116(%rbx), %eax
	.loc 1 75 115 view .LVU2962
	movl	644(%rbx), %r9d
	.loc 1 75 84 view .LVU2963
	leal	1(%rax), %ecx
	.loc 1 75 98 view .LVU2964
	movl	640(%rbx), %eax
	.loc 1 75 115 view .LVU2965
	subl	$8, %r9d
	.loc 1 75 84 view .LVU2966
	movl	%ecx, 116(%rbx)
	.loc 1 75 88 is_stmt 1 view .LVU2967
	.loc 1 75 98 is_stmt 0 view .LVU2968
	sall	$8, %eax
	.loc 1 75 115 view .LVU2969
	movl	%r9d, 644(%rbx)
	.loc 1 75 98 view .LVU2970
	movl	%eax, 640(%rbx)
	.loc 1 75 105 is_stmt 1 view .LVU2971
	.loc 1 75 23 view .LVU2972
	cmpl	$7, %r9d
	jg	.L258
.L257:
	.loc 1 75 124 view .LVU2973
	.loc 1 76 4 view .LVU2974
	.loc 1 76 27 is_stmt 0 view .LVU2975
	movl	$32, %ecx
	subl	%r9d, %ecx
	.loc 1 76 39 view .LVU2976
	subl	%r11d, %ecx
	.loc 1 77 14 view .LVU2977
	addl	%r9d, %r11d
.LVL460:
	.loc 1 76 20 view .LVU2978
	sall	%cl, %r8d
.LVL461:
	.loc 1 76 20 view .LVU2979
.LBE564:
.LBE563:
	.loc 1 570 441 view .LVU2980
	movzwl	28(%rbp,%rdi), %ecx
.LBB566:
.LBB565:
	.loc 1 77 14 view .LVU2981
	movl	%r11d, 644(%rbx)
	.loc 1 76 14 view .LVU2982
	orl	%eax, %r8d
	movl	%r8d, 640(%rbx)
	.loc 1 77 4 is_stmt 1 view .LVU2983
.LVL462:
	.loc 1 77 4 is_stmt 0 view .LVU2984
.LBE565:
.LBE566:
	.loc 1 570 365 is_stmt 1 view .LVU2985
	.loc 1 570 389 view .LVU2986
	movl	(%rsi,%rcx,4), %eax
	movzbl	(%rdx,%rcx), %r9d
.LVL463:
.LBB567:
.LBI567:
	.loc 1 73 6 view .LVU2987
.LBB568:
	.loc 1 75 23 view .LVU2988
	cmpl	$7, %r11d
	jle	.L259
	.loc 1 75 41 is_stmt 0 view .LVU2989
	movl	116(%rbx), %ecx
.LVL464:
.L260:
	.loc 1 75 31 is_stmt 1 view .LVU2990
	.loc 1 75 49 is_stmt 0 view .LVU2991
	movq	80(%rbx), %r11
	.loc 1 75 41 view .LVU2992
	movslq	%ecx, %rcx
	.loc 1 75 69 view .LVU2993
	shrl	$24, %r8d
	.loc 1 75 51 view .LVU2994
	movb	%r8b, (%r11,%rcx)
	.loc 1 75 77 is_stmt 1 view .LVU2995
	.loc 1 75 84 is_stmt 0 view .LVU2996
	movl	116(%rbx), %ecx
	.loc 1 75 98 view .LVU2997
	movl	640(%rbx), %r8d
	.loc 1 75 115 view .LVU2998
	movl	644(%rbx), %r11d
	.loc 1 75 84 view .LVU2999
	addl	$1, %ecx
	.loc 1 75 98 view .LVU3000
	sall	$8, %r8d
	.loc 1 75 115 view .LVU3001
	subl	$8, %r11d
	.loc 1 75 84 view .LVU3002
	movl	%ecx, 116(%rbx)
	.loc 1 75 88 is_stmt 1 view .LVU3003
	.loc 1 75 98 is_stmt 0 view .LVU3004
	movl	%r8d, 640(%rbx)
	.loc 1 75 105 is_stmt 1 view .LVU3005
	.loc 1 75 115 is_stmt 0 view .LVU3006
	movl	%r11d, 644(%rbx)
	.loc 1 75 23 is_stmt 1 view .LVU3007
	cmpl	$7, %r11d
	jg	.L260
.L259:
	.loc 1 75 124 view .LVU3008
	.loc 1 76 4 view .LVU3009
	.loc 1 76 27 is_stmt 0 view .LVU3010
	movl	$32, %ecx
	subl	%r11d, %ecx
	.loc 1 76 39 view .LVU3011
	subl	%r9d, %ecx
	.loc 1 77 14 view .LVU3012
	addl	%r11d, %r9d
.LVL465:
	.loc 1 76 20 view .LVU3013
	sall	%cl, %eax
.LVL466:
	.loc 1 76 20 view .LVU3014
.LBE568:
.LBE567:
	.loc 1 571 89 view .LVU3015
	movzwl	30(%rbp,%rdi), %ecx
.LBB570:
.LBB569:
	.loc 1 77 14 view .LVU3016
	movl	%r9d, 644(%rbx)
	.loc 1 76 14 view .LVU3017
	orl	%r8d, %eax
	movl	%eax, 640(%rbx)
	.loc 1 77 4 is_stmt 1 view .LVU3018
.LVL467:
	.loc 1 77 4 is_stmt 0 view .LVU3019
.LBE569:
.LBE570:
	.loc 1 571 13 is_stmt 1 view .LVU3020
	.loc 1 571 37 view .LVU3021
	movl	(%rsi,%rcx,4), %r8d
	movzbl	(%rdx,%rcx), %r11d
.LVL468:
.LBB571:
.LBI571:
	.loc 1 73 6 view .LVU3022
.LBB572:
	.loc 1 75 23 view .LVU3023
	cmpl	$7, %r9d
	jle	.L261
	.loc 1 75 41 is_stmt 0 view .LVU3024
	movl	116(%rbx), %ecx
.LVL469:
.L262:
	.loc 1 75 31 is_stmt 1 view .LVU3025
	.loc 1 75 49 is_stmt 0 view .LVU3026
	movq	80(%rbx), %r9
	.loc 1 75 41 view .LVU3027
	movslq	%ecx, %rcx
	.loc 1 75 69 view .LVU3028
	shrl	$24, %eax
	.loc 1 75 51 view .LVU3029
	movb	%al, (%r9,%rcx)
	.loc 1 75 77 is_stmt 1 view .LVU3030
	.loc 1 75 84 is_stmt 0 view .LVU3031
	movl	116(%rbx), %eax
	.loc 1 75 115 view .LVU3032
	movl	644(%rbx), %r9d
	.loc 1 75 84 view .LVU3033
	leal	1(%rax), %ecx
	.loc 1 75 98 view .LVU3034
	movl	640(%rbx), %eax
	.loc 1 75 115 view .LVU3035
	subl	$8, %r9d
	.loc 1 75 84 view .LVU3036
	movl	%ecx, 116(%rbx)
	.loc 1 75 88 is_stmt 1 view .LVU3037
	.loc 1 75 98 is_stmt 0 view .LVU3038
	sall	$8, %eax
	.loc 1 75 115 view .LVU3039
	movl	%r9d, 644(%rbx)
	.loc 1 75 98 view .LVU3040
	movl	%eax, 640(%rbx)
	.loc 1 75 105 is_stmt 1 view .LVU3041
	.loc 1 75 23 view .LVU3042
	cmpl	$7, %r9d
	jg	.L262
.L261:
	.loc 1 75 124 view .LVU3043
	.loc 1 76 4 view .LVU3044
	.loc 1 76 27 is_stmt 0 view .LVU3045
	movl	$32, %ecx
	subl	%r9d, %ecx
	.loc 1 76 39 view .LVU3046
	subl	%r11d, %ecx
	.loc 1 77 14 view .LVU3047
	addl	%r9d, %r11d
.LVL470:
	.loc 1 76 20 view .LVU3048
	sall	%cl, %r8d
.LVL471:
	.loc 1 76 20 view .LVU3049
.LBE572:
.LBE571:
	.loc 1 571 177 view .LVU3050
	movzwl	32(%rbp,%rdi), %ecx
.LBB574:
.LBB573:
	.loc 1 77 14 view .LVU3051
	movl	%r11d, 644(%rbx)
	.loc 1 76 14 view .LVU3052
	orl	%eax, %r8d
	movl	%r8d, 640(%rbx)
	.loc 1 77 4 is_stmt 1 view .LVU3053
.LVL472:
	.loc 1 77 4 is_stmt 0 view .LVU3054
.LBE573:
.LBE574:
	.loc 1 571 101 is_stmt 1 view .LVU3055
	.loc 1 571 125 view .LVU3056
	movl	(%rsi,%rcx,4), %eax
	movzbl	(%rdx,%rcx), %r9d
.LVL473:
.LBB575:
.LBI575:
	.loc 1 73 6 view .LVU3057
.LBB576:
	.loc 1 75 23 view .LVU3058
	cmpl	$7, %r11d
	jle	.L263
	.loc 1 75 41 is_stmt 0 view .LVU3059
	movl	116(%rbx), %ecx
.LVL474:
.L264:
	.loc 1 75 31 is_stmt 1 view .LVU3060
	.loc 1 75 49 is_stmt 0 view .LVU3061
	movq	80(%rbx), %r11
	.loc 1 75 41 view .LVU3062
	movslq	%ecx, %rcx
	.loc 1 75 69 view .LVU3063
	shrl	$24, %r8d
	.loc 1 75 51 view .LVU3064
	movb	%r8b, (%r11,%rcx)
	.loc 1 75 77 is_stmt 1 view .LVU3065
	.loc 1 75 84 is_stmt 0 view .LVU3066
	movl	116(%rbx), %ecx
	.loc 1 75 98 view .LVU3067
	movl	640(%rbx), %r8d
	.loc 1 75 115 view .LVU3068
	movl	644(%rbx), %r11d
	.loc 1 75 84 view .LVU3069
	addl	$1, %ecx
	.loc 1 75 98 view .LVU3070
	sall	$8, %r8d
	.loc 1 75 115 view .LVU3071
	subl	$8, %r11d
	.loc 1 75 84 view .LVU3072
	movl	%ecx, 116(%rbx)
	.loc 1 75 88 is_stmt 1 view .LVU3073
	.loc 1 75 98 is_stmt 0 view .LVU3074
	movl	%r8d, 640(%rbx)
	.loc 1 75 105 is_stmt 1 view .LVU3075
	.loc 1 75 115 is_stmt 0 view .LVU3076
	movl	%r11d, 644(%rbx)
	.loc 1 75 23 is_stmt 1 view .LVU3077
	cmpl	$7, %r11d
	jg	.L264
.L263:
	.loc 1 75 124 view .LVU3078
	.loc 1 76 4 view .LVU3079
	.loc 1 76 27 is_stmt 0 view .LVU3080
	movl	$32, %ecx
	subl	%r11d, %ecx
	.loc 1 76 39 view .LVU3081
	subl	%r9d, %ecx
	.loc 1 77 14 view .LVU3082
	addl	%r11d, %r9d
.LVL475:
	.loc 1 76 20 view .LVU3083
	sall	%cl, %eax
.LVL476:
	.loc 1 76 20 view .LVU3084
.LBE576:
.LBE575:
	.loc 1 571 265 view .LVU3085
	movzwl	34(%rbp,%rdi), %ecx
.LBB578:
.LBB577:
	.loc 1 77 14 view .LVU3086
	movl	%r9d, 644(%rbx)
	.loc 1 76 14 view .LVU3087
	orl	%r8d, %eax
	movl	%eax, 640(%rbx)
	.loc 1 77 4 is_stmt 1 view .LVU3088
.LVL477:
	.loc 1 77 4 is_stmt 0 view .LVU3089
.LBE577:
.LBE578:
	.loc 1 571 189 is_stmt 1 view .LVU3090
	.loc 1 571 213 view .LVU3091
	movl	(%rsi,%rcx,4), %r8d
	movzbl	(%rdx,%rcx), %r11d
.LVL478:
.LBB579:
.LBI579:
	.loc 1 73 6 view .LVU3092
.LBB580:
	.loc 1 75 23 view .LVU3093
	cmpl	$7, %r9d
	jle	.L265
	.loc 1 75 41 is_stmt 0 view .LVU3094
	movl	116(%rbx), %ecx
.LVL479:
.L266:
	.loc 1 75 31 is_stmt 1 view .LVU3095
	.loc 1 75 49 is_stmt 0 view .LVU3096
	movq	80(%rbx), %r9
	.loc 1 75 41 view .LVU3097
	movslq	%ecx, %rcx
	.loc 1 75 69 view .LVU3098
	shrl	$24, %eax
	.loc 1 75 51 view .LVU3099
	movb	%al, (%r9,%rcx)
	.loc 1 75 77 is_stmt 1 view .LVU3100
	.loc 1 75 84 is_stmt 0 view .LVU3101
	movl	116(%rbx), %eax
	.loc 1 75 115 view .LVU3102
	movl	644(%rbx), %r9d
	.loc 1 75 84 view .LVU3103
	leal	1(%rax), %ecx
	.loc 1 75 98 view .LVU3104
	movl	640(%rbx), %eax
	.loc 1 75 115 view .LVU3105
	subl	$8, %r9d
	.loc 1 75 84 view .LVU3106
	movl	%ecx, 116(%rbx)
	.loc 1 75 88 is_stmt 1 view .LVU3107
	.loc 1 75 98 is_stmt 0 view .LVU3108
	sall	$8, %eax
	.loc 1 75 115 view .LVU3109
	movl	%r9d, 644(%rbx)
	.loc 1 75 98 view .LVU3110
	movl	%eax, 640(%rbx)
	.loc 1 75 105 is_stmt 1 view .LVU3111
	.loc 1 75 23 view .LVU3112
	cmpl	$7, %r9d
	jg	.L266
.L265:
	.loc 1 75 124 view .LVU3113
	.loc 1 76 4 view .LVU3114
	.loc 1 76 27 is_stmt 0 view .LVU3115
	movl	$32, %ecx
	subl	%r9d, %ecx
	.loc 1 76 39 view .LVU3116
	subl	%r11d, %ecx
	.loc 1 77 14 view .LVU3117
	addl	%r9d, %r11d
.LVL480:
	.loc 1 76 20 view .LVU3118
	sall	%cl, %r8d
.LVL481:
	.loc 1 76 20 view .LVU3119
.LBE580:
.LBE579:
	.loc 1 571 353 view .LVU3120
	movzwl	36(%rbp,%rdi), %ecx
.LBB582:
.LBB581:
	.loc 1 77 14 view .LVU3121
	movl	%r11d, 644(%rbx)
	.loc 1 76 14 view .LVU3122
	orl	%eax, %r8d
	movl	%r8d, 640(%rbx)
	.loc 1 77 4 is_stmt 1 view .LVU3123
.LVL482:
	.loc 1 77 4 is_stmt 0 view .LVU3124
.LBE581:
.LBE582:
	.loc 1 571 277 is_stmt 1 view .LVU3125
	.loc 1 571 301 view .LVU3126
	movl	(%rsi,%rcx,4), %eax
	movzbl	(%rdx,%rcx), %r9d
.LVL483:
.LBB583:
.LBI583:
	.loc 1 73 6 view .LVU3127
.LBB584:
	.loc 1 75 23 view .LVU3128
	cmpl	$7, %r11d
	jle	.L267
	.loc 1 75 41 is_stmt 0 view .LVU3129
	movl	116(%rbx), %ecx
.LVL484:
.L268:
	.loc 1 75 31 is_stmt 1 view .LVU3130
	.loc 1 75 49 is_stmt 0 view .LVU3131
	movq	80(%rbx), %r11
	.loc 1 75 41 view .LVU3132
	movslq	%ecx, %rcx
	.loc 1 75 69 view .LVU3133
	shrl	$24, %r8d
	.loc 1 75 51 view .LVU3134
	movb	%r8b, (%r11,%rcx)
	.loc 1 75 77 is_stmt 1 view .LVU3135
	.loc 1 75 84 is_stmt 0 view .LVU3136
	movl	116(%rbx), %ecx
	.loc 1 75 98 view .LVU3137
	movl	640(%rbx), %r8d
	.loc 1 75 115 view .LVU3138
	movl	644(%rbx), %r11d
	.loc 1 75 84 view .LVU3139
	addl	$1, %ecx
	.loc 1 75 98 view .LVU3140
	sall	$8, %r8d
	.loc 1 75 115 view .LVU3141
	subl	$8, %r11d
	.loc 1 75 84 view .LVU3142
	movl	%ecx, 116(%rbx)
	.loc 1 75 88 is_stmt 1 view .LVU3143
	.loc 1 75 98 is_stmt 0 view .LVU3144
	movl	%r8d, 640(%rbx)
	.loc 1 75 105 is_stmt 1 view .LVU3145
	.loc 1 75 115 is_stmt 0 view .LVU3146
	movl	%r11d, 644(%rbx)
	.loc 1 75 23 is_stmt 1 view .LVU3147
	cmpl	$7, %r11d
	jg	.L268
.L267:
	.loc 1 75 124 view .LVU3148
	.loc 1 76 4 view .LVU3149
	.loc 1 76 27 is_stmt 0 view .LVU3150
	movl	$32, %ecx
	subl	%r11d, %ecx
	.loc 1 76 39 view .LVU3151
	subl	%r9d, %ecx
	.loc 1 77 14 view .LVU3152
	addl	%r11d, %r9d
.LVL485:
	.loc 1 76 20 view .LVU3153
	sall	%cl, %eax
.LVL486:
	.loc 1 76 20 view .LVU3154
.LBE584:
.LBE583:
	.loc 1 571 441 view .LVU3155
	movzwl	38(%rbp,%rdi), %ecx
.LBB586:
.LBB585:
	.loc 1 77 14 view .LVU3156
	movl	%r9d, 644(%rbx)
	.loc 1 76 14 view .LVU3157
	orl	%r8d, %eax
	movl	%eax, 640(%rbx)
	.loc 1 77 4 is_stmt 1 view .LVU3158
.LVL487:
	.loc 1 77 4 is_stmt 0 view .LVU3159
.LBE585:
.LBE586:
	.loc 1 571 365 is_stmt 1 view .LVU3160
	.loc 1 571 389 view .LVU3161
	movl	(%rsi,%rcx,4), %r8d
	movzbl	(%rdx,%rcx), %r11d
.LVL488:
.LBB587:
.LBI587:
	.loc 1 73 6 view .LVU3162
.LBB588:
	.loc 1 75 23 view .LVU3163
	cmpl	$7, %r9d
	jle	.L269
	.loc 1 75 41 is_stmt 0 view .LVU3164
	movl	116(%rbx), %ecx
.LVL489:
.L270:
	.loc 1 75 31 is_stmt 1 view .LVU3165
	.loc 1 75 49 is_stmt 0 view .LVU3166
	movq	80(%rbx), %r9
	.loc 1 75 41 view .LVU3167
	movslq	%ecx, %rcx
	.loc 1 75 69 view .LVU3168
	shrl	$24, %eax
	.loc 1 75 51 view .LVU3169
	movb	%al, (%r9,%rcx)
	.loc 1 75 77 is_stmt 1 view .LVU3170
	.loc 1 75 84 is_stmt 0 view .LVU3171
	movl	116(%rbx), %eax
	.loc 1 75 115 view .LVU3172
	movl	644(%rbx), %r9d
	.loc 1 75 84 view .LVU3173
	leal	1(%rax), %ecx
	.loc 1 75 98 view .LVU3174
	movl	640(%rbx), %eax
	.loc 1 75 115 view .LVU3175
	subl	$8, %r9d
	.loc 1 75 84 view .LVU3176
	movl	%ecx, 116(%rbx)
	.loc 1 75 88 is_stmt 1 view .LVU3177
	.loc 1 75 98 is_stmt 0 view .LVU3178
	sall	$8, %eax
	.loc 1 75 115 view .LVU3179
	movl	%r9d, 644(%rbx)
	.loc 1 75 98 view .LVU3180
	movl	%eax, 640(%rbx)
	.loc 1 75 105 is_stmt 1 view .LVU3181
	.loc 1 75 23 view .LVU3182
	cmpl	$7, %r9d
	jg	.L270
.L269:
	.loc 1 75 124 view .LVU3183
	.loc 1 76 4 view .LVU3184
	.loc 1 76 27 is_stmt 0 view .LVU3185
	movl	$32, %ecx
	subl	%r9d, %ecx
	.loc 1 76 39 view .LVU3186
	subl	%r11d, %ecx
	.loc 1 77 14 view .LVU3187
	addl	%r9d, %r11d
.LVL490:
	.loc 1 76 20 view .LVU3188
	sall	%cl, %r8d
.LVL491:
	.loc 1 76 20 view .LVU3189
.LBE588:
.LBE587:
	.loc 1 572 89 view .LVU3190
	movzwl	40(%rbp,%rdi), %ecx
.LBB590:
.LBB589:
	.loc 1 77 14 view .LVU3191
	movl	%r11d, 644(%rbx)
	.loc 1 76 14 view .LVU3192
	orl	%eax, %r8d
	movl	%r8d, 640(%rbx)
	.loc 1 77 4 is_stmt 1 view .LVU3193
.LVL492:
	.loc 1 77 4 is_stmt 0 view .LVU3194
.LBE589:
.LBE590:
	.loc 1 572 13 is_stmt 1 view .LVU3195
	.loc 1 572 37 view .LVU3196
	movl	(%rsi,%rcx,4), %eax
	movzbl	(%rdx,%rcx), %r9d
.LVL493:
.LBB591:
.LBI591:
	.loc 1 73 6 view .LVU3197
.LBB592:
	.loc 1 75 23 view .LVU3198
	cmpl	$7, %r11d
	jle	.L271
	.loc 1 75 41 is_stmt 0 view .LVU3199
	movl	116(%rbx), %ecx
.LVL494:
.L272:
	.loc 1 75 31 is_stmt 1 view .LVU3200
	.loc 1 75 49 is_stmt 0 view .LVU3201
	movq	80(%rbx), %r11
	.loc 1 75 41 view .LVU3202
	movslq	%ecx, %rcx
	.loc 1 75 69 view .LVU3203
	shrl	$24, %r8d
	.loc 1 75 51 view .LVU3204
	movb	%r8b, (%r11,%rcx)
	.loc 1 75 77 is_stmt 1 view .LVU3205
	.loc 1 75 84 is_stmt 0 view .LVU3206
	movl	116(%rbx), %ecx
	.loc 1 75 98 view .LVU3207
	movl	640(%rbx), %r8d
	.loc 1 75 115 view .LVU3208
	movl	644(%rbx), %r11d
	.loc 1 75 84 view .LVU3209
	addl	$1, %ecx
	.loc 1 75 98 view .LVU3210
	sall	$8, %r8d
	.loc 1 75 115 view .LVU3211
	subl	$8, %r11d
	.loc 1 75 84 view .LVU3212
	movl	%ecx, 116(%rbx)
	.loc 1 75 88 is_stmt 1 view .LVU3213
	.loc 1 75 98 is_stmt 0 view .LVU3214
	movl	%r8d, 640(%rbx)
	.loc 1 75 105 is_stmt 1 view .LVU3215
	.loc 1 75 115 is_stmt 0 view .LVU3216
	movl	%r11d, 644(%rbx)
	.loc 1 75 23 is_stmt 1 view .LVU3217
	cmpl	$7, %r11d
	jg	.L272
.L271:
	.loc 1 75 124 view .LVU3218
	.loc 1 76 4 view .LVU3219
	.loc 1 76 27 is_stmt 0 view .LVU3220
	movl	$32, %ecx
	subl	%r11d, %ecx
	.loc 1 76 39 view .LVU3221
	subl	%r9d, %ecx
	.loc 1 77 14 view .LVU3222
	addl	%r11d, %r9d
.LVL495:
	.loc 1 76 20 view .LVU3223
	sall	%cl, %eax
.LVL496:
	.loc 1 76 20 view .LVU3224
.LBE592:
.LBE591:
	.loc 1 572 177 view .LVU3225
	movzwl	42(%rbp,%rdi), %ecx
.LBB594:
.LBB593:
	.loc 1 77 14 view .LVU3226
	movl	%r9d, 644(%rbx)
	.loc 1 76 14 view .LVU3227
	orl	%r8d, %eax
	movl	%eax, 640(%rbx)
	.loc 1 77 4 is_stmt 1 view .LVU3228
.LVL497:
	.loc 1 77 4 is_stmt 0 view .LVU3229
.LBE593:
.LBE594:
	.loc 1 572 101 is_stmt 1 view .LVU3230
	.loc 1 572 125 view .LVU3231
	movl	(%rsi,%rcx,4), %r8d
	movzbl	(%rdx,%rcx), %r11d
.LVL498:
.LBB595:
.LBI595:
	.loc 1 73 6 view .LVU3232
.LBB596:
	.loc 1 75 23 view .LVU3233
	cmpl	$7, %r9d
	jle	.L273
	.loc 1 75 41 is_stmt 0 view .LVU3234
	movl	116(%rbx), %ecx
.LVL499:
.L274:
	.loc 1 75 31 is_stmt 1 view .LVU3235
	.loc 1 75 49 is_stmt 0 view .LVU3236
	movq	80(%rbx), %r9
	.loc 1 75 41 view .LVU3237
	movslq	%ecx, %rcx
	.loc 1 75 69 view .LVU3238
	shrl	$24, %eax
	.loc 1 75 51 view .LVU3239
	movb	%al, (%r9,%rcx)
	.loc 1 75 77 is_stmt 1 view .LVU3240
	.loc 1 75 84 is_stmt 0 view .LVU3241
	movl	116(%rbx), %eax
	.loc 1 75 115 view .LVU3242
	movl	644(%rbx), %r9d
	.loc 1 75 84 view .LVU3243
	leal	1(%rax), %ecx
	.loc 1 75 98 view .LVU3244
	movl	640(%rbx), %eax
	.loc 1 75 115 view .LVU3245
	subl	$8, %r9d
	.loc 1 75 84 view .LVU3246
	movl	%ecx, 116(%rbx)
	.loc 1 75 88 is_stmt 1 view .LVU3247
	.loc 1 75 98 is_stmt 0 view .LVU3248
	sall	$8, %eax
	.loc 1 75 115 view .LVU3249
	movl	%r9d, 644(%rbx)
	.loc 1 75 98 view .LVU3250
	movl	%eax, 640(%rbx)
	.loc 1 75 105 is_stmt 1 view .LVU3251
	.loc 1 75 23 view .LVU3252
	cmpl	$7, %r9d
	jg	.L274
.L273:
	.loc 1 75 124 view .LVU3253
	.loc 1 76 4 view .LVU3254
	.loc 1 76 27 is_stmt 0 view .LVU3255
	movl	$32, %ecx
	subl	%r9d, %ecx
	.loc 1 76 39 view .LVU3256
	subl	%r11d, %ecx
	.loc 1 77 14 view .LVU3257
	addl	%r9d, %r11d
.LVL500:
	.loc 1 76 20 view .LVU3258
	sall	%cl, %r8d
.LVL501:
	.loc 1 76 20 view .LVU3259
.LBE596:
.LBE595:
	.loc 1 572 265 view .LVU3260
	movzwl	44(%rbp,%rdi), %ecx
.LBB598:
.LBB597:
	.loc 1 77 14 view .LVU3261
	movl	%r11d, 644(%rbx)
	.loc 1 76 14 view .LVU3262
	orl	%eax, %r8d
	movl	%r8d, 640(%rbx)
	.loc 1 77 4 is_stmt 1 view .LVU3263
.LVL502:
	.loc 1 77 4 is_stmt 0 view .LVU3264
.LBE597:
.LBE598:
	.loc 1 572 189 is_stmt 1 view .LVU3265
	.loc 1 572 213 view .LVU3266
	movl	(%rsi,%rcx,4), %eax
	movzbl	(%rdx,%rcx), %r9d
.LVL503:
.LBB599:
.LBI599:
	.loc 1 73 6 view .LVU3267
.LBB600:
	.loc 1 75 23 view .LVU3268
	cmpl	$7, %r11d
	jle	.L275
	.loc 1 75 41 is_stmt 0 view .LVU3269
	movl	116(%rbx), %ecx
.LVL504:
.L276:
	.loc 1 75 31 is_stmt 1 view .LVU3270
	.loc 1 75 49 is_stmt 0 view .LVU3271
	movq	80(%rbx), %r11
	.loc 1 75 41 view .LVU3272
	movslq	%ecx, %rcx
	.loc 1 75 69 view .LVU3273
	shrl	$24, %r8d
	.loc 1 75 51 view .LVU3274
	movb	%r8b, (%r11,%rcx)
	.loc 1 75 77 is_stmt 1 view .LVU3275
	.loc 1 75 84 is_stmt 0 view .LVU3276
	movl	116(%rbx), %ecx
	.loc 1 75 98 view .LVU3277
	movl	640(%rbx), %r8d
	.loc 1 75 115 view .LVU3278
	movl	644(%rbx), %r11d
	.loc 1 75 84 view .LVU3279
	addl	$1, %ecx
	.loc 1 75 98 view .LVU3280
	sall	$8, %r8d
	.loc 1 75 115 view .LVU3281
	subl	$8, %r11d
	.loc 1 75 84 view .LVU3282
	movl	%ecx, 116(%rbx)
	.loc 1 75 88 is_stmt 1 view .LVU3283
	.loc 1 75 98 is_stmt 0 view .LVU3284
	movl	%r8d, 640(%rbx)
	.loc 1 75 105 is_stmt 1 view .LVU3285
	.loc 1 75 115 is_stmt 0 view .LVU3286
	movl	%r11d, 644(%rbx)
	.loc 1 75 23 is_stmt 1 view .LVU3287
	cmpl	$7, %r11d
	jg	.L276
.L275:
	.loc 1 75 124 view .LVU3288
	.loc 1 76 4 view .LVU3289
	.loc 1 76 27 is_stmt 0 view .LVU3290
	movl	$32, %ecx
	subl	%r11d, %ecx
	.loc 1 76 39 view .LVU3291
	subl	%r9d, %ecx
	.loc 1 77 14 view .LVU3292
	addl	%r11d, %r9d
.LVL505:
	.loc 1 76 20 view .LVU3293
	sall	%cl, %eax
.LVL506:
	.loc 1 76 20 view .LVU3294
.LBE600:
.LBE599:
	.loc 1 572 353 view .LVU3295
	movzwl	46(%rbp,%rdi), %ecx
.LBB602:
.LBB601:
	.loc 1 77 14 view .LVU3296
	movl	%r9d, 644(%rbx)
	.loc 1 76 14 view .LVU3297
	orl	%r8d, %eax
	movl	%eax, 640(%rbx)
	.loc 1 77 4 is_stmt 1 view .LVU3298
.LVL507:
	.loc 1 77 4 is_stmt 0 view .LVU3299
.LBE601:
.LBE602:
	.loc 1 572 277 is_stmt 1 view .LVU3300
	.loc 1 572 301 view .LVU3301
	movl	(%rsi,%rcx,4), %r8d
	movzbl	(%rdx,%rcx), %r11d
.LVL508:
.LBB603:
.LBI603:
	.loc 1 73 6 view .LVU3302
.LBB604:
	.loc 1 75 23 view .LVU3303
	cmpl	$7, %r9d
	jle	.L277
	.loc 1 75 41 is_stmt 0 view .LVU3304
	movl	116(%rbx), %ecx
.LVL509:
.L278:
	.loc 1 75 31 is_stmt 1 view .LVU3305
	.loc 1 75 49 is_stmt 0 view .LVU3306
	movq	80(%rbx), %r9
	.loc 1 75 41 view .LVU3307
	movslq	%ecx, %rcx
	.loc 1 75 69 view .LVU3308
	shrl	$24, %eax
	.loc 1 75 51 view .LVU3309
	movb	%al, (%r9,%rcx)
	.loc 1 75 77 is_stmt 1 view .LVU3310
	.loc 1 75 84 is_stmt 0 view .LVU3311
	movl	116(%rbx), %eax
	.loc 1 75 115 view .LVU3312
	movl	644(%rbx), %r9d
	.loc 1 75 84 view .LVU3313
	leal	1(%rax), %ecx
	.loc 1 75 98 view .LVU3314
	movl	640(%rbx), %eax
	.loc 1 75 115 view .LVU3315
	subl	$8, %r9d
	.loc 1 75 84 view .LVU3316
	movl	%ecx, 116(%rbx)
	.loc 1 75 88 is_stmt 1 view .LVU3317
	.loc 1 75 98 is_stmt 0 view .LVU3318
	sall	$8, %eax
	.loc 1 75 115 view .LVU3319
	movl	%r9d, 644(%rbx)
	.loc 1 75 98 view .LVU3320
	movl	%eax, 640(%rbx)
	.loc 1 75 105 is_stmt 1 view .LVU3321
	.loc 1 75 23 view .LVU3322
	cmpl	$7, %r9d
	jg	.L278
.L277:
	.loc 1 75 124 view .LVU3323
	.loc 1 76 4 view .LVU3324
	.loc 1 76 27 is_stmt 0 view .LVU3325
	movl	$32, %ecx
	subl	%r9d, %ecx
	.loc 1 76 39 view .LVU3326
	subl	%r11d, %ecx
	.loc 1 77 14 view .LVU3327
	addl	%r9d, %r11d
.LVL510:
	.loc 1 76 20 view .LVU3328
	sall	%cl, %r8d
.LVL511:
	.loc 1 76 20 view .LVU3329
.LBE604:
.LBE603:
	.loc 1 572 441 view .LVU3330
	movzwl	48(%rbp,%rdi), %ecx
.LBB606:
.LBB605:
	.loc 1 77 14 view .LVU3331
	movl	%r11d, 644(%rbx)
	.loc 1 76 14 view .LVU3332
	orl	%eax, %r8d
	movl	%r8d, 640(%rbx)
	.loc 1 77 4 is_stmt 1 view .LVU3333
.LVL512:
	.loc 1 77 4 is_stmt 0 view .LVU3334
.LBE605:
.LBE606:
	.loc 1 572 365 is_stmt 1 view .LVU3335
	.loc 1 572 389 view .LVU3336
	movl	(%rsi,%rcx,4), %eax
	movzbl	(%rdx,%rcx), %r9d
.LVL513:
.LBB607:
.LBI607:
	.loc 1 73 6 view .LVU3337
.LBB608:
	.loc 1 75 23 view .LVU3338
	cmpl	$7, %r11d
	jle	.L279
	.loc 1 75 41 is_stmt 0 view .LVU3339
	movl	116(%rbx), %ecx
.LVL514:
.L280:
	.loc 1 75 31 is_stmt 1 view .LVU3340
	.loc 1 75 49 is_stmt 0 view .LVU3341
	movq	80(%rbx), %r11
	.loc 1 75 41 view .LVU3342
	movslq	%ecx, %rcx
	.loc 1 75 69 view .LVU3343
	shrl	$24, %r8d
	.loc 1 75 51 view .LVU3344
	movb	%r8b, (%r11,%rcx)
	.loc 1 75 77 is_stmt 1 view .LVU3345
	.loc 1 75 84 is_stmt 0 view .LVU3346
	movl	116(%rbx), %ecx
	.loc 1 75 98 view .LVU3347
	movl	640(%rbx), %r8d
	.loc 1 75 115 view .LVU3348
	movl	644(%rbx), %r11d
	.loc 1 75 84 view .LVU3349
	addl	$1, %ecx
	.loc 1 75 98 view .LVU3350
	sall	$8, %r8d
	.loc 1 75 115 view .LVU3351
	subl	$8, %r11d
	.loc 1 75 84 view .LVU3352
	movl	%ecx, 116(%rbx)
	.loc 1 75 88 is_stmt 1 view .LVU3353
	.loc 1 75 98 is_stmt 0 view .LVU3354
	movl	%r8d, 640(%rbx)
	.loc 1 75 105 is_stmt 1 view .LVU3355
	.loc 1 75 115 is_stmt 0 view .LVU3356
	movl	%r11d, 644(%rbx)
	.loc 1 75 23 is_stmt 1 view .LVU3357
	cmpl	$7, %r11d
	jg	.L280
.L279:
	.loc 1 75 124 view .LVU3358
	.loc 1 76 4 view .LVU3359
	.loc 1 76 27 is_stmt 0 view .LVU3360
	movl	$32, %ecx
	subl	%r11d, %ecx
	.loc 1 76 39 view .LVU3361
	subl	%r9d, %ecx
	.loc 1 77 14 view .LVU3362
	addl	%r11d, %r9d
.LVL515:
	.loc 1 76 20 view .LVU3363
	sall	%cl, %eax
.LVL516:
	.loc 1 76 20 view .LVU3364
.LBE608:
.LBE607:
	.loc 1 573 89 view .LVU3365
	movzwl	50(%rbp,%rdi), %ecx
.LBB610:
.LBB609:
	.loc 1 77 14 view .LVU3366
	movl	%r9d, 644(%rbx)
	.loc 1 76 14 view .LVU3367
	orl	%r8d, %eax
	movl	%eax, 640(%rbx)
	.loc 1 77 4 is_stmt 1 view .LVU3368
.LVL517:
	.loc 1 77 4 is_stmt 0 view .LVU3369
.LBE609:
.LBE610:
	.loc 1 573 13 is_stmt 1 view .LVU3370
	.loc 1 573 37 view .LVU3371
	movl	(%rsi,%rcx,4), %r8d
	movzbl	(%rdx,%rcx), %r11d
.LVL518:
.LBB611:
.LBI611:
	.loc 1 73 6 view .LVU3372
.LBB612:
	.loc 1 75 23 view .LVU3373
	cmpl	$7, %r9d
	jle	.L281
	.loc 1 75 41 is_stmt 0 view .LVU3374
	movl	116(%rbx), %ecx
.LVL519:
.L282:
	.loc 1 75 31 is_stmt 1 view .LVU3375
	.loc 1 75 49 is_stmt 0 view .LVU3376
	movq	80(%rbx), %r9
	.loc 1 75 41 view .LVU3377
	movslq	%ecx, %rcx
	.loc 1 75 69 view .LVU3378
	shrl	$24, %eax
	.loc 1 75 51 view .LVU3379
	movb	%al, (%r9,%rcx)
	.loc 1 75 77 is_stmt 1 view .LVU3380
	.loc 1 75 84 is_stmt 0 view .LVU3381
	movl	116(%rbx), %eax
	.loc 1 75 115 view .LVU3382
	movl	644(%rbx), %r9d
	.loc 1 75 84 view .LVU3383
	leal	1(%rax), %ecx
	.loc 1 75 98 view .LVU3384
	movl	640(%rbx), %eax
	.loc 1 75 115 view .LVU3385
	subl	$8, %r9d
	.loc 1 75 84 view .LVU3386
	movl	%ecx, 116(%rbx)
	.loc 1 75 88 is_stmt 1 view .LVU3387
	.loc 1 75 98 is_stmt 0 view .LVU3388
	sall	$8, %eax
	.loc 1 75 115 view .LVU3389
	movl	%r9d, 644(%rbx)
	.loc 1 75 98 view .LVU3390
	movl	%eax, 640(%rbx)
	.loc 1 75 105 is_stmt 1 view .LVU3391
	.loc 1 75 23 view .LVU3392
	cmpl	$7, %r9d
	jg	.L282
.L281:
	.loc 1 75 124 view .LVU3393
	.loc 1 76 4 view .LVU3394
	.loc 1 76 27 is_stmt 0 view .LVU3395
	movl	$32, %ecx
	subl	%r9d, %ecx
	.loc 1 76 39 view .LVU3396
	subl	%r11d, %ecx
	.loc 1 77 14 view .LVU3397
	addl	%r9d, %r11d
.LVL520:
	.loc 1 76 20 view .LVU3398
	sall	%cl, %r8d
.LVL521:
	.loc 1 76 20 view .LVU3399
.LBE612:
.LBE611:
	.loc 1 573 177 view .LVU3400
	movzwl	52(%rbp,%rdi), %ecx
.LBB614:
.LBB613:
	.loc 1 77 14 view .LVU3401
	movl	%r11d, 644(%rbx)
	.loc 1 76 14 view .LVU3402
	orl	%eax, %r8d
	movl	%r8d, 640(%rbx)
	.loc 1 77 4 is_stmt 1 view .LVU3403
.LVL522:
	.loc 1 77 4 is_stmt 0 view .LVU3404
.LBE613:
.LBE614:
	.loc 1 573 101 is_stmt 1 view .LVU3405
	.loc 1 573 125 view .LVU3406
	movl	(%rsi,%rcx,4), %eax
	movzbl	(%rdx,%rcx), %r9d
.LVL523:
.LBB615:
.LBI615:
	.loc 1 73 6 view .LVU3407
.LBB616:
	.loc 1 75 23 view .LVU3408
	cmpl	$7, %r11d
	jle	.L283
	.loc 1 75 41 is_stmt 0 view .LVU3409
	movl	116(%rbx), %ecx
.LVL524:
.L284:
	.loc 1 75 31 is_stmt 1 view .LVU3410
	.loc 1 75 49 is_stmt 0 view .LVU3411
	movq	80(%rbx), %r11
	.loc 1 75 41 view .LVU3412
	movslq	%ecx, %rcx
	.loc 1 75 69 view .LVU3413
	shrl	$24, %r8d
	.loc 1 75 51 view .LVU3414
	movb	%r8b, (%r11,%rcx)
	.loc 1 75 77 is_stmt 1 view .LVU3415
	.loc 1 75 84 is_stmt 0 view .LVU3416
	movl	116(%rbx), %ecx
	.loc 1 75 98 view .LVU3417
	movl	640(%rbx), %r8d
	.loc 1 75 115 view .LVU3418
	movl	644(%rbx), %r11d
	.loc 1 75 84 view .LVU3419
	addl	$1, %ecx
	.loc 1 75 98 view .LVU3420
	sall	$8, %r8d
	.loc 1 75 115 view .LVU3421
	subl	$8, %r11d
	.loc 1 75 84 view .LVU3422
	movl	%ecx, 116(%rbx)
	.loc 1 75 88 is_stmt 1 view .LVU3423
	.loc 1 75 98 is_stmt 0 view .LVU3424
	movl	%r8d, 640(%rbx)
	.loc 1 75 105 is_stmt 1 view .LVU3425
	.loc 1 75 115 is_stmt 0 view .LVU3426
	movl	%r11d, 644(%rbx)
	.loc 1 75 23 is_stmt 1 view .LVU3427
	cmpl	$7, %r11d
	jg	.L284
.L283:
	.loc 1 75 124 view .LVU3428
	.loc 1 76 4 view .LVU3429
	.loc 1 76 27 is_stmt 0 view .LVU3430
	movl	$32, %ecx
	subl	%r11d, %ecx
	.loc 1 76 39 view .LVU3431
	subl	%r9d, %ecx
	.loc 1 77 14 view .LVU3432
	addl	%r11d, %r9d
.LVL525:
	.loc 1 76 20 view .LVU3433
	sall	%cl, %eax
.LVL526:
	.loc 1 76 20 view .LVU3434
.LBE616:
.LBE615:
	.loc 1 573 265 view .LVU3435
	movzwl	54(%rbp,%rdi), %ecx
.LBB618:
.LBB617:
	.loc 1 77 14 view .LVU3436
	movl	%r9d, 644(%rbx)
	.loc 1 76 14 view .LVU3437
	orl	%r8d, %eax
	movl	%eax, 640(%rbx)
	.loc 1 77 4 is_stmt 1 view .LVU3438
.LVL527:
	.loc 1 77 4 is_stmt 0 view .LVU3439
.LBE617:
.LBE618:
	.loc 1 573 189 is_stmt 1 view .LVU3440
	.loc 1 573 213 view .LVU3441
	movl	(%rsi,%rcx,4), %r8d
	movzbl	(%rdx,%rcx), %r11d
.LVL528:
.LBB619:
.LBI619:
	.loc 1 73 6 view .LVU3442
.LBB620:
	.loc 1 75 23 view .LVU3443
	cmpl	$7, %r9d
	jle	.L285
	.loc 1 75 41 is_stmt 0 view .LVU3444
	movl	116(%rbx), %ecx
.LVL529:
.L286:
	.loc 1 75 31 is_stmt 1 view .LVU3445
	.loc 1 75 49 is_stmt 0 view .LVU3446
	movq	80(%rbx), %r9
	.loc 1 75 41 view .LVU3447
	movslq	%ecx, %rcx
	.loc 1 75 69 view .LVU3448
	shrl	$24, %eax
	.loc 1 75 51 view .LVU3449
	movb	%al, (%r9,%rcx)
	.loc 1 75 77 is_stmt 1 view .LVU3450
	.loc 1 75 84 is_stmt 0 view .LVU3451
	movl	116(%rbx), %eax
	.loc 1 75 115 view .LVU3452
	movl	644(%rbx), %r9d
	.loc 1 75 84 view .LVU3453
	leal	1(%rax), %ecx
	.loc 1 75 98 view .LVU3454
	movl	640(%rbx), %eax
	.loc 1 75 115 view .LVU3455
	subl	$8, %r9d
	.loc 1 75 84 view .LVU3456
	movl	%ecx, 116(%rbx)
	.loc 1 75 88 is_stmt 1 view .LVU3457
	.loc 1 75 98 is_stmt 0 view .LVU3458
	sall	$8, %eax
	.loc 1 75 115 view .LVU3459
	movl	%r9d, 644(%rbx)
	.loc 1 75 98 view .LVU3460
	movl	%eax, 640(%rbx)
	.loc 1 75 105 is_stmt 1 view .LVU3461
	.loc 1 75 23 view .LVU3462
	cmpl	$7, %r9d
	jg	.L286
.L285:
	.loc 1 75 124 view .LVU3463
	.loc 1 76 4 view .LVU3464
	.loc 1 76 27 is_stmt 0 view .LVU3465
	movl	$32, %ecx
	subl	%r9d, %ecx
	.loc 1 76 39 view .LVU3466
	subl	%r11d, %ecx
	.loc 1 77 14 view .LVU3467
	addl	%r9d, %r11d
.LVL530:
	.loc 1 76 20 view .LVU3468
	sall	%cl, %r8d
.LVL531:
	.loc 1 76 20 view .LVU3469
.LBE620:
.LBE619:
	.loc 1 573 353 view .LVU3470
	movzwl	56(%rbp,%rdi), %ecx
.LBB622:
.LBB621:
	.loc 1 77 14 view .LVU3471
	movl	%r11d, 644(%rbx)
	.loc 1 76 14 view .LVU3472
	orl	%eax, %r8d
	movl	%r8d, 640(%rbx)
	.loc 1 77 4 is_stmt 1 view .LVU3473
.LVL532:
	.loc 1 77 4 is_stmt 0 view .LVU3474
.LBE621:
.LBE622:
	.loc 1 573 277 is_stmt 1 view .LVU3475
	.loc 1 573 301 view .LVU3476
	movl	(%rsi,%rcx,4), %eax
	movzbl	(%rdx,%rcx), %r9d
.LVL533:
.LBB623:
.LBI623:
	.loc 1 73 6 view .LVU3477
.LBB624:
	.loc 1 75 23 view .LVU3478
	cmpl	$7, %r11d
	jle	.L287
	.loc 1 75 41 is_stmt 0 view .LVU3479
	movl	116(%rbx), %ecx
.LVL534:
.L288:
	.loc 1 75 31 is_stmt 1 view .LVU3480
	.loc 1 75 49 is_stmt 0 view .LVU3481
	movq	80(%rbx), %r11
	.loc 1 75 41 view .LVU3482
	movslq	%ecx, %rcx
	.loc 1 75 69 view .LVU3483
	shrl	$24, %r8d
	.loc 1 75 51 view .LVU3484
	movb	%r8b, (%r11,%rcx)
	.loc 1 75 77 is_stmt 1 view .LVU3485
	.loc 1 75 84 is_stmt 0 view .LVU3486
	movl	116(%rbx), %ecx
	.loc 1 75 98 view .LVU3487
	movl	640(%rbx), %r8d
	.loc 1 75 115 view .LVU3488
	movl	644(%rbx), %r11d
	.loc 1 75 84 view .LVU3489
	addl	$1, %ecx
	.loc 1 75 98 view .LVU3490
	sall	$8, %r8d
	.loc 1 75 115 view .LVU3491
	subl	$8, %r11d
	.loc 1 75 84 view .LVU3492
	movl	%ecx, 116(%rbx)
	.loc 1 75 88 is_stmt 1 view .LVU3493
	.loc 1 75 98 is_stmt 0 view .LVU3494
	movl	%r8d, 640(%rbx)
	.loc 1 75 105 is_stmt 1 view .LVU3495
	.loc 1 75 115 is_stmt 0 view .LVU3496
	movl	%r11d, 644(%rbx)
	.loc 1 75 23 is_stmt 1 view .LVU3497
	cmpl	$7, %r11d
	jg	.L288
.L287:
	.loc 1 75 124 view .LVU3498
	.loc 1 76 4 view .LVU3499
	.loc 1 76 27 is_stmt 0 view .LVU3500
	movl	$32, %ecx
	subl	%r11d, %ecx
	.loc 1 76 39 view .LVU3501
	subl	%r9d, %ecx
	.loc 1 77 14 view .LVU3502
	addl	%r11d, %r9d
.LVL535:
	.loc 1 76 20 view .LVU3503
	sall	%cl, %eax
.LVL536:
	.loc 1 76 20 view .LVU3504
.LBE624:
.LBE623:
	.loc 1 573 441 view .LVU3505
	movzwl	58(%rbp,%rdi), %ecx
.LBB626:
.LBB625:
	.loc 1 77 14 view .LVU3506
	movl	%r9d, 644(%rbx)
	.loc 1 76 14 view .LVU3507
	orl	%r8d, %eax
	movl	%eax, 640(%rbx)
	.loc 1 77 4 is_stmt 1 view .LVU3508
.LVL537:
	.loc 1 77 4 is_stmt 0 view .LVU3509
.LBE625:
.LBE626:
	.loc 1 573 365 is_stmt 1 view .LVU3510
	.loc 1 573 389 view .LVU3511
	movl	(%rsi,%rcx,4), %r8d
	movzbl	(%rdx,%rcx), %r11d
.LVL538:
.LBB627:
.LBI627:
	.loc 1 73 6 view .LVU3512
.LBB628:
	.loc 1 75 23 view .LVU3513
	cmpl	$7, %r9d
	jle	.L289
	.loc 1 75 41 is_stmt 0 view .LVU3514
	movl	116(%rbx), %ecx
.LVL539:
.L290:
	.loc 1 75 31 is_stmt 1 view .LVU3515
	.loc 1 75 49 is_stmt 0 view .LVU3516
	movq	80(%rbx), %r9
	.loc 1 75 41 view .LVU3517
	movslq	%ecx, %rcx
	.loc 1 75 69 view .LVU3518
	shrl	$24, %eax
	.loc 1 75 51 view .LVU3519
	movb	%al, (%r9,%rcx)
	.loc 1 75 77 is_stmt 1 view .LVU3520
	.loc 1 75 84 is_stmt 0 view .LVU3521
	movl	116(%rbx), %eax
	.loc 1 75 115 view .LVU3522
	movl	644(%rbx), %r9d
	.loc 1 75 84 view .LVU3523
	leal	1(%rax), %ecx
	.loc 1 75 98 view .LVU3524
	movl	640(%rbx), %eax
	.loc 1 75 115 view .LVU3525
	subl	$8, %r9d
	.loc 1 75 84 view .LVU3526
	movl	%ecx, 116(%rbx)
	.loc 1 75 88 is_stmt 1 view .LVU3527
	.loc 1 75 98 is_stmt 0 view .LVU3528
	sall	$8, %eax
	.loc 1 75 115 view .LVU3529
	movl	%r9d, 644(%rbx)
	.loc 1 75 98 view .LVU3530
	movl	%eax, 640(%rbx)
	.loc 1 75 105 is_stmt 1 view .LVU3531
	.loc 1 75 23 view .LVU3532
	cmpl	$7, %r9d
	jg	.L290
.L289:
	.loc 1 75 124 view .LVU3533
	.loc 1 76 4 view .LVU3534
	.loc 1 76 27 is_stmt 0 view .LVU3535
	movl	$32, %ecx
	subl	%r9d, %ecx
	.loc 1 76 39 view .LVU3536
	subl	%r11d, %ecx
	.loc 1 77 14 view .LVU3537
	addl	%r9d, %r11d
.LVL540:
	.loc 1 76 20 view .LVU3538
	sall	%cl, %r8d
.LVL541:
	.loc 1 76 20 view .LVU3539
.LBE628:
.LBE627:
	.loc 1 574 89 view .LVU3540
	movzwl	60(%rbp,%rdi), %ecx
.LBB630:
.LBB629:
	.loc 1 77 14 view .LVU3541
	movl	%r11d, 644(%rbx)
	.loc 1 76 14 view .LVU3542
	orl	%eax, %r8d
	movl	%r8d, 640(%rbx)
	.loc 1 77 4 is_stmt 1 view .LVU3543
.LVL542:
	.loc 1 77 4 is_stmt 0 view .LVU3544
.LBE629:
.LBE630:
	.loc 1 574 13 is_stmt 1 view .LVU3545
	.loc 1 574 37 view .LVU3546
	movl	(%rsi,%rcx,4), %eax
	movzbl	(%rdx,%rcx), %r9d
.LVL543:
.LBB631:
.LBI631:
	.loc 1 73 6 view .LVU3547
.LBB632:
	.loc 1 75 23 view .LVU3548
	cmpl	$7, %r11d
	jle	.L291
	.loc 1 75 41 is_stmt 0 view .LVU3549
	movl	116(%rbx), %ecx
.LVL544:
.L292:
	.loc 1 75 31 is_stmt 1 view .LVU3550
	.loc 1 75 49 is_stmt 0 view .LVU3551
	movq	80(%rbx), %r11
	.loc 1 75 41 view .LVU3552
	movslq	%ecx, %rcx
	.loc 1 75 69 view .LVU3553
	shrl	$24, %r8d
	.loc 1 75 51 view .LVU3554
	movb	%r8b, (%r11,%rcx)
	.loc 1 75 77 is_stmt 1 view .LVU3555
	.loc 1 75 84 is_stmt 0 view .LVU3556
	movl	116(%rbx), %ecx
	.loc 1 75 98 view .LVU3557
	movl	640(%rbx), %r8d
	.loc 1 75 115 view .LVU3558
	movl	644(%rbx), %r11d
	.loc 1 75 84 view .LVU3559
	addl	$1, %ecx
	.loc 1 75 98 view .LVU3560
	sall	$8, %r8d
	.loc 1 75 115 view .LVU3561
	subl	$8, %r11d
	.loc 1 75 84 view .LVU3562
	movl	%ecx, 116(%rbx)
	.loc 1 75 88 is_stmt 1 view .LVU3563
	.loc 1 75 98 is_stmt 0 view .LVU3564
	movl	%r8d, 640(%rbx)
	.loc 1 75 105 is_stmt 1 view .LVU3565
	.loc 1 75 115 is_stmt 0 view .LVU3566
	movl	%r11d, 644(%rbx)
	.loc 1 75 23 is_stmt 1 view .LVU3567
	cmpl	$7, %r11d
	jg	.L292
.L291:
	.loc 1 75 124 view .LVU3568
	.loc 1 76 4 view .LVU3569
	.loc 1 76 27 is_stmt 0 view .LVU3570
	movl	$32, %ecx
	subl	%r11d, %ecx
	.loc 1 76 39 view .LVU3571
	subl	%r9d, %ecx
	.loc 1 77 14 view .LVU3572
	addl	%r11d, %r9d
.LVL545:
	.loc 1 76 20 view .LVU3573
	sall	%cl, %eax
.LVL546:
	.loc 1 76 20 view .LVU3574
.LBE632:
.LBE631:
	.loc 1 574 177 view .LVU3575
	movzwl	62(%rbp,%rdi), %ecx
.LBB634:
.LBB633:
	.loc 1 77 14 view .LVU3576
	movl	%r9d, 644(%rbx)
	.loc 1 76 14 view .LVU3577
	orl	%r8d, %eax
	movl	%eax, 640(%rbx)
	.loc 1 77 4 is_stmt 1 view .LVU3578
.LVL547:
	.loc 1 77 4 is_stmt 0 view .LVU3579
.LBE633:
.LBE634:
	.loc 1 574 101 is_stmt 1 view .LVU3580
	.loc 1 574 125 view .LVU3581
	movl	(%rsi,%rcx,4), %r8d
	movzbl	(%rdx,%rcx), %r11d
.LVL548:
.LBB635:
.LBI635:
	.loc 1 73 6 view .LVU3582
.LBB636:
	.loc 1 75 23 view .LVU3583
	cmpl	$7, %r9d
	jle	.L293
	.loc 1 75 41 is_stmt 0 view .LVU3584
	movl	116(%rbx), %ecx
.LVL549:
.L294:
	.loc 1 75 31 is_stmt 1 view .LVU3585
	.loc 1 75 49 is_stmt 0 view .LVU3586
	movq	80(%rbx), %r9
	.loc 1 75 41 view .LVU3587
	movslq	%ecx, %rcx
	.loc 1 75 69 view .LVU3588
	shrl	$24, %eax
	.loc 1 75 51 view .LVU3589
	movb	%al, (%r9,%rcx)
	.loc 1 75 77 is_stmt 1 view .LVU3590
	.loc 1 75 84 is_stmt 0 view .LVU3591
	movl	116(%rbx), %eax
	.loc 1 75 115 view .LVU3592
	movl	644(%rbx), %r9d
	.loc 1 75 84 view .LVU3593
	leal	1(%rax), %ecx
	.loc 1 75 98 view .LVU3594
	movl	640(%rbx), %eax
	.loc 1 75 115 view .LVU3595
	subl	$8, %r9d
	.loc 1 75 84 view .LVU3596
	movl	%ecx, 116(%rbx)
	.loc 1 75 88 is_stmt 1 view .LVU3597
	.loc 1 75 98 is_stmt 0 view .LVU3598
	sall	$8, %eax
	.loc 1 75 115 view .LVU3599
	movl	%r9d, 644(%rbx)
	.loc 1 75 98 view .LVU3600
	movl	%eax, 640(%rbx)
	.loc 1 75 105 is_stmt 1 view .LVU3601
	.loc 1 75 23 view .LVU3602
	cmpl	$7, %r9d
	jg	.L294
.L293:
	.loc 1 75 124 view .LVU3603
	.loc 1 76 4 view .LVU3604
	.loc 1 76 27 is_stmt 0 view .LVU3605
	movl	$32, %ecx
	subl	%r9d, %ecx
	.loc 1 76 39 view .LVU3606
	subl	%r11d, %ecx
	.loc 1 77 14 view .LVU3607
	addl	%r9d, %r11d
.LVL550:
	.loc 1 76 20 view .LVU3608
	sall	%cl, %r8d
.LVL551:
	.loc 1 76 20 view .LVU3609
.LBE636:
.LBE635:
	.loc 1 574 265 view .LVU3610
	movzwl	64(%rbp,%rdi), %ecx
.LBB638:
.LBB637:
	.loc 1 77 14 view .LVU3611
	movl	%r11d, 644(%rbx)
	.loc 1 76 14 view .LVU3612
	orl	%eax, %r8d
	movl	%r8d, 640(%rbx)
	.loc 1 77 4 is_stmt 1 view .LVU3613
.LVL552:
	.loc 1 77 4 is_stmt 0 view .LVU3614
.LBE637:
.LBE638:
	.loc 1 574 189 is_stmt 1 view .LVU3615
	.loc 1 574 213 view .LVU3616
	movl	(%rsi,%rcx,4), %eax
	movzbl	(%rdx,%rcx), %r9d
.LVL553:
.LBB639:
.LBI639:
	.loc 1 73 6 view .LVU3617
.LBB640:
	.loc 1 75 23 view .LVU3618
	cmpl	$7, %r11d
	jle	.L295
	.loc 1 75 41 is_stmt 0 view .LVU3619
	movl	116(%rbx), %ecx
.LVL554:
.L296:
	.loc 1 75 31 is_stmt 1 view .LVU3620
	.loc 1 75 49 is_stmt 0 view .LVU3621
	movq	80(%rbx), %r11
	.loc 1 75 41 view .LVU3622
	movslq	%ecx, %rcx
	.loc 1 75 69 view .LVU3623
	shrl	$24, %r8d
	.loc 1 75 51 view .LVU3624
	movb	%r8b, (%r11,%rcx)
	.loc 1 75 77 is_stmt 1 view .LVU3625
	.loc 1 75 84 is_stmt 0 view .LVU3626
	movl	116(%rbx), %ecx
	.loc 1 75 98 view .LVU3627
	movl	640(%rbx), %r8d
	.loc 1 75 115 view .LVU3628
	movl	644(%rbx), %r11d
	.loc 1 75 84 view .LVU3629
	addl	$1, %ecx
	.loc 1 75 98 view .LVU3630
	sall	$8, %r8d
	.loc 1 75 115 view .LVU3631
	subl	$8, %r11d
	.loc 1 75 84 view .LVU3632
	movl	%ecx, 116(%rbx)
	.loc 1 75 88 is_stmt 1 view .LVU3633
	.loc 1 75 98 is_stmt 0 view .LVU3634
	movl	%r8d, 640(%rbx)
	.loc 1 75 105 is_stmt 1 view .LVU3635
	.loc 1 75 115 is_stmt 0 view .LVU3636
	movl	%r11d, 644(%rbx)
	.loc 1 75 23 is_stmt 1 view .LVU3637
	cmpl	$7, %r11d
	jg	.L296
.L295:
	.loc 1 75 124 view .LVU3638
	.loc 1 76 4 view .LVU3639
	.loc 1 76 27 is_stmt 0 view .LVU3640
	movl	$32, %ecx
	subl	%r11d, %ecx
	.loc 1 76 39 view .LVU3641
	subl	%r9d, %ecx
	.loc 1 77 14 view .LVU3642
	addl	%r11d, %r9d
.LVL555:
	.loc 1 76 20 view .LVU3643
	sall	%cl, %eax
.LVL556:
	.loc 1 76 20 view .LVU3644
.LBE640:
.LBE639:
	.loc 1 574 353 view .LVU3645
	movzwl	66(%rbp,%rdi), %ecx
.LBB642:
.LBB641:
	.loc 1 77 14 view .LVU3646
	movl	%r9d, 644(%rbx)
	.loc 1 76 14 view .LVU3647
	orl	%r8d, %eax
	movl	%eax, 640(%rbx)
	.loc 1 77 4 is_stmt 1 view .LVU3648
.LVL557:
	.loc 1 77 4 is_stmt 0 view .LVU3649
.LBE641:
.LBE642:
	.loc 1 574 277 is_stmt 1 view .LVU3650
	.loc 1 574 301 view .LVU3651
	movl	(%rsi,%rcx,4), %r8d
	movzbl	(%rdx,%rcx), %r11d
.LVL558:
.LBB643:
.LBI643:
	.loc 1 73 6 view .LVU3652
.LBB644:
	.loc 1 75 23 view .LVU3653
	cmpl	$7, %r9d
	jle	.L297
	.loc 1 75 41 is_stmt 0 view .LVU3654
	movl	116(%rbx), %ecx
.LVL559:
.L298:
	.loc 1 75 31 is_stmt 1 view .LVU3655
	.loc 1 75 49 is_stmt 0 view .LVU3656
	movq	80(%rbx), %r9
	.loc 1 75 41 view .LVU3657
	movslq	%ecx, %rcx
	.loc 1 75 69 view .LVU3658
	shrl	$24, %eax
	.loc 1 75 51 view .LVU3659
	movb	%al, (%r9,%rcx)
	.loc 1 75 77 is_stmt 1 view .LVU3660
	.loc 1 75 84 is_stmt 0 view .LVU3661
	movl	116(%rbx), %eax
	.loc 1 75 115 view .LVU3662
	movl	644(%rbx), %r9d
	.loc 1 75 84 view .LVU3663
	leal	1(%rax), %ecx
	.loc 1 75 98 view .LVU3664
	movl	640(%rbx), %eax
	.loc 1 75 115 view .LVU3665
	subl	$8, %r9d
	.loc 1 75 84 view .LVU3666
	movl	%ecx, 116(%rbx)
	.loc 1 75 88 is_stmt 1 view .LVU3667
	.loc 1 75 98 is_stmt 0 view .LVU3668
	sall	$8, %eax
	.loc 1 75 115 view .LVU3669
	movl	%r9d, 644(%rbx)
	.loc 1 75 98 view .LVU3670
	movl	%eax, 640(%rbx)
	.loc 1 75 105 is_stmt 1 view .LVU3671
	.loc 1 75 23 view .LVU3672
	cmpl	$7, %r9d
	jg	.L298
.L297:
	.loc 1 75 124 view .LVU3673
	.loc 1 76 4 view .LVU3674
	.loc 1 76 27 is_stmt 0 view .LVU3675
	movl	$32, %ecx
	subl	%r9d, %ecx
	.loc 1 76 39 view .LVU3676
	subl	%r11d, %ecx
	.loc 1 77 14 view .LVU3677
	addl	%r9d, %r11d
.LVL560:
	.loc 1 76 20 view .LVU3678
	sall	%cl, %r8d
.LVL561:
	.loc 1 76 20 view .LVU3679
.LBE644:
.LBE643:
	.loc 1 574 441 view .LVU3680
	movzwl	68(%rbp,%rdi), %ecx
.LBB646:
.LBB645:
	.loc 1 77 14 view .LVU3681
	movl	%r11d, 644(%rbx)
	.loc 1 76 14 view .LVU3682
	orl	%eax, %r8d
	movl	%r8d, 640(%rbx)
	.loc 1 77 4 is_stmt 1 view .LVU3683
.LVL562:
	.loc 1 77 4 is_stmt 0 view .LVU3684
.LBE645:
.LBE646:
	.loc 1 574 365 is_stmt 1 view .LVU3685
	.loc 1 574 389 view .LVU3686
	movl	(%rsi,%rcx,4), %eax
	movzbl	(%rdx,%rcx), %r9d
.LVL563:
.LBB647:
.LBI647:
	.loc 1 73 6 view .LVU3687
.LBB648:
	.loc 1 75 23 view .LVU3688
	cmpl	$7, %r11d
	jle	.L299
	.loc 1 75 41 is_stmt 0 view .LVU3689
	movl	116(%rbx), %ecx
.LVL564:
.L300:
	.loc 1 75 31 is_stmt 1 view .LVU3690
	.loc 1 75 49 is_stmt 0 view .LVU3691
	movq	80(%rbx), %r11
	.loc 1 75 41 view .LVU3692
	movslq	%ecx, %rcx
	.loc 1 75 69 view .LVU3693
	shrl	$24, %r8d
	.loc 1 75 51 view .LVU3694
	movb	%r8b, (%r11,%rcx)
	.loc 1 75 77 is_stmt 1 view .LVU3695
	.loc 1 75 84 is_stmt 0 view .LVU3696
	movl	116(%rbx), %ecx
	.loc 1 75 98 view .LVU3697
	movl	640(%rbx), %r8d
	.loc 1 75 115 view .LVU3698
	movl	644(%rbx), %r11d
	.loc 1 75 84 view .LVU3699
	addl	$1, %ecx
	.loc 1 75 98 view .LVU3700
	sall	$8, %r8d
	.loc 1 75 115 view .LVU3701
	subl	$8, %r11d
	.loc 1 75 84 view .LVU3702
	movl	%ecx, 116(%rbx)
	.loc 1 75 88 is_stmt 1 view .LVU3703
	.loc 1 75 98 is_stmt 0 view .LVU3704
	movl	%r8d, 640(%rbx)
	.loc 1 75 105 is_stmt 1 view .LVU3705
	.loc 1 75 115 is_stmt 0 view .LVU3706
	movl	%r11d, 644(%rbx)
	.loc 1 75 23 is_stmt 1 view .LVU3707
	cmpl	$7, %r11d
	jg	.L300
.L299:
	.loc 1 75 124 view .LVU3708
	.loc 1 76 4 view .LVU3709
	.loc 1 76 27 is_stmt 0 view .LVU3710
	movl	$32, %ecx
	subl	%r11d, %ecx
	.loc 1 76 39 view .LVU3711
	subl	%r9d, %ecx
	.loc 1 77 14 view .LVU3712
	addl	%r11d, %r9d
.LVL565:
	.loc 1 76 20 view .LVU3713
	sall	%cl, %eax
.LVL566:
	.loc 1 76 20 view .LVU3714
.LBE648:
.LBE647:
	.loc 1 575 89 view .LVU3715
	movzwl	70(%rbp,%rdi), %ecx
.LBB650:
.LBB649:
	.loc 1 77 14 view .LVU3716
	movl	%r9d, 644(%rbx)
	.loc 1 76 14 view .LVU3717
	orl	%r8d, %eax
	movl	%eax, 640(%rbx)
	.loc 1 77 4 is_stmt 1 view .LVU3718
.LVL567:
	.loc 1 77 4 is_stmt 0 view .LVU3719
.LBE649:
.LBE650:
	.loc 1 575 13 is_stmt 1 view .LVU3720
	.loc 1 575 37 view .LVU3721
	movl	(%rsi,%rcx,4), %r8d
	movzbl	(%rdx,%rcx), %r11d
.LVL568:
.LBB651:
.LBI651:
	.loc 1 73 6 view .LVU3722
.LBB652:
	.loc 1 75 23 view .LVU3723
	cmpl	$7, %r9d
	jle	.L301
	.loc 1 75 41 is_stmt 0 view .LVU3724
	movl	116(%rbx), %ecx
.LVL569:
.L302:
	.loc 1 75 31 is_stmt 1 view .LVU3725
	.loc 1 75 49 is_stmt 0 view .LVU3726
	movq	80(%rbx), %r9
	.loc 1 75 41 view .LVU3727
	movslq	%ecx, %rcx
	.loc 1 75 69 view .LVU3728
	shrl	$24, %eax
	.loc 1 75 51 view .LVU3729
	movb	%al, (%r9,%rcx)
	.loc 1 75 77 is_stmt 1 view .LVU3730
	.loc 1 75 84 is_stmt 0 view .LVU3731
	movl	116(%rbx), %eax
	.loc 1 75 115 view .LVU3732
	movl	644(%rbx), %r9d
	.loc 1 75 84 view .LVU3733
	leal	1(%rax), %ecx
	.loc 1 75 98 view .LVU3734
	movl	640(%rbx), %eax
	.loc 1 75 115 view .LVU3735
	subl	$8, %r9d
	.loc 1 75 84 view .LVU3736
	movl	%ecx, 116(%rbx)
	.loc 1 75 88 is_stmt 1 view .LVU3737
	.loc 1 75 98 is_stmt 0 view .LVU3738
	sall	$8, %eax
	.loc 1 75 115 view .LVU3739
	movl	%r9d, 644(%rbx)
	.loc 1 75 98 view .LVU3740
	movl	%eax, 640(%rbx)
	.loc 1 75 105 is_stmt 1 view .LVU3741
	.loc 1 75 23 view .LVU3742
	cmpl	$7, %r9d
	jg	.L302
.L301:
	.loc 1 75 124 view .LVU3743
	.loc 1 76 4 view .LVU3744
	.loc 1 76 27 is_stmt 0 view .LVU3745
	movl	$32, %ecx
	subl	%r9d, %ecx
	.loc 1 76 39 view .LVU3746
	subl	%r11d, %ecx
	.loc 1 77 14 view .LVU3747
	addl	%r9d, %r11d
.LVL570:
	.loc 1 76 20 view .LVU3748
	sall	%cl, %r8d
.LVL571:
	.loc 1 76 20 view .LVU3749
.LBE652:
.LBE651:
	.loc 1 575 177 view .LVU3750
	movzwl	72(%rbp,%rdi), %ecx
.LBB654:
.LBB653:
	.loc 1 77 14 view .LVU3751
	movl	%r11d, 644(%rbx)
	.loc 1 76 14 view .LVU3752
	orl	%eax, %r8d
	movl	%r8d, 640(%rbx)
	.loc 1 77 4 is_stmt 1 view .LVU3753
.LVL572:
	.loc 1 77 4 is_stmt 0 view .LVU3754
.LBE653:
.LBE654:
	.loc 1 575 101 is_stmt 1 view .LVU3755
	.loc 1 575 125 view .LVU3756
	movl	(%rsi,%rcx,4), %eax
	movzbl	(%rdx,%rcx), %r9d
.LVL573:
.LBB655:
.LBI655:
	.loc 1 73 6 view .LVU3757
.LBB656:
	.loc 1 75 23 view .LVU3758
	cmpl	$7, %r11d
	jle	.L303
	.loc 1 75 41 is_stmt 0 view .LVU3759
	movl	116(%rbx), %ecx
.LVL574:
.L304:
	.loc 1 75 31 is_stmt 1 view .LVU3760
	.loc 1 75 49 is_stmt 0 view .LVU3761
	movq	80(%rbx), %r11
	.loc 1 75 41 view .LVU3762
	movslq	%ecx, %rcx
	.loc 1 75 69 view .LVU3763
	shrl	$24, %r8d
	.loc 1 75 51 view .LVU3764
	movb	%r8b, (%r11,%rcx)
	.loc 1 75 77 is_stmt 1 view .LVU3765
	.loc 1 75 84 is_stmt 0 view .LVU3766
	movl	116(%rbx), %ecx
	.loc 1 75 98 view .LVU3767
	movl	640(%rbx), %r8d
	.loc 1 75 115 view .LVU3768
	movl	644(%rbx), %r11d
	.loc 1 75 84 view .LVU3769
	addl	$1, %ecx
	.loc 1 75 98 view .LVU3770
	sall	$8, %r8d
	.loc 1 75 115 view .LVU3771
	subl	$8, %r11d
	.loc 1 75 84 view .LVU3772
	movl	%ecx, 116(%rbx)
	.loc 1 75 88 is_stmt 1 view .LVU3773
	.loc 1 75 98 is_stmt 0 view .LVU3774
	movl	%r8d, 640(%rbx)
	.loc 1 75 105 is_stmt 1 view .LVU3775
	.loc 1 75 115 is_stmt 0 view .LVU3776
	movl	%r11d, 644(%rbx)
	.loc 1 75 23 is_stmt 1 view .LVU3777
	cmpl	$7, %r11d
	jg	.L304
.L303:
	.loc 1 75 124 view .LVU3778
	.loc 1 76 4 view .LVU3779
	.loc 1 76 27 is_stmt 0 view .LVU3780
	movl	$32, %ecx
	subl	%r11d, %ecx
	.loc 1 76 39 view .LVU3781
	subl	%r9d, %ecx
	.loc 1 77 14 view .LVU3782
	addl	%r11d, %r9d
.LVL575:
	.loc 1 76 20 view .LVU3783
	sall	%cl, %eax
.LVL576:
	.loc 1 76 20 view .LVU3784
.LBE656:
.LBE655:
	.loc 1 575 265 view .LVU3785
	movzwl	74(%rbp,%rdi), %ecx
.LBB658:
.LBB657:
	.loc 1 77 14 view .LVU3786
	movl	%r9d, 644(%rbx)
	.loc 1 76 14 view .LVU3787
	orl	%r8d, %eax
	movl	%eax, 640(%rbx)
	.loc 1 77 4 is_stmt 1 view .LVU3788
.LVL577:
	.loc 1 77 4 is_stmt 0 view .LVU3789
.LBE657:
.LBE658:
	.loc 1 575 189 is_stmt 1 view .LVU3790
	.loc 1 575 213 view .LVU3791
	movl	(%rsi,%rcx,4), %r8d
	movzbl	(%rdx,%rcx), %r11d
.LVL578:
.LBB659:
.LBI659:
	.loc 1 73 6 view .LVU3792
.LBB660:
	.loc 1 75 23 view .LVU3793
	cmpl	$7, %r9d
	jle	.L305
	.loc 1 75 41 is_stmt 0 view .LVU3794
	movl	116(%rbx), %ecx
.LVL579:
.L306:
	.loc 1 75 31 is_stmt 1 view .LVU3795
	.loc 1 75 49 is_stmt 0 view .LVU3796
	movq	80(%rbx), %r9
	.loc 1 75 41 view .LVU3797
	movslq	%ecx, %rcx
	.loc 1 75 69 view .LVU3798
	shrl	$24, %eax
	.loc 1 75 51 view .LVU3799
	movb	%al, (%r9,%rcx)
	.loc 1 75 77 is_stmt 1 view .LVU3800
	.loc 1 75 84 is_stmt 0 view .LVU3801
	movl	116(%rbx), %eax
	.loc 1 75 115 view .LVU3802
	movl	644(%rbx), %r9d
	.loc 1 75 84 view .LVU3803
	leal	1(%rax), %ecx
	.loc 1 75 98 view .LVU3804
	movl	640(%rbx), %eax
	.loc 1 75 115 view .LVU3805
	subl	$8, %r9d
	.loc 1 75 84 view .LVU3806
	movl	%ecx, 116(%rbx)
	.loc 1 75 88 is_stmt 1 view .LVU3807
	.loc 1 75 98 is_stmt 0 view .LVU3808
	sall	$8, %eax
	.loc 1 75 115 view .LVU3809
	movl	%r9d, 644(%rbx)
	.loc 1 75 98 view .LVU3810
	movl	%eax, 640(%rbx)
	.loc 1 75 105 is_stmt 1 view .LVU3811
	.loc 1 75 23 view .LVU3812
	cmpl	$7, %r9d
	jg	.L306
.L305:
	.loc 1 75 124 view .LVU3813
	.loc 1 76 4 view .LVU3814
	.loc 1 76 27 is_stmt 0 view .LVU3815
	movl	$32, %ecx
	subl	%r9d, %ecx
	.loc 1 76 39 view .LVU3816
	subl	%r11d, %ecx
	.loc 1 77 14 view .LVU3817
	addl	%r9d, %r11d
.LVL580:
	.loc 1 76 20 view .LVU3818
	sall	%cl, %r8d
.LVL581:
	.loc 1 76 20 view .LVU3819
.LBE660:
.LBE659:
	.loc 1 575 353 view .LVU3820
	movzwl	76(%rbp,%rdi), %ecx
.LBB662:
.LBB661:
	.loc 1 77 14 view .LVU3821
	movl	%r11d, 644(%rbx)
	.loc 1 76 14 view .LVU3822
	orl	%eax, %r8d
	movl	%r8d, 640(%rbx)
	.loc 1 77 4 is_stmt 1 view .LVU3823
.LVL582:
	.loc 1 77 4 is_stmt 0 view .LVU3824
.LBE661:
.LBE662:
	.loc 1 575 277 is_stmt 1 view .LVU3825
	.loc 1 575 301 view .LVU3826
	movl	(%rsi,%rcx,4), %eax
	movzbl	(%rdx,%rcx), %r9d
.LVL583:
.LBB663:
.LBI663:
	.loc 1 73 6 view .LVU3827
.LBB664:
	.loc 1 75 23 view .LVU3828
	cmpl	$7, %r11d
	jle	.L307
	.loc 1 75 41 is_stmt 0 view .LVU3829
	movl	116(%rbx), %ecx
.LVL584:
.L308:
	.loc 1 75 31 is_stmt 1 view .LVU3830
	.loc 1 75 49 is_stmt 0 view .LVU3831
	movq	80(%rbx), %r11
	.loc 1 75 41 view .LVU3832
	movslq	%ecx, %rcx
	.loc 1 75 69 view .LVU3833
	shrl	$24, %r8d
	.loc 1 75 51 view .LVU3834
	movb	%r8b, (%r11,%rcx)
	.loc 1 75 77 is_stmt 1 view .LVU3835
	.loc 1 75 84 is_stmt 0 view .LVU3836
	movl	116(%rbx), %ecx
	.loc 1 75 98 view .LVU3837
	movl	640(%rbx), %r8d
	.loc 1 75 115 view .LVU3838
	movl	644(%rbx), %r11d
	.loc 1 75 84 view .LVU3839
	addl	$1, %ecx
	.loc 1 75 98 view .LVU3840
	sall	$8, %r8d
	.loc 1 75 115 view .LVU3841
	subl	$8, %r11d
	.loc 1 75 84 view .LVU3842
	movl	%ecx, 116(%rbx)
	.loc 1 75 88 is_stmt 1 view .LVU3843
	.loc 1 75 98 is_stmt 0 view .LVU3844
	movl	%r8d, 640(%rbx)
	.loc 1 75 105 is_stmt 1 view .LVU3845
	.loc 1 75 115 is_stmt 0 view .LVU3846
	movl	%r11d, 644(%rbx)
	.loc 1 75 23 is_stmt 1 view .LVU3847
	cmpl	$7, %r11d
	jg	.L308
.L307:
	.loc 1 75 124 view .LVU3848
	.loc 1 76 4 view .LVU3849
	.loc 1 76 27 is_stmt 0 view .LVU3850
	movl	$32, %ecx
	subl	%r11d, %ecx
	.loc 1 76 39 view .LVU3851
	subl	%r9d, %ecx
	.loc 1 77 14 view .LVU3852
	addl	%r11d, %r9d
.LVL585:
	.loc 1 76 20 view .LVU3853
	sall	%cl, %eax
.LVL586:
	.loc 1 76 20 view .LVU3854
.LBE664:
.LBE663:
	.loc 1 575 441 view .LVU3855
	movzwl	78(%rbp,%rdi), %ecx
.LBB666:
.LBB665:
	.loc 1 77 14 view .LVU3856
	movl	%r9d, 644(%rbx)
	.loc 1 76 14 view .LVU3857
	orl	%r8d, %eax
	movl	%eax, 640(%rbx)
	.loc 1 77 4 is_stmt 1 view .LVU3858
.LVL587:
	.loc 1 77 4 is_stmt 0 view .LVU3859
.LBE665:
.LBE666:
	.loc 1 575 365 is_stmt 1 view .LVU3860
	.loc 1 575 389 view .LVU3861
	movl	(%rsi,%rcx,4), %r8d
	movzbl	(%rdx,%rcx), %r11d
.LVL588:
.LBB667:
.LBI667:
	.loc 1 73 6 view .LVU3862
.LBB668:
	.loc 1 75 23 view .LVU3863
	cmpl	$7, %r9d
	jle	.L309
	.loc 1 75 41 is_stmt 0 view .LVU3864
	movl	116(%rbx), %ecx
.LVL589:
.L310:
	.loc 1 75 31 is_stmt 1 view .LVU3865
	.loc 1 75 49 is_stmt 0 view .LVU3866
	movq	80(%rbx), %r9
	.loc 1 75 41 view .LVU3867
	movslq	%ecx, %rcx
	.loc 1 75 69 view .LVU3868
	shrl	$24, %eax
	.loc 1 75 51 view .LVU3869
	movb	%al, (%r9,%rcx)
	.loc 1 75 77 is_stmt 1 view .LVU3870
	.loc 1 75 84 is_stmt 0 view .LVU3871
	movl	116(%rbx), %eax
	.loc 1 75 115 view .LVU3872
	movl	644(%rbx), %r9d
	.loc 1 75 84 view .LVU3873
	leal	1(%rax), %ecx
	.loc 1 75 98 view .LVU3874
	movl	640(%rbx), %eax
	.loc 1 75 115 view .LVU3875
	subl	$8, %r9d
	.loc 1 75 84 view .LVU3876
	movl	%ecx, 116(%rbx)
	.loc 1 75 88 is_stmt 1 view .LVU3877
	.loc 1 75 98 is_stmt 0 view .LVU3878
	sall	$8, %eax
	.loc 1 75 115 view .LVU3879
	movl	%r9d, 644(%rbx)
	.loc 1 75 98 view .LVU3880
	movl	%eax, 640(%rbx)
	.loc 1 75 105 is_stmt 1 view .LVU3881
	.loc 1 75 23 view .LVU3882
	cmpl	$7, %r9d
	jg	.L310
.L309:
	.loc 1 75 124 view .LVU3883
	.loc 1 76 4 view .LVU3884
	.loc 1 76 27 is_stmt 0 view .LVU3885
	movl	$32, %ecx
	subl	%r9d, %ecx
	.loc 1 76 39 view .LVU3886
	subl	%r11d, %ecx
	.loc 1 77 14 view .LVU3887
	addl	%r9d, %r11d
.LVL590:
	.loc 1 76 20 view .LVU3888
	sall	%cl, %r8d
.LVL591:
	.loc 1 76 20 view .LVU3889
.LBE668:
.LBE667:
	.loc 1 576 89 view .LVU3890
	movzwl	80(%rbp,%rdi), %ecx
.LBB670:
.LBB669:
	.loc 1 77 14 view .LVU3891
	movl	%r11d, 644(%rbx)
	.loc 1 76 14 view .LVU3892
	orl	%eax, %r8d
	movl	%r8d, 640(%rbx)
	.loc 1 77 4 is_stmt 1 view .LVU3893
.LVL592:
	.loc 1 77 4 is_stmt 0 view .LVU3894
.LBE669:
.LBE670:
	.loc 1 576 13 is_stmt 1 view .LVU3895
	.loc 1 576 37 view .LVU3896
	movl	(%rsi,%rcx,4), %eax
	movzbl	(%rdx,%rcx), %r9d
.LVL593:
.LBB671:
.LBI671:
	.loc 1 73 6 view .LVU3897
.LBB672:
	.loc 1 75 23 view .LVU3898
	cmpl	$7, %r11d
	jle	.L311
	.loc 1 75 41 is_stmt 0 view .LVU3899
	movl	116(%rbx), %ecx
.LVL594:
.L312:
	.loc 1 75 31 is_stmt 1 view .LVU3900
	.loc 1 75 49 is_stmt 0 view .LVU3901
	movq	80(%rbx), %r11
	.loc 1 75 41 view .LVU3902
	movslq	%ecx, %rcx
	.loc 1 75 69 view .LVU3903
	shrl	$24, %r8d
	.loc 1 75 51 view .LVU3904
	movb	%r8b, (%r11,%rcx)
	.loc 1 75 77 is_stmt 1 view .LVU3905
	.loc 1 75 84 is_stmt 0 view .LVU3906
	movl	116(%rbx), %ecx
	.loc 1 75 98 view .LVU3907
	movl	640(%rbx), %r8d
	.loc 1 75 115 view .LVU3908
	movl	644(%rbx), %r11d
	.loc 1 75 84 view .LVU3909
	addl	$1, %ecx
	.loc 1 75 98 view .LVU3910
	sall	$8, %r8d
	.loc 1 75 115 view .LVU3911
	subl	$8, %r11d
	.loc 1 75 84 view .LVU3912
	movl	%ecx, 116(%rbx)
	.loc 1 75 88 is_stmt 1 view .LVU3913
	.loc 1 75 98 is_stmt 0 view .LVU3914
	movl	%r8d, 640(%rbx)
	.loc 1 75 105 is_stmt 1 view .LVU3915
	.loc 1 75 115 is_stmt 0 view .LVU3916
	movl	%r11d, 644(%rbx)
	.loc 1 75 23 is_stmt 1 view .LVU3917
	cmpl	$7, %r11d
	jg	.L312
.L311:
	.loc 1 75 124 view .LVU3918
	.loc 1 76 4 view .LVU3919
	.loc 1 76 27 is_stmt 0 view .LVU3920
	movl	$32, %ecx
	subl	%r11d, %ecx
	.loc 1 76 39 view .LVU3921
	subl	%r9d, %ecx
	.loc 1 77 14 view .LVU3922
	addl	%r11d, %r9d
.LVL595:
	.loc 1 76 20 view .LVU3923
	sall	%cl, %eax
.LVL596:
	.loc 1 76 20 view .LVU3924
.LBE672:
.LBE671:
	.loc 1 576 177 view .LVU3925
	movzwl	82(%rbp,%rdi), %ecx
.LBB674:
.LBB673:
	.loc 1 77 14 view .LVU3926
	movl	%r9d, 644(%rbx)
	.loc 1 76 14 view .LVU3927
	orl	%r8d, %eax
	movl	%eax, 640(%rbx)
	.loc 1 77 4 is_stmt 1 view .LVU3928
.LVL597:
	.loc 1 77 4 is_stmt 0 view .LVU3929
.LBE673:
.LBE674:
	.loc 1 576 101 is_stmt 1 view .LVU3930
	.loc 1 576 125 view .LVU3931
	movl	(%rsi,%rcx,4), %r8d
	movzbl	(%rdx,%rcx), %r11d
.LVL598:
.LBB675:
.LBI675:
	.loc 1 73 6 view .LVU3932
.LBB676:
	.loc 1 75 23 view .LVU3933
	cmpl	$7, %r9d
	jle	.L313
	.loc 1 75 41 is_stmt 0 view .LVU3934
	movl	116(%rbx), %ecx
.LVL599:
.L314:
	.loc 1 75 31 is_stmt 1 view .LVU3935
	.loc 1 75 49 is_stmt 0 view .LVU3936
	movq	80(%rbx), %r9
	.loc 1 75 41 view .LVU3937
	movslq	%ecx, %rcx
	.loc 1 75 69 view .LVU3938
	shrl	$24, %eax
	.loc 1 75 51 view .LVU3939
	movb	%al, (%r9,%rcx)
	.loc 1 75 77 is_stmt 1 view .LVU3940
	.loc 1 75 84 is_stmt 0 view .LVU3941
	movl	116(%rbx), %eax
	.loc 1 75 115 view .LVU3942
	movl	644(%rbx), %r9d
	.loc 1 75 84 view .LVU3943
	leal	1(%rax), %ecx
	.loc 1 75 98 view .LVU3944
	movl	640(%rbx), %eax
	.loc 1 75 115 view .LVU3945
	subl	$8, %r9d
	.loc 1 75 84 view .LVU3946
	movl	%ecx, 116(%rbx)
	.loc 1 75 88 is_stmt 1 view .LVU3947
	.loc 1 75 98 is_stmt 0 view .LVU3948
	sall	$8, %eax
	.loc 1 75 115 view .LVU3949
	movl	%r9d, 644(%rbx)
	.loc 1 75 98 view .LVU3950
	movl	%eax, 640(%rbx)
	.loc 1 75 105 is_stmt 1 view .LVU3951
	.loc 1 75 23 view .LVU3952
	cmpl	$7, %r9d
	jg	.L314
.L313:
	.loc 1 75 124 view .LVU3953
	.loc 1 76 4 view .LVU3954
	.loc 1 76 27 is_stmt 0 view .LVU3955
	movl	$32, %ecx
	subl	%r9d, %ecx
	.loc 1 76 39 view .LVU3956
	subl	%r11d, %ecx
	.loc 1 77 14 view .LVU3957
	addl	%r9d, %r11d
.LVL600:
	.loc 1 76 20 view .LVU3958
	sall	%cl, %r8d
.LVL601:
	.loc 1 76 20 view .LVU3959
.LBE676:
.LBE675:
	.loc 1 576 265 view .LVU3960
	movzwl	84(%rbp,%rdi), %ecx
.LBB678:
.LBB677:
	.loc 1 77 14 view .LVU3961
	movl	%r11d, 644(%rbx)
	.loc 1 76 14 view .LVU3962
	orl	%eax, %r8d
	movl	%r8d, 640(%rbx)
	.loc 1 77 4 is_stmt 1 view .LVU3963
.LVL602:
	.loc 1 77 4 is_stmt 0 view .LVU3964
.LBE677:
.LBE678:
	.loc 1 576 189 is_stmt 1 view .LVU3965
	.loc 1 576 213 view .LVU3966
	movl	(%rsi,%rcx,4), %eax
	movzbl	(%rdx,%rcx), %r9d
.LVL603:
.LBB679:
.LBI679:
	.loc 1 73 6 view .LVU3967
.LBB680:
	.loc 1 75 23 view .LVU3968
	cmpl	$7, %r11d
	jle	.L315
	.loc 1 75 41 is_stmt 0 view .LVU3969
	movl	116(%rbx), %ecx
.LVL604:
.L316:
	.loc 1 75 31 is_stmt 1 view .LVU3970
	.loc 1 75 49 is_stmt 0 view .LVU3971
	movq	80(%rbx), %r11
	.loc 1 75 41 view .LVU3972
	movslq	%ecx, %rcx
	.loc 1 75 69 view .LVU3973
	shrl	$24, %r8d
	.loc 1 75 51 view .LVU3974
	movb	%r8b, (%r11,%rcx)
	.loc 1 75 77 is_stmt 1 view .LVU3975
	.loc 1 75 84 is_stmt 0 view .LVU3976
	movl	116(%rbx), %ecx
	.loc 1 75 98 view .LVU3977
	movl	640(%rbx), %r8d
	.loc 1 75 115 view .LVU3978
	movl	644(%rbx), %r11d
	.loc 1 75 84 view .LVU3979
	addl	$1, %ecx
	.loc 1 75 98 view .LVU3980
	sall	$8, %r8d
	.loc 1 75 115 view .LVU3981
	subl	$8, %r11d
	.loc 1 75 84 view .LVU3982
	movl	%ecx, 116(%rbx)
	.loc 1 75 88 is_stmt 1 view .LVU3983
	.loc 1 75 98 is_stmt 0 view .LVU3984
	movl	%r8d, 640(%rbx)
	.loc 1 75 105 is_stmt 1 view .LVU3985
	.loc 1 75 115 is_stmt 0 view .LVU3986
	movl	%r11d, 644(%rbx)
	.loc 1 75 23 is_stmt 1 view .LVU3987
	cmpl	$7, %r11d
	jg	.L316
.L315:
	.loc 1 75 124 view .LVU3988
	.loc 1 76 4 view .LVU3989
	.loc 1 76 27 is_stmt 0 view .LVU3990
	movl	$32, %ecx
	subl	%r11d, %ecx
	.loc 1 76 39 view .LVU3991
	subl	%r9d, %ecx
	.loc 1 77 14 view .LVU3992
	addl	%r11d, %r9d
.LVL605:
	.loc 1 76 20 view .LVU3993
	sall	%cl, %eax
.LVL606:
	.loc 1 76 20 view .LVU3994
.LBE680:
.LBE679:
	.loc 1 576 353 view .LVU3995
	movzwl	86(%rbp,%rdi), %ecx
.LBB682:
.LBB681:
	.loc 1 77 14 view .LVU3996
	movl	%r9d, 644(%rbx)
	.loc 1 76 14 view .LVU3997
	orl	%r8d, %eax
	movl	%eax, 640(%rbx)
	.loc 1 77 4 is_stmt 1 view .LVU3998
.LVL607:
	.loc 1 77 4 is_stmt 0 view .LVU3999
.LBE681:
.LBE682:
	.loc 1 576 277 is_stmt 1 view .LVU4000
	.loc 1 576 301 view .LVU4001
	movl	(%rsi,%rcx,4), %r8d
	movzbl	(%rdx,%rcx), %r11d
.LVL608:
.LBB683:
.LBI683:
	.loc 1 73 6 view .LVU4002
.LBB684:
	.loc 1 75 23 view .LVU4003
	cmpl	$7, %r9d
	jle	.L317
	.loc 1 75 41 is_stmt 0 view .LVU4004
	movl	116(%rbx), %ecx
.LVL609:
.L318:
	.loc 1 75 31 is_stmt 1 view .LVU4005
	.loc 1 75 49 is_stmt 0 view .LVU4006
	movq	80(%rbx), %r9
	.loc 1 75 41 view .LVU4007
	movslq	%ecx, %rcx
	.loc 1 75 69 view .LVU4008
	shrl	$24, %eax
	.loc 1 75 51 view .LVU4009
	movb	%al, (%r9,%rcx)
	.loc 1 75 77 is_stmt 1 view .LVU4010
	.loc 1 75 84 is_stmt 0 view .LVU4011
	movl	116(%rbx), %eax
	.loc 1 75 115 view .LVU4012
	movl	644(%rbx), %r9d
	.loc 1 75 84 view .LVU4013
	leal	1(%rax), %ecx
	.loc 1 75 98 view .LVU4014
	movl	640(%rbx), %eax
	.loc 1 75 115 view .LVU4015
	subl	$8, %r9d
	.loc 1 75 84 view .LVU4016
	movl	%ecx, 116(%rbx)
	.loc 1 75 88 is_stmt 1 view .LVU4017
	.loc 1 75 98 is_stmt 0 view .LVU4018
	sall	$8, %eax
	.loc 1 75 115 view .LVU4019
	movl	%r9d, 644(%rbx)
	.loc 1 75 98 view .LVU4020
	movl	%eax, 640(%rbx)
	.loc 1 75 105 is_stmt 1 view .LVU4021
	.loc 1 75 23 view .LVU4022
	cmpl	$7, %r9d
	jg	.L318
.L317:
	.loc 1 75 124 view .LVU4023
	.loc 1 76 4 view .LVU4024
	.loc 1 76 27 is_stmt 0 view .LVU4025
	movl	$32, %ecx
	subl	%r9d, %ecx
	.loc 1 76 39 view .LVU4026
	subl	%r11d, %ecx
	.loc 1 77 14 view .LVU4027
	addl	%r9d, %r11d
.LVL610:
	.loc 1 76 20 view .LVU4028
	sall	%cl, %r8d
.LVL611:
	.loc 1 76 20 view .LVU4029
.LBE684:
.LBE683:
	.loc 1 576 441 view .LVU4030
	movzwl	88(%rbp,%rdi), %ecx
.LBB686:
.LBB685:
	.loc 1 77 14 view .LVU4031
	movl	%r11d, 644(%rbx)
	.loc 1 76 14 view .LVU4032
	orl	%eax, %r8d
	movl	%r8d, 640(%rbx)
	.loc 1 77 4 is_stmt 1 view .LVU4033
.LVL612:
	.loc 1 77 4 is_stmt 0 view .LVU4034
.LBE685:
.LBE686:
	.loc 1 576 365 is_stmt 1 view .LVU4035
	.loc 1 576 389 view .LVU4036
	movl	(%rsi,%rcx,4), %eax
	movzbl	(%rdx,%rcx), %r9d
.LVL613:
.LBB687:
.LBI687:
	.loc 1 73 6 view .LVU4037
.LBB688:
	.loc 1 75 23 view .LVU4038
	cmpl	$7, %r11d
	jle	.L319
	.loc 1 75 41 is_stmt 0 view .LVU4039
	movl	116(%rbx), %ecx
.LVL614:
.L320:
	.loc 1 75 31 is_stmt 1 view .LVU4040
	.loc 1 75 49 is_stmt 0 view .LVU4041
	movq	80(%rbx), %r11
	.loc 1 75 41 view .LVU4042
	movslq	%ecx, %rcx
	.loc 1 75 69 view .LVU4043
	shrl	$24, %r8d
	.loc 1 75 51 view .LVU4044
	movb	%r8b, (%r11,%rcx)
	.loc 1 75 77 is_stmt 1 view .LVU4045
	.loc 1 75 84 is_stmt 0 view .LVU4046
	movl	116(%rbx), %ecx
	.loc 1 75 98 view .LVU4047
	movl	640(%rbx), %r8d
	.loc 1 75 115 view .LVU4048
	movl	644(%rbx), %r11d
	.loc 1 75 84 view .LVU4049
	addl	$1, %ecx
	.loc 1 75 98 view .LVU4050
	sall	$8, %r8d
	.loc 1 75 115 view .LVU4051
	subl	$8, %r11d
	.loc 1 75 84 view .LVU4052
	movl	%ecx, 116(%rbx)
	.loc 1 75 88 is_stmt 1 view .LVU4053
	.loc 1 75 98 is_stmt 0 view .LVU4054
	movl	%r8d, 640(%rbx)
	.loc 1 75 105 is_stmt 1 view .LVU4055
	.loc 1 75 115 is_stmt 0 view .LVU4056
	movl	%r11d, 644(%rbx)
	.loc 1 75 23 is_stmt 1 view .LVU4057
	cmpl	$7, %r11d
	jg	.L320
.L319:
	.loc 1 75 124 view .LVU4058
	.loc 1 76 4 view .LVU4059
	.loc 1 76 27 is_stmt 0 view .LVU4060
	movl	$32, %ecx
	subl	%r11d, %ecx
	.loc 1 76 39 view .LVU4061
	subl	%r9d, %ecx
	.loc 1 77 14 view .LVU4062
	addl	%r11d, %r9d
.LVL615:
	.loc 1 76 20 view .LVU4063
	sall	%cl, %eax
.LVL616:
	.loc 1 76 20 view .LVU4064
.LBE688:
.LBE687:
	.loc 1 577 89 view .LVU4065
	movzwl	90(%rbp,%rdi), %ecx
.LBB690:
.LBB689:
	.loc 1 77 14 view .LVU4066
	movl	%r9d, 644(%rbx)
	.loc 1 76 14 view .LVU4067
	orl	%r8d, %eax
	movl	%eax, 640(%rbx)
	.loc 1 77 4 is_stmt 1 view .LVU4068
.LVL617:
	.loc 1 77 4 is_stmt 0 view .LVU4069
.LBE689:
.LBE690:
	.loc 1 577 13 is_stmt 1 view .LVU4070
	.loc 1 577 37 view .LVU4071
	movl	(%rsi,%rcx,4), %r8d
	movzbl	(%rdx,%rcx), %r11d
.LVL618:
.LBB691:
.LBI691:
	.loc 1 73 6 view .LVU4072
.LBB692:
	.loc 1 75 23 view .LVU4073
	cmpl	$7, %r9d
	jle	.L321
	.loc 1 75 41 is_stmt 0 view .LVU4074
	movl	116(%rbx), %ecx
.LVL619:
.L322:
	.loc 1 75 31 is_stmt 1 view .LVU4075
	.loc 1 75 49 is_stmt 0 view .LVU4076
	movq	80(%rbx), %r9
	.loc 1 75 41 view .LVU4077
	movslq	%ecx, %rcx
	.loc 1 75 69 view .LVU4078
	shrl	$24, %eax
	.loc 1 75 51 view .LVU4079
	movb	%al, (%r9,%rcx)
	.loc 1 75 77 is_stmt 1 view .LVU4080
	.loc 1 75 84 is_stmt 0 view .LVU4081
	movl	116(%rbx), %eax
	.loc 1 75 115 view .LVU4082
	movl	644(%rbx), %r9d
	.loc 1 75 84 view .LVU4083
	leal	1(%rax), %ecx
	.loc 1 75 98 view .LVU4084
	movl	640(%rbx), %eax
	.loc 1 75 115 view .LVU4085
	subl	$8, %r9d
	.loc 1 75 84 view .LVU4086
	movl	%ecx, 116(%rbx)
	.loc 1 75 88 is_stmt 1 view .LVU4087
	.loc 1 75 98 is_stmt 0 view .LVU4088
	sall	$8, %eax
	.loc 1 75 115 view .LVU4089
	movl	%r9d, 644(%rbx)
	.loc 1 75 98 view .LVU4090
	movl	%eax, 640(%rbx)
	.loc 1 75 105 is_stmt 1 view .LVU4091
	.loc 1 75 23 view .LVU4092
	cmpl	$7, %r9d
	jg	.L322
.L321:
	.loc 1 75 124 view .LVU4093
	.loc 1 76 4 view .LVU4094
	.loc 1 76 27 is_stmt 0 view .LVU4095
	movl	$32, %ecx
	subl	%r9d, %ecx
	.loc 1 76 39 view .LVU4096
	subl	%r11d, %ecx
	.loc 1 77 14 view .LVU4097
	addl	%r9d, %r11d
.LVL620:
	.loc 1 76 20 view .LVU4098
	sall	%cl, %r8d
.LVL621:
	.loc 1 76 20 view .LVU4099
.LBE692:
.LBE691:
	.loc 1 577 177 view .LVU4100
	movzwl	92(%rbp,%rdi), %ecx
.LBB694:
.LBB693:
	.loc 1 77 14 view .LVU4101
	movl	%r11d, 644(%rbx)
	.loc 1 76 14 view .LVU4102
	orl	%eax, %r8d
	movl	%r8d, 640(%rbx)
	.loc 1 77 4 is_stmt 1 view .LVU4103
.LVL622:
	.loc 1 77 4 is_stmt 0 view .LVU4104
.LBE693:
.LBE694:
	.loc 1 577 101 is_stmt 1 view .LVU4105
	.loc 1 577 125 view .LVU4106
	movl	(%rsi,%rcx,4), %eax
	movzbl	(%rdx,%rcx), %r9d
.LVL623:
.LBB695:
.LBI695:
	.loc 1 73 6 view .LVU4107
.LBB696:
	.loc 1 75 23 view .LVU4108
	cmpl	$7, %r11d
	jle	.L323
	.loc 1 75 41 is_stmt 0 view .LVU4109
	movl	116(%rbx), %ecx
.LVL624:
.L324:
	.loc 1 75 31 is_stmt 1 view .LVU4110
	.loc 1 75 49 is_stmt 0 view .LVU4111
	movq	80(%rbx), %r11
	.loc 1 75 41 view .LVU4112
	movslq	%ecx, %rcx
	.loc 1 75 69 view .LVU4113
	shrl	$24, %r8d
	.loc 1 75 51 view .LVU4114
	movb	%r8b, (%r11,%rcx)
	.loc 1 75 77 is_stmt 1 view .LVU4115
	.loc 1 75 84 is_stmt 0 view .LVU4116
	movl	116(%rbx), %ecx
	.loc 1 75 98 view .LVU4117
	movl	640(%rbx), %r8d
	.loc 1 75 115 view .LVU4118
	movl	644(%rbx), %r11d
	.loc 1 75 84 view .LVU4119
	addl	$1, %ecx
	.loc 1 75 98 view .LVU4120
	sall	$8, %r8d
	.loc 1 75 115 view .LVU4121
	subl	$8, %r11d
	.loc 1 75 84 view .LVU4122
	movl	%ecx, 116(%rbx)
	.loc 1 75 88 is_stmt 1 view .LVU4123
	.loc 1 75 98 is_stmt 0 view .LVU4124
	movl	%r8d, 640(%rbx)
	.loc 1 75 105 is_stmt 1 view .LVU4125
	.loc 1 75 115 is_stmt 0 view .LVU4126
	movl	%r11d, 644(%rbx)
	.loc 1 75 23 is_stmt 1 view .LVU4127
	cmpl	$7, %r11d
	jg	.L324
.L323:
	.loc 1 75 124 view .LVU4128
	.loc 1 76 4 view .LVU4129
	.loc 1 76 27 is_stmt 0 view .LVU4130
	movl	$32, %ecx
	subl	%r11d, %ecx
	.loc 1 76 39 view .LVU4131
	subl	%r9d, %ecx
	.loc 1 77 14 view .LVU4132
	addl	%r11d, %r9d
.LVL625:
	.loc 1 76 20 view .LVU4133
	sall	%cl, %eax
.LVL626:
	.loc 1 76 20 view .LVU4134
.LBE696:
.LBE695:
	.loc 1 577 265 view .LVU4135
	movzwl	94(%rbp,%rdi), %ecx
.LBB698:
.LBB697:
	.loc 1 77 14 view .LVU4136
	movl	%r9d, 644(%rbx)
	.loc 1 76 14 view .LVU4137
	orl	%r8d, %eax
	movl	%eax, 640(%rbx)
	.loc 1 77 4 is_stmt 1 view .LVU4138
.LVL627:
	.loc 1 77 4 is_stmt 0 view .LVU4139
.LBE697:
.LBE698:
	.loc 1 577 189 is_stmt 1 view .LVU4140
	.loc 1 577 213 view .LVU4141
	movl	(%rsi,%rcx,4), %r8d
	movzbl	(%rdx,%rcx), %r11d
.LVL628:
.LBB699:
.LBI699:
	.loc 1 73 6 view .LVU4142
.LBB700:
	.loc 1 75 23 view .LVU4143
	cmpl	$7, %r9d
	jle	.L325
	.loc 1 75 41 is_stmt 0 view .LVU4144
	movl	116(%rbx), %ecx
.LVL629:
.L326:
	.loc 1 75 31 is_stmt 1 view .LVU4145
	.loc 1 75 49 is_stmt 0 view .LVU4146
	movq	80(%rbx), %r9
	.loc 1 75 41 view .LVU4147
	movslq	%ecx, %rcx
	.loc 1 75 69 view .LVU4148
	shrl	$24, %eax
	.loc 1 75 51 view .LVU4149
	movb	%al, (%r9,%rcx)
	.loc 1 75 77 is_stmt 1 view .LVU4150
	.loc 1 75 84 is_stmt 0 view .LVU4151
	movl	116(%rbx), %eax
	.loc 1 75 115 view .LVU4152
	movl	644(%rbx), %r9d
	.loc 1 75 84 view .LVU4153
	leal	1(%rax), %ecx
	.loc 1 75 98 view .LVU4154
	movl	640(%rbx), %eax
	.loc 1 75 115 view .LVU4155
	subl	$8, %r9d
	.loc 1 75 84 view .LVU4156
	movl	%ecx, 116(%rbx)
	.loc 1 75 88 is_stmt 1 view .LVU4157
	.loc 1 75 98 is_stmt 0 view .LVU4158
	sall	$8, %eax
	.loc 1 75 115 view .LVU4159
	movl	%r9d, 644(%rbx)
	.loc 1 75 98 view .LVU4160
	movl	%eax, 640(%rbx)
	.loc 1 75 105 is_stmt 1 view .LVU4161
	.loc 1 75 23 view .LVU4162
	cmpl	$7, %r9d
	jg	.L326
.L325:
	.loc 1 75 124 view .LVU4163
	.loc 1 76 4 view .LVU4164
	.loc 1 76 27 is_stmt 0 view .LVU4165
	movl	$32, %ecx
	subl	%r9d, %ecx
	.loc 1 76 39 view .LVU4166
	subl	%r11d, %ecx
	.loc 1 77 14 view .LVU4167
	addl	%r9d, %r11d
.LVL630:
	.loc 1 76 20 view .LVU4168
	sall	%cl, %r8d
.LVL631:
	.loc 1 76 20 view .LVU4169
.LBE700:
.LBE699:
	.loc 1 577 353 view .LVU4170
	movzwl	96(%rbp,%rdi), %ecx
.LBB702:
.LBB701:
	.loc 1 77 14 view .LVU4171
	movl	%r11d, 644(%rbx)
	.loc 1 76 14 view .LVU4172
	orl	%eax, %r8d
	movl	%r8d, 640(%rbx)
	.loc 1 77 4 is_stmt 1 view .LVU4173
.LVL632:
	.loc 1 77 4 is_stmt 0 view .LVU4174
.LBE701:
.LBE702:
	.loc 1 577 277 is_stmt 1 view .LVU4175
	.loc 1 577 301 view .LVU4176
	movl	(%rsi,%rcx,4), %eax
	movzbl	(%rdx,%rcx), %r9d
.LVL633:
.LBB703:
.LBI703:
	.loc 1 73 6 view .LVU4177
.LBB704:
	.loc 1 75 23 view .LVU4178
	cmpl	$7, %r11d
	jle	.L327
	.loc 1 75 41 is_stmt 0 view .LVU4179
	movl	116(%rbx), %ecx
.LVL634:
.L328:
	.loc 1 75 31 is_stmt 1 view .LVU4180
	.loc 1 75 49 is_stmt 0 view .LVU4181
	movq	80(%rbx), %r11
	.loc 1 75 41 view .LVU4182
	movslq	%ecx, %rcx
	.loc 1 75 69 view .LVU4183
	shrl	$24, %r8d
	.loc 1 75 51 view .LVU4184
	movb	%r8b, (%r11,%rcx)
	.loc 1 75 77 is_stmt 1 view .LVU4185
	.loc 1 75 84 is_stmt 0 view .LVU4186
	movl	116(%rbx), %ecx
	.loc 1 75 98 view .LVU4187
	movl	640(%rbx), %r8d
	.loc 1 75 115 view .LVU4188
	movl	644(%rbx), %r11d
	.loc 1 75 84 view .LVU4189
	addl	$1, %ecx
	.loc 1 75 98 view .LVU4190
	sall	$8, %r8d
	.loc 1 75 115 view .LVU4191
	subl	$8, %r11d
	.loc 1 75 84 view .LVU4192
	movl	%ecx, 116(%rbx)
	.loc 1 75 88 is_stmt 1 view .LVU4193
	.loc 1 75 98 is_stmt 0 view .LVU4194
	movl	%r8d, 640(%rbx)
	.loc 1 75 105 is_stmt 1 view .LVU4195
	.loc 1 75 115 is_stmt 0 view .LVU4196
	movl	%r11d, 644(%rbx)
	.loc 1 75 23 is_stmt 1 view .LVU4197
	cmpl	$7, %r11d
	jg	.L328
.L327:
	.loc 1 75 124 view .LVU4198
	.loc 1 76 4 view .LVU4199
	.loc 1 76 27 is_stmt 0 view .LVU4200
	movl	$32, %ecx
	subl	%r11d, %ecx
	.loc 1 76 39 view .LVU4201
	subl	%r9d, %ecx
	.loc 1 77 14 view .LVU4202
	addl	%r11d, %r9d
.LVL635:
	.loc 1 76 20 view .LVU4203
	sall	%cl, %eax
.LVL636:
	.loc 1 76 20 view .LVU4204
.LBE704:
.LBE703:
	.loc 1 577 441 view .LVU4205
	movzwl	98(%rbp,%rdi), %ecx
.LBB706:
.LBB705:
	.loc 1 77 14 view .LVU4206
	movl	%r9d, 644(%rbx)
	.loc 1 76 14 view .LVU4207
	orl	%r8d, %eax
	movl	%eax, 640(%rbx)
	.loc 1 77 4 is_stmt 1 view .LVU4208
.LVL637:
	.loc 1 77 4 is_stmt 0 view .LVU4209
.LBE705:
.LBE706:
	.loc 1 577 365 is_stmt 1 view .LVU4210
	.loc 1 577 389 view .LVU4211
	movl	(%rsi,%rcx,4), %esi
.LVL638:
	.loc 1 577 389 is_stmt 0 view .LVU4212
	movzbl	(%rdx,%rcx), %edi
.LVL639:
.LBB707:
.LBI707:
	.loc 1 73 6 is_stmt 1 view .LVU4213
.LBB708:
	.loc 1 75 23 view .LVU4214
	cmpl	$7, %r9d
	jle	.L329
	.loc 1 75 41 is_stmt 0 view .LVU4215
	movl	116(%rbx), %edx
.LVL640:
.L330:
	.loc 1 75 31 is_stmt 1 view .LVU4216
	.loc 1 75 49 is_stmt 0 view .LVU4217
	movq	80(%rbx), %rcx
	.loc 1 75 41 view .LVU4218
	movslq	%edx, %rdx
	.loc 1 75 69 view .LVU4219
	shrl	$24, %eax
	.loc 1 75 51 view .LVU4220
	movb	%al, (%rcx,%rdx)
	.loc 1 75 77 is_stmt 1 view .LVU4221
	.loc 1 75 84 is_stmt 0 view .LVU4222
	movl	116(%rbx), %eax
	.loc 1 75 115 view .LVU4223
	movl	644(%rbx), %ecx
	.loc 1 75 84 view .LVU4224
	leal	1(%rax), %edx
	.loc 1 75 98 view .LVU4225
	movl	640(%rbx), %eax
	.loc 1 75 115 view .LVU4226
	leal	-8(%rcx), %r9d
	.loc 1 75 84 view .LVU4227
	movl	%edx, 116(%rbx)
	.loc 1 75 88 is_stmt 1 view .LVU4228
	.loc 1 75 98 is_stmt 0 view .LVU4229
	sall	$8, %eax
	.loc 1 75 115 view .LVU4230
	movl	%r9d, 644(%rbx)
	.loc 1 75 98 view .LVU4231
	movl	%eax, 640(%rbx)
	.loc 1 75 105 is_stmt 1 view .LVU4232
	.loc 1 75 23 view .LVU4233
	cmpl	$7, %r9d
	jg	.L330
.L329:
	.loc 1 75 124 view .LVU4234
	.loc 1 76 4 view .LVU4235
	.loc 1 76 27 is_stmt 0 view .LVU4236
	movl	$32, %ecx
	subl	%r9d, %ecx
	.loc 1 76 39 view .LVU4237
	subl	%edi, %ecx
	.loc 1 77 14 view .LVU4238
	addl	%r9d, %edi
.LVL641:
	.loc 1 76 20 view .LVU4239
	sall	%cl, %esi
.LVL642:
	.loc 1 77 14 view .LVU4240
	movl	%edi, 644(%rbx)
	.loc 1 76 14 view .LVU4241
	orl	%esi, %eax
	movl	%eax, 640(%rbx)
	.loc 1 77 4 is_stmt 1 view .LVU4242
	.loc 1 78 1 is_stmt 0 view .LVU4243
	jmp	.L230
.LVL643:
.L550:
	.loc 1 78 1 view .LVU4244
	movl	%ecx, 64(%rsp)
	movl	%r10d, %r12d
.LVL644:
.L223:
	.loc 1 78 1 view .LVU4245
.LBE708:
.LBE707:
.LBE718:
	.loc 1 594 6 is_stmt 1 view .LVU4246
	.loc 1 594 9 is_stmt 0 view .LVU4247
	cmpl	64(%rsp), %r15d
	je	.L336
	.loc 1 594 35 is_stmt 1 view .LVU4248
	movl	$3007, %edi
	call	BZ2_bz__AssertH__fail@PLT
.LVL645:
.L336:
	.loc 1 594 68 view .LVU4249
	.loc 1 596 4 view .LVU4250
	.loc 1 596 7 is_stmt 0 view .LVU4251
	cmpl	$2, 656(%rbx)
	jle	.L76
	.loc 1 597 7 is_stmt 1 view .LVU4252
.LVL646:
.LBB719:
.LBI719:
	.loc 2 103 1 view .LVU4253
.LBB720:
	.loc 2 105 3 view .LVU4254
.LBE720:
.LBE719:
	.loc 1 597 7 is_stmt 0 view .LVU4255
	movl	116(%rbx), %ecx
.LBB723:
.LBB721:
	.loc 2 105 10 view .LVU4256
	movq	stderr(%rip), %rdi
	leaq	.LC9(%rip), %rdx
	xorl	%eax, %eax
	movl	$1, %esi
.LBE721:
.LBE723:
	.loc 1 597 7 view .LVU4257
	subl	%r12d, %ecx
.LBB724:
.LBB722:
	.loc 2 105 10 view .LVU4258
	call	__fprintf_chk@PLT
.LVL647:
	.loc 2 105 10 view .LVU4259
.LBE722:
.LBE724:
	.loc 1 598 1 view .LVU4260
	jmp	.L76
.LVL648:
.L542:
	.loc 1 437 10 is_stmt 1 view .LVU4261
.LBB725:
.LBI420:
	.loc 2 103 1 view .LVU4262
.LBB422:
	.loc 2 105 3 view .LVU4263
	.loc 2 105 10 is_stmt 0 view .LVU4264
	movl	16(%rsp), %r8d
	movl	84(%rsp), %ecx
	movl	$1, %esi
	xorl	%eax, %eax
	movq	stderr(%rip), %rdi
	leaq	.LC4(%rip), %rdx
	sarl	$3, %r8d
	call	__fprintf_chk@PLT
.LVL649:
	.loc 2 105 10 view .LVU4265
.LBE422:
.LBE725:
	.loc 1 439 10 is_stmt 1 view .LVU4266
	.loc 1 439 24 view .LVU4267
.LBB726:
.LBB423:
	.loc 2 105 10 is_stmt 0 view .LVU4268
	movq	88(%rsp), %r8
	leaq	.LC5(%rip), %rdx
.LVL650:
.L153:
	.loc 2 105 10 view .LVU4269
.LBE423:
.LBE726:
	.loc 1 440 13 is_stmt 1 view .LVU4270
.LBB727:
.LBI727:
	.loc 2 103 1 view .LVU4271
.LBB728:
	.loc 2 105 3 view .LVU4272
	.loc 2 105 10 is_stmt 0 view .LVU4273
	movl	(%r8), %ecx
	movq	stderr(%rip), %rdi
	xorl	%eax, %eax
	movq	%r8, (%rsp)
	movl	$1, %esi
	call	__fprintf_chk@PLT
.LVL651:
	.loc 2 105 10 view .LVU4274
.LBE728:
.LBE727:
	.loc 1 439 36 is_stmt 1 view .LVU4275
	.loc 1 439 24 view .LVU4276
	movq	(%rsp), %r8
	leaq	.LC5(%rip), %rdx
	addq	$4, %r8
	cmpq	%r8, 136(%rsp)
	jne	.L153
	.loc 1 441 10 view .LVU4277
.LVL652:
.LBB729:
.LBI729:
	.loc 2 103 1 view .LVU4278
.LBB730:
	.loc 2 105 3 view .LVU4279
	.loc 2 105 10 is_stmt 0 view .LVU4280
	movq	stderr(%rip), %rsi
	movl	$10, %edi
	call	fputc@PLT
.LVL653:
	.loc 2 105 10 view .LVU4281
	jmp	.L152
.LVL654:
.L367:
	.loc 2 105 10 view .LVU4282
.LBE730:
.LBE729:
.LBB731:
	.loc 1 289 16 view .LVU4283
	xorl	%r12d, %r12d
	jmp	.L521
.LVL655:
.L124:
	.loc 1 289 16 view .LVU4284
.LBE731:
	.loc 1 335 24 is_stmt 1 view .LVU4285
	movl	36(%rsp), %eax
	testl	%eax, %eax
	jle	.L127
	movq	40(%rsp), %rax
	leaq	51640(%rbx), %rdx
.LVL656:
.L128:
	.loc 1 336 13 view .LVU4286
	.loc 1 336 43 is_stmt 0 view .LVU4287
	movzbl	258(%rax), %ecx
	.loc 1 336 65 view .LVU4288
	movzbl	(%rax), %esi
	.loc 1 335 24 view .LVU4289
	addq	$16, %rdx
	addq	$1, %rax
.LVL657:
	.loc 1 336 47 view .LVU4290
	sall	$16, %ecx
	.loc 1 336 54 view .LVU4291
	orl	%esi, %ecx
	movl	%ecx, -16(%rdx)
	.loc 1 337 13 is_stmt 1 view .LVU4292
	.loc 1 337 43 is_stmt 0 view .LVU4293
	movzbl	773(%rax), %ecx
	.loc 1 337 65 view .LVU4294
	movzbl	515(%rax), %esi
	.loc 1 337 47 view .LVU4295
	sall	$16, %ecx
	.loc 1 337 54 view .LVU4296
	orl	%esi, %ecx
	movl	%ecx, -12(%rdx)
	.loc 1 338 13 is_stmt 1 view .LVU4297
	.loc 1 338 43 is_stmt 0 view .LVU4298
	movzbl	1289(%rax), %ecx
	.loc 1 338 65 view .LVU4299
	movzbl	1031(%rax), %esi
	.loc 1 338 47 view .LVU4300
	sall	$16, %ecx
	.loc 1 338 54 view .LVU4301
	orl	%esi, %ecx
	movl	%ecx, -8(%rdx)
	.loc 1 335 38 is_stmt 1 view .LVU4302
	.loc 1 335 24 view .LVU4303
	cmpq	%rdx, 128(%rsp)
	jne	.L128
.LVL658:
	.loc 1 345 7 view .LVU4304
	.loc 1 348 10 view .LVU4305
	.loc 1 348 13 is_stmt 0 view .LVU4306
	movl	(%rsp), %eax
	testl	%eax, %eax
	jg	.L551
.L371:
	movl	$0, 16(%rsp)
	xorl	%r15d, %r15d
	jmp	.L125
.LVL659:
.L541:
	.loc 1 356 48 view .LVU4307
	movq	48(%rsp), %rax
	xorl	%r10d, %r10d
	movw	%r10w, -2(%rax)
.LVL660:
	.loc 1 356 48 view .LVU4308
	jmp	.L132
.LVL661:
.L536:
	.loc 1 356 48 view .LVU4309
.LBE752:
.LBE824:
	.loc 1 664 10 is_stmt 1 view .LVU4310
.LBB825:
.LBI825:
	.loc 2 103 1 view .LVU4311
.LBB826:
	.loc 2 105 3 view .LVU4312
	.loc 2 105 10 is_stmt 0 view .LVU4313
	movl	652(%rbx), %ecx
	movq	stderr(%rip), %rdi
	leaq	.LC10(%rip), %rdx
	xorl	%eax, %eax
	movl	$1, %esi
	call	__fprintf_chk@PLT
.LVL662:
	.loc 2 105 10 view .LVU4314
	jmp	.L357
.LVL663:
.L363:
	.loc 2 105 10 view .LVU4315
.LBE826:
.LBE825:
.LBB827:
.LBB753:
	movl	$3, 68(%rsp)
	.loc 1 274 31 view .LVU4316
	movl	$3, %r13d
	jmp	.L106
.LVL664:
.L531:
	.loc 1 272 26 is_stmt 1 view .LVU4317
	movl	$3001, %edi
	call	BZ2_bz__AssertH__fail@PLT
.LVL665:
	.loc 1 273 9 is_stmt 0 view .LVU4318
	movl	668(%rbx), %r11d
	jmp	.L105
.LVL666:
.L548:
	.loc 1 542 7 is_stmt 1 view .LVU4319
.LBB732:
.LBI732:
	.loc 2 103 1 view .LVU4320
.LBB733:
	.loc 2 105 3 view .LVU4321
.LBE733:
.LBE732:
	.loc 1 542 7 is_stmt 0 view .LVU4322
	movl	%r12d, %ecx
.LBB737:
.LBB734:
	.loc 2 105 10 view .LVU4323
	movq	stderr(%rip), %rdi
.LVL667:
	.loc 2 105 10 view .LVU4324
	movl	$1, %esi
	xorl	%eax, %eax
.LBE734:
.LBE737:
	.loc 1 542 7 view .LVU4325
	subl	%edx, %ecx
.LBB738:
.LBB735:
	.loc 2 105 10 view .LVU4326
	leaq	.LC8(%rip), %rdx
	call	__fprintf_chk@PLT
.LVL668:
	.loc 2 105 10 view .LVU4327
.LBE735:
.LBE738:
	.loc 1 545 11 view .LVU4328
	movl	116(%rbx), %r12d
.LBB739:
.LBB736:
	.loc 2 105 10 view .LVU4329
	jmp	.L222
.LVL669:
.L547:
	.loc 2 105 10 view .LVU4330
.LBE736:
.LBE739:
	.loc 1 526 7 is_stmt 1 view .LVU4331
.LBB740:
.LBI740:
	.loc 2 103 1 view .LVU4332
.LBB741:
	.loc 2 105 3 view .LVU4333
.LBE741:
.LBE740:
	.loc 1 526 7 is_stmt 0 view .LVU4334
	subl	%eax, %edx
.LBB745:
.LBB742:
	.loc 2 105 10 view .LVU4335
	movq	stderr(%rip), %rdi
	movl	$1, %esi
	xorl	%eax, %eax
.LBE742:
.LBE745:
	.loc 1 526 7 view .LVU4336
	movl	%edx, %ecx
.LBB746:
.LBB743:
	.loc 2 105 10 view .LVU4337
	leaq	.LC7(%rip), %rdx
	call	__fprintf_chk@PLT
.LVL670:
	.loc 2 105 10 view .LVU4338
.LBE743:
.LBE746:
	.loc 1 529 11 view .LVU4339
	movl	116(%rbx), %edx
.LBB747:
.LBB744:
	.loc 2 105 10 view .LVU4340
	jmp	.L206
.LVL671:
.L546:
	.loc 2 105 10 view .LVU4341
.LBE744:
.LBE747:
.LBB748:
	.loc 1 514 10 is_stmt 1 view .LVU4342
.LBB457:
.LBI457:
	.loc 2 103 1 view .LVU4343
.LBB458:
	.loc 2 105 3 view .LVU4344
.LBE458:
.LBE457:
	.loc 1 514 10 is_stmt 0 view .LVU4345
	subl	%r12d, %eax
.LBB462:
.LBB459:
	.loc 2 105 10 view .LVU4346
	movq	stderr(%rip), %rdi
	movl	$1, %esi
	leaq	.LC6(%rip), %rdx
.LBE459:
.LBE462:
	.loc 1 514 10 view .LVU4347
	movl	%eax, %ecx
.LBB463:
.LBB460:
	.loc 2 105 10 view .LVU4348
	xorl	%eax, %eax
	call	__fprintf_chk@PLT
.LVL672:
	.loc 2 105 10 view .LVU4349
.LBE460:
.LBE463:
.LBE748:
	.loc 1 518 11 view .LVU4350
	movl	116(%rbx), %eax
.LBB749:
.LBB464:
.LBB461:
	.loc 2 105 10 view .LVU4351
	jmp	.L193
.LVL673:
.L530:
	.loc 2 105 10 view .LVU4352
.LBE461:
.LBE464:
.LBE749:
	.loc 1 262 7 is_stmt 1 view .LVU4353
.LBB750:
.LBI750:
	.loc 2 103 1 view .LVU4354
.LBB751:
	.loc 2 105 3 view .LVU4355
	.loc 2 105 10 is_stmt 0 view .LVU4356
	movl	108(%rbx), %ecx
	movl	124(%rbx), %r9d
	leaq	.LC1(%rip), %rdx
	xorl	%eax, %eax
	movl	668(%rbx), %r8d
	movq	stderr(%rip), %rdi
	movl	$1, %esi
	call	__fprintf_chk@PLT
.LVL674:
	.loc 2 105 10 view .LVU4357
	jmp	.L100
.LVL675:
.L364:
	.loc 2 105 10 view .LVU4358
.LBE751:
.LBE750:
	movl	$4, 68(%rsp)
	.loc 1 275 32 view .LVU4359
	movl	$4, %r13d
	jmp	.L106
.LVL676:
.L92:
	.loc 1 275 32 view .LVU4360
.LBE753:
.LBE827:
.LBB828:
.LBB389:
.LBB386:
	.loc 1 77 14 view .LVU4361
	leal	8(%rsi), %edi
	jmp	.L94
.LVL677:
.L345:
	.loc 1 77 14 view .LVU4362
.LBE386:
.LBE389:
.LBE828:
.LBB829:
.LBB800:
.LBB799:
	leal	8(%rdi), %esi
	jmp	.L347
.L348:
.LBE799:
.LBE800:
.LBE829:
.LBB830:
.LBB805:
.LBB804:
	leal	8(%rsi), %edi
	jmp	.L350
.L351:
.LBE804:
.LBE805:
.LBE830:
.LBB831:
.LBB810:
.LBB809:
	leal	8(%rdi), %esi
	jmp	.L353
.L354:
.LBE809:
.LBE810:
.LBE831:
.LBB832:
.LBB819:
.LBB816:
	leal	8(%rsi), %edi
	jmp	.L356
.LVL678:
.L70:
	.loc 1 77 14 view .LVU4363
.LBE816:
.LBE819:
.LBE832:
.LBB833:
.LBB776:
.LBB773:
	leal	8(%rdi), %esi
	jmp	.L72
.LVL679:
.L73:
	.loc 1 77 14 view .LVU4364
.LBE773:
.LBE776:
.LBE833:
.LBB834:
.LBB785:
.LBB784:
.LBB783:
	leal	8(%rsi), %edi
.LVL680:
	.loc 1 77 14 view .LVU4365
	jmp	.L75
.LVL681:
.L339:
	.loc 1 77 14 view .LVU4366
.LBE783:
.LBE784:
.LBE785:
.LBE834:
.LBB835:
.LBB790:
.LBB789:
	leal	8(%rdi), %esi
	jmp	.L341
.L342:
.LBE789:
.LBE790:
.LBE835:
.LBB836:
.LBB795:
.LBB794:
	leal	8(%rsi), %edi
	jmp	.L344
.L533:
.LBE794:
.LBE795:
.LBE836:
	.loc 1 667 1 view .LVU4367
	call	__stack_chk_fail@PLT
.LVL682:
	.p2align 4,,10
	.p2align 3
.L77:
.LBB837:
.LBB360:
.LBB359:
	.loc 1 77 14 view .LVU4368
	leal	8(%rdi), %esi
	jmp	.L79
.L80:
	.loc 1 77 14 view .LVU4369
.LBE359:
.LBE360:
.LBE837:
.LBB838:
.LBB365:
.LBB364:
	leal	8(%rsi), %edi
	jmp	.L82
.L83:
	.loc 1 77 14 view .LVU4370
.LBE364:
.LBE365:
.LBE838:
.LBB839:
.LBB370:
.LBB369:
	leal	8(%rdi), %esi
	jmp	.L85
.L86:
	.loc 1 77 14 view .LVU4371
.LBE369:
.LBE370:
.LBE839:
.LBB840:
.LBB375:
.LBB374:
	leal	8(%rsi), %edi
	jmp	.L88
.L89:
	.loc 1 77 14 view .LVU4372
.LBE374:
.LBE375:
.LBE840:
.LBB841:
.LBB380:
.LBB379:
	leal	8(%rdi), %esi
	jmp	.L91
.LBE379:
.LBE380:
.LBE841:
	.cfi_endproc
.LFE61:
	.size	BZ2_compressBlock, .-BZ2_compressBlock
	.section	.rodata.cst8,"aM",@progbits,8
	.align 8
.LC2:
	.long	0
	.long	1079574528
	.text
.Letext0:
	.file 3 "/usr/lib/gcc/x86_64-linux-gnu/11/include/stddef.h"
	.file 4 "/usr/include/x86_64-linux-gnu/bits/types.h"
	.file 5 "/usr/include/x86_64-linux-gnu/bits/types/struct_FILE.h"
	.file 6 "/usr/include/x86_64-linux-gnu/bits/types/FILE.h"
	.file 7 "bzlib.h"
	.file 8 "bzlib_private.h"
	.file 9 "/usr/include/stdio.h"
	.file 10 "<built-in>"
	.section	.note.GNU-stack,"",@progbits
	.section	.note.gnu.property,"a"
	.align 8
	.long	1f - 0f
	.long	4f - 1f
	.long	5
0:
	.string	"GNU"
1:
	.align 8
	.long	0xc0000002
	.long	3f - 2f
2:
	.long	0x3
3:
	.align 8
4:
