	.file	"bzip2recover.c"
	.text
.Ltext0:
	.file 0 "/root/crown-rust/bzip2-real-test" "bzip2recover.c"
	.section	.rodata.str1.8,"aMS",@progbits,1
	.align 8
.LC0:
	.string	"%s: I/O error reading `%s', possible reason follows.\n"
	.align 8
.LC1:
	.string	"%s: warning: output file(s) may be incomplete.\n"
	.text
	.p2align 4
	.type	readError, @function
readError:
.LFB51:
	.file 1 "bzip2recover.c"
	.loc 1 86 1 view -0
	.cfi_startproc
	.loc 1 87 4 view .LVU1
.LVL0:
.LBB63:
.LBI63:
	.file 2 "/usr/include/x86_64-linux-gnu/bits/stdio2.h"
	.loc 2 103 1 view .LVU2
.LBB64:
	.loc 2 105 3 view .LVU3
.LBE64:
.LBE63:
	.loc 1 86 1 is_stmt 0 view .LVU4
	pushq	%r12
	.cfi_def_cfa_offset 16
	.cfi_offset 12, -16
.LBB66:
.LBB65:
	.loc 2 105 10 view .LVU5
	movq	stderr(%rip), %rdi
	movl	$1, %esi
	xorl	%eax, %eax
	leaq	progName(%rip), %r12
	leaq	inFileName(%rip), %r8
	movq	%r12, %rcx
	leaq	.LC0(%rip), %rdx
	call	__fprintf_chk@PLT
.LVL1:
	.loc 2 105 10 view .LVU6
.LBE65:
.LBE66:
	.loc 1 90 4 is_stmt 1 view .LVU7
	movq	%r12, %rdi
	call	perror@PLT
.LVL2:
	.loc 1 91 4 view .LVU8
.LBB67:
.LBI67:
	.loc 2 103 1 view .LVU9
.LBB68:
	.loc 2 105 3 view .LVU10
	.loc 2 105 10 is_stmt 0 view .LVU11
	movq	%r12, %rcx
	movl	$1, %esi
	xorl	%eax, %eax
	movq	stderr(%rip), %rdi
	leaq	.LC1(%rip), %rdx
	call	__fprintf_chk@PLT
.LVL3:
	.loc 2 105 10 view .LVU12
.LBE68:
.LBE67:
	.loc 1 93 4 is_stmt 1 view .LVU13
	movl	$1, %edi
	call	exit@PLT
.LVL4:
	.cfi_endproc
.LFE51:
	.size	readError, .-readError
	.set	writeError,readError
	.p2align 4
	.type	bsClose, @function
bsClose:
.LVL5:
.LFB59:
	.loc 1 219 1 view -0
	.cfi_startproc
	.loc 1 220 4 view .LVU15
	.loc 1 222 4 view .LVU16
	.loc 1 219 1 is_stmt 0 view .LVU17
	pushq	%rbp
	.cfi_def_cfa_offset 16
	.cfi_offset 6, -16
	.loc 1 222 7 view .LVU18
	cmpb	$119, 16(%rdi)
	.loc 1 219 1 view .LVU19
	movq	%rdi, %rbp
	.loc 1 222 7 view .LVU20
	jne	.L5
	.loc 1 223 28 is_stmt 1 view .LVU21
	.loc 1 223 17 is_stmt 0 view .LVU22
	movl	12(%rdi), %eax
	movl	8(%rdi), %edi
.LVL6:
	.loc 1 223 28 view .LVU23
	cmpl	$7, %eax
	jg	.L6
	.p2align 4,,10
	.p2align 3
.L7:
	.loc 1 224 10 is_stmt 1 view .LVU24
	.loc 1 224 22 is_stmt 0 view .LVU25
	addl	$1, %eax
	.loc 1 225 10 is_stmt 1 view .LVU26
	.loc 1 225 21 is_stmt 0 view .LVU27
	addl	%edi, %edi
	.loc 1 223 28 is_stmt 1 view .LVU28
	cmpl	$8, %eax
	jne	.L7
	movl	$8, 12(%rbp)
	movl	%edi, 8(%rbp)
.L6:
	.loc 1 226 8 view .LVU29
	.loc 1 227 7 view .LVU30
	.loc 1 227 16 is_stmt 0 view .LVU31
	movq	0(%rbp), %rsi
	movzbl	%dil, %edi
	call	putc@PLT
.LVL7:
	.loc 1 228 7 is_stmt 1 view .LVU32
	.loc 1 228 10 is_stmt 0 view .LVU33
	cmpl	$-1, %eax
	je	.L9
	.loc 1 229 7 is_stmt 1 view .LVU34
	.loc 1 230 16 is_stmt 0 view .LVU35
	movq	0(%rbp), %rdi
	.loc 1 229 15 view .LVU36
	addq	$1, bytesOut(%rip)
	.loc 1 230 7 is_stmt 1 view .LVU37
	.loc 1 230 16 is_stmt 0 view .LVU38
	call	fflush@PLT
.LVL8:
	.loc 1 231 7 is_stmt 1 view .LVU39
	.loc 1 231 10 is_stmt 0 view .LVU40
	cmpl	$-1, %eax
	je	.L9
.LVL9:
.L5:
	.loc 1 233 4 is_stmt 1 view .LVU41
	.loc 1 233 13 is_stmt 0 view .LVU42
	movq	0(%rbp), %rdi
	call	fclose@PLT
.LVL10:
	.loc 1 234 4 is_stmt 1 view .LVU43
	.loc 1 234 7 is_stmt 0 view .LVU44
	cmpl	$-1, %eax
	jne	.L10
	.loc 1 235 7 is_stmt 1 view .LVU45
	.loc 1 235 10 is_stmt 0 view .LVU46
	cmpb	$119, 16(%rbp)
	je	.L9
	.loc 1 235 47 is_stmt 1 discriminator 2 view .LVU47
	call	readError
.LVL11:
	.p2align 4,,10
	.p2align 3
.L10:
	.loc 1 237 4 view .LVU48
	movq	%rbp, %rdi
	.loc 1 238 1 is_stmt 0 view .LVU49
	popq	%rbp
	.cfi_remember_state
	.cfi_def_cfa_offset 8
.LVL12:
	.loc 1 237 4 view .LVU50
	jmp	free@PLT
.LVL13:
	.p2align 4,,10
	.p2align 3
.L9:
	.cfi_restore_state
	.loc 1 228 25 is_stmt 1 discriminator 1 view .LVU51
	call	writeError
.LVL14:
	.loc 1 228 25 is_stmt 0 discriminator 1 view .LVU52
	.cfi_endproc
.LFE59:
	.size	bsClose, .-bsClose
	.p2align 4
	.type	bsGetBit, @function
bsGetBit:
.LVL15:
.LFB58:
	.loc 1 200 1 is_stmt 1 view -0
	.cfi_startproc
	.loc 1 201 4 view .LVU54
	.loc 1 200 1 is_stmt 0 view .LVU55
	pushq	%rbx
	.cfi_def_cfa_offset 16
	.cfi_offset 3, -16
	.loc 1 201 10 view .LVU56
	movl	12(%rdi), %ecx
	.loc 1 200 1 view .LVU57
	movq	%rdi, %rbx
	.loc 1 201 7 view .LVU58
	testl	%ecx, %ecx
	jle	.L17
	.loc 1 202 7 is_stmt 1 view .LVU59
	.loc 1 203 30 is_stmt 0 view .LVU60
	movl	8(%rdi), %eax
	.loc 1 202 20 view .LVU61
	subl	$1, %ecx
	movl	%ecx, 12(%rdi)
	.loc 1 203 7 is_stmt 1 view .LVU62
	.loc 1 214 1 is_stmt 0 view .LVU63
	popq	%rbx
	.cfi_remember_state
	.cfi_def_cfa_offset 8
	.loc 1 203 30 view .LVU64
	sarl	%cl, %eax
	.loc 1 203 49 view .LVU65
	andl	$1, %eax
	.loc 1 214 1 view .LVU66
	ret
.LVL16:
	.p2align 4,,10
	.p2align 3
.L17:
	.cfi_restore_state
.LBB73:
	.loc 1 205 7 is_stmt 1 view .LVU67
	.loc 1 205 22 is_stmt 0 view .LVU68
	movq	(%rdi), %rdi
	call	getc@PLT
.LVL17:
	.loc 1 206 7 is_stmt 1 view .LVU69
	.loc 1 206 10 is_stmt 0 view .LVU70
	cmpl	$-1, %eax
	jne	.L19
.LBE73:
.LBB74:
.LBI74:
	.loc 1 199 14 is_stmt 1 view .LVU71
.LVL18:
.LBB75:
	.loc 1 207 10 view .LVU72
	.loc 1 207 15 is_stmt 0 view .LVU73
	call	__errno_location@PLT
.LVL19:
	.loc 1 207 13 view .LVU74
	movl	(%rax), %eax
	testl	%eax, %eax
	jne	.L22
	movl	$2, %eax
.LVL20:
	.loc 1 207 13 view .LVU75
.LBE75:
.LBE74:
	.loc 1 214 1 view .LVU76
	popq	%rbx
	.cfi_remember_state
	.cfi_def_cfa_offset 8
.LVL21:
	.loc 1 214 1 view .LVU77
	ret
.LVL22:
	.p2align 4,,10
	.p2align 3
.L19:
	.cfi_restore_state
.LBB77:
	.loc 1 210 7 is_stmt 1 view .LVU78
	.loc 1 211 18 is_stmt 0 view .LVU79
	movl	%eax, 8(%rbx)
	.loc 1 212 30 view .LVU80
	sarl	$7, %eax
.LVL23:
	.loc 1 210 20 view .LVU81
	movl	$7, 12(%rbx)
	.loc 1 211 7 is_stmt 1 view .LVU82
	.loc 1 212 7 view .LVU83
	.loc 1 212 36 is_stmt 0 view .LVU84
	andl	$1, %eax
.LBE77:
	.loc 1 214 1 view .LVU85
	popq	%rbx
	.cfi_remember_state
	.cfi_def_cfa_offset 8
.LVL24:
	.loc 1 214 1 view .LVU86
	ret
.LVL25:
.L22:
	.cfi_restore_state
.LBB78:
.LBB76:
	.loc 1 207 25 is_stmt 1 view .LVU87
	call	readError
.LVL26:
.LBE76:
.LBE78:
	.cfi_endproc
.LFE58:
	.size	bsGetBit, .-bsGetBit
	.section	.rodata.str1.8
	.align 8
.LC2:
	.string	"%s: malloc failed on request for %d bytes.\n"
	.text
	.p2align 4
	.type	mallocFail.constprop.0, @function
mallocFail.constprop.0:
.LFB66:
	.loc 1 111 13 view -0
	.cfi_startproc
.LVL27:
	.loc 1 113 4 view .LVU89
.LBB83:
.LBI83:
	.loc 2 103 1 view .LVU90
.LBB84:
	.loc 2 105 3 view .LVU91
.LBE84:
.LBE83:
	.loc 1 111 13 is_stmt 0 view .LVU92
	pushq	%r12
	.cfi_def_cfa_offset 16
	.cfi_offset 12, -16
.LBB86:
.LBB85:
	.loc 2 105 10 view .LVU93
	movq	stderr(%rip), %rdi
	movl	$1, %esi
	xorl	%eax, %eax
	leaq	progName(%rip), %r12
	movl	$24, %r8d
	leaq	.LC2(%rip), %rdx
	movq	%r12, %rcx
	call	__fprintf_chk@PLT
.LVL28:
	.loc 2 105 10 view .LVU94
.LBE85:
.LBE86:
	.loc 1 116 4 is_stmt 1 view .LVU95
.LBB87:
.LBI87:
	.loc 2 103 1 view .LVU96
.LBB88:
	.loc 2 105 3 view .LVU97
	.loc 2 105 10 is_stmt 0 view .LVU98
	movq	%r12, %rcx
	movl	$1, %esi
	xorl	%eax, %eax
	movq	stderr(%rip), %rdi
	leaq	.LC1(%rip), %rdx
	call	__fprintf_chk@PLT
.LVL29:
	.loc 2 105 10 view .LVU99
.LBE88:
.LBE87:
	.loc 1 118 4 is_stmt 1 view .LVU100
	movl	$1, %edi
	call	exit@PLT
.LVL30:
	.cfi_endproc
.LFE66:
	.size	mallocFail.constprop.0, .-mallocFail.constprop.0
	.p2align 4
	.type	bsOpenReadStream, @function
bsOpenReadStream:
.LVL31:
.LFB55:
	.loc 1 155 1 view -0
	.cfi_startproc
	.loc 1 156 4 view .LVU102
	.loc 1 155 1 is_stmt 0 view .LVU103
	pushq	%rbx
	.cfi_def_cfa_offset 16
	.cfi_offset 3, -16
	.loc 1 155 1 view .LVU104
	movq	%rdi, %rbx
	.loc 1 156 20 view .LVU105
	movl	$24, %edi
.LVL32:
	.loc 1 156 20 view .LVU106
	call	malloc@PLT
.LVL33:
	.loc 1 157 4 is_stmt 1 view .LVU107
	.loc 1 157 7 is_stmt 0 view .LVU108
	testq	%rax, %rax
	je	.L28
	.loc 1 158 4 is_stmt 1 view .LVU109
	.loc 1 158 15 is_stmt 0 view .LVU110
	movq	%rbx, (%rax)
	.loc 1 159 4 is_stmt 1 view .LVU111
	.loc 1 160 4 view .LVU112
	.loc 1 161 4 view .LVU113
	.loc 1 159 15 is_stmt 0 view .LVU114
	movq	$0, 8(%rax)
	.loc 1 161 13 view .LVU115
	movb	$114, 16(%rax)
	.loc 1 162 4 is_stmt 1 view .LVU116
	.loc 1 163 1 is_stmt 0 view .LVU117
	popq	%rbx
	.cfi_remember_state
	.cfi_def_cfa_offset 8
.LVL34:
	.loc 1 163 1 view .LVU118
	ret
.LVL35:
.L28:
	.cfi_restore_state
	.loc 1 157 19 is_stmt 1 discriminator 1 view .LVU119
	call	mallocFail.constprop.0
.LVL36:
	.loc 1 157 19 is_stmt 0 discriminator 1 view .LVU120
	.cfi_endproc
.LFE55:
	.size	bsOpenReadStream, .-bsOpenReadStream
	.p2align 4
	.type	bsPutUChar, @function
bsPutUChar:
.LVL37:
.LFB60:
	.loc 1 243 1 is_stmt 1 view -0
	.cfi_startproc
	.loc 1 244 4 view .LVU122
	.loc 1 245 4 view .LVU123
	.loc 1 245 18 view .LVU124
	.loc 1 243 1 is_stmt 0 view .LVU125
	pushq	%r13
	.cfi_def_cfa_offset 16
	.cfi_offset 13, -16
	.loc 1 246 24 view .LVU126
	movzbl	%sil, %r13d
	.loc 1 243 1 view .LVU127
	pushq	%r12
	.cfi_def_cfa_offset 24
	.cfi_offset 12, -24
	pushq	%rbp
	.cfi_def_cfa_offset 32
	.cfi_offset 6, -32
	.loc 1 245 11 view .LVU128
	movl	$7, %ebp
	.loc 1 243 1 view .LVU129
	pushq	%rbx
	.cfi_def_cfa_offset 40
	.cfi_offset 3, -40
	movq	%rdi, %rbx
	subq	$8, %rsp
	.cfi_def_cfa_offset 48
	jmp	.L33
.LVL38:
	.p2align 4,,10
	.p2align 3
.L30:
.LBB94:
.LBB95:
	.loc 1 189 7 is_stmt 1 view .LVU130
	.loc 1 189 34 is_stmt 0 view .LVU131
	addl	%edi, %edi
	.loc 1 190 19 view .LVU132
	addl	$1, %eax
	.loc 1 189 40 view .LVU133
	orl	%r12d, %edi
	.loc 1 190 19 view .LVU134
	movl	%eax, 12(%rbx)
	.loc 1 189 40 view .LVU135
	movl	%edi, 8(%rbx)
	.loc 1 190 7 is_stmt 1 view .LVU136
	.loc 1 191 5 view .LVU137
.LVL39:
	.loc 1 191 5 is_stmt 0 view .LVU138
.LBE95:
.LBE94:
	.loc 1 245 25 is_stmt 1 view .LVU139
	.loc 1 245 18 is_stmt 0 view .LVU140
	subl	$1, %ebp
.LVL40:
	.loc 1 245 18 view .LVU141
	jb	.L36
.LVL41:
.L33:
	.loc 1 246 7 is_stmt 1 discriminator 3 view .LVU142
	.loc 1 246 36 is_stmt 0 discriminator 3 view .LVU143
	movl	%r13d, %r12d
	movl	%ebp, %ecx
.LBB108:
.LBB105:
	.loc 1 182 10 discriminator 3 view .LVU144
	movl	12(%rbx), %eax
.LBB96:
.LBB97:
.LBB98:
	.loc 1 183 39 discriminator 3 view .LVU145
	movl	8(%rbx), %edi
.LBE98:
.LBE97:
.LBE96:
.LBE105:
.LBE108:
	.loc 1 246 36 discriminator 3 view .LVU146
	shrl	%cl, %r12d
	.loc 1 246 7 discriminator 3 view .LVU147
	andl	$1, %r12d
.LVL42:
.LBB109:
.LBI94:
	.loc 1 180 13 is_stmt 1 discriminator 3 view .LVU148
.LBB106:
	.loc 1 182 4 discriminator 3 view .LVU149
	.loc 1 182 7 is_stmt 0 discriminator 3 view .LVU150
	cmpl	$8, %eax
	jne	.L30
.LVL43:
.LBB103:
.LBI96:
	.loc 1 180 13 is_stmt 1 view .LVU151
.LBB101:
.LBB99:
	.loc 1 183 7 view .LVU152
	.loc 1 183 22 is_stmt 0 view .LVU153
	movq	(%rbx), %rsi
	movzbl	%dil, %edi
	call	putc@PLT
.LVL44:
	.loc 1 184 7 is_stmt 1 view .LVU154
	.loc 1 184 10 is_stmt 0 view .LVU155
	cmpl	$-1, %eax
	je	.L37
	.loc 1 185 7 is_stmt 1 view .LVU156
	.loc 1 185 15 is_stmt 0 view .LVU157
	addq	$1, bytesOut(%rip)
	.loc 1 186 7 is_stmt 1 view .LVU158
	.loc 1 186 20 is_stmt 0 view .LVU159
	movl	$1, 12(%rbx)
	.loc 1 187 7 is_stmt 1 view .LVU160
	.loc 1 187 18 is_stmt 0 view .LVU161
	movl	%r12d, 8(%rbx)
.LBE99:
	.loc 1 191 5 is_stmt 1 view .LVU162
.LVL45:
	.loc 1 191 5 is_stmt 0 view .LVU163
.LBE101:
.LBE103:
	.loc 1 191 5 is_stmt 1 view .LVU164
	.loc 1 191 5 is_stmt 0 view .LVU165
.LBE106:
.LBE109:
	.loc 1 245 25 is_stmt 1 view .LVU166
	.loc 1 245 18 is_stmt 0 view .LVU167
	subl	$1, %ebp
.LVL46:
	.loc 1 245 18 view .LVU168
	jnb	.L33
.LVL47:
.L36:
	.loc 1 247 1 view .LVU169
	addq	$8, %rsp
	.cfi_remember_state
	.cfi_def_cfa_offset 40
	popq	%rbx
	.cfi_def_cfa_offset 32
.LVL48:
	.loc 1 247 1 view .LVU170
	popq	%rbp
	.cfi_def_cfa_offset 24
	popq	%r12
	.cfi_def_cfa_offset 16
	popq	%r13
	.cfi_def_cfa_offset 8
.LVL49:
	.loc 1 247 1 view .LVU171
	ret
.LVL50:
.L37:
	.cfi_restore_state
.LBB110:
.LBB107:
.LBB104:
.LBB102:
.LBB100:
	.loc 1 184 25 is_stmt 1 view .LVU172
	call	writeError
.LVL51:
	.loc 1 184 25 is_stmt 0 view .LVU173
.LBE100:
.LBE102:
.LBE104:
.LBE107:
.LBE110:
	.cfi_endproc
.LFE60:
	.size	bsPutUChar, .-bsPutUChar
	.section	.rodata.str1.8
	.align 8
.LC3:
	.string	"bzip2recover 1.0.8: extracts blocks from damaged .bz2 files.\n"
	.align 8
.LC4:
	.string	"%s: usage is `%s damaged_file_name'.\n"
	.align 8
.LC5:
	.string	"\trestrictions on size of recovered file: None\n"
	.align 8
.LC6:
	.string	"%s: supplied filename is suspiciously (>= %d chars) long.  Bye!\n"
	.section	.rodata.str1.1,"aMS",@progbits,1
.LC7:
	.string	"rb"
.LC8:
	.string	"%s: can't read `%s'\n"
	.section	.rodata.str1.8
	.align 8
.LC9:
	.string	"%s: searching for block boundaries ...\n"
	.align 8
.LC10:
	.string	"   block %d runs from %Lu to %Lu (incomplete)\n"
	.align 8
.LC11:
	.string	"   block %d runs from %Lu to %Lu\n"
	.align 8
.LC12:
	.string	"%s: `%s' appears to contain more than %d blocks\n"
	.align 8
.LC13:
	.string	"%s: and cannot be handled.  To fix, increase\n"
	.align 8
.LC14:
	.string	"%s: BZ_MAX_HANDLED_BLOCKS in bzip2recover.c, and recompile.\n"
	.align 8
.LC15:
	.string	"%s: sorry, I couldn't find any block boundaries.\n"
	.section	.rodata.str1.1
.LC16:
	.string	"%s: splitting into blocks\n"
.LC17:
	.string	"%s: can't open `%s'\n"
.LC18:
	.string	"rec%5d"
.LC19:
	.string	".bz2"
	.section	.rodata.str1.8
	.align 8
.LC20:
	.string	"   writing block %d to `%s' ...\n"
	.section	.rodata.str1.1
.LC21:
	.string	"wb"
.LC22:
	.string	"%s: can't write `%s'\n"
.LC23:
	.string	"%s: finished\n"
	.section	.text.startup,"ax",@progbits
	.p2align 4
	.globl	main
	.type	main, @function
main:
.LVL52:
.LFB63:
	.loc 1 302 1 is_stmt 1 view -0
	.cfi_startproc
	.loc 1 302 1 is_stmt 0 view .LVU175
	endbr64
	.loc 1 303 4 is_stmt 1 view .LVU176
	.loc 1 304 4 view .LVU177
	.loc 1 305 4 view .LVU178
	.loc 1 306 4 view .LVU179
	.loc 1 307 4 view .LVU180
	.loc 1 309 4 view .LVU181
	.loc 1 310 4 view .LVU182
	.loc 1 312 4 view .LVU183
.LVL53:
.LBB182:
.LBI182:
	.file 3 "/usr/include/x86_64-linux-gnu/bits/string_fortified.h"
	.loc 3 92 42 view .LVU184
.LBB183:
	.loc 3 95 3 view .LVU185
.LBE183:
.LBE182:
	.loc 1 302 1 is_stmt 0 view .LVU186
	pushq	%r15
	.cfi_def_cfa_offset 16
	.cfi_offset 15, -16
.LVL54:
.LBB187:
.LBB184:
	.loc 3 95 10 view .LVU187
	movl	$1999, %edx
.LBE184:
.LBE187:
	.loc 1 302 1 view .LVU188
	pushq	%r14
	.cfi_def_cfa_offset 24
	.cfi_offset 14, -24
	pushq	%r13
	.cfi_def_cfa_offset 32
	.cfi_offset 13, -32
	pushq	%r12
	.cfi_def_cfa_offset 40
	.cfi_offset 12, -40
	pushq	%rbp
	.cfi_def_cfa_offset 48
	.cfi_offset 6, -48
	movl	%edi, %ebp
.LBB188:
.LBB185:
	.loc 3 95 10 view .LVU189
	leaq	progName(%rip), %rdi
.LVL55:
	.loc 3 95 10 view .LVU190
.LBE185:
.LBE188:
	.loc 1 302 1 view .LVU191
	pushq	%rbx
	.cfi_def_cfa_offset 56
	.cfi_offset 3, -56
	movq	%rsi, %rbx
	subq	$40, %rsp
	.cfi_def_cfa_offset 96
.LBB189:
.LBB186:
	.loc 3 95 10 view .LVU192
	movq	(%rsi), %rsi
.LVL56:
	.loc 3 95 10 view .LVU193
	call	strncpy@PLT
.LVL57:
	.loc 3 95 10 view .LVU194
.LBE186:
.LBE189:
	.loc 1 313 4 is_stmt 1 view .LVU195
.LBB190:
.LBB191:
	.loc 2 105 10 is_stmt 0 view .LVU196
	movl	$61, %edx
	movq	stderr(%rip), %rcx
	movl	$1, %esi
	leaq	.LC3(%rip), %rdi
.LBE191:
.LBE190:
	.loc 1 313 21 view .LVU197
	movb	$0, 1999+progName(%rip)
	.loc 1 314 4 is_stmt 1 view .LVU198
	.loc 1 314 35 is_stmt 0 view .LVU199
	movb	$0, outFileName(%rip)
	.loc 1 314 18 view .LVU200
	movb	$0, inFileName(%rip)
	.loc 1 316 4 is_stmt 1 view .LVU201
.LVL58:
.LBB193:
.LBI190:
	.loc 2 103 1 view .LVU202
.LBB192:
	.loc 2 105 3 view .LVU203
	.loc 2 105 10 is_stmt 0 view .LVU204
	call	fwrite@PLT
.LVL59:
	.loc 2 105 10 view .LVU205
.LBE192:
.LBE193:
	.loc 1 319 4 is_stmt 1 view .LVU206
	.loc 1 319 7 is_stmt 0 view .LVU207
	cmpl	$2, %ebp
	jne	.L112
	.loc 1 343 4 is_stmt 1 view .LVU208
	.loc 1 343 8 is_stmt 0 view .LVU209
	movq	8(%rbx), %rbp
.LVL60:
	.loc 1 343 8 view .LVU210
	movq	%rbp, %rdi
	call	strlen@PLT
.LVL61:
	.loc 1 343 7 view .LVU211
	cmpq	$1979, %rax
	ja	.L113
	.loc 1 350 4 is_stmt 1 view .LVU212
.LVL62:
.LBB194:
.LBI194:
	.loc 3 77 42 view .LVU213
.LBB195:
	.loc 3 79 3 view .LVU214
	.loc 3 79 10 is_stmt 0 view .LVU215
	leaq	1(%rax), %rdx
	movl	$2000, %ecx
	movq	%rbp, %rsi
	leaq	inFileName(%rip), %rdi
	call	__memcpy_chk@PLT
.LVL63:
	.loc 3 79 10 view .LVU216
.LBE195:
.LBE194:
	.loc 1 352 4 is_stmt 1 view .LVU217
	.loc 1 352 13 is_stmt 0 view .LVU218
	leaq	inFileName(%rip), %rdi
	leaq	.LC7(%rip), %rsi
	call	fopen64@PLT
.LVL64:
	movq	%rax, %rdi
.LVL65:
	.loc 1 353 4 is_stmt 1 view .LVU219
	.loc 1 353 7 is_stmt 0 view .LVU220
	testq	%rax, %rax
	je	.L114
	.loc 1 358 4 is_stmt 1 view .LVU221
	.loc 1 358 11 is_stmt 0 view .LVU222
	call	bsOpenReadStream
.LVL66:
.LBB196:
.LBB197:
	.loc 2 105 10 view .LVU223
	movq	stderr(%rip), %rdi
.LBE197:
.LBE196:
	.loc 1 362 20 view .LVU224
	xorl	%ebx, %ebx
.LVL67:
	.loc 1 362 11 view .LVU225
	xorl	%ebp, %ebp
	.loc 1 363 14 view .LVU226
	xorl	%r13d, %r13d
	.loc 1 358 11 view .LVU227
	movq	%rax, %r12
.LVL68:
	.loc 1 359 4 is_stmt 1 view .LVU228
.LBB200:
.LBI196:
	.loc 2 103 1 view .LVU229
.LBB198:
	.loc 2 105 3 view .LVU230
	.loc 2 105 10 is_stmt 0 view .LVU231
	leaq	progName(%rip), %rcx
	xorl	%eax, %eax
.LVL69:
	.loc 2 105 10 view .LVU232
	leaq	.LC9(%rip), %rdx
	movl	$1, %esi
.LBE198:
.LBE200:
	.loc 1 361 13 view .LVU233
	xorl	%r15d, %r15d
	xorl	%r14d, %r14d
.LBB201:
.LBB199:
	.loc 2 105 10 view .LVU234
	call	__fprintf_chk@PLT
.LVL70:
	.loc 2 105 10 view .LVU235
.LBE199:
.LBE201:
	.loc 1 361 4 is_stmt 1 view .LVU236
	.loc 1 362 4 view .LVU237
	.loc 1 363 4 view .LVU238
	.loc 1 364 4 view .LVU239
	movl	%r13d, 16(%rsp)
	movq	%r15, %r13
	.loc 1 364 22 is_stmt 0 view .LVU240
	movq	$0, bStart(%rip)
	.loc 1 366 4 is_stmt 1 view .LVU241
.LVL71:
	.loc 1 366 10 is_stmt 0 view .LVU242
	movl	$0, 20(%rsp)
	jmp	.L42
.LVL72:
	.p2align 4,,10
	.p2align 3
.L46:
	.loc 1 389 14 view .LVU243
	cmpl	$6002, %eax
	jne	.L48
	cmpl	$1161318544, %ebx
	je	.L47
.LVL73:
.L48:
	.loc 1 370 15 view .LVU244
	movq	%r15, %r13
.LVL74:
.L42:
	.loc 1 368 4 is_stmt 1 view .LVU245
	.loc 1 369 7 view .LVU246
	.loc 1 369 11 is_stmt 0 view .LVU247
	movq	%r12, %rdi
	.loc 1 370 15 view .LVU248
	leaq	1(%r13), %r15
	.loc 1 369 11 view .LVU249
	call	bsGetBit
.LVL75:
	.loc 1 370 7 is_stmt 1 view .LVU250
	.loc 1 371 7 view .LVU251
	.loc 1 371 10 is_stmt 0 view .LVU252
	cmpl	$2, %eax
	je	.L115
	.loc 1 383 7 is_stmt 1 view .LVU253
	.loc 1 383 40 is_stmt 0 view .LVU254
	movl	%ebx, %ecx
	.loc 1 383 24 view .LVU255
	addl	%ebp, %ebp
.LVL76:
	.loc 1 384 35 view .LVU256
	andl	$1, %eax
.LVL77:
	.loc 1 384 24 view .LVU257
	addl	%ebx, %ebx
.LVL78:
	.loc 1 383 40 view .LVU258
	shrl	$31, %ecx
.LVL79:
	.loc 1 384 14 view .LVU259
	orl	%eax, %ebx
	.loc 1 383 14 view .LVU260
	orl	%ecx, %ebp
.LVL80:
	.loc 1 384 7 is_stmt 1 view .LVU261
	.loc 1 385 7 view .LVU262
	.loc 1 385 22 is_stmt 0 view .LVU263
	movzwl	%bp, %eax
	.loc 1 385 10 view .LVU264
	cmpw	$12609, %bp
	jne	.L46
	.loc 1 386 14 view .LVU265
	cmpl	$1495683929, %ebx
	jne	.L48
.L47:
	.loc 1 391 10 is_stmt 1 view .LVU266
	.loc 1 392 39 is_stmt 0 view .LVU267
	leaq	-48(%r13), %rdx
	xorl	%eax, %eax
	cmpq	$49, %r15
	cmova	%rdx, %rax
	.loc 1 396 13 view .LVU268
	movl	16(%rsp), %edx
	.loc 1 392 39 view .LVU269
	movq	%rax, %r9
	leaq	bEnd(%rip), %rax
	movq	%r9, (%rax,%r14,8)
	.loc 1 396 10 is_stmt 1 view .LVU270
	.loc 1 396 13 is_stmt 0 view .LVU271
	testl	%edx, %edx
	je	.L50
	.loc 1 397 32 discriminator 1 view .LVU272
	leaq	bStart(%rip), %rax
	movq	(%rax,%r14,8), %r8
	.loc 1 397 24 discriminator 1 view .LVU273
	movq	%r9, %rax
	subq	%r8, %rax
	.loc 1 396 28 discriminator 1 view .LVU274
	cmpq	$129, %rax
	ja	.L116
.L51:
	.loc 1 405 10 is_stmt 1 view .LVU275
	.loc 1 405 13 is_stmt 0 view .LVU276
	cmpl	$49999, 16(%rsp)
	jg	.L117
.L50:
	.loc 1 407 10 is_stmt 1 view .LVU277
	.loc 1 407 19 is_stmt 0 view .LVU278
	addl	$1, 16(%rsp)
.LVL81:
	.loc 1 407 19 view .LVU279
	movslq	16(%rsp), %r14
.LVL82:
	.loc 1 409 10 is_stmt 1 view .LVU280
	.loc 1 409 28 is_stmt 0 view .LVU281
	leaq	bStart(%rip), %rax
	movq	%r15, (%rax,%r14,8)
	jmp	.L48
.LVL83:
.L115:
	.loc 1 372 32 view .LVU282
	leaq	bStart(%rip), %rax
.LVL84:
	.loc 1 372 32 view .LVU283
	movq	%r15, %r10
	movq	%r13, %r15
.LVL85:
	.loc 1 372 32 view .LVU284
	movl	16(%rsp), %r13d
	.loc 1 372 10 is_stmt 1 view .LVU285
	.loc 1 372 32 is_stmt 0 view .LVU286
	movq	(%rax,%r14,8), %r8
	.loc 1 372 13 view .LVU287
	cmpq	%r10, %r8
	jbe	.L118
.LVL86:
.L45:
	.loc 1 381 10 is_stmt 1 view .LVU288
	.loc 1 413 4 view .LVU289
	movq	%r12, %rdi
	call	bsClose
.LVL87:
	.loc 1 417 4 view .LVU290
	.loc 1 417 7 is_stmt 0 view .LVU291
	movl	20(%rsp), %eax
.LBB202:
.LBB203:
	.loc 2 105 10 view .LVU292
	leaq	progName(%rip), %rcx
.LBE203:
.LBE202:
	.loc 1 417 7 view .LVU293
	testl	%eax, %eax
	je	.L119
	.loc 1 422 5 is_stmt 1 view .LVU294
	.loc 1 424 4 view .LVU295
.LVL88:
.LBB205:
.LBI205:
	.loc 2 103 1 view .LVU296
.LBB206:
	.loc 2 105 3 view .LVU297
	.loc 2 105 10 is_stmt 0 view .LVU298
	movq	stderr(%rip), %rdi
	leaq	.LC16(%rip), %rdx
	movl	$1, %esi
	xorl	%eax, %eax
	call	__fprintf_chk@PLT
.LVL89:
	.loc 2 105 10 view .LVU299
.LBE206:
.LBE205:
	.loc 1 426 4 is_stmt 1 view .LVU300
	.loc 1 426 13 is_stmt 0 view .LVU301
	leaq	inFileName(%rip), %rdi
	leaq	.LC7(%rip), %rsi
	call	fopen64@PLT
.LVL90:
	movq	%rax, %rdi
.LVL91:
	.loc 1 427 4 is_stmt 1 view .LVU302
	.loc 1 427 7 is_stmt 0 view .LVU303
	testq	%rax, %rax
	je	.L120
	.loc 1 431 4 is_stmt 1 view .LVU304
	.loc 1 431 11 is_stmt 0 view .LVU305
	call	bsOpenReadStream
.LVL92:
	.loc 1 434 23 view .LVU306
	xorl	%r13d, %r13d
	.loc 1 431 11 view .LVU307
	xorl	%r14d, %r14d
	.loc 1 434 13 view .LVU308
	xorl	%r12d, %r12d
.LVL93:
	.loc 1 431 11 view .LVU309
	movq	%rax, 8(%rsp)
.LVL94:
	.loc 1 434 4 is_stmt 1 view .LVU310
	.loc 1 434 18 view .LVU311
	.loc 1 436 4 view .LVU312
	.loc 1 437 4 view .LVU313
	.loc 1 438 4 view .LVU314
.LBB207:
.LBB208:
.LBB209:
	.loc 2 38 10 is_stmt 0 view .LVU315
	movq	%r13, %r15
.LBE209:
.LBE208:
.LBE207:
	.loc 1 438 12 view .LVU316
	movl	$0, 16(%rsp)
	.loc 1 437 12 view .LVU317
	movq	$0, (%rsp)
.LVL95:
	.p2align 4,,10
	.p2align 3
.L54:
	.loc 1 439 4 is_stmt 1 view .LVU318
	.loc 1 440 7 view .LVU319
	.loc 1 440 11 is_stmt 0 view .LVU320
	movq	8(%rsp), %rdi
	call	bsGetBit
.LVL96:
	movl	%eax, %r13d
.LVL97:
	.loc 1 441 7 is_stmt 1 view .LVU321
	.loc 1 441 10 is_stmt 0 view .LVU322
	cmpl	$2, %eax
	je	.L55
	.loc 1 442 7 is_stmt 1 view .LVU323
	.loc 1 442 40 is_stmt 0 view .LVU324
	movl	%ebx, %eax
.LVL98:
	.loc 1 442 24 view .LVU325
	addl	%ebp, %ebp
.LVL99:
	.loc 1 444 33 view .LVU326
	movslq	16(%rsp), %rcx
	.loc 1 443 24 view .LVU327
	addl	%ebx, %ebx
.LVL100:
	.loc 1 442 40 view .LVU328
	shrl	$31, %eax
.LVL101:
	.loc 1 442 14 view .LVU329
	orl	%eax, %ebp
.LVL102:
	.loc 1 443 7 is_stmt 1 view .LVU330
	.loc 1 443 35 is_stmt 0 view .LVU331
	movl	%r13d, %eax
	andl	$1, %eax
	.loc 1 443 14 view .LVU332
	orl	%eax, %ebx
.LVL103:
	.loc 1 444 7 is_stmt 1 view .LVU333
	.loc 1 444 33 is_stmt 0 view .LVU334
	leaq	rbStart(%rip), %rax
	movq	(%rax,%rcx,8), %rax
	.loc 1 444 25 view .LVU335
	leaq	47(%rax), %rsi
	.loc 1 444 10 view .LVU336
	cmpq	%rsi, %r14
	jne	.L56
	.loc 1 445 10 is_stmt 1 view .LVU337
	.loc 1 445 29 is_stmt 0 view .LVU338
	movl	%ebp, %r12d
.LVL104:
	.loc 1 445 46 view .LVU339
	movl	%ebx, %esi
	.loc 1 445 29 view .LVU340
	sall	$16, %r12d
	.loc 1 445 46 view .LVU341
	shrl	$16, %esi
	.loc 1 445 19 view .LVU342
	orl	%esi, %r12d
.LVL105:
.L56:
	.loc 1 447 7 is_stmt 1 view .LVU343
	.loc 1 448 47 is_stmt 0 view .LVU344
	leaq	rbEnd(%rip), %rsi
	.loc 1 447 10 view .LVU345
	cmpq	$0, (%rsp)
	.loc 1 448 47 view .LVU346
	movq	(%rsi,%rcx,8), %rsi
	.loc 1 447 10 view .LVU347
	je	.L57
	.loc 1 447 26 discriminator 1 view .LVU348
	cmpq	%rax, %r14
	jb	.L58
	.loc 1 448 27 view .LVU349
	cmpq	%rsi, %r14
	jbe	.L121
	.loc 1 452 7 is_stmt 1 view .LVU350
	addq	$1, %r14
.LVL106:
	.loc 1 454 7 view .LVU351
.L77:
	.loc 1 466 7 view .LVU352
	.loc 1 466 10 is_stmt 0 view .LVU353
	cmpq	%r14, %rax
	jne	.L54
.LBB248:
	.loc 1 472 28 view .LVU354
	xorl	%eax, %eax
	movl	$250, %ecx
	leaq	outFileName(%rip), %rdi
.LBB214:
.LBB215:
	.loc 3 79 10 view .LVU355
	movl	$2000, %edx
.LBE215:
.LBE214:
	.loc 1 472 28 view .LVU356
	rep stosq
	.loc 1 473 10 is_stmt 1 view .LVU357
.LVL107:
.LBB218:
.LBI214:
	.loc 3 77 42 view .LVU358
.LBB216:
	.loc 3 79 3 view .LVU359
	.loc 3 79 10 is_stmt 0 view .LVU360
	leaq	inFileName(%rip), %rsi
	leaq	outFileName(%rip), %rdi
.LBE216:
.LBE218:
	.loc 1 478 13 view .LVU361
	leaq	outFileName(%rip), %r13
.LBB219:
.LBB217:
	.loc 3 79 10 view .LVU362
	call	__strcpy_chk@PLT
.LVL108:
	.loc 3 79 10 view .LVU363
.LBE217:
.LBE219:
	.loc 1 474 10 is_stmt 1 view .LVU364
	.loc 1 474 18 is_stmt 0 view .LVU365
	movl	$47, %esi
	leaq	outFileName(%rip), %rdi
	call	strrchr@PLT
.LVL109:
	.loc 1 475 10 is_stmt 1 view .LVU366
	.loc 1 481 22 is_stmt 0 view .LVU367
	leaq	outFileName(%rip), %rsi
.LBB220:
.LBB210:
	.loc 2 38 10 view .LVU368
	leaq	.LC18(%rip), %rcx
	movq	$-1, %rdx
.LBE210:
.LBE220:
	.loc 1 478 13 view .LVU369
	testq	%rax, %rax
	leaq	1(%rax), %rdi
	cmovne	%rdi, %r13
.LVL110:
	.loc 1 481 10 is_stmt 1 view .LVU370
	.loc 1 481 22 is_stmt 0 view .LVU371
	movq	%r13, %rax
.LBB221:
.LBB211:
	.loc 2 38 10 view .LVU372
	movq	%r13, %rdi
.LBE211:
.LBE221:
	.loc 1 481 22 view .LVU373
	subq	%rsi, %rax
.LBB222:
.LBB212:
	.loc 2 38 10 view .LVU374
	movl	$1, %esi
.LBE212:
.LBE222:
	.loc 1 481 22 view .LVU375
	movq	%rax, (%rsp)
.LVL111:
	.loc 1 482 10 is_stmt 1 view .LVU376
	movl	16(%rsp), %eax
	leal	1(%rax), %r15d
.LVL112:
.LBB223:
.LBI208:
	.loc 2 36 42 view .LVU377
.LBB213:
	.loc 2 38 3 view .LVU378
	.loc 2 38 10 is_stmt 0 view .LVU379
	xorl	%eax, %eax
	movl	%r15d, %r8d
	call	__sprintf_chk@PLT
.LVL113:
	.loc 2 38 10 view .LVU380
.LBE213:
.LBE223:
	.loc 1 483 10 is_stmt 1 view .LVU381
	.loc 1 483 29 view .LVU382
	.loc 1 483 26 is_stmt 0 view .LVU383
	movzbl	0(%r13), %eax
	.loc 1 483 29 view .LVU384
	testb	%al, %al
	je	.L72
.LVL114:
	.p2align 4,,10
	.p2align 3
.L68:
	.loc 1 483 40 is_stmt 1 discriminator 6 view .LVU385
	.loc 1 483 43 is_stmt 0 discriminator 6 view .LVU386
	cmpb	$32, %al
	jne	.L71
	.loc 1 483 55 is_stmt 1 discriminator 2 view .LVU387
	.loc 1 483 58 is_stmt 0 discriminator 2 view .LVU388
	movb	$48, 0(%r13)
.L71:
	.loc 1 483 36 is_stmt 1 discriminator 4 view .LVU389
	.loc 1 483 26 is_stmt 0 discriminator 4 view .LVU390
	movzbl	1(%r13), %eax
	.loc 1 483 36 discriminator 4 view .LVU391
	addq	$1, %r13
.LVL115:
	.loc 1 483 29 is_stmt 1 discriminator 4 view .LVU392
	testb	%al, %al
	jne	.L68
.L72:
	.loc 1 484 10 view .LVU393
.LVL116:
.LBB224:
.LBI224:
	.loc 3 128 42 view .LVU394
.LBB225:
	.loc 3 130 3 view .LVU395
	leaq	outFileName(%rip), %rdi
	.loc 3 130 10 is_stmt 0 view .LVU396
	leaq	outFileName(%rip), %r13
.LVL117:
	.loc 3 130 10 view .LVU397
	call	strlen@PLT
.LVL118:
.LBE225:
.LBE224:
	.loc 1 484 10 view .LVU398
	movslq	(%rsp), %rsi
.LBB229:
.LBB226:
	.loc 3 130 10 view .LVU399
	movl	$2000, %edx
.LBE226:
.LBE229:
	.loc 1 484 10 view .LVU400
	leaq	inFileName(%rip), %rcx
.LBB230:
.LBB227:
	.loc 3 130 10 view .LVU401
	leaq	0(%r13,%rax), %rdi
.LBE227:
.LBE230:
	.loc 1 484 10 view .LVU402
	addq	%rcx, %rsi
.LVL119:
.LBB231:
.LBB228:
	.loc 3 130 10 view .LVU403
	call	__stpcpy_chk@PLT
.LVL120:
	.loc 3 130 10 view .LVU404
	movq	%rax, %rdi
.LVL121:
	.loc 3 130 10 view .LVU405
.LBE228:
.LBE231:
	.loc 1 486 10 is_stmt 1 view .LVU406
.LBB232:
.LBI232:
	.loc 1 261 13 view .LVU407
.LBB233:
	.loc 1 263 4 view .LVU408
	.loc 1 263 14 is_stmt 0 view .LVU409
	subq	%r13, %rax
.LVL122:
	.loc 1 264 4 is_stmt 1 view .LVU410
	.loc 1 264 7 is_stmt 0 view .LVU411
	cmpq	$4, %rax
	jbe	.L69
	.loc 1 265 4 is_stmt 1 view .LVU412
	.loc 1 266 12 is_stmt 0 view .LVU413
	leaq	-4+outFileName(%rip), %rdx
	.loc 1 268 25 view .LVU414
	cmpb	$46, (%rdx,%rax)
	je	.L122
.L69:
.LVL123:
	.loc 1 268 25 view .LVU415
.LBE233:
.LBE232:
	.loc 1 486 40 is_stmt 1 view .LVU416
.LBB235:
.LBI235:
	.loc 3 128 42 view .LVU417
.LBB236:
	.loc 3 130 3 view .LVU418
	.loc 3 130 10 is_stmt 0 view .LVU419
	leaq	outFileName(%rip), %rcx
	movl	$5, %edx
	leaq	.LC19(%rip), %rsi
	subq	%rdi, %rcx
	addq	$2000, %rcx
	call	__memcpy_chk@PLT
.LVL124:
.L73:
	.loc 3 130 10 view .LVU420
.LBE236:
.LBE235:
	.loc 1 488 10 is_stmt 1 view .LVU421
.LBB237:
.LBI237:
	.loc 2 103 1 view .LVU422
.LBB238:
	.loc 2 105 3 view .LVU423
	.loc 2 105 10 is_stmt 0 view .LVU424
	movq	stderr(%rip), %rdi
	leaq	outFileName(%rip), %r8
	movl	%r15d, %ecx
	xorl	%eax, %eax
	leaq	.LC20(%rip), %rdx
	movl	$1, %esi
	call	__fprintf_chk@PLT
.LVL125:
	.loc 2 105 10 view .LVU425
.LBE238:
.LBE237:
	.loc 1 491 10 is_stmt 1 view .LVU426
	.loc 1 491 20 is_stmt 0 view .LVU427
	leaq	.LC21(%rip), %rsi
	leaq	outFileName(%rip), %rdi
	call	fopen64@PLT
.LVL126:
	movq	%rax, (%rsp)
.LVL127:
	.loc 1 492 10 is_stmt 1 view .LVU428
	.loc 1 492 13 is_stmt 0 view .LVU429
	testq	%rax, %rax
	je	.L123
	.loc 1 497 10 is_stmt 1 view .LVU430
.LVL128:
.LBB239:
.LBI239:
	.loc 1 167 19 view .LVU431
.LBB240:
	.loc 1 169 4 view .LVU432
	.loc 1 169 20 is_stmt 0 view .LVU433
	movl	$24, %edi
	call	malloc@PLT
.LVL129:
	.loc 1 169 20 view .LVU434
	movq	%rax, %r15
.LVL130:
	.loc 1 170 4 is_stmt 1 view .LVU435
	.loc 1 170 7 is_stmt 0 view .LVU436
	testq	%rax, %rax
	je	.L124
	.loc 1 171 4 is_stmt 1 view .LVU437
	.loc 1 171 15 is_stmt 0 view .LVU438
	movq	(%rsp), %rax
.LVL131:
	.loc 1 174 13 view .LVU439
	movb	$119, 16(%r15)
.LBE240:
.LBE239:
	.loc 1 498 10 view .LVU440
	movq	%r15, %rdi
	movl	$66, %esi
.LBB243:
.LBB241:
	.loc 1 172 15 view .LVU441
	movq	$0, 8(%r15)
	.loc 1 171 15 view .LVU442
	movq	%rax, (%r15)
	.loc 1 172 4 is_stmt 1 view .LVU443
	.loc 1 173 4 view .LVU444
	.loc 1 174 4 view .LVU445
	.loc 1 175 4 view .LVU446
.LVL132:
	.loc 1 175 4 is_stmt 0 view .LVU447
.LBE241:
.LBE243:
	.loc 1 498 10 is_stmt 1 view .LVU448
	call	bsPutUChar
.LVL133:
	.loc 1 499 10 view .LVU449
	movq	%r15, %rdi
	movl	$90, %esi
	call	bsPutUChar
.LVL134:
	.loc 1 500 10 view .LVU450
	movq	%r15, %rdi
	movl	$104, %esi
	call	bsPutUChar
.LVL135:
	.loc 1 501 10 view .LVU451
	movq	%r15, %rdi
	movl	$57, %esi
	call	bsPutUChar
.LVL136:
	.loc 1 502 10 view .LVU452
	movq	%r15, %rdi
	movl	$49, %esi
	call	bsPutUChar
.LVL137:
	.loc 1 502 37 view .LVU453
	movq	%r15, %rdi
	movl	$65, %esi
	call	bsPutUChar
.LVL138:
	.loc 1 503 10 view .LVU454
	movq	%r15, %rdi
	movl	$89, %esi
	call	bsPutUChar
.LVL139:
	.loc 1 503 37 view .LVU455
	movq	%r15, %rdi
	movl	$38, %esi
	call	bsPutUChar
.LVL140:
	.loc 1 504 10 view .LVU456
	movq	%r15, %rdi
	movl	$83, %esi
	call	bsPutUChar
.LVL141:
	.loc 1 504 37 view .LVU457
	movl	$89, %esi
	movq	%r15, %rdi
	call	bsPutUChar
.LVL142:
	jmp	.L54
.LVL143:
	.p2align 4,,10
	.p2align 3
.L121:
	.loc 1 504 37 is_stmt 0 view .LVU458
.LBE248:
	.loc 1 449 10 is_stmt 1 view .LVU459
.LBB249:
.LBI249:
	.loc 1 180 13 view .LVU460
.LBB250:
	.loc 1 182 4 view .LVU461
	.loc 1 182 10 is_stmt 0 view .LVU462
	movl	12(%r15), %edi
.LBB251:
.LBB252:
.LBB253:
	.loc 1 183 39 view .LVU463
	movl	8(%r15), %eax
.LBE253:
.LBE252:
.LBE251:
	.loc 1 182 7 view .LVU464
	cmpl	$8, %edi
	je	.L125
	.loc 1 189 7 is_stmt 1 view .LVU465
	.loc 1 189 34 is_stmt 0 view .LVU466
	addl	%eax, %eax
	.loc 1 189 47 view .LVU467
	andl	$1, %r13d
.LVL144:
	.loc 1 190 19 view .LVU468
	addl	$1, %edi
	.loc 1 189 40 view .LVU469
	orl	%r13d, %eax
	.loc 1 190 19 view .LVU470
	movl	%edi, 12(%r15)
	.loc 1 189 40 view .LVU471
	movl	%eax, 8(%r15)
	.loc 1 190 7 is_stmt 1 view .LVU472
.LVL145:
	.p2align 4,,10
	.p2align 3
.L58:
	.loc 1 190 7 is_stmt 0 view .LVU473
.LBE250:
.LBE249:
	.loc 1 452 7 is_stmt 1 view .LVU474
	leaq	1(%r14), %r13
.LVL146:
	.loc 1 454 7 view .LVU475
	.loc 1 454 10 is_stmt 0 view .LVU476
	cmpq	%rsi, %r14
	je	.L78
	.loc 1 466 30 view .LVU477
	leaq	rbStart(%rip), %rax
	.loc 1 452 15 view .LVU478
	movq	%r13, %r14
	.loc 1 466 30 view .LVU479
	movq	(%rax,%rcx,8), %rax
	jmp	.L77
.LVL147:
	.p2align 4,,10
	.p2align 3
.L57:
	.loc 1 452 7 is_stmt 1 view .LVU480
	leaq	1(%r14), %rcx
.LVL148:
	.loc 1 454 7 view .LVU481
	.loc 1 454 10 is_stmt 0 view .LVU482
	cmpq	%rsi, %r14
	.loc 1 452 15 view .LVU483
	movq	%rcx, %r14
	.loc 1 454 10 view .LVU484
	jne	.L77
.LVL149:
	.loc 1 463 10 is_stmt 1 view .LVU485
	.loc 1 463 13 is_stmt 0 view .LVU486
	movl	16(%rsp), %eax
	movl	20(%rsp), %esi
	cmpl	%esi, %eax
	jge	.L55
.LVL150:
.L127:
	.loc 1 464 10 is_stmt 1 view .LVU487
	.loc 1 464 17 is_stmt 0 view .LVU488
	addl	$1, %eax
	movq	$0, (%rsp)
	movl	%eax, 16(%rsp)
.LVL151:
	.loc 1 464 17 view .LVU489
	jmp	.L54
.LVL152:
	.p2align 4,,10
	.p2align 3
.L78:
	.loc 1 456 13 is_stmt 1 view .LVU490
	movl	$23, %esi
	movq	%r15, %rdi
.LBB272:
.LBB273:
	.loc 1 255 11 is_stmt 0 view .LVU491
	movl	$31, %r14d
.LBE273:
.LBE272:
	.loc 1 456 13 view .LVU492
	call	bsPutUChar
.LVL153:
	.loc 1 456 40 is_stmt 1 view .LVU493
	movl	$114, %esi
	movq	%r15, %rdi
	call	bsPutUChar
.LVL154:
	.loc 1 457 13 view .LVU494
	movl	$69, %esi
	movq	%r15, %rdi
	call	bsPutUChar
.LVL155:
	.loc 1 457 40 view .LVU495
	movl	$56, %esi
	movq	%r15, %rdi
	call	bsPutUChar
.LVL156:
	.loc 1 458 13 view .LVU496
	movl	$80, %esi
	movq	%r15, %rdi
	call	bsPutUChar
.LVL157:
	.loc 1 458 40 view .LVU497
	movl	$144, %esi
	movq	%r15, %rdi
	call	bsPutUChar
.LVL158:
	.loc 1 459 13 view .LVU498
.LBB287:
.LBI272:
	.loc 1 251 13 view .LVU499
.LBB286:
	.loc 1 253 4 view .LVU500
	.loc 1 255 4 view .LVU501
	.loc 1 255 19 view .LVU502
	.loc 1 255 11 is_stmt 0 view .LVU503
	movl	%ebx, (%rsp)
.LVL159:
	.loc 1 255 11 view .LVU504
	jmp	.L65
.LVL160:
	.p2align 4,,10
	.p2align 3
.L62:
.LBB274:
.LBB275:
	.loc 1 189 7 is_stmt 1 view .LVU505
	.loc 1 189 34 is_stmt 0 view .LVU506
	addl	%edi, %edi
	.loc 1 190 19 view .LVU507
	addl	$1, %eax
	.loc 1 189 40 view .LVU508
	orl	%ebx, %edi
	.loc 1 190 19 view .LVU509
	movl	%eax, 12(%r15)
	.loc 1 189 40 view .LVU510
	movl	%edi, 8(%r15)
	.loc 1 190 7 is_stmt 1 view .LVU511
	.loc 1 191 5 view .LVU512
.LVL161:
	.loc 1 191 5 is_stmt 0 view .LVU513
.LBE275:
.LBE274:
	.loc 1 255 26 is_stmt 1 view .LVU514
	.loc 1 255 19 is_stmt 0 view .LVU515
	subl	$1, %r14d
.LVL162:
	.loc 1 255 19 view .LVU516
	jb	.L126
.LVL163:
.L65:
	.loc 1 256 7 is_stmt 1 view .LVU517
	.loc 1 256 25 is_stmt 0 view .LVU518
	movl	%r12d, %edx
	movl	%r14d, %ecx
.LBB284:
.LBB282:
	.loc 1 182 10 view .LVU519
	movl	12(%r15), %eax
.LBB276:
.LBB277:
.LBB278:
	.loc 1 183 39 view .LVU520
	movl	8(%r15), %edi
.LBE278:
.LBE277:
.LBE276:
.LBE282:
.LBE284:
	.loc 1 256 25 view .LVU521
	shrl	%cl, %edx
	.loc 1 256 7 view .LVU522
	movl	%edx, %ebx
	andl	$1, %ebx
.LVL164:
.LBB285:
.LBI274:
	.loc 1 180 13 is_stmt 1 view .LVU523
.LBB283:
	.loc 1 182 4 view .LVU524
	.loc 1 182 7 is_stmt 0 view .LVU525
	cmpl	$8, %eax
	jne	.L62
.LVL165:
.LBB281:
.LBI276:
	.loc 1 180 13 is_stmt 1 view .LVU526
.LBB280:
.LBB279:
	.loc 1 183 7 view .LVU527
	.loc 1 183 22 is_stmt 0 view .LVU528
	movq	(%r15), %rsi
	movzbl	%dil, %edi
	call	putc@PLT
.LVL166:
	.loc 1 184 7 is_stmt 1 view .LVU529
	.loc 1 184 10 is_stmt 0 view .LVU530
	cmpl	$-1, %eax
	je	.L63
	.loc 1 185 7 is_stmt 1 view .LVU531
	.loc 1 185 15 is_stmt 0 view .LVU532
	addq	$1, bytesOut(%rip)
	.loc 1 186 7 is_stmt 1 view .LVU533
	.loc 1 186 20 is_stmt 0 view .LVU534
	movl	$1, 12(%r15)
	.loc 1 187 7 is_stmt 1 view .LVU535
	.loc 1 187 18 is_stmt 0 view .LVU536
	movl	%ebx, 8(%r15)
.LBE279:
	.loc 1 191 5 is_stmt 1 view .LVU537
.LVL167:
	.loc 1 191 5 is_stmt 0 view .LVU538
.LBE280:
.LBE281:
	.loc 1 191 5 is_stmt 1 view .LVU539
	.loc 1 191 5 is_stmt 0 view .LVU540
.LBE283:
.LBE285:
	.loc 1 255 26 is_stmt 1 view .LVU541
	.loc 1 255 19 is_stmt 0 view .LVU542
	subl	$1, %r14d
.LVL168:
	.loc 1 255 19 view .LVU543
	jnb	.L65
.LVL169:
.L126:
	.loc 1 255 19 view .LVU544
.LBE286:
.LBE287:
	.loc 1 460 13 view .LVU545
	movq	%r15, %rdi
	movl	(%rsp), %ebx
.LVL170:
	.loc 1 460 13 is_stmt 1 view .LVU546
	.loc 1 452 15 is_stmt 0 view .LVU547
	movq	%r13, %r14
	.loc 1 460 13 view .LVU548
	call	bsClose
.LVL171:
	.loc 1 461 13 is_stmt 1 view .LVU549
	.loc 1 463 10 view .LVU550
	.loc 1 463 13 is_stmt 0 view .LVU551
	movl	16(%rsp), %eax
	movl	20(%rsp), %esi
	cmpl	%esi, %eax
	jl	.L127
.LVL172:
.L55:
	.loc 1 508 4 is_stmt 1 view .LVU552
.LBB288:
.LBI288:
	.loc 2 103 1 view .LVU553
.LBB289:
	.loc 2 105 3 view .LVU554
	.loc 2 105 10 is_stmt 0 view .LVU555
	movq	stderr(%rip), %rdi
	leaq	progName(%rip), %rcx
	leaq	.LC23(%rip), %rdx
	xorl	%eax, %eax
	movl	$1, %esi
	call	__fprintf_chk@PLT
.LVL173:
	.loc 2 105 10 view .LVU556
.LBE289:
.LBE288:
	.loc 1 509 4 is_stmt 1 view .LVU557
	.loc 1 510 1 is_stmt 0 view .LVU558
	addq	$40, %rsp
	.cfi_remember_state
	.cfi_def_cfa_offset 56
	xorl	%eax, %eax
	popq	%rbx
	.cfi_def_cfa_offset 48
	popq	%rbp
	.cfi_def_cfa_offset 40
.LVL174:
	.loc 1 510 1 view .LVU559
	popq	%r12
	.cfi_def_cfa_offset 32
.LVL175:
	.loc 1 510 1 view .LVU560
	popq	%r13
	.cfi_def_cfa_offset 24
	popq	%r14
	.cfi_def_cfa_offset 16
.LVL176:
	.loc 1 510 1 view .LVU561
	popq	%r15
	.cfi_def_cfa_offset 8
.LVL177:
	.loc 1 510 1 view .LVU562
	ret
.LVL178:
.L116:
	.cfi_restore_state
	.loc 1 398 13 is_stmt 1 view .LVU563
	movl	20(%rsp), %eax
.LBB290:
.LBB291:
	.loc 2 105 10 is_stmt 0 view .LVU564
	movq	stderr(%rip), %rdi
	movl	$1, %esi
	leaq	.LC11(%rip), %rdx
.LBE291:
.LBE290:
	.loc 1 398 13 view .LVU565
	leal	1(%rax), %r13d
.LVL179:
.LBB293:
.LBI290:
	.loc 2 103 1 is_stmt 1 view .LVU566
.LBB292:
	.loc 2 105 3 view .LVU567
	.loc 2 105 10 is_stmt 0 view .LVU568
	xorl	%eax, %eax
	movl	%r13d, %ecx
	call	__fprintf_chk@PLT
.LVL180:
	.loc 2 105 10 view .LVU569
.LBE292:
.LBE293:
	.loc 1 401 13 is_stmt 1 view .LVU570
	.loc 1 401 28 is_stmt 0 view .LVU571
	leaq	bStart(%rip), %rsi
	movslq	20(%rsp), %rax
	.loc 1 403 18 view .LVU572
	movl	%r13d, 20(%rsp)
.LVL181:
	.loc 1 401 28 view .LVU573
	movq	(%rsi,%r14,8), %rdx
	leaq	rbStart(%rip), %rsi
	movq	%rdx, (%rsi,%rax,8)
	.loc 1 402 13 is_stmt 1 view .LVU574
	.loc 1 402 26 is_stmt 0 view .LVU575
	leaq	bEnd(%rip), %rsi
	movq	(%rsi,%r14,8), %rdx
	leaq	rbEnd(%rip), %rsi
	movq	%rdx, (%rsi,%rax,8)
	.loc 1 403 13 is_stmt 1 view .LVU576
.LVL182:
	.loc 1 403 13 is_stmt 0 view .LVU577
	jmp	.L51
.LVL183:
.L118:
	.loc 1 373 23 discriminator 1 view .LVU578
	subq	%r8, %r10
.LVL184:
	.loc 1 372 44 discriminator 1 view .LVU579
	cmpq	$39, %r10
	jbe	.L45
	.loc 1 374 13 is_stmt 1 view .LVU580
	.loc 1 374 29 is_stmt 0 view .LVU581
	leaq	bEnd(%rip), %rax
	movq	%r15, (%rax,%r14,8)
	.loc 1 375 13 is_stmt 1 view .LVU582
	.loc 1 375 16 is_stmt 0 view .LVU583
	testl	%r13d, %r13d
	je	.L45
	.loc 1 376 16 is_stmt 1 view .LVU584
.LVL185:
.LBB294:
.LBI294:
	.loc 2 103 1 view .LVU585
.LBB295:
	.loc 2 105 3 view .LVU586
	.loc 2 105 10 is_stmt 0 view .LVU587
	movq	stderr(%rip), %rdi
	movq	%r15, %r9
	movl	%r13d, %ecx
	xorl	%eax, %eax
	leaq	.LC10(%rip), %rdx
	movl	$1, %esi
	call	__fprintf_chk@PLT
.LVL186:
	.loc 2 105 10 view .LVU588
	jmp	.L45
.LVL187:
.L125:
	.loc 2 105 10 view .LVU589
.LBE295:
.LBE294:
.LBB296:
.LBB268:
.LBB264:
.LBB259:
.LBB254:
	.loc 1 183 22 view .LVU590
	movq	(%r15), %rsi
	movzbl	%al, %edi
	movq	%rcx, 24(%rsp)
.LVL188:
	.loc 1 183 22 view .LVU591
.LBE254:
.LBE259:
.LBI251:
	.loc 1 180 13 is_stmt 1 view .LVU592
.LBB260:
.LBB255:
	.loc 1 183 7 view .LVU593
	.loc 1 183 22 is_stmt 0 view .LVU594
	call	putc@PLT
.LVL189:
	.loc 1 184 7 is_stmt 1 view .LVU595
	.loc 1 184 10 is_stmt 0 view .LVU596
	movq	24(%rsp), %rcx
	addl	$1, %eax
.LVL190:
	.loc 1 184 10 view .LVU597
	je	.L63
	.loc 1 185 7 is_stmt 1 view .LVU598
	.loc 1 187 24 is_stmt 0 view .LVU599
	andl	$1, %r13d
.LVL191:
	.loc 1 187 24 view .LVU600
.LBE255:
.LBE260:
.LBE264:
.LBE268:
.LBE296:
	.loc 1 454 28 view .LVU601
	leaq	rbEnd(%rip), %rax
.LBB297:
.LBB269:
.LBB265:
.LBB261:
.LBB256:
	.loc 1 185 15 view .LVU602
	addq	$1, bytesOut(%rip)
	.loc 1 186 7 is_stmt 1 view .LVU603
	.loc 1 186 20 is_stmt 0 view .LVU604
	movl	$1, 12(%r15)
	.loc 1 187 7 is_stmt 1 view .LVU605
.LBE256:
.LBE261:
.LBE265:
.LBE269:
.LBE297:
	.loc 1 454 28 is_stmt 0 view .LVU606
	movq	(%rax,%rcx,8), %rsi
.LBB298:
.LBB270:
.LBB266:
.LBB262:
.LBB257:
	.loc 1 187 24 view .LVU607
	movl	%r13d, 8(%r15)
.LBE257:
	.loc 1 191 5 is_stmt 1 view .LVU608
	.loc 1 192 1 is_stmt 0 view .LVU609
	jmp	.L58
.LVL192:
.L122:
	.loc 1 192 1 view .LVU610
.LBE262:
.LBE266:
.LBE270:
.LBE298:
.LBB299:
.LBB244:
.LBB234:
	.loc 1 266 25 view .LVU611
	cmpb	$98, 1(%rdx,%rax)
	.loc 1 267 12 view .LVU612
	leaq	1(%rdx), %rdx
	.loc 1 266 25 view .LVU613
	jne	.L69
	.loc 1 267 25 view .LVU614
	cmpb	$122, 1(%rdx,%rax)
	.loc 1 268 12 view .LVU615
	leaq	1(%rdx), %rdx
	.loc 1 267 25 view .LVU616
	jne	.L69
	.loc 1 268 25 view .LVU617
	cmpb	$50, 1(%rdx,%rax)
	jne	.L69
	jmp	.L73
.LVL193:
.L124:
	.loc 1 268 25 view .LVU618
.LBE234:
.LBE244:
.LBB245:
.LBB242:
	.loc 1 170 19 is_stmt 1 view .LVU619
	call	mallocFail.constprop.0
.LVL194:
.L123:
	.loc 1 170 19 is_stmt 0 view .LVU620
.LBE242:
.LBE245:
	.loc 1 493 13 is_stmt 1 view .LVU621
.LBB246:
.LBI246:
	.loc 2 103 1 view .LVU622
.LBB247:
	.loc 2 105 3 view .LVU623
	.loc 2 105 10 is_stmt 0 view .LVU624
	movq	stderr(%rip), %rdi
	leaq	outFileName(%rip), %r8
	leaq	progName(%rip), %rcx
	movl	$1, %esi
	leaq	.LC22(%rip), %rdx
	call	__fprintf_chk@PLT
.LVL195:
	.loc 2 105 10 view .LVU625
.LBE247:
.LBE246:
	.loc 1 495 13 is_stmt 1 view .LVU626
	movl	$1, %edi
	call	exit@PLT
.LVL196:
.L114:
	.loc 1 495 13 is_stmt 0 view .LVU627
.LBE299:
	.loc 1 354 7 is_stmt 1 view .LVU628
.LBB300:
.LBI300:
	.loc 2 103 1 view .LVU629
.LBB301:
	.loc 2 105 3 view .LVU630
	.loc 2 105 10 is_stmt 0 view .LVU631
	leaq	inFileName(%rip), %r8
	leaq	progName(%rip), %rcx
	leaq	.LC8(%rip), %rdx
.LVL197:
.L110:
	.loc 2 105 10 view .LVU632
.LBE301:
.LBE300:
.LBB302:
.LBB303:
	movq	stderr(%rip), %rdi
	movl	$1, %esi
	xorl	%eax, %eax
.LVL198:
	.loc 2 105 10 view .LVU633
	call	__fprintf_chk@PLT
.LVL199:
.LBE303:
.LBE302:
	.loc 1 429 7 is_stmt 1 view .LVU634
	movl	$1, %edi
	call	exit@PLT
.LVL200:
.L113:
	.loc 1 344 7 view .LVU635
.LBB305:
.LBI305:
	.loc 2 103 1 view .LVU636
.LBB306:
	.loc 2 105 3 view .LVU637
	.loc 2 105 10 is_stmt 0 view .LVU638
	movq	stderr(%rip), %rdi
	movl	%eax, %r8d
	xorl	%eax, %eax
	leaq	progName(%rip), %rcx
	leaq	.LC6(%rip), %rdx
	movl	$1, %esi
	call	__fprintf_chk@PLT
.LVL201:
	.loc 2 105 10 view .LVU639
.LBE306:
.LBE305:
	.loc 1 347 7 is_stmt 1 view .LVU640
	movl	$1, %edi
	call	exit@PLT
.LVL202:
.L120:
	.loc 1 428 7 view .LVU641
.LBB307:
.LBI302:
	.loc 2 103 1 view .LVU642
.LBB304:
	.loc 2 105 3 view .LVU643
	.loc 2 105 10 is_stmt 0 view .LVU644
	leaq	inFileName(%rip), %r8
	leaq	progName(%rip), %rcx
	leaq	.LC17(%rip), %rdx
	jmp	.L110
.LVL203:
.L119:
	.loc 2 105 10 view .LVU645
.LBE304:
.LBE307:
	.loc 1 418 7 is_stmt 1 view .LVU646
.LBB308:
.LBI202:
	.loc 2 103 1 view .LVU647
.LBB204:
	.loc 2 105 3 view .LVU648
	.loc 2 105 10 is_stmt 0 view .LVU649
	leaq	.LC15(%rip), %rdx
.LVL204:
.L111:
	.loc 2 105 10 view .LVU650
	movq	stderr(%rip), %rdi
	movl	$1, %esi
	xorl	%eax, %eax
	call	__fprintf_chk@PLT
.LVL205:
.LBE204:
.LBE308:
	.loc 1 421 7 is_stmt 1 view .LVU651
	movl	$1, %edi
	call	exit@PLT
.LVL206:
.L117:
	.loc 1 406 13 view .LVU652
.LBB309:
.LBI309:
	.loc 1 123 13 view .LVU653
.LBB310:
	.loc 1 125 4 view .LVU654
.LBB311:
.LBI311:
	.loc 2 103 1 view .LVU655
.LBB312:
	.loc 2 105 3 view .LVU656
	.loc 2 105 10 is_stmt 0 view .LVU657
	movq	stderr(%rip), %rdi
	movl	$50000, %r9d
	xorl	%eax, %eax
	leaq	inFileName(%rip), %r8
	leaq	progName(%rip), %rcx
	leaq	.LC12(%rip), %rdx
	movl	$1, %esi
	call	__fprintf_chk@PLT
.LVL207:
	.loc 2 105 10 view .LVU658
.LBE312:
.LBE311:
	.loc 1 128 4 is_stmt 1 view .LVU659
.LBB313:
.LBI313:
	.loc 2 103 1 view .LVU660
.LBB314:
	.loc 2 105 3 view .LVU661
	.loc 2 105 10 is_stmt 0 view .LVU662
	movq	stderr(%rip), %rdi
	movl	$1, %esi
	xorl	%eax, %eax
	leaq	progName(%rip), %rcx
	leaq	.LC13(%rip), %rdx
	call	__fprintf_chk@PLT
.LVL208:
	.loc 2 105 10 view .LVU663
.LBE314:
.LBE313:
	.loc 1 131 4 is_stmt 1 view .LVU664
.LBB315:
.LBI315:
	.loc 2 103 1 view .LVU665
.LBB316:
	.loc 2 105 3 view .LVU666
	.loc 2 105 10 is_stmt 0 view .LVU667
	leaq	progName(%rip), %rcx
	leaq	.LC14(%rip), %rdx
	jmp	.L111
.LVL209:
.L112:
	.loc 2 105 10 view .LVU668
.LBE316:
.LBE315:
.LBE310:
.LBE309:
	.loc 1 320 7 is_stmt 1 view .LVU669
.LBB317:
.LBI317:
	.loc 2 103 1 view .LVU670
.LBB318:
	.loc 2 105 3 view .LVU671
	.loc 2 105 10 is_stmt 0 view .LVU672
	leaq	progName(%rip), %r8
	movq	stderr(%rip), %rdi
	leaq	.LC4(%rip), %rdx
	xorl	%eax, %eax
	movq	%r8, %rcx
	movl	$1, %esi
	call	__fprintf_chk@PLT
.LVL210:
	.loc 2 105 10 view .LVU673
.LBE318:
.LBE317:
	.loc 1 322 7 is_stmt 1 view .LVU674
	.loc 1 324 13 view .LVU675
.LBB319:
.LBI319:
	.loc 2 103 1 view .LVU676
.LBB320:
	.loc 2 105 3 view .LVU677
	.loc 2 105 10 is_stmt 0 view .LVU678
	movl	$46, %edx
	movl	$1, %esi
	movq	stderr(%rip), %rcx
	leaq	.LC5(%rip), %rdi
	call	fwrite@PLT
.LVL211:
	.loc 2 105 10 view .LVU679
.LBE320:
.LBE319:
	.loc 1 326 13 is_stmt 1 view .LVU680
	.loc 1 340 7 view .LVU681
	movl	$1, %edi
	call	exit@PLT
.LVL212:
.L63:
.LBB321:
.LBB271:
.LBB267:
.LBB263:
.LBB258:
	.loc 1 184 25 view .LVU682
	call	writeError
.LVL213:
.LBE258:
.LBE263:
.LBE267:
.LBE271:
.LBE321:
	.cfi_endproc
.LFE63:
	.size	main, .-main
	.globl	rbEnd
	.bss
	.align 32
	.type	rbEnd, @object
	.size	rbEnd, 400000
rbEnd:
	.zero	400000
	.globl	rbStart
	.align 32
	.type	rbStart, @object
	.size	rbStart, 400000
rbStart:
	.zero	400000
	.globl	bEnd
	.align 32
	.type	bEnd, @object
	.size	bEnd, 400000
bEnd:
	.zero	400000
	.globl	bStart
	.align 32
	.type	bStart, @object
	.size	bStart, 400000
bStart:
	.zero	400000
	.globl	bytesIn
	.align 8
	.type	bytesIn, @object
	.size	bytesIn, 8
bytesIn:
	.zero	8
	.globl	bytesOut
	.align 8
	.type	bytesOut, @object
	.size	bytesOut, 8
bytesOut:
	.zero	8
	.globl	progName
	.align 32
	.type	progName, @object
	.size	progName, 2000
progName:
	.zero	2000
	.globl	outFileName
	.align 32
	.type	outFileName, @object
	.size	outFileName, 2000
outFileName:
	.zero	2000
	.globl	inFileName
	.align 32
	.type	inFileName, @object
	.size	inFileName, 2000
inFileName:
	.zero	2000
	.text
.Letext0:
	.file 4 "/usr/lib/gcc/x86_64-linux-gnu/11/include/stddef.h"
	.file 5 "/usr/include/x86_64-linux-gnu/bits/types.h"
	.file 6 "/usr/include/x86_64-linux-gnu/bits/types/struct_FILE.h"
	.file 7 "/usr/include/x86_64-linux-gnu/bits/types/FILE.h"
	.file 8 "/usr/include/stdio.h"
	.file 9 "/usr/include/stdlib.h"
	.file 10 "/usr/include/string.h"
	.file 11 "<built-in>"
	.file 12 "/usr/include/errno.h"
	.section	.note.GNU-stack,"",@progbits
	.section	.note.gnu.property,"a"
	.align 8
	.long	1f - 0f
	.long	4f - 1f
	.long	5
0:
	.string	"GNU"
1:
	.align 8
	.long	0xc0000002
	.long	3f - 2f
2:
	.long	0x3
3:
	.align 8
4:
