	.section	__TEXT,__text,regular,pure_instructions
	.build_version macos, 14, 0	sdk_version 14, 2
	.file	1 "/Users/mac/rustmap-clone/c-code/bzip2" "blocksort.c"
	.file	2 "/Users/mac/rustmap-clone/c-code/bzip2" "./bzlib_private.h"
	.section	__TEXT,__literal16,16byte_literals
	.p2align	4, 0x0                          ; -- Begin function BZ2_blockSort
lCPI0_0:
	.long	0                               ; 0x0
	.long	1                               ; 0x1
	.long	2                               ; 0x2
	.long	3                               ; 0x3
lCPI0_1:
	.long	4                               ; 0x4
	.long	5                               ; 0x5
	.long	6                               ; 0x6
	.long	7                               ; 0x7
lCPI0_2:
	.long	8                               ; 0x8
	.long	9                               ; 0x9
	.long	10                              ; 0xa
	.long	11                              ; 0xb
lCPI0_3:
	.long	12                              ; 0xc
	.long	13                              ; 0xd
	.long	14                              ; 0xe
	.long	15                              ; 0xf
lCPI0_4:
	.long	16                              ; 0x10
	.long	17                              ; 0x11
	.long	18                              ; 0x12
	.long	19                              ; 0x13
lCPI0_5:
	.long	20                              ; 0x14
	.long	21                              ; 0x15
	.long	22                              ; 0x16
	.long	23                              ; 0x17
lCPI0_6:
	.long	24                              ; 0x18
	.long	25                              ; 0x19
	.long	26                              ; 0x1a
	.long	27                              ; 0x1b
lCPI0_7:
	.long	28                              ; 0x1c
	.long	29                              ; 0x1d
	.long	30                              ; 0x1e
	.long	31                              ; 0x1f
lCPI0_8:
	.long	32                              ; 0x20
	.long	33                              ; 0x21
	.long	34                              ; 0x22
	.long	35                              ; 0x23
lCPI0_9:
	.long	36                              ; 0x24
	.long	37                              ; 0x25
	.long	38                              ; 0x26
	.long	39                              ; 0x27
lCPI0_10:
	.long	40                              ; 0x28
	.long	41                              ; 0x29
	.long	42                              ; 0x2a
	.long	43                              ; 0x2b
lCPI0_11:
	.long	44                              ; 0x2c
	.long	45                              ; 0x2d
	.long	46                              ; 0x2e
	.long	47                              ; 0x2f
lCPI0_12:
	.long	48                              ; 0x30
	.long	49                              ; 0x31
	.long	50                              ; 0x32
	.long	51                              ; 0x33
lCPI0_13:
	.long	52                              ; 0x34
	.long	53                              ; 0x35
	.long	54                              ; 0x36
	.long	55                              ; 0x37
lCPI0_14:
	.long	56                              ; 0x38
	.long	57                              ; 0x39
	.long	58                              ; 0x3a
	.long	59                              ; 0x3b
lCPI0_15:
	.long	60                              ; 0x3c
	.long	61                              ; 0x3d
	.long	62                              ; 0x3e
	.long	63                              ; 0x3f
lCPI0_16:
	.long	64                              ; 0x40
	.long	65                              ; 0x41
	.long	66                              ; 0x42
	.long	67                              ; 0x43
lCPI0_17:
	.long	68                              ; 0x44
	.long	69                              ; 0x45
	.long	70                              ; 0x46
	.long	71                              ; 0x47
lCPI0_18:
	.long	72                              ; 0x48
	.long	73                              ; 0x49
	.long	74                              ; 0x4a
	.long	75                              ; 0x4b
lCPI0_19:
	.long	76                              ; 0x4c
	.long	77                              ; 0x4d
	.long	78                              ; 0x4e
	.long	79                              ; 0x4f
lCPI0_20:
	.long	80                              ; 0x50
	.long	81                              ; 0x51
	.long	82                              ; 0x52
	.long	83                              ; 0x53
lCPI0_21:
	.long	84                              ; 0x54
	.long	85                              ; 0x55
	.long	86                              ; 0x56
	.long	87                              ; 0x57
lCPI0_22:
	.long	88                              ; 0x58
	.long	89                              ; 0x59
	.long	90                              ; 0x5a
	.long	91                              ; 0x5b
lCPI0_23:
	.long	92                              ; 0x5c
	.long	93                              ; 0x5d
	.long	94                              ; 0x5e
	.long	95                              ; 0x5f
lCPI0_24:
	.long	96                              ; 0x60
	.long	97                              ; 0x61
	.long	98                              ; 0x62
	.long	99                              ; 0x63
lCPI0_25:
	.long	100                             ; 0x64
	.long	101                             ; 0x65
	.long	102                             ; 0x66
	.long	103                             ; 0x67
lCPI0_26:
	.long	104                             ; 0x68
	.long	105                             ; 0x69
	.long	106                             ; 0x6a
	.long	107                             ; 0x6b
lCPI0_27:
	.long	108                             ; 0x6c
	.long	109                             ; 0x6d
	.long	110                             ; 0x6e
	.long	111                             ; 0x6f
lCPI0_28:
	.long	112                             ; 0x70
	.long	113                             ; 0x71
	.long	114                             ; 0x72
	.long	115                             ; 0x73
lCPI0_29:
	.long	116                             ; 0x74
	.long	117                             ; 0x75
	.long	118                             ; 0x76
	.long	119                             ; 0x77
lCPI0_30:
	.long	120                             ; 0x78
	.long	121                             ; 0x79
	.long	122                             ; 0x7a
	.long	123                             ; 0x7b
lCPI0_31:
	.long	124                             ; 0x7c
	.long	125                             ; 0x7d
	.long	126                             ; 0x7e
	.long	127                             ; 0x7f
lCPI0_32:
	.long	128                             ; 0x80
	.long	129                             ; 0x81
	.long	130                             ; 0x82
	.long	131                             ; 0x83
lCPI0_33:
	.long	132                             ; 0x84
	.long	133                             ; 0x85
	.long	134                             ; 0x86
	.long	135                             ; 0x87
lCPI0_34:
	.long	136                             ; 0x88
	.long	137                             ; 0x89
	.long	138                             ; 0x8a
	.long	139                             ; 0x8b
lCPI0_35:
	.long	140                             ; 0x8c
	.long	141                             ; 0x8d
	.long	142                             ; 0x8e
	.long	143                             ; 0x8f
lCPI0_36:
	.long	144                             ; 0x90
	.long	145                             ; 0x91
	.long	146                             ; 0x92
	.long	147                             ; 0x93
lCPI0_37:
	.long	148                             ; 0x94
	.long	149                             ; 0x95
	.long	150                             ; 0x96
	.long	151                             ; 0x97
lCPI0_38:
	.long	152                             ; 0x98
	.long	153                             ; 0x99
	.long	154                             ; 0x9a
	.long	155                             ; 0x9b
lCPI0_39:
	.long	156                             ; 0x9c
	.long	157                             ; 0x9d
	.long	158                             ; 0x9e
	.long	159                             ; 0x9f
lCPI0_40:
	.long	160                             ; 0xa0
	.long	161                             ; 0xa1
	.long	162                             ; 0xa2
	.long	163                             ; 0xa3
lCPI0_41:
	.long	164                             ; 0xa4
	.long	165                             ; 0xa5
	.long	166                             ; 0xa6
	.long	167                             ; 0xa7
lCPI0_42:
	.long	168                             ; 0xa8
	.long	169                             ; 0xa9
	.long	170                             ; 0xaa
	.long	171                             ; 0xab
lCPI0_43:
	.long	172                             ; 0xac
	.long	173                             ; 0xad
	.long	174                             ; 0xae
	.long	175                             ; 0xaf
lCPI0_44:
	.long	176                             ; 0xb0
	.long	177                             ; 0xb1
	.long	178                             ; 0xb2
	.long	179                             ; 0xb3
lCPI0_45:
	.long	180                             ; 0xb4
	.long	181                             ; 0xb5
	.long	182                             ; 0xb6
	.long	183                             ; 0xb7
lCPI0_46:
	.long	184                             ; 0xb8
	.long	185                             ; 0xb9
	.long	186                             ; 0xba
	.long	187                             ; 0xbb
lCPI0_47:
	.long	188                             ; 0xbc
	.long	189                             ; 0xbd
	.long	190                             ; 0xbe
	.long	191                             ; 0xbf
lCPI0_48:
	.long	192                             ; 0xc0
	.long	193                             ; 0xc1
	.long	194                             ; 0xc2
	.long	195                             ; 0xc3
lCPI0_49:
	.long	196                             ; 0xc4
	.long	197                             ; 0xc5
	.long	198                             ; 0xc6
	.long	199                             ; 0xc7
lCPI0_50:
	.long	200                             ; 0xc8
	.long	201                             ; 0xc9
	.long	202                             ; 0xca
	.long	203                             ; 0xcb
lCPI0_51:
	.long	204                             ; 0xcc
	.long	205                             ; 0xcd
	.long	206                             ; 0xce
	.long	207                             ; 0xcf
lCPI0_52:
	.long	208                             ; 0xd0
	.long	209                             ; 0xd1
	.long	210                             ; 0xd2
	.long	211                             ; 0xd3
lCPI0_53:
	.long	212                             ; 0xd4
	.long	213                             ; 0xd5
	.long	214                             ; 0xd6
	.long	215                             ; 0xd7
lCPI0_54:
	.long	216                             ; 0xd8
	.long	217                             ; 0xd9
	.long	218                             ; 0xda
	.long	219                             ; 0xdb
lCPI0_55:
	.long	220                             ; 0xdc
	.long	221                             ; 0xdd
	.long	222                             ; 0xde
	.long	223                             ; 0xdf
lCPI0_56:
	.long	224                             ; 0xe0
	.long	225                             ; 0xe1
	.long	226                             ; 0xe2
	.long	227                             ; 0xe3
lCPI0_57:
	.long	228                             ; 0xe4
	.long	229                             ; 0xe5
	.long	230                             ; 0xe6
	.long	231                             ; 0xe7
lCPI0_58:
	.long	232                             ; 0xe8
	.long	233                             ; 0xe9
	.long	234                             ; 0xea
	.long	235                             ; 0xeb
lCPI0_59:
	.long	236                             ; 0xec
	.long	237                             ; 0xed
	.long	238                             ; 0xee
	.long	239                             ; 0xef
lCPI0_60:
	.long	240                             ; 0xf0
	.long	241                             ; 0xf1
	.long	242                             ; 0xf2
	.long	243                             ; 0xf3
lCPI0_61:
	.long	244                             ; 0xf4
	.long	245                             ; 0xf5
	.long	246                             ; 0xf6
	.long	247                             ; 0xf7
lCPI0_62:
	.long	248                             ; 0xf8
	.long	249                             ; 0xf9
	.long	250                             ; 0xfa
	.long	251                             ; 0xfb
lCPI0_63:
	.long	252                             ; 0xfc
	.long	253                             ; 0xfd
	.long	254                             ; 0xfe
	.long	255                             ; 0xff
	.section	__TEXT,__text,regular,pure_instructions
	.globl	_BZ2_blockSort
	.p2align	2
_BZ2_blockSort:                         ; @BZ2_blockSort
Lfunc_begin0:
	.loc	1 1032 0                        ; blocksort.c:1032:0
	.cfi_startproc
; %bb.0:
	;DEBUG_VALUE: BZ2_blockSort:s <- $x0
	stp	x28, x27, [sp, #-96]!           ; 16-byte Folded Spill
	.cfi_def_cfa_offset 96
	stp	x26, x25, [sp, #16]             ; 16-byte Folded Spill
	stp	x24, x23, [sp, #32]             ; 16-byte Folded Spill
	stp	x22, x21, [sp, #48]             ; 16-byte Folded Spill
	stp	x20, x19, [sp, #64]             ; 16-byte Folded Spill
	stp	x29, x30, [sp, #80]             ; 16-byte Folded Spill
	add	x29, sp, #80
	.cfi_def_cfa w29, 16
	.cfi_offset w30, -8
	.cfi_offset w29, -16
	.cfi_offset w19, -24
	.cfi_offset w20, -32
	.cfi_offset w21, -40
	.cfi_offset w22, -48
	.cfi_offset w23, -56
	.cfi_offset w24, -64
	.cfi_offset w25, -72
	.cfi_offset w26, -80
	.cfi_offset w27, -88
	.cfi_offset w28, -96
	mov	w9, #4848
Lloh0:
	adrp	x16, ___chkstk_darwin@GOTPAGE
Lloh1:
	ldr	x16, [x16, ___chkstk_darwin@GOTPAGEOFF]
	blr	x16
Ltmp0:
	sub	sp, sp, #1, lsl #12             ; =4096
	sub	sp, sp, #752
	mov	x23, x0
Ltmp1:
	;DEBUG_VALUE: BZ2_blockSort:s <- $x23
Lloh2:
	adrp	x8, ___stack_chk_guard@GOTPAGE
Lloh3:
	ldr	x8, [x8, ___stack_chk_guard@GOTPAGEOFF]
Lloh4:
	ldr	x8, [x8]
	stur	x8, [x29, #-104]
Ltmp2:
	.loc	1 1033 21 prologue_end          ; blocksort.c:1033:21
	ldr	x28, [x0, #56]
Ltmp3:
	;DEBUG_VALUE: BZ2_blockSort:block <- undef
	;DEBUG_VALUE: BZ2_blockSort:ptr <- $x28
	.loc	1 1035 22                       ; blocksort.c:1035:22
	ldr	x20, [x0, #40]
Ltmp4:
	;DEBUG_VALUE: BZ2_blockSort:ftab <- $x20
	.loc	1 1036 22                       ; blocksort.c:1036:22
	ldrsw	x25, [x0, #108]
Ltmp5:
	;DEBUG_VALUE: BZ2_blockSort:nblock <- undef
	.loc	1 1037 20                       ; blocksort.c:1037:20
	ldr	w26, [x0, #656]
Ltmp6:
	;DEBUG_VALUE: BZ2_blockSort:wfact <- undef
	;DEBUG_VALUE: BZ2_blockSort:verb <- $w26
	.loc	1 0 20 is_stmt 0                ; blocksort.c:0:20
	mov	w8, #10000
	.loc	1 1044 8 is_stmt 1              ; blocksort.c:1044:8
	cmp	w25, w8
	b.ge	LBB0_2
Ltmp7:
LBB0_1:                                 ; %.sink.split
	;DEBUG_VALUE: BZ2_blockSort:ftab <- $x20
	;DEBUG_VALUE: BZ2_blockSort:ptr <- $x28
	.loc	1 0 0 is_stmt 0                 ; blocksort.c:0:0
	ldp	x0, x1, [x23, #24]
	mov	x2, x20
	mov	x3, x25
	mov	x4, x26
	bl	_fallbackSort
Ltmp8:
	b	LBB0_152
Ltmp9:
LBB0_2:
	;DEBUG_VALUE: BZ2_blockSort:verb <- $w26
	;DEBUG_VALUE: BZ2_blockSort:ftab <- $x20
	;DEBUG_VALUE: BZ2_blockSort:ptr <- $x28
	;DEBUG_VALUE: BZ2_blockSort:s <- $x23
	ldr	x24, [x23, #64]
Ltmp10:
	;DEBUG_VALUE: BZ2_blockSort:block <- $x24
	and	x10, x25, #0xffffffff
Ltmp11:
	;DEBUG_VALUE: BZ2_blockSort:nblock <- $x10
	ldr	w8, [x23, #88]
Ltmp12:
	;DEBUG_VALUE: BZ2_blockSort:wfact <- $w8
	.loc	1 1053 13 is_stmt 1             ; blocksort.c:1053:13
	and	x9, x10, #0x1
Ltmp13:
	;DEBUG_VALUE: BZ2_blockSort:nblock <- [DW_OP_plus_uconst 272] [$sp+0]
	.loc	1 1053 11 is_stmt 0             ; blocksort.c:1053:11
	add	x9, x10, x9
	add	x21, x9, #34
Ltmp14:
	;DEBUG_VALUE: BZ2_blockSort:i <- [DW_OP_plus_uconst 34, DW_OP_stack_value] undef
	.loc	1 1054 30 is_stmt 1             ; blocksort.c:1054:30
	add	x9, x24, x21
Ltmp15:
	;DEBUG_VALUE: BZ2_blockSort:quadrant <- $x9
	.loc	1 0 30 is_stmt 0                ; blocksort.c:0:30
	stp	x9, x10, [sp, #264]             ; 16-byte Folded Spill
Ltmp16:
	;DEBUG_VALUE: BZ2_blockSort:quadrant <- [DW_OP_plus_uconst 264] [$sp+0]
	.loc	1 1063 11 is_stmt 1             ; blocksort.c:1063:11
	cmp	w8, #1
	csinc	w8, w8, wzr, gt
Ltmp17:
	;DEBUG_VALUE: BZ2_blockSort:wfact <- $w8
	.loc	1 0 11 is_stmt 0                ; blocksort.c:0:11
	mov	w9, #100
	.loc	1 1064 11 is_stmt 1             ; blocksort.c:1064:11
	cmp	w8, #100
	csel	w8, w8, w9, lo
Ltmp18:
	;DEBUG_VALUE: BZ2_blockSort:wfact <- $w8
	.loc	1 1065 40                       ; blocksort.c:1065:40
	sub	w8, w8, #1
Ltmp19:
	and	w8, w8, #0xff
	mov	w9, #171
	mul	w8, w8, w9
	lsr	w8, w8, #9
	.loc	1 1065 27 is_stmt 0             ; blocksort.c:1065:27
	mul	w27, w25, w8
Ltmp20:
	;DEBUG_VALUE: BZ2_blockSort:budget <- $w27
	;DEBUG_VALUE: BZ2_blockSort:budgetInit <- $w27
	.loc	1 1066 14 is_stmt 1             ; blocksort.c:1066:14
	str	w27, [sp, #284]
Ltmp21:
	;DEBUG_VALUE: BZ2_blockSort:budget <- [DW_OP_plus_uconst 284, DW_OP_deref] $sp
	.loc	1 0 14 is_stmt 0                ; blocksort.c:0:14
Lloh5:
	adrp	x22, ___stderrp@GOTPAGE
Lloh6:
	ldr	x22, [x22, ___stderrp@GOTPAGEOFF]
Ltmp22:
	;DEBUG_VALUE: mainSort:budget <- [DW_OP_plus_uconst 284, DW_OP_stack_value] $sp
	;DEBUG_VALUE: mainSort:verb <- $w26
	;DEBUG_VALUE: mainSort:ftab <- $x20
	;DEBUG_VALUE: mainSort:quadrant <- [DW_OP_plus_uconst 264] [$sp+0]
	;DEBUG_VALUE: mainSort:block <- $x24
	;DEBUG_VALUE: mainSort:ptr <- $x28
	.loc	1 767 8 is_stmt 1               ; blocksort.c:767:8
	cmp	w26, #4
Ltmp23:
	;DEBUG_VALUE: mainSort:nblock <- undef
	b.lt	LBB0_4
Ltmp24:
; %bb.3:
	;DEBUG_VALUE: mainSort:ptr <- $x28
	;DEBUG_VALUE: mainSort:block <- $x24
	;DEBUG_VALUE: mainSort:quadrant <- [DW_OP_plus_uconst 264] [$sp+0]
	;DEBUG_VALUE: mainSort:ftab <- $x20
	;DEBUG_VALUE: mainSort:verb <- $w26
	;DEBUG_VALUE: mainSort:budget <- [DW_OP_plus_uconst 284, DW_OP_stack_value] $sp
	;DEBUG_VALUE: BZ2_blockSort:budget <- [DW_OP_plus_uconst 284, DW_OP_deref] $sp
	;DEBUG_VALUE: BZ2_blockSort:budgetInit <- $w27
	;DEBUG_VALUE: BZ2_blockSort:quadrant <- [DW_OP_plus_uconst 264] [$sp+0]
	;DEBUG_VALUE: BZ2_blockSort:nblock <- [DW_OP_plus_uconst 272] [$sp+0]
	;DEBUG_VALUE: BZ2_blockSort:block <- $x24
	;DEBUG_VALUE: BZ2_blockSort:verb <- $w26
	;DEBUG_VALUE: BZ2_blockSort:ftab <- $x20
	;DEBUG_VALUE: BZ2_blockSort:ptr <- $x28
	;DEBUG_VALUE: BZ2_blockSort:s <- $x23
	.loc	1 767 27 is_stmt 0              ; blocksort.c:767:27
	ldr	x3, [x22]
	.loc	1 767 19                        ; blocksort.c:767:19
Lloh7:
	adrp	x0, l_.str.6@PAGE
Lloh8:
	add	x0, x0, l_.str.6@PAGEOFF
	mov	w1, #33
	mov	w2, #1
	bl	_fwrite
Ltmp25:
LBB0_4:
	;DEBUG_VALUE: mainSort:ptr <- $x28
	;DEBUG_VALUE: mainSort:block <- $x24
	;DEBUG_VALUE: mainSort:quadrant <- [DW_OP_plus_uconst 264] [$sp+0]
	;DEBUG_VALUE: mainSort:ftab <- $x20
	;DEBUG_VALUE: mainSort:verb <- $w26
	;DEBUG_VALUE: mainSort:budget <- [DW_OP_plus_uconst 284, DW_OP_stack_value] $sp
	;DEBUG_VALUE: BZ2_blockSort:budget <- [DW_OP_plus_uconst 284, DW_OP_deref] $sp
	;DEBUG_VALUE: BZ2_blockSort:budgetInit <- $w27
	;DEBUG_VALUE: BZ2_blockSort:quadrant <- [DW_OP_plus_uconst 264] [$sp+0]
	;DEBUG_VALUE: BZ2_blockSort:nblock <- [DW_OP_plus_uconst 272] [$sp+0]
	;DEBUG_VALUE: BZ2_blockSort:block <- $x24
	;DEBUG_VALUE: BZ2_blockSort:verb <- $w26
	;DEBUG_VALUE: BZ2_blockSort:ftab <- $x20
	;DEBUG_VALUE: BZ2_blockSort:ptr <- $x28
	;DEBUG_VALUE: BZ2_blockSort:s <- $x23
	.loc	1 0 19                          ; blocksort.c:0:19
	add	x19, sp, #2336
Ltmp26:
	;DEBUG_VALUE: mainSort:i <- 65536
	.loc	1 770 41 is_stmt 1              ; blocksort.c:770:41
	mov	x0, x20
	mov	w1, #262148
	bl	_bzero
Ltmp27:
	;DEBUG_VALUE: mainSort:i <- [DW_OP_constu 1, DW_OP_minus, DW_OP_stack_value] undef
	.loc	1 772 8                         ; blocksort.c:772:8
	ldrb	w10, [x24]
Ltmp28:
	;DEBUG_VALUE: mainSort:j <- [DW_OP_constu 8, DW_OP_shl, DW_OP_stack_value] undef
	.loc	1 0 8 is_stmt 0                 ; blocksort.c:0:8
	ldp	x14, x8, [sp, #264]             ; 16-byte Folded Reload
	.loc	1 773 14 is_stmt 1              ; blocksort.c:773:14
	sub	w11, w8, #1
Ltmp29:
	;DEBUG_VALUE: mainSort:i <- $w11
	.loc	1 0 14 is_stmt 0                ; blocksort.c:0:14
	mov	w8, #-2
	str	x11, [sp, #136]                 ; 8-byte Folded Spill
Ltmp30:
	;DEBUG_VALUE: mainSort:i <- [DW_OP_plus_uconst 136] [$sp+0]
LBB0_5:                                 ; %.lr.ph.i
                                        ; =>This Inner Loop Header: Depth=1
	;DEBUG_VALUE: mainSort:ptr <- $x28
	;DEBUG_VALUE: mainSort:block <- $x24
	;DEBUG_VALUE: mainSort:quadrant <- [DW_OP_plus_uconst 264] [$sp+0]
	;DEBUG_VALUE: mainSort:ftab <- $x20
	;DEBUG_VALUE: mainSort:verb <- $w26
	;DEBUG_VALUE: mainSort:budget <- [DW_OP_plus_uconst 284, DW_OP_stack_value] $sp
	;DEBUG_VALUE: BZ2_blockSort:budget <- [DW_OP_plus_uconst 284, DW_OP_deref] $sp
	;DEBUG_VALUE: BZ2_blockSort:budgetInit <- $w27
	;DEBUG_VALUE: BZ2_blockSort:quadrant <- [DW_OP_plus_uconst 264] [$sp+0]
	;DEBUG_VALUE: BZ2_blockSort:nblock <- [DW_OP_plus_uconst 272] [$sp+0]
	;DEBUG_VALUE: BZ2_blockSort:block <- $x24
	;DEBUG_VALUE: BZ2_blockSort:verb <- $w26
	;DEBUG_VALUE: BZ2_blockSort:ftab <- $x20
	;DEBUG_VALUE: BZ2_blockSort:ptr <- $x28
	;DEBUG_VALUE: BZ2_blockSort:s <- $x23
	mov	x12, x11
Ltmp31:
	;DEBUG_VALUE: mainSort:j <- undef
	;DEBUG_VALUE: mainSort:i <- $x12
	.loc	1 775 19 is_stmt 1              ; blocksort.c:775:19
	strh	wzr, [x14, x11, lsl  #1]
	.loc	1 776 33                        ; blocksort.c:776:33
	ldrb	w9, [x24, x11]
	mov	w10, w10
	.loc	1 777 7                         ; blocksort.c:777:7
	lsl	x11, x9, #10
	orr	x10, x11, x10, lsl #2
	.loc	1 777 14 is_stmt 0              ; blocksort.c:777:14
	ldr	w11, [x20, x10]
	add	w11, w11, #1
	str	w11, [x20, x10]
	add	x10, x12, x8
	add	w11, w10, #1
	.loc	1 778 21 is_stmt 1              ; blocksort.c:778:21
	strh	wzr, [x14, w11, uxtw  #1]
	.loc	1 779 33                        ; blocksort.c:779:33
	ldrb	w11, [x24, x11]
	.loc	1 780 7                         ; blocksort.c:780:7
	lsl	x9, x9, #2
	bfi	x9, x11, #10, #8
	.loc	1 780 14 is_stmt 0              ; blocksort.c:780:14
	ldr	w13, [x20, x9]
	add	w13, w13, #1
	str	w13, [x20, x9]
	and	x9, x10, #0xffffffff
	.loc	1 781 21 is_stmt 1              ; blocksort.c:781:21
	strh	wzr, [x14, w10, uxtw  #1]
	.loc	1 782 33                        ; blocksort.c:782:33
	ldrb	w9, [x24, x9]
	.loc	1 783 7                         ; blocksort.c:783:7
	lsl	x11, x11, #2
	bfi	x11, x9, #10, #8
	.loc	1 783 14 is_stmt 0              ; blocksort.c:783:14
	ldr	w13, [x20, x11]
	add	w13, w13, #1
	str	w13, [x20, x11]
	sub	w10, w10, #1
	.loc	1 784 21 is_stmt 1              ; blocksort.c:784:21
	strh	wzr, [x14, w10, uxtw  #1]
	.loc	1 785 33                        ; blocksort.c:785:33
	ldrb	w10, [x24, x10]
	.loc	1 785 20 is_stmt 0              ; blocksort.c:785:20
	bfi	x9, x10, #8, #8
	.loc	1 786 7 is_stmt 1               ; blocksort.c:786:7
	lsl	x11, x9, #2
	.loc	1 786 14 is_stmt 0              ; blocksort.c:786:14
	ldr	w13, [x20, x11]
	add	w13, w13, #1
	str	w13, [x20, x11]
Ltmp32:
	.loc	1 774 21 is_stmt 1              ; blocksort.c:774:21
	sub	x11, x12, #4
Ltmp33:
	;DEBUG_VALUE: mainSort:i <- [DW_OP_LLVM_convert 64 7, DW_OP_LLVM_convert 32 7, DW_OP_stack_value] $x11
	.loc	1 774 4 is_stmt 0               ; blocksort.c:774:4
	cmp	x12, #6
	b.hi	LBB0_5
Ltmp34:
; %bb.6:                                ; %.preheader330.i
	;DEBUG_VALUE: mainSort:i <- [DW_OP_LLVM_convert 64 7, DW_OP_LLVM_convert 32 7, DW_OP_stack_value] $x11
	;DEBUG_VALUE: mainSort:ptr <- $x28
	;DEBUG_VALUE: mainSort:block <- $x24
	;DEBUG_VALUE: mainSort:quadrant <- [DW_OP_plus_uconst 264] [$sp+0]
	;DEBUG_VALUE: mainSort:ftab <- $x20
	;DEBUG_VALUE: mainSort:verb <- $w26
	;DEBUG_VALUE: mainSort:budget <- [DW_OP_plus_uconst 284, DW_OP_stack_value] $sp
	;DEBUG_VALUE: BZ2_blockSort:budget <- [DW_OP_plus_uconst 284, DW_OP_deref] $sp
	;DEBUG_VALUE: BZ2_blockSort:budgetInit <- $w27
	;DEBUG_VALUE: BZ2_blockSort:quadrant <- [DW_OP_plus_uconst 264] [$sp+0]
	;DEBUG_VALUE: BZ2_blockSort:nblock <- [DW_OP_plus_uconst 272] [$sp+0]
	;DEBUG_VALUE: BZ2_blockSort:block <- $x24
	;DEBUG_VALUE: BZ2_blockSort:verb <- $w26
	;DEBUG_VALUE: BZ2_blockSort:ftab <- $x20
	;DEBUG_VALUE: BZ2_blockSort:ptr <- $x28
	;DEBUG_VALUE: BZ2_blockSort:s <- $x23
	;DEBUG_VALUE: mainSort:i <- [DW_OP_LLVM_convert 64 7, DW_OP_LLVM_convert 32 7, DW_OP_stack_value] $x11
	;DEBUG_VALUE: mainSort:j <- undef
	.loc	1 788 13 is_stmt 1              ; blocksort.c:788:13
	add	w8, w11, #4
	tst	x8, #0xfffffffc
Ltmp35:
	.loc	1 788 4 is_stmt 0               ; blocksort.c:788:4
	b.eq	LBB0_9
Ltmp36:
; %bb.7:                                ; %.lr.ph398.preheader.i
	;DEBUG_VALUE: mainSort:i <- [DW_OP_LLVM_convert 64 7, DW_OP_LLVM_convert 32 7, DW_OP_stack_value] $x11
	;DEBUG_VALUE: mainSort:ptr <- $x28
	;DEBUG_VALUE: mainSort:block <- $x24
	;DEBUG_VALUE: mainSort:quadrant <- [DW_OP_plus_uconst 264] [$sp+0]
	;DEBUG_VALUE: mainSort:ftab <- $x20
	;DEBUG_VALUE: mainSort:verb <- $w26
	;DEBUG_VALUE: mainSort:budget <- [DW_OP_plus_uconst 284, DW_OP_stack_value] $sp
	;DEBUG_VALUE: BZ2_blockSort:budget <- [DW_OP_plus_uconst 284, DW_OP_deref] $sp
	;DEBUG_VALUE: BZ2_blockSort:budgetInit <- $w27
	;DEBUG_VALUE: BZ2_blockSort:quadrant <- [DW_OP_plus_uconst 264] [$sp+0]
	;DEBUG_VALUE: BZ2_blockSort:nblock <- [DW_OP_plus_uconst 272] [$sp+0]
	;DEBUG_VALUE: BZ2_blockSort:block <- $x24
	;DEBUG_VALUE: BZ2_blockSort:verb <- $w26
	;DEBUG_VALUE: BZ2_blockSort:ftab <- $x20
	;DEBUG_VALUE: BZ2_blockSort:ptr <- $x28
	;DEBUG_VALUE: BZ2_blockSort:s <- $x23
	;DEBUG_VALUE: mainSort:j <- $w9
	and	x8, x11, #0xffffffff
	add	x10, x24, x21
                                        ; kill: def $w9 killed $w9 killed $x9 def $x9
Ltmp37:
LBB0_8:                                 ; %.lr.ph398.i
                                        ; =>This Inner Loop Header: Depth=1
	;DEBUG_VALUE: mainSort:j <- $w9
	;DEBUG_VALUE: mainSort:ptr <- $x28
	;DEBUG_VALUE: mainSort:block <- $x24
	;DEBUG_VALUE: mainSort:quadrant <- [DW_OP_plus_uconst 264] [$sp+0]
	;DEBUG_VALUE: mainSort:ftab <- $x20
	;DEBUG_VALUE: mainSort:verb <- $w26
	;DEBUG_VALUE: mainSort:budget <- [DW_OP_plus_uconst 284, DW_OP_stack_value] $sp
	;DEBUG_VALUE: BZ2_blockSort:budget <- [DW_OP_plus_uconst 284, DW_OP_deref] $sp
	;DEBUG_VALUE: BZ2_blockSort:budgetInit <- $w27
	;DEBUG_VALUE: BZ2_blockSort:quadrant <- [DW_OP_plus_uconst 264] [$sp+0]
	;DEBUG_VALUE: BZ2_blockSort:nblock <- [DW_OP_plus_uconst 272] [$sp+0]
	;DEBUG_VALUE: BZ2_blockSort:block <- $x24
	;DEBUG_VALUE: BZ2_blockSort:verb <- $w26
	;DEBUG_VALUE: BZ2_blockSort:ftab <- $x20
	;DEBUG_VALUE: BZ2_blockSort:ptr <- $x28
	;DEBUG_VALUE: BZ2_blockSort:s <- $x23
	;DEBUG_VALUE: mainSort:i <- $x8
	;DEBUG_VALUE: mainSort:j <- $w9
	.loc	1 789 19 is_stmt 1              ; blocksort.c:789:19
	strh	wzr, [x10, x8, lsl  #1]
	.loc	1 790 33                        ; blocksort.c:790:33
	ldrb	w11, [x24, x8]
	mov	w9, w9
Ltmp38:
	.loc	1 790 43 is_stmt 0              ; blocksort.c:790:43
	lsl	x11, x11, #8
	.loc	1 790 20                        ; blocksort.c:790:20
	orr	x9, x11, x9, lsr #8
Ltmp39:
	;DEBUG_VALUE: mainSort:j <- $w9
	.loc	1 791 7 is_stmt 1               ; blocksort.c:791:7
	lsl	x11, x9, #2
	.loc	1 791 14 is_stmt 0              ; blocksort.c:791:14
	ldr	w12, [x20, x11]
	add	w12, w12, #1
	str	w12, [x20, x11]
Ltmp40:
	.loc	1 788 20 is_stmt 1              ; blocksort.c:788:20
	sub	x8, x8, #1
Ltmp41:
	;DEBUG_VALUE: mainSort:i <- [DW_OP_LLVM_convert 64 7, DW_OP_LLVM_convert 32 7, DW_OP_stack_value] $x8
	.loc	1 788 4 is_stmt 0               ; blocksort.c:788:4
	cmn	x8, #1
	b.ne	LBB0_8
Ltmp42:
LBB0_9:                                 ; %iter.check
	;DEBUG_VALUE: mainSort:ptr <- $x28
	;DEBUG_VALUE: mainSort:block <- $x24
	;DEBUG_VALUE: mainSort:quadrant <- [DW_OP_plus_uconst 264] [$sp+0]
	;DEBUG_VALUE: mainSort:ftab <- $x20
	;DEBUG_VALUE: mainSort:verb <- $w26
	;DEBUG_VALUE: mainSort:budget <- [DW_OP_plus_uconst 284, DW_OP_stack_value] $sp
	;DEBUG_VALUE: BZ2_blockSort:budget <- [DW_OP_plus_uconst 284, DW_OP_deref] $sp
	;DEBUG_VALUE: BZ2_blockSort:budgetInit <- $w27
	;DEBUG_VALUE: BZ2_blockSort:quadrant <- [DW_OP_plus_uconst 264] [$sp+0]
	;DEBUG_VALUE: BZ2_blockSort:nblock <- [DW_OP_plus_uconst 272] [$sp+0]
	;DEBUG_VALUE: BZ2_blockSort:block <- $x24
	;DEBUG_VALUE: BZ2_blockSort:verb <- $w26
	;DEBUG_VALUE: BZ2_blockSort:ftab <- $x20
	;DEBUG_VALUE: BZ2_blockSort:ptr <- $x28
	;DEBUG_VALUE: BZ2_blockSort:s <- $x23
	;DEBUG_VALUE: mainSort:i <- 0
	.loc	1 0 4                           ; blocksort.c:0:4
	mov	x10, #0
Ltmp43:
	.loc	1 795 4 is_stmt 1               ; blocksort.c:795:4
	add	x12, x24, #34
	add	x8, x21, x25, lsl #1
	add	x8, x24, x8
	add	x13, x12, x25
	add	x9, x24, x25
	cmp	x9, x12
	ccmp	x24, x13, #2, lo
	cset	w11, lo
	cmp	x8, x12
	add	x14, x8, #68
	ccmp	x24, x14, #2, lo
	cset	w12, lo
	cmp	x8, x13
	ccmp	x9, x14, #2, lo
	b.lo	LBB0_162
Ltmp44:
; %bb.10:                               ; %iter.check
	;DEBUG_VALUE: mainSort:i <- 0
	;DEBUG_VALUE: mainSort:ptr <- $x28
	;DEBUG_VALUE: mainSort:block <- $x24
	;DEBUG_VALUE: mainSort:quadrant <- [DW_OP_plus_uconst 264] [$sp+0]
	;DEBUG_VALUE: mainSort:ftab <- $x20
	;DEBUG_VALUE: mainSort:verb <- $w26
	;DEBUG_VALUE: mainSort:budget <- [DW_OP_plus_uconst 284, DW_OP_stack_value] $sp
	;DEBUG_VALUE: BZ2_blockSort:budget <- [DW_OP_plus_uconst 284, DW_OP_deref] $sp
	;DEBUG_VALUE: BZ2_blockSort:budgetInit <- $w27
	;DEBUG_VALUE: BZ2_blockSort:quadrant <- [DW_OP_plus_uconst 264] [$sp+0]
	;DEBUG_VALUE: BZ2_blockSort:nblock <- [DW_OP_plus_uconst 272] [$sp+0]
	;DEBUG_VALUE: BZ2_blockSort:block <- $x24
	;DEBUG_VALUE: BZ2_blockSort:verb <- $w26
	;DEBUG_VALUE: BZ2_blockSort:ftab <- $x20
	;DEBUG_VALUE: BZ2_blockSort:ptr <- $x28
	;DEBUG_VALUE: BZ2_blockSort:s <- $x23
	.loc	1 0 4 is_stmt 0                 ; blocksort.c:0:4
	ldr	x13, [sp, #264]                 ; 8-byte Folded Reload
	ldr	x21, [sp, #136]                 ; 8-byte Folded Reload
	.loc	1 795 4                         ; blocksort.c:795:4
	tbnz	w11, #0, LBB0_13
Ltmp45:
; %bb.11:                               ; %iter.check
	;DEBUG_VALUE: mainSort:i <- 0
	;DEBUG_VALUE: mainSort:ptr <- $x28
	;DEBUG_VALUE: mainSort:block <- $x24
	;DEBUG_VALUE: mainSort:quadrant <- [DW_OP_plus_uconst 264] [$sp+0]
	;DEBUG_VALUE: mainSort:ftab <- $x20
	;DEBUG_VALUE: mainSort:verb <- $w26
	;DEBUG_VALUE: mainSort:budget <- [DW_OP_plus_uconst 284, DW_OP_stack_value] $sp
	;DEBUG_VALUE: BZ2_blockSort:budget <- [DW_OP_plus_uconst 284, DW_OP_deref] $sp
	;DEBUG_VALUE: BZ2_blockSort:budgetInit <- $w27
	;DEBUG_VALUE: BZ2_blockSort:quadrant <- [DW_OP_plus_uconst 264] [$sp+0]
	;DEBUG_VALUE: BZ2_blockSort:nblock <- [DW_OP_plus_uconst 272] [$sp+0]
	;DEBUG_VALUE: BZ2_blockSort:block <- $x24
	;DEBUG_VALUE: BZ2_blockSort:verb <- $w26
	;DEBUG_VALUE: BZ2_blockSort:ftab <- $x20
	;DEBUG_VALUE: BZ2_blockSort:ptr <- $x28
	;DEBUG_VALUE: BZ2_blockSort:s <- $x23
	cbnz	w12, LBB0_13
Ltmp46:
; %bb.12:                               ; %vector.body
	;DEBUG_VALUE: mainSort:i <- 0
	;DEBUG_VALUE: mainSort:ptr <- $x28
	;DEBUG_VALUE: mainSort:block <- $x24
	;DEBUG_VALUE: mainSort:quadrant <- [DW_OP_plus_uconst 264] [$sp+0]
	;DEBUG_VALUE: mainSort:ftab <- $x20
	;DEBUG_VALUE: mainSort:verb <- $w26
	;DEBUG_VALUE: mainSort:budget <- [DW_OP_plus_uconst 284, DW_OP_stack_value] $sp
	;DEBUG_VALUE: BZ2_blockSort:budget <- [DW_OP_plus_uconst 284, DW_OP_deref] $sp
	;DEBUG_VALUE: BZ2_blockSort:budgetInit <- $w27
	;DEBUG_VALUE: BZ2_blockSort:quadrant <- [DW_OP_plus_uconst 264] [$sp+0]
	;DEBUG_VALUE: BZ2_blockSort:nblock <- [DW_OP_plus_uconst 272] [$sp+0]
	;DEBUG_VALUE: BZ2_blockSort:block <- $x24
	;DEBUG_VALUE: BZ2_blockSort:verb <- $w26
	;DEBUG_VALUE: BZ2_blockSort:ftab <- $x20
	;DEBUG_VALUE: BZ2_blockSort:ptr <- $x28
	;DEBUG_VALUE: BZ2_blockSort:s <- $x23
	.loc	1 796 26 is_stmt 1              ; blocksort.c:796:26
	ldr	q0, [x24]
	.loc	1 796 24 is_stmt 0              ; blocksort.c:796:24
	str	q0, [x24, x25]
	.loc	1 797 7 is_stmt 1               ; blocksort.c:797:7
	add	x10, x13, x25, lsl #1
	.loc	1 797 26 is_stmt 0              ; blocksort.c:797:26
	movi.2d	v0, #0000000000000000
	stp	q0, q0, [x10]
	.loc	1 796 26 is_stmt 1              ; blocksort.c:796:26
	ldr	q1, [x24, #16]
	.loc	1 796 20 is_stmt 0              ; blocksort.c:796:20
	add	x10, x25, #16
	.loc	1 796 24                        ; blocksort.c:796:24
	str	q1, [x24, x10]
	.loc	1 797 7 is_stmt 1               ; blocksort.c:797:7
	add	x10, x13, x10, lsl #1
	.loc	1 797 26 is_stmt 0              ; blocksort.c:797:26
	stp	q0, q0, [x10]
	mov	w10, #32
Ltmp47:
LBB0_13:                                ; %vec.epilog.scalar.ph
                                        ; =>This Inner Loop Header: Depth=1
	;DEBUG_VALUE: mainSort:ptr <- $x28
	;DEBUG_VALUE: mainSort:block <- $x24
	;DEBUG_VALUE: mainSort:quadrant <- [DW_OP_plus_uconst 264] [$sp+0]
	;DEBUG_VALUE: mainSort:ftab <- $x20
	;DEBUG_VALUE: mainSort:verb <- $w26
	;DEBUG_VALUE: mainSort:budget <- [DW_OP_plus_uconst 284, DW_OP_stack_value] $sp
	;DEBUG_VALUE: BZ2_blockSort:budget <- [DW_OP_plus_uconst 284, DW_OP_deref] $sp
	;DEBUG_VALUE: BZ2_blockSort:budgetInit <- $w27
	;DEBUG_VALUE: BZ2_blockSort:quadrant <- [DW_OP_plus_uconst 264] [$sp+0]
	;DEBUG_VALUE: BZ2_blockSort:nblock <- [DW_OP_plus_uconst 272] [$sp+0]
	;DEBUG_VALUE: BZ2_blockSort:block <- $x24
	;DEBUG_VALUE: BZ2_blockSort:verb <- $w26
	;DEBUG_VALUE: BZ2_blockSort:ftab <- $x20
	;DEBUG_VALUE: BZ2_blockSort:ptr <- $x28
	;DEBUG_VALUE: BZ2_blockSort:s <- $x23
	;DEBUG_VALUE: mainSort:i <- $x10
	.loc	1 796 26 is_stmt 1              ; blocksort.c:796:26
	ldrb	w11, [x24, x10]
	.loc	1 796 24 is_stmt 0              ; blocksort.c:796:24
	strb	w11, [x9, x10]
	.loc	1 797 26 is_stmt 1              ; blocksort.c:797:26
	strh	wzr, [x8, x10, lsl  #1]
Ltmp48:
	.loc	1 795 40                        ; blocksort.c:795:40
	add	x10, x10, #1
Ltmp49:
	;DEBUG_VALUE: mainSort:i <- $x10
	.loc	1 795 4 is_stmt 0               ; blocksort.c:795:4
	cmp	x10, #34
	b.ne	LBB0_13
Ltmp50:
; %bb.14:                               ; %.loopexit464
	;DEBUG_VALUE: mainSort:i <- $x10
	;DEBUG_VALUE: mainSort:ptr <- $x28
	;DEBUG_VALUE: mainSort:block <- $x24
	;DEBUG_VALUE: mainSort:quadrant <- [DW_OP_plus_uconst 264] [$sp+0]
	;DEBUG_VALUE: mainSort:ftab <- $x20
	;DEBUG_VALUE: mainSort:verb <- $w26
	;DEBUG_VALUE: mainSort:budget <- [DW_OP_plus_uconst 284, DW_OP_stack_value] $sp
	;DEBUG_VALUE: BZ2_blockSort:budget <- [DW_OP_plus_uconst 284, DW_OP_deref] $sp
	;DEBUG_VALUE: BZ2_blockSort:budgetInit <- $w27
	;DEBUG_VALUE: BZ2_blockSort:quadrant <- [DW_OP_plus_uconst 264] [$sp+0]
	;DEBUG_VALUE: BZ2_blockSort:nblock <- [DW_OP_plus_uconst 272] [$sp+0]
	;DEBUG_VALUE: BZ2_blockSort:block <- $x24
	;DEBUG_VALUE: BZ2_blockSort:verb <- $w26
	;DEBUG_VALUE: BZ2_blockSort:ftab <- $x20
	;DEBUG_VALUE: BZ2_blockSort:ptr <- $x28
	;DEBUG_VALUE: BZ2_blockSort:s <- $x23
	.loc	1 800 8 is_stmt 1               ; blocksort.c:800:8
	cmp	w26, #4
	b.lt	LBB0_16
Ltmp51:
; %bb.15:
	;DEBUG_VALUE: mainSort:i <- $x10
	;DEBUG_VALUE: mainSort:ptr <- $x28
	;DEBUG_VALUE: mainSort:block <- $x24
	;DEBUG_VALUE: mainSort:quadrant <- [DW_OP_plus_uconst 264] [$sp+0]
	;DEBUG_VALUE: mainSort:ftab <- $x20
	;DEBUG_VALUE: mainSort:verb <- $w26
	;DEBUG_VALUE: mainSort:budget <- [DW_OP_plus_uconst 284, DW_OP_stack_value] $sp
	;DEBUG_VALUE: BZ2_blockSort:budget <- [DW_OP_plus_uconst 284, DW_OP_deref] $sp
	;DEBUG_VALUE: BZ2_blockSort:budgetInit <- $w27
	;DEBUG_VALUE: BZ2_blockSort:quadrant <- [DW_OP_plus_uconst 264] [$sp+0]
	;DEBUG_VALUE: BZ2_blockSort:nblock <- [DW_OP_plus_uconst 272] [$sp+0]
	;DEBUG_VALUE: BZ2_blockSort:block <- $x24
	;DEBUG_VALUE: BZ2_blockSort:verb <- $w26
	;DEBUG_VALUE: BZ2_blockSort:ftab <- $x20
	;DEBUG_VALUE: BZ2_blockSort:ptr <- $x28
	;DEBUG_VALUE: BZ2_blockSort:s <- $x23
	.loc	1 800 27 is_stmt 0              ; blocksort.c:800:27
	ldr	x3, [x22]
	.loc	1 800 19                        ; blocksort.c:800:19
Lloh9:
	adrp	x0, l_.str.2@PAGE
Lloh10:
	add	x0, x0, l_.str.2@PAGEOFF
	mov	w1, #27
	mov	w2, #1
	bl	_fwrite
Ltmp52:
LBB0_16:
	;DEBUG_VALUE: mainSort:ptr <- $x28
	;DEBUG_VALUE: mainSort:block <- $x24
	;DEBUG_VALUE: mainSort:quadrant <- [DW_OP_plus_uconst 264] [$sp+0]
	;DEBUG_VALUE: mainSort:ftab <- $x20
	;DEBUG_VALUE: mainSort:verb <- $w26
	;DEBUG_VALUE: mainSort:budget <- [DW_OP_plus_uconst 284, DW_OP_stack_value] $sp
	;DEBUG_VALUE: BZ2_blockSort:budget <- [DW_OP_plus_uconst 284, DW_OP_deref] $sp
	;DEBUG_VALUE: BZ2_blockSort:budgetInit <- $w27
	;DEBUG_VALUE: BZ2_blockSort:quadrant <- [DW_OP_plus_uconst 264] [$sp+0]
	;DEBUG_VALUE: BZ2_blockSort:nblock <- [DW_OP_plus_uconst 272] [$sp+0]
	;DEBUG_VALUE: BZ2_blockSort:block <- $x24
	;DEBUG_VALUE: BZ2_blockSort:verb <- $w26
	;DEBUG_VALUE: BZ2_blockSort:ftab <- $x20
	;DEBUG_VALUE: BZ2_blockSort:ptr <- $x28
	;DEBUG_VALUE: BZ2_blockSort:s <- $x23
	;DEBUG_VALUE: mainSort:i <- 1
	.loc	1 0 19                          ; blocksort.c:0:19
	mov	x8, #0
Ltmp53:
	.loc	1 803 44 is_stmt 1              ; blocksort.c:803:44
	mov	x9, x20
	ldr	w10, [x9], #4
Ltmp54:
LBB0_17:                                ; =>This Inner Loop Header: Depth=1
	;DEBUG_VALUE: mainSort:ptr <- $x28
	;DEBUG_VALUE: mainSort:block <- $x24
	;DEBUG_VALUE: mainSort:quadrant <- [DW_OP_plus_uconst 264] [$sp+0]
	;DEBUG_VALUE: mainSort:ftab <- $x20
	;DEBUG_VALUE: mainSort:verb <- $w26
	;DEBUG_VALUE: mainSort:budget <- [DW_OP_plus_uconst 284, DW_OP_stack_value] $sp
	;DEBUG_VALUE: BZ2_blockSort:budget <- [DW_OP_plus_uconst 284, DW_OP_deref] $sp
	;DEBUG_VALUE: BZ2_blockSort:budgetInit <- $w27
	;DEBUG_VALUE: BZ2_blockSort:quadrant <- [DW_OP_plus_uconst 264] [$sp+0]
	;DEBUG_VALUE: BZ2_blockSort:nblock <- [DW_OP_plus_uconst 272] [$sp+0]
	;DEBUG_VALUE: BZ2_blockSort:block <- $x24
	;DEBUG_VALUE: BZ2_blockSort:verb <- $w26
	;DEBUG_VALUE: BZ2_blockSort:ftab <- $x20
	;DEBUG_VALUE: BZ2_blockSort:ptr <- $x28
	;DEBUG_VALUE: BZ2_blockSort:s <- $x23
	;DEBUG_VALUE: mainSort:i <- [DW_OP_consts 4, DW_OP_div, DW_OP_consts 1, DW_OP_plus, DW_OP_stack_value] $x8
	.loc	1 803 41 is_stmt 0              ; blocksort.c:803:41
	ldr	w11, [x9, x8]
	add	w10, w11, w10
	str	w10, [x9, x8]
Ltmp55:
	;DEBUG_VALUE: mainSort:i <- [DW_OP_consts 4, DW_OP_div, DW_OP_consts 2, DW_OP_plus, DW_OP_stack_value] $x8
	.loc	1 803 18                        ; blocksort.c:803:18
	add	x8, x8, #4
Ltmp56:
	.loc	1 803 4                         ; blocksort.c:803:4
	cmp	x8, #64, lsl #12                ; =262144
	b.ne	LBB0_17
Ltmp57:
; %bb.18:
	;DEBUG_VALUE: mainSort:ptr <- $x28
	;DEBUG_VALUE: mainSort:block <- $x24
	;DEBUG_VALUE: mainSort:quadrant <- [DW_OP_plus_uconst 264] [$sp+0]
	;DEBUG_VALUE: mainSort:ftab <- $x20
	;DEBUG_VALUE: mainSort:verb <- $w26
	;DEBUG_VALUE: mainSort:budget <- [DW_OP_plus_uconst 284, DW_OP_stack_value] $sp
	;DEBUG_VALUE: BZ2_blockSort:budget <- [DW_OP_plus_uconst 284, DW_OP_deref] $sp
	;DEBUG_VALUE: BZ2_blockSort:budgetInit <- $w27
	;DEBUG_VALUE: BZ2_blockSort:quadrant <- [DW_OP_plus_uconst 264] [$sp+0]
	;DEBUG_VALUE: BZ2_blockSort:nblock <- [DW_OP_plus_uconst 272] [$sp+0]
	;DEBUG_VALUE: BZ2_blockSort:block <- $x24
	;DEBUG_VALUE: BZ2_blockSort:verb <- $w26
	;DEBUG_VALUE: BZ2_blockSort:ftab <- $x20
	;DEBUG_VALUE: BZ2_blockSort:ptr <- $x28
	;DEBUG_VALUE: BZ2_blockSort:s <- $x23
	.loc	1 0 4                           ; blocksort.c:0:4
	mov	x8, #0
	.loc	1 805 8 is_stmt 1               ; blocksort.c:805:8
	ldrb	w9, [x24]
	.loc	1 805 17 is_stmt 0              ; blocksort.c:805:17
	lsl	w13, w9, #8
Ltmp58:
	;DEBUG_VALUE: mainSort:s <- $w13
	.loc	1 807 4 is_stmt 1               ; blocksort.c:807:4
	add	x9, x24, x21
	ldr	x12, [sp, #272]                 ; 8-byte Folded Reload
	sub	w10, w12, #4
	sub	w11, w25, #3
	sub	w12, w12, #2
Ltmp59:
	;DEBUG_VALUE: mainSort:i <- [DW_OP_plus_uconst 272, DW_OP_deref_size 8, DW_OP_LLVM_convert 64 7, DW_OP_LLVM_convert 32 7, DW_OP_constu 1, DW_OP_minus, DW_OP_stack_value] $sp
LBB0_19:                                ; %.lr.ph403.i
                                        ; =>This Inner Loop Header: Depth=1
	;DEBUG_VALUE: mainSort:s <- $w13
	;DEBUG_VALUE: mainSort:ptr <- $x28
	;DEBUG_VALUE: mainSort:block <- $x24
	;DEBUG_VALUE: mainSort:quadrant <- [DW_OP_plus_uconst 264] [$sp+0]
	;DEBUG_VALUE: mainSort:ftab <- $x20
	;DEBUG_VALUE: mainSort:verb <- $w26
	;DEBUG_VALUE: mainSort:budget <- [DW_OP_plus_uconst 284, DW_OP_stack_value] $sp
	;DEBUG_VALUE: BZ2_blockSort:budget <- [DW_OP_plus_uconst 284, DW_OP_deref] $sp
	;DEBUG_VALUE: BZ2_blockSort:budgetInit <- $w27
	;DEBUG_VALUE: BZ2_blockSort:quadrant <- [DW_OP_plus_uconst 264] [$sp+0]
	;DEBUG_VALUE: BZ2_blockSort:nblock <- [DW_OP_plus_uconst 272] [$sp+0]
	;DEBUG_VALUE: BZ2_blockSort:block <- $x24
	;DEBUG_VALUE: BZ2_blockSort:verb <- $w26
	;DEBUG_VALUE: BZ2_blockSort:ftab <- $x20
	;DEBUG_VALUE: BZ2_blockSort:ptr <- $x28
	;DEBUG_VALUE: BZ2_blockSort:s <- $x23
	;DEBUG_VALUE: mainSort:i <- [DW_OP_LLVM_arg 0, DW_OP_consts 18446744073709551612, DW_OP_div, DW_OP_consts 18446744073709551612, DW_OP_mul, DW_OP_consts 18446744073709551615, DW_OP_LLVM_arg 0, DW_OP_plus, DW_OP_LLVM_convert 64 7, DW_OP_plus, DW_OP_stack_value] undef
	;DEBUG_VALUE: mainSort:s <- $w13
	.loc	1 808 23                        ; blocksort.c:808:23
	ldrb	w14, [x9, x8]
	.loc	1 808 20 is_stmt 0              ; blocksort.c:808:20
	lsl	w13, w13, #16
Ltmp60:
	extr	w13, w14, w13, #24
Ltmp61:
	;DEBUG_VALUE: mainSort:s <- $w13
	.loc	1 809 11 is_stmt 1              ; blocksort.c:809:11
	and	x14, x13, #0xffff
	lsl	x14, x14, #2
	ldr	w15, [x20, x14]
	.loc	1 809 19 is_stmt 0              ; blocksort.c:809:19
	sub	w15, w15, #1
Ltmp62:
	;DEBUG_VALUE: mainSort:j <- $w15
	.loc	1 810 15 is_stmt 1              ; blocksort.c:810:15
	str	w15, [x20, x14]
	.loc	1 811 14                        ; blocksort.c:811:14
	add	w14, w21, w8
	str	w14, [x28, w15, sxtw  #2]
	add	w14, w12, w8
	.loc	1 812 23                        ; blocksort.c:812:23
	ldrb	w15, [x24, w14, uxtw]
Ltmp63:
	.loc	1 812 20 is_stmt 0              ; blocksort.c:812:20
	lsl	w13, w13, #16
Ltmp64:
	extr	w13, w15, w13, #24
Ltmp65:
	;DEBUG_VALUE: mainSort:s <- $w13
	.loc	1 813 11 is_stmt 1              ; blocksort.c:813:11
	and	x15, x13, #0xffff
	lsl	x15, x15, #2
	ldr	w16, [x20, x15]
	.loc	1 813 19 is_stmt 0              ; blocksort.c:813:19
	sub	w16, w16, #1
Ltmp66:
	;DEBUG_VALUE: mainSort:j <- $w16
	.loc	1 814 15 is_stmt 1              ; blocksort.c:814:15
	str	w16, [x20, x15]
	.loc	1 815 14                        ; blocksort.c:815:14
	str	w14, [x28, w16, sxtw  #2]
	add	w14, w11, w8
	.loc	1 816 23                        ; blocksort.c:816:23
	ldrb	w15, [x24, w14, uxtw]
	.loc	1 816 20 is_stmt 0              ; blocksort.c:816:20
	lsl	w13, w13, #16
Ltmp67:
	extr	w13, w15, w13, #24
Ltmp68:
	;DEBUG_VALUE: mainSort:s <- $w13
	.loc	1 817 11 is_stmt 1              ; blocksort.c:817:11
	and	x15, x13, #0xffff
	lsl	x15, x15, #2
	ldr	w16, [x20, x15]
Ltmp69:
	.loc	1 817 19 is_stmt 0              ; blocksort.c:817:19
	sub	w16, w16, #1
Ltmp70:
	;DEBUG_VALUE: mainSort:j <- $w16
	.loc	1 818 15 is_stmt 1              ; blocksort.c:818:15
	str	w16, [x20, x15]
	.loc	1 819 14                        ; blocksort.c:819:14
	str	w14, [x28, w16, sxtw  #2]
	add	w14, w10, w8
	.loc	1 820 23                        ; blocksort.c:820:23
	ldrb	w15, [x24, w14, uxtw]
	.loc	1 820 20 is_stmt 0              ; blocksort.c:820:20
	lsl	w13, w13, #16
Ltmp71:
	extr	w13, w15, w13, #24
Ltmp72:
	;DEBUG_VALUE: mainSort:s <- $w13
	.loc	1 821 11 is_stmt 1              ; blocksort.c:821:11
	and	x15, x13, #0xffff
	lsl	x15, x15, #2
	ldr	w16, [x20, x15]
Ltmp73:
	.loc	1 821 19 is_stmt 0              ; blocksort.c:821:19
	sub	w16, w16, #1
Ltmp74:
	;DEBUG_VALUE: mainSort:j <- $w16
	.loc	1 822 15 is_stmt 1              ; blocksort.c:822:15
	str	w16, [x20, x15]
	.loc	1 823 14                        ; blocksort.c:823:14
	str	w14, [x28, w16, sxtw  #2]
Ltmp75:
	;DEBUG_VALUE: mainSort:i <- [DW_OP_LLVM_arg 0, DW_OP_consts 18446744073709551612, DW_OP_div, DW_OP_consts 18446744073709551612, DW_OP_mul, DW_OP_consts 18446744073709551611, DW_OP_LLVM_arg 0, DW_OP_plus, DW_OP_plus, DW_OP_stack_value] undef
	.loc	1 807 13                        ; blocksort.c:807:13
	sub	x8, x8, #4
	add	x14, x21, x8
	add	x15, x14, #4
Ltmp76:
	.loc	1 807 4 is_stmt 0               ; blocksort.c:807:4
	cmp	x15, #6
	b.hi	LBB0_19
Ltmp77:
; %bb.20:                               ; %.preheader328.i
	;DEBUG_VALUE: mainSort:j <- $w16
	;DEBUG_VALUE: mainSort:s <- $w13
	;DEBUG_VALUE: mainSort:ptr <- $x28
	;DEBUG_VALUE: mainSort:block <- $x24
	;DEBUG_VALUE: mainSort:quadrant <- [DW_OP_plus_uconst 264] [$sp+0]
	;DEBUG_VALUE: mainSort:ftab <- $x20
	;DEBUG_VALUE: mainSort:verb <- $w26
	;DEBUG_VALUE: mainSort:budget <- [DW_OP_plus_uconst 284, DW_OP_stack_value] $sp
	;DEBUG_VALUE: BZ2_blockSort:budget <- [DW_OP_plus_uconst 284, DW_OP_deref] $sp
	;DEBUG_VALUE: BZ2_blockSort:budgetInit <- $w27
	;DEBUG_VALUE: BZ2_blockSort:quadrant <- [DW_OP_plus_uconst 264] [$sp+0]
	;DEBUG_VALUE: BZ2_blockSort:nblock <- [DW_OP_plus_uconst 272] [$sp+0]
	;DEBUG_VALUE: BZ2_blockSort:block <- $x24
	;DEBUG_VALUE: BZ2_blockSort:verb <- $w26
	;DEBUG_VALUE: BZ2_blockSort:ftab <- $x20
	;DEBUG_VALUE: BZ2_blockSort:ptr <- $x28
	;DEBUG_VALUE: BZ2_blockSort:s <- $x23
	;DEBUG_VALUE: mainSort:i <- [DW_OP_constu 4, DW_OP_minus, DW_OP_stack_value] undef
	;DEBUG_VALUE: mainSort:s <- $w13
	.loc	1 0 4                           ; blocksort.c:0:4
	ldr	x9, [sp, #272]                  ; 8-byte Folded Reload
Ltmp78:
	.loc	1 825 13 is_stmt 1              ; blocksort.c:825:13
	add	w8, w9, w8
	add	w8, w8, #3
Ltmp79:
	.loc	1 825 4 is_stmt 0               ; blocksort.c:825:4
	cmp	w8, #4
	b.lt	LBB0_23
Ltmp80:
; %bb.21:                               ; %.lr.ph408.preheader.i
	;DEBUG_VALUE: mainSort:j <- $w16
	;DEBUG_VALUE: mainSort:s <- $w13
	;DEBUG_VALUE: mainSort:ptr <- $x28
	;DEBUG_VALUE: mainSort:block <- $x24
	;DEBUG_VALUE: mainSort:quadrant <- [DW_OP_plus_uconst 264] [$sp+0]
	;DEBUG_VALUE: mainSort:ftab <- $x20
	;DEBUG_VALUE: mainSort:verb <- $w26
	;DEBUG_VALUE: mainSort:budget <- [DW_OP_plus_uconst 284, DW_OP_stack_value] $sp
	;DEBUG_VALUE: BZ2_blockSort:budget <- [DW_OP_plus_uconst 284, DW_OP_deref] $sp
	;DEBUG_VALUE: BZ2_blockSort:budgetInit <- $w27
	;DEBUG_VALUE: BZ2_blockSort:quadrant <- [DW_OP_plus_uconst 264] [$sp+0]
	;DEBUG_VALUE: BZ2_blockSort:nblock <- [DW_OP_plus_uconst 272] [$sp+0]
	;DEBUG_VALUE: BZ2_blockSort:block <- $x24
	;DEBUG_VALUE: BZ2_blockSort:verb <- $w26
	;DEBUG_VALUE: BZ2_blockSort:ftab <- $x20
	;DEBUG_VALUE: BZ2_blockSort:ptr <- $x28
	;DEBUG_VALUE: BZ2_blockSort:s <- $x23
	and	x8, x14, #0xffffffff
                                        ; kill: def $w13 killed $w13 killed $x13 def $x13
Ltmp81:
LBB0_22:                                ; %.lr.ph408.i
                                        ; =>This Inner Loop Header: Depth=1
	;DEBUG_VALUE: mainSort:s <- $w13
	;DEBUG_VALUE: mainSort:ptr <- $x28
	;DEBUG_VALUE: mainSort:block <- $x24
	;DEBUG_VALUE: mainSort:quadrant <- [DW_OP_plus_uconst 264] [$sp+0]
	;DEBUG_VALUE: mainSort:ftab <- $x20
	;DEBUG_VALUE: mainSort:verb <- $w26
	;DEBUG_VALUE: mainSort:budget <- [DW_OP_plus_uconst 284, DW_OP_stack_value] $sp
	;DEBUG_VALUE: BZ2_blockSort:budget <- [DW_OP_plus_uconst 284, DW_OP_deref] $sp
	;DEBUG_VALUE: BZ2_blockSort:budgetInit <- $w27
	;DEBUG_VALUE: BZ2_blockSort:quadrant <- [DW_OP_plus_uconst 264] [$sp+0]
	;DEBUG_VALUE: BZ2_blockSort:nblock <- [DW_OP_plus_uconst 272] [$sp+0]
	;DEBUG_VALUE: BZ2_blockSort:block <- $x24
	;DEBUG_VALUE: BZ2_blockSort:verb <- $w26
	;DEBUG_VALUE: BZ2_blockSort:ftab <- $x20
	;DEBUG_VALUE: BZ2_blockSort:ptr <- $x28
	;DEBUG_VALUE: BZ2_blockSort:s <- $x23
	;DEBUG_VALUE: mainSort:i <- $x8
	;DEBUG_VALUE: mainSort:s <- $w13
	.loc	1 826 23 is_stmt 1              ; blocksort.c:826:23
	ldrb	w9, [x24, x8]
	.loc	1 826 20 is_stmt 0              ; blocksort.c:826:20
	lsl	w10, w13, #16
	extr	w13, w9, w10, #24
Ltmp82:
	;DEBUG_VALUE: mainSort:s <- $w13
	.loc	1 827 11 is_stmt 1              ; blocksort.c:827:11
	and	x9, x13, #0xffff
	lsl	x9, x9, #2
	ldr	w10, [x20, x9]
	.loc	1 827 19 is_stmt 0              ; blocksort.c:827:19
	sub	w10, w10, #1
Ltmp83:
	;DEBUG_VALUE: mainSort:j <- $w10
	.loc	1 828 15 is_stmt 1              ; blocksort.c:828:15
	str	w10, [x20, x9]
	.loc	1 829 14                        ; blocksort.c:829:14
	str	w14, [x28, w10, sxtw  #2]
Ltmp84:
	;DEBUG_VALUE: mainSort:i <- [DW_OP_constu 1, DW_OP_minus, DW_OP_stack_value] undef
	.loc	1 825 20                        ; blocksort.c:825:20
	sub	x8, x8, #1
	.loc	1 825 13 is_stmt 0              ; blocksort.c:825:13
	sub	w14, w14, #1
Ltmp85:
	.loc	1 825 4                         ; blocksort.c:825:4
	cmn	x8, #1
	b.ne	LBB0_22
Ltmp86:
LBB0_23:                                ; %.preheader327.i
	;DEBUG_VALUE: mainSort:s <- $w13
	;DEBUG_VALUE: mainSort:ptr <- $x28
	;DEBUG_VALUE: mainSort:block <- $x24
	;DEBUG_VALUE: mainSort:quadrant <- [DW_OP_plus_uconst 264] [$sp+0]
	;DEBUG_VALUE: mainSort:ftab <- $x20
	;DEBUG_VALUE: mainSort:verb <- $w26
	;DEBUG_VALUE: mainSort:budget <- [DW_OP_plus_uconst 284, DW_OP_stack_value] $sp
	;DEBUG_VALUE: BZ2_blockSort:budget <- [DW_OP_plus_uconst 284, DW_OP_deref] $sp
	;DEBUG_VALUE: BZ2_blockSort:budgetInit <- $w27
	;DEBUG_VALUE: BZ2_blockSort:quadrant <- [DW_OP_plus_uconst 264] [$sp+0]
	;DEBUG_VALUE: BZ2_blockSort:nblock <- [DW_OP_plus_uconst 272] [$sp+0]
	;DEBUG_VALUE: BZ2_blockSort:block <- $x24
	;DEBUG_VALUE: BZ2_blockSort:verb <- $w26
	;DEBUG_VALUE: BZ2_blockSort:ftab <- $x20
	;DEBUG_VALUE: BZ2_blockSort:ptr <- $x28
	;DEBUG_VALUE: BZ2_blockSort:s <- $x23
	;DEBUG_VALUE: mainSort:i <- 0
	.loc	1 838 19 is_stmt 1              ; blocksort.c:838:19
	movi.2d	v0, #0000000000000000
	stp	q0, q0, [x19, #224]
	stp	q0, q0, [x19, #192]
	stp	q0, q0, [x19, #160]
	stp	q0, q0, [x19, #128]
	stp	q0, q0, [x19, #96]
	stp	q0, q0, [x19, #64]
	stp	q0, q0, [x19, #32]
	stp	q0, q0, [x19]
Lloh11:
	adrp	x8, lCPI0_0@PAGE
	.loc	1 839 23                        ; blocksort.c:839:23
Lloh12:
	ldr	q0, [x8, lCPI0_0@PAGEOFF]
Lloh13:
	adrp	x8, lCPI0_1@PAGE
Lloh14:
	ldr	q1, [x8, lCPI0_1@PAGEOFF]
	stp	q0, q1, [x19, #256]
Lloh15:
	adrp	x8, lCPI0_2@PAGE
Lloh16:
	ldr	q0, [x8, lCPI0_2@PAGEOFF]
Lloh17:
	adrp	x8, lCPI0_3@PAGE
Lloh18:
	ldr	q1, [x8, lCPI0_3@PAGEOFF]
	stp	q0, q1, [x19, #288]
Lloh19:
	adrp	x8, lCPI0_4@PAGE
Lloh20:
	ldr	q0, [x8, lCPI0_4@PAGEOFF]
Lloh21:
	adrp	x8, lCPI0_5@PAGE
Lloh22:
	ldr	q1, [x8, lCPI0_5@PAGEOFF]
	stp	q0, q1, [x19, #320]
Lloh23:
	adrp	x8, lCPI0_6@PAGE
Lloh24:
	ldr	q0, [x8, lCPI0_6@PAGEOFF]
Lloh25:
	adrp	x8, lCPI0_7@PAGE
Lloh26:
	ldr	q1, [x8, lCPI0_7@PAGEOFF]
	stp	q0, q1, [x19, #352]
Lloh27:
	adrp	x8, lCPI0_8@PAGE
Lloh28:
	ldr	q0, [x8, lCPI0_8@PAGEOFF]
Lloh29:
	adrp	x8, lCPI0_9@PAGE
Lloh30:
	ldr	q1, [x8, lCPI0_9@PAGEOFF]
	stp	q0, q1, [x19, #384]
Lloh31:
	adrp	x8, lCPI0_10@PAGE
Lloh32:
	ldr	q0, [x8, lCPI0_10@PAGEOFF]
Lloh33:
	adrp	x8, lCPI0_11@PAGE
Lloh34:
	ldr	q1, [x8, lCPI0_11@PAGEOFF]
	stp	q0, q1, [x19, #416]
Lloh35:
	adrp	x8, lCPI0_12@PAGE
Lloh36:
	ldr	q0, [x8, lCPI0_12@PAGEOFF]
Lloh37:
	adrp	x8, lCPI0_13@PAGE
Lloh38:
	ldr	q1, [x8, lCPI0_13@PAGEOFF]
	stp	q0, q1, [x19, #448]
Lloh39:
	adrp	x8, lCPI0_14@PAGE
Lloh40:
	ldr	q0, [x8, lCPI0_14@PAGEOFF]
Lloh41:
	adrp	x8, lCPI0_15@PAGE
Lloh42:
	ldr	q1, [x8, lCPI0_15@PAGEOFF]
	stp	q0, q1, [x19, #480]
Lloh43:
	adrp	x8, lCPI0_16@PAGE
Lloh44:
	ldr	q0, [x8, lCPI0_16@PAGEOFF]
Lloh45:
	adrp	x8, lCPI0_17@PAGE
Lloh46:
	ldr	q1, [x8, lCPI0_17@PAGEOFF]
	stp	q0, q1, [x19, #512]
Lloh47:
	adrp	x8, lCPI0_18@PAGE
Lloh48:
	ldr	q0, [x8, lCPI0_18@PAGEOFF]
Lloh49:
	adrp	x8, lCPI0_19@PAGE
Lloh50:
	ldr	q1, [x8, lCPI0_19@PAGEOFF]
	stp	q0, q1, [x19, #544]
Lloh51:
	adrp	x8, lCPI0_20@PAGE
Lloh52:
	ldr	q0, [x8, lCPI0_20@PAGEOFF]
Lloh53:
	adrp	x8, lCPI0_21@PAGE
Lloh54:
	ldr	q1, [x8, lCPI0_21@PAGEOFF]
	stp	q0, q1, [x19, #576]
Lloh55:
	adrp	x8, lCPI0_22@PAGE
Lloh56:
	ldr	q0, [x8, lCPI0_22@PAGEOFF]
Lloh57:
	adrp	x8, lCPI0_23@PAGE
Lloh58:
	ldr	q1, [x8, lCPI0_23@PAGEOFF]
	stp	q0, q1, [x19, #608]
Lloh59:
	adrp	x8, lCPI0_24@PAGE
Lloh60:
	ldr	q0, [x8, lCPI0_24@PAGEOFF]
Lloh61:
	adrp	x8, lCPI0_25@PAGE
Lloh62:
	ldr	q1, [x8, lCPI0_25@PAGEOFF]
	stp	q0, q1, [x19, #640]
Lloh63:
	adrp	x8, lCPI0_26@PAGE
Lloh64:
	ldr	q0, [x8, lCPI0_26@PAGEOFF]
Lloh65:
	adrp	x8, lCPI0_27@PAGE
Lloh66:
	ldr	q1, [x8, lCPI0_27@PAGEOFF]
	stp	q0, q1, [x19, #672]
Lloh67:
	adrp	x8, lCPI0_28@PAGE
Lloh68:
	ldr	q0, [x8, lCPI0_28@PAGEOFF]
Lloh69:
	adrp	x8, lCPI0_29@PAGE
Lloh70:
	ldr	q1, [x8, lCPI0_29@PAGEOFF]
	stp	q0, q1, [x19, #704]
Lloh71:
	adrp	x8, lCPI0_30@PAGE
Lloh72:
	ldr	q0, [x8, lCPI0_30@PAGEOFF]
Lloh73:
	adrp	x8, lCPI0_31@PAGE
Lloh74:
	ldr	q1, [x8, lCPI0_31@PAGEOFF]
	stp	q0, q1, [x19, #736]
Lloh75:
	adrp	x8, lCPI0_32@PAGE
Lloh76:
	ldr	q0, [x8, lCPI0_32@PAGEOFF]
Lloh77:
	adrp	x8, lCPI0_33@PAGE
Lloh78:
	ldr	q1, [x8, lCPI0_33@PAGEOFF]
	stp	q0, q1, [x19, #768]
Lloh79:
	adrp	x8, lCPI0_34@PAGE
Lloh80:
	ldr	q0, [x8, lCPI0_34@PAGEOFF]
Lloh81:
	adrp	x8, lCPI0_35@PAGE
Lloh82:
	ldr	q1, [x8, lCPI0_35@PAGEOFF]
	stp	q0, q1, [x19, #800]
Lloh83:
	adrp	x8, lCPI0_36@PAGE
Lloh84:
	ldr	q0, [x8, lCPI0_36@PAGEOFF]
Lloh85:
	adrp	x8, lCPI0_37@PAGE
Lloh86:
	ldr	q1, [x8, lCPI0_37@PAGEOFF]
	stp	q0, q1, [x19, #832]
Lloh87:
	adrp	x8, lCPI0_38@PAGE
Lloh88:
	ldr	q0, [x8, lCPI0_38@PAGEOFF]
Lloh89:
	adrp	x8, lCPI0_39@PAGE
Lloh90:
	ldr	q1, [x8, lCPI0_39@PAGEOFF]
	stp	q0, q1, [x19, #864]
Lloh91:
	adrp	x8, lCPI0_40@PAGE
Lloh92:
	ldr	q0, [x8, lCPI0_40@PAGEOFF]
Lloh93:
	adrp	x8, lCPI0_41@PAGE
Lloh94:
	ldr	q1, [x8, lCPI0_41@PAGEOFF]
	stp	q0, q1, [x19, #896]
Lloh95:
	adrp	x8, lCPI0_42@PAGE
Lloh96:
	ldr	q0, [x8, lCPI0_42@PAGEOFF]
Lloh97:
	adrp	x8, lCPI0_43@PAGE
Lloh98:
	ldr	q1, [x8, lCPI0_43@PAGEOFF]
	stp	q0, q1, [x19, #928]
Lloh99:
	adrp	x8, lCPI0_44@PAGE
Lloh100:
	ldr	q0, [x8, lCPI0_44@PAGEOFF]
Lloh101:
	adrp	x8, lCPI0_45@PAGE
Lloh102:
	ldr	q1, [x8, lCPI0_45@PAGEOFF]
	stp	q0, q1, [x19, #960]
Lloh103:
	adrp	x8, lCPI0_46@PAGE
Lloh104:
	ldr	q0, [x8, lCPI0_46@PAGEOFF]
Lloh105:
	adrp	x8, lCPI0_47@PAGE
Lloh106:
	ldr	q1, [x8, lCPI0_47@PAGEOFF]
	stp	q0, q1, [x19, #992]
Lloh107:
	adrp	x8, lCPI0_48@PAGE
Lloh108:
	ldr	q0, [x8, lCPI0_48@PAGEOFF]
	str	q0, [x19, #1024]
Lloh109:
	adrp	x8, lCPI0_49@PAGE
Lloh110:
	ldr	q0, [x8, lCPI0_49@PAGEOFF]
	str	q0, [x19, #1040]
Lloh111:
	adrp	x8, lCPI0_50@PAGE
Lloh112:
	ldr	q0, [x8, lCPI0_50@PAGEOFF]
	str	q0, [x19, #1056]
Lloh113:
	adrp	x8, lCPI0_51@PAGE
Lloh114:
	ldr	q0, [x8, lCPI0_51@PAGEOFF]
	str	q0, [x19, #1072]
Lloh115:
	adrp	x8, lCPI0_52@PAGE
Lloh116:
	ldr	q0, [x8, lCPI0_52@PAGEOFF]
	str	q0, [x19, #1088]
Lloh117:
	adrp	x8, lCPI0_53@PAGE
Lloh118:
	ldr	q0, [x8, lCPI0_53@PAGEOFF]
	str	q0, [x19, #1104]
Lloh119:
	adrp	x8, lCPI0_54@PAGE
Lloh120:
	ldr	q0, [x8, lCPI0_54@PAGEOFF]
	str	q0, [x19, #1120]
Lloh121:
	adrp	x8, lCPI0_55@PAGE
Lloh122:
	ldr	q0, [x8, lCPI0_55@PAGEOFF]
	str	q0, [x19, #1136]
Lloh123:
	adrp	x8, lCPI0_56@PAGE
Lloh124:
	ldr	q0, [x8, lCPI0_56@PAGEOFF]
	str	q0, [x19, #1152]
Lloh125:
	adrp	x8, lCPI0_57@PAGE
Lloh126:
	ldr	q0, [x8, lCPI0_57@PAGEOFF]
	str	q0, [x19, #1168]
Lloh127:
	adrp	x8, lCPI0_58@PAGE
Lloh128:
	ldr	q0, [x8, lCPI0_58@PAGEOFF]
	str	q0, [x19, #1184]
Lloh129:
	adrp	x8, lCPI0_59@PAGE
Lloh130:
	ldr	q0, [x8, lCPI0_59@PAGEOFF]
	str	q0, [x19, #1200]
Lloh131:
	adrp	x8, lCPI0_60@PAGE
Lloh132:
	ldr	q0, [x8, lCPI0_60@PAGEOFF]
	str	q0, [x19, #1216]
Lloh133:
	adrp	x8, lCPI0_61@PAGE
Lloh134:
	ldr	q0, [x8, lCPI0_61@PAGEOFF]
	str	q0, [x19, #1232]
Lloh135:
	adrp	x8, lCPI0_62@PAGE
Lloh136:
	ldr	q0, [x8, lCPI0_62@PAGEOFF]
	str	q0, [x19, #1248]
	mov	w9, #364
Lloh137:
	adrp	x8, lCPI0_63@PAGE
Lloh138:
	ldr	q0, [x8, lCPI0_63@PAGEOFF]
	mov	w8, #21846
	movk	w8, #21845, lsl #16
	mov	w10, #255
	str	q0, [x19, #1264]
	add	x11, sp, #2592
	b	LBB0_25
Ltmp87:
LBB0_24:                                ; %._crit_edge.i
                                        ;   in Loop: Header=BB0_25 Depth=1
	;DEBUG_VALUE: h <- $w12
	;DEBUG_VALUE: mainSort:ptr <- $x28
	;DEBUG_VALUE: mainSort:block <- $x24
	;DEBUG_VALUE: mainSort:quadrant <- [DW_OP_plus_uconst 264] [$sp+0]
	;DEBUG_VALUE: mainSort:ftab <- $x20
	;DEBUG_VALUE: mainSort:verb <- $w26
	;DEBUG_VALUE: mainSort:budget <- [DW_OP_plus_uconst 284, DW_OP_stack_value] $sp
	;DEBUG_VALUE: BZ2_blockSort:budget <- [DW_OP_plus_uconst 284, DW_OP_deref] $sp
	;DEBUG_VALUE: BZ2_blockSort:budgetInit <- $w27
	;DEBUG_VALUE: BZ2_blockSort:quadrant <- [DW_OP_plus_uconst 264] [$sp+0]
	;DEBUG_VALUE: BZ2_blockSort:nblock <- [DW_OP_plus_uconst 272] [$sp+0]
	;DEBUG_VALUE: BZ2_blockSort:block <- $x24
	;DEBUG_VALUE: BZ2_blockSort:verb <- $w26
	;DEBUG_VALUE: BZ2_blockSort:ftab <- $x20
	;DEBUG_VALUE: BZ2_blockSort:ptr <- $x28
	;DEBUG_VALUE: BZ2_blockSort:s <- $x23
	.loc	1 859 18                        ; blocksort.c:859:18
	sub	w13, w9, #3
	mov	x9, x12
Ltmp88:
	.loc	1 859 7 is_stmt 0               ; blocksort.c:859:7
	cmp	w13, #2
	b.ls	LBB0_32
Ltmp89:
LBB0_25:                                ; %.preheader325.i
                                        ; =>This Loop Header: Depth=1
                                        ;     Child Loop BB0_29 Depth 2
                                        ;       Child Loop BB0_30 Depth 3
	;DEBUG_VALUE: mainSort:ptr <- $x28
	;DEBUG_VALUE: mainSort:block <- $x24
	;DEBUG_VALUE: mainSort:quadrant <- [DW_OP_plus_uconst 264] [$sp+0]
	;DEBUG_VALUE: mainSort:ftab <- $x20
	;DEBUG_VALUE: mainSort:verb <- $w26
	;DEBUG_VALUE: mainSort:budget <- [DW_OP_plus_uconst 284, DW_OP_stack_value] $sp
	;DEBUG_VALUE: BZ2_blockSort:budget <- [DW_OP_plus_uconst 284, DW_OP_deref] $sp
	;DEBUG_VALUE: BZ2_blockSort:budgetInit <- $w27
	;DEBUG_VALUE: BZ2_blockSort:quadrant <- [DW_OP_plus_uconst 264] [$sp+0]
	;DEBUG_VALUE: BZ2_blockSort:nblock <- [DW_OP_plus_uconst 272] [$sp+0]
	;DEBUG_VALUE: BZ2_blockSort:block <- $x24
	;DEBUG_VALUE: BZ2_blockSort:verb <- $w26
	;DEBUG_VALUE: BZ2_blockSort:ftab <- $x20
	;DEBUG_VALUE: BZ2_blockSort:ptr <- $x28
	;DEBUG_VALUE: BZ2_blockSort:s <- $x23
	;DEBUG_VALUE: h <- $w9
	.loc	1 847 16 is_stmt 1              ; blocksort.c:847:16
	smull	x12, w9, w8
	lsr	x13, x12, #63
	lsr	x12, x12, #32
	add	w12, w12, w13
Ltmp90:
	;DEBUG_VALUE: h <- $w12
	;DEBUG_VALUE: mainSort:i <- $w12
	.loc	1 848 10                        ; blocksort.c:848:10
	cmp	w9, #767
	b.gt	LBB0_24
Ltmp91:
; %bb.26:                               ; %.lr.ph411.preheader.i
                                        ;   in Loop: Header=BB0_25 Depth=1
	;DEBUG_VALUE: mainSort:i <- $w12
	;DEBUG_VALUE: h <- $w12
	;DEBUG_VALUE: mainSort:ptr <- $x28
	;DEBUG_VALUE: mainSort:block <- $x24
	;DEBUG_VALUE: mainSort:quadrant <- [DW_OP_plus_uconst 264] [$sp+0]
	;DEBUG_VALUE: mainSort:ftab <- $x20
	;DEBUG_VALUE: mainSort:verb <- $w26
	;DEBUG_VALUE: mainSort:budget <- [DW_OP_plus_uconst 284, DW_OP_stack_value] $sp
	;DEBUG_VALUE: BZ2_blockSort:budget <- [DW_OP_plus_uconst 284, DW_OP_deref] $sp
	;DEBUG_VALUE: BZ2_blockSort:budgetInit <- $w27
	;DEBUG_VALUE: BZ2_blockSort:quadrant <- [DW_OP_plus_uconst 264] [$sp+0]
	;DEBUG_VALUE: BZ2_blockSort:nblock <- [DW_OP_plus_uconst 272] [$sp+0]
	;DEBUG_VALUE: BZ2_blockSort:block <- $x24
	;DEBUG_VALUE: BZ2_blockSort:verb <- $w26
	;DEBUG_VALUE: BZ2_blockSort:ftab <- $x20
	;DEBUG_VALUE: BZ2_blockSort:ptr <- $x28
	;DEBUG_VALUE: BZ2_blockSort:s <- $x23
	.loc	1 0 10 is_stmt 0                ; blocksort.c:0:10
	mov	w13, #0
	.loc	1 848 10                        ; blocksort.c:848:10
	sxtw	x14, w12
	cmp	w12, #255
	csel	w15, w12, w10, gt
	add	w15, w15, #1
	b	LBB0_29
Ltmp92:
LBB0_27:                                ;   in Loop: Header=BB0_29 Depth=2
	;DEBUG_VALUE: vv <- $w16
	;DEBUG_VALUE: mainSort:i <- $x14
	;DEBUG_VALUE: h <- $w12
	;DEBUG_VALUE: mainSort:ptr <- $x28
	;DEBUG_VALUE: mainSort:block <- $x24
	;DEBUG_VALUE: mainSort:quadrant <- [DW_OP_plus_uconst 264] [$sp+0]
	;DEBUG_VALUE: mainSort:ftab <- $x20
	;DEBUG_VALUE: mainSort:verb <- $w26
	;DEBUG_VALUE: mainSort:budget <- [DW_OP_plus_uconst 284, DW_OP_stack_value] $sp
	;DEBUG_VALUE: BZ2_blockSort:budget <- [DW_OP_plus_uconst 284, DW_OP_deref] $sp
	;DEBUG_VALUE: BZ2_blockSort:budgetInit <- $w27
	;DEBUG_VALUE: BZ2_blockSort:quadrant <- [DW_OP_plus_uconst 264] [$sp+0]
	;DEBUG_VALUE: BZ2_blockSort:nblock <- [DW_OP_plus_uconst 272] [$sp+0]
	;DEBUG_VALUE: BZ2_blockSort:block <- $x24
	;DEBUG_VALUE: BZ2_blockSort:verb <- $w26
	;DEBUG_VALUE: BZ2_blockSort:ftab <- $x20
	;DEBUG_VALUE: BZ2_blockSort:ptr <- $x28
	;DEBUG_VALUE: BZ2_blockSort:s <- $x23
	.loc	1 0 10                          ; blocksort.c:0:10
	mov	x2, x3
Ltmp93:
LBB0_28:                                ; %split.i
                                        ;   in Loop: Header=BB0_29 Depth=2
	;DEBUG_VALUE: vv <- $w16
	;DEBUG_VALUE: mainSort:i <- $x14
	;DEBUG_VALUE: h <- $w12
	;DEBUG_VALUE: mainSort:ptr <- $x28
	;DEBUG_VALUE: mainSort:block <- $x24
	;DEBUG_VALUE: mainSort:quadrant <- [DW_OP_plus_uconst 264] [$sp+0]
	;DEBUG_VALUE: mainSort:ftab <- $x20
	;DEBUG_VALUE: mainSort:verb <- $w26
	;DEBUG_VALUE: mainSort:budget <- [DW_OP_plus_uconst 284, DW_OP_stack_value] $sp
	;DEBUG_VALUE: BZ2_blockSort:budget <- [DW_OP_plus_uconst 284, DW_OP_deref] $sp
	;DEBUG_VALUE: BZ2_blockSort:budgetInit <- $w27
	;DEBUG_VALUE: BZ2_blockSort:quadrant <- [DW_OP_plus_uconst 264] [$sp+0]
	;DEBUG_VALUE: BZ2_blockSort:nblock <- [DW_OP_plus_uconst 272] [$sp+0]
	;DEBUG_VALUE: BZ2_blockSort:block <- $x24
	;DEBUG_VALUE: BZ2_blockSort:verb <- $w26
	;DEBUG_VALUE: BZ2_blockSort:ftab <- $x20
	;DEBUG_VALUE: BZ2_blockSort:ptr <- $x28
	;DEBUG_VALUE: BZ2_blockSort:s <- $x23
	;DEBUG_VALUE: mainSort:j <- undef
	;DEBUG_LABEL: zero
	.loc	1 857 29 is_stmt 1              ; blocksort.c:857:29
	str	w16, [x11, x2, lsl  #2]
Ltmp94:
	.loc	1 848 33                        ; blocksort.c:848:33
	add	x14, x14, #1
Ltmp95:
	;DEBUG_VALUE: mainSort:i <- $x14
	.loc	1 848 10 is_stmt 0              ; blocksort.c:848:10
	add	w13, w13, #1
	cmp	x14, x15
	b.eq	LBB0_24
Ltmp96:
LBB0_29:                                ; %.lr.ph411.i
                                        ;   Parent Loop BB0_25 Depth=1
                                        ; =>  This Loop Header: Depth=2
                                        ;       Child Loop BB0_30 Depth 3
	;DEBUG_VALUE: h <- $w12
	;DEBUG_VALUE: mainSort:ptr <- $x28
	;DEBUG_VALUE: mainSort:block <- $x24
	;DEBUG_VALUE: mainSort:quadrant <- [DW_OP_plus_uconst 264] [$sp+0]
	;DEBUG_VALUE: mainSort:ftab <- $x20
	;DEBUG_VALUE: mainSort:verb <- $w26
	;DEBUG_VALUE: mainSort:budget <- [DW_OP_plus_uconst 284, DW_OP_stack_value] $sp
	;DEBUG_VALUE: BZ2_blockSort:budget <- [DW_OP_plus_uconst 284, DW_OP_deref] $sp
	;DEBUG_VALUE: BZ2_blockSort:budgetInit <- $w27
	;DEBUG_VALUE: BZ2_blockSort:quadrant <- [DW_OP_plus_uconst 264] [$sp+0]
	;DEBUG_VALUE: BZ2_blockSort:nblock <- [DW_OP_plus_uconst 272] [$sp+0]
	;DEBUG_VALUE: BZ2_blockSort:block <- $x24
	;DEBUG_VALUE: BZ2_blockSort:verb <- $w26
	;DEBUG_VALUE: BZ2_blockSort:ftab <- $x20
	;DEBUG_VALUE: BZ2_blockSort:ptr <- $x28
	;DEBUG_VALUE: BZ2_blockSort:s <- $x23
	;DEBUG_VALUE: mainSort:i <- $x14
	.loc	1 849 18 is_stmt 1              ; blocksort.c:849:18
	ldr	w16, [x11, x14, lsl  #2]
Ltmp97:
	;DEBUG_VALUE: vv <- $w16
	;DEBUG_VALUE: mainSort:j <- $x14
	.loc	1 0 18 is_stmt 0                ; blocksort.c:0:18
	lsl	w17, w16, #8
	add	w0, w17, #256
	ldr	w0, [x20, w0, sxtw  #2]
	ldr	w17, [x20, w17, sxtw  #2]
	sub	w17, w0, w17
	mov	x0, x13
Ltmp98:
LBB0_30:                                ;   Parent Loop BB0_25 Depth=1
                                        ;     Parent Loop BB0_29 Depth=2
                                        ; =>    This Inner Loop Header: Depth=3
	;DEBUG_VALUE: vv <- $w16
	;DEBUG_VALUE: mainSort:i <- $x14
	;DEBUG_VALUE: h <- $w12
	;DEBUG_VALUE: mainSort:ptr <- $x28
	;DEBUG_VALUE: mainSort:block <- $x24
	;DEBUG_VALUE: mainSort:quadrant <- [DW_OP_plus_uconst 264] [$sp+0]
	;DEBUG_VALUE: mainSort:ftab <- $x20
	;DEBUG_VALUE: mainSort:verb <- $w26
	;DEBUG_VALUE: mainSort:budget <- [DW_OP_plus_uconst 284, DW_OP_stack_value] $sp
	;DEBUG_VALUE: BZ2_blockSort:budget <- [DW_OP_plus_uconst 284, DW_OP_deref] $sp
	;DEBUG_VALUE: BZ2_blockSort:budgetInit <- $w27
	;DEBUG_VALUE: BZ2_blockSort:quadrant <- [DW_OP_plus_uconst 264] [$sp+0]
	;DEBUG_VALUE: BZ2_blockSort:nblock <- [DW_OP_plus_uconst 272] [$sp+0]
	;DEBUG_VALUE: BZ2_blockSort:block <- $x24
	;DEBUG_VALUE: BZ2_blockSort:verb <- $w26
	;DEBUG_VALUE: BZ2_blockSort:ftab <- $x20
	;DEBUG_VALUE: BZ2_blockSort:ptr <- $x28
	;DEBUG_VALUE: BZ2_blockSort:s <- $x23
	;DEBUG_VALUE: mainSort:j <- undef
	.loc	1 851 29 is_stmt 1              ; blocksort.c:851:29
	ldr	w1, [x11, w0, sxtw  #2]
	.loc	1 851 51 is_stmt 0              ; blocksort.c:851:51
	lsl	w2, w1, #8
	add	w3, w2, #256
	.loc	1 851 22                        ; blocksort.c:851:22
	ldr	w4, [x20, w3, sxtw  #2]
	.loc	1 851 43                        ; blocksort.c:851:43
	add	w3, w12, w0
	.loc	1 851 59                        ; blocksort.c:851:59
	ldr	w2, [x20, w2, sxtw  #2]
	.loc	1 0 0                           ; blocksort.c:0:0
	sxtw	x3, w3
	.loc	1 851 57                        ; blocksort.c:851:57
	sub	w2, w4, w2
	.loc	1 851 13                        ; blocksort.c:851:13
	cmp	w2, w17
	b.ls	LBB0_27
Ltmp99:
; %bb.31:                               ;   in Loop: Header=BB0_30 Depth=3
	;DEBUG_VALUE: vv <- $w16
	;DEBUG_VALUE: mainSort:i <- $x14
	;DEBUG_VALUE: h <- $w12
	;DEBUG_VALUE: mainSort:ptr <- $x28
	;DEBUG_VALUE: mainSort:block <- $x24
	;DEBUG_VALUE: mainSort:quadrant <- [DW_OP_plus_uconst 264] [$sp+0]
	;DEBUG_VALUE: mainSort:ftab <- $x20
	;DEBUG_VALUE: mainSort:verb <- $w26
	;DEBUG_VALUE: mainSort:budget <- [DW_OP_plus_uconst 284, DW_OP_stack_value] $sp
	;DEBUG_VALUE: BZ2_blockSort:budget <- [DW_OP_plus_uconst 284, DW_OP_deref] $sp
	;DEBUG_VALUE: BZ2_blockSort:budgetInit <- $w27
	;DEBUG_VALUE: BZ2_blockSort:quadrant <- [DW_OP_plus_uconst 264] [$sp+0]
	;DEBUG_VALUE: BZ2_blockSort:nblock <- [DW_OP_plus_uconst 272] [$sp+0]
	;DEBUG_VALUE: BZ2_blockSort:block <- $x24
	;DEBUG_VALUE: BZ2_blockSort:verb <- $w26
	;DEBUG_VALUE: BZ2_blockSort:ftab <- $x20
	;DEBUG_VALUE: BZ2_blockSort:ptr <- $x28
	;DEBUG_VALUE: BZ2_blockSort:s <- $x23
	.loc	1 0 13                          ; blocksort.c:0:13
	sxtw	x2, w0
Ltmp100:
	.loc	1 852 32 is_stmt 1              ; blocksort.c:852:32
	str	w1, [x11, x3, lsl  #2]
Ltmp101:
	;DEBUG_VALUE: mainSort:j <- undef
	.loc	1 854 22                        ; blocksort.c:854:22
	subs	w0, w2, w12
Ltmp102:
	.loc	1 854 20 is_stmt 0              ; blocksort.c:854:20
	b.ge	LBB0_30
	b	LBB0_28
Ltmp103:
LBB0_32:                                ; %.preheader.i.preheader
	;DEBUG_VALUE: mainSort:ptr <- $x28
	;DEBUG_VALUE: mainSort:block <- $x24
	;DEBUG_VALUE: mainSort:quadrant <- [DW_OP_plus_uconst 264] [$sp+0]
	;DEBUG_VALUE: mainSort:ftab <- $x20
	;DEBUG_VALUE: mainSort:verb <- $w26
	;DEBUG_VALUE: mainSort:budget <- [DW_OP_plus_uconst 284, DW_OP_stack_value] $sp
	;DEBUG_VALUE: BZ2_blockSort:budget <- [DW_OP_plus_uconst 284, DW_OP_deref] $sp
	;DEBUG_VALUE: BZ2_blockSort:budgetInit <- $w27
	;DEBUG_VALUE: BZ2_blockSort:quadrant <- [DW_OP_plus_uconst 264] [$sp+0]
	;DEBUG_VALUE: BZ2_blockSort:nblock <- [DW_OP_plus_uconst 272] [$sp+0]
	;DEBUG_VALUE: BZ2_blockSort:block <- $x24
	;DEBUG_VALUE: BZ2_blockSort:verb <- $w26
	;DEBUG_VALUE: BZ2_blockSort:ftab <- $x20
	;DEBUG_VALUE: BZ2_blockSort:ptr <- $x28
	;DEBUG_VALUE: BZ2_blockSort:s <- $x23
	.loc	1 0 20                          ; blocksort.c:0:20
	mov	x21, #0
	mov	w19, #0
Ltmp104:
	.loc	1 868 4 is_stmt 1               ; blocksort.c:868:4
	add	x8, x28, #4
	str	x8, [sp, #184]                  ; 8-byte Folded Spill
	add	x9, x28, #8
	add	x8, x28, #16
	stp	x8, x9, [sp, #80]               ; 16-byte Folded Spill
	add	x8, x28, #20
	str	x8, [sp, #56]                   ; 8-byte Folded Spill
	sub	x8, x28, #4
	str	x8, [sp, #40]                   ; 8-byte Folded Spill
	add	x8, sp, #2592
	add	x5, sp, #1, lsl #12             ; =4096
	add	x5, x5, #328
	add	x6, sp, #4024
	add	x7, sp, #3624
	str	w27, [sp, #256]                 ; 4-byte Folded Spill
	stp	x25, x23, [sp, #120]            ; 16-byte Folded Spill
	str	w26, [sp, #116]                 ; 4-byte Folded Spill
	str	w27, [sp, #148]                 ; 4-byte Folded Spill
Ltmp105:
LBB0_33:                                ; %.preheader.i
                                        ; =>This Loop Header: Depth=1
                                        ;     Child Loop BB0_37 Depth 2
                                        ;       Child Loop BB0_46 Depth 3
                                        ;         Child Loop BB0_48 Depth 4
                                        ;           Child Loop BB0_59 Depth 5
                                        ;             Child Loop BB0_61 Depth 6
                                        ;               Child Loop BB0_62 Depth 7
                                        ;           Child Loop BB0_51 Depth 5
                                        ;             Child Loop BB0_52 Depth 6
                                        ;         Child Loop BB0_99 Depth 4
                                        ;         Child Loop BB0_102 Depth 4
                                        ;         Child Loop BB0_108 Depth 4
                                        ;         Child Loop BB0_111 Depth 4
                                        ;         Child Loop BB0_73 Depth 4
                                        ;         Child Loop BB0_77 Depth 4
                                        ;           Child Loop BB0_80 Depth 5
                                        ;             Child Loop BB0_82 Depth 6
                                        ;             Child Loop BB0_87 Depth 6
                                        ;             Child Loop BB0_92 Depth 6
                                        ;     Child Loop BB0_118 Depth 2
                                        ;     Child Loop BB0_122 Depth 2
                                        ;     Child Loop BB0_125 Depth 2
                                        ;     Child Loop BB0_133 Depth 2
                                        ;     Child Loop BB0_136 Depth 2
                                        ;     Child Loop BB0_140 Depth 2
	;DEBUG_VALUE: mainSort:ptr <- $x28
	;DEBUG_VALUE: mainSort:block <- $x24
	;DEBUG_VALUE: mainSort:quadrant <- [DW_OP_plus_uconst 264] [$sp+0]
	;DEBUG_VALUE: mainSort:ftab <- $x20
	;DEBUG_VALUE: mainSort:budget <- [DW_OP_plus_uconst 284, DW_OP_stack_value] $sp
	;DEBUG_VALUE: BZ2_blockSort:budget <- [DW_OP_plus_uconst 284, DW_OP_deref] $sp
	;DEBUG_VALUE: BZ2_blockSort:quadrant <- [DW_OP_plus_uconst 264] [$sp+0]
	;DEBUG_VALUE: BZ2_blockSort:nblock <- [DW_OP_plus_uconst 272] [$sp+0]
	;DEBUG_VALUE: BZ2_blockSort:block <- $x24
	;DEBUG_VALUE: BZ2_blockSort:ftab <- $x20
	;DEBUG_VALUE: BZ2_blockSort:ptr <- $x28
	;DEBUG_VALUE: mainSort:i <- $x21
	;DEBUG_VALUE: mainSort:numQSorted <- $w19
	.loc	1 0 4 is_stmt 0                 ; blocksort.c:0:4
	mov	x11, #0
Ltmp106:
	.loc	1 876 12 is_stmt 1              ; blocksort.c:876:12
	ldr	w9, [x8, x21, lsl  #2]
Ltmp107:
	;DEBUG_VALUE: mainSort:ss <- $w9
	.loc	1 909 16                        ; blocksort.c:909:16
	sxtw	x8, w9
Ltmp108:
	;DEBUG_VALUE: mainSort:j <- 0
	.loc	1 0 16 is_stmt 0                ; blocksort.c:0:16
	str	x8, [sp, #200]                  ; 8-byte Folded Spill
	lsl	w8, w9, #8
Ltmp109:
	.loc	1 886 7 is_stmt 1               ; blocksort.c:886:7
	sxtw	x10, w8
	str	x21, [sp, #64]                  ; 8-byte Folded Spill
Ltmp110:
	;DEBUG_VALUE: mainSort:i <- [DW_OP_plus_uconst 64] [$sp+0]
	;DEBUG_VALUE: mainSort:i <- [DW_OP_plus_uconst 64] [$sp+0]
	.loc	1 0 7 is_stmt 0                 ; blocksort.c:0:7
	str	x10, [sp, #104]                 ; 8-byte Folded Spill
	str	x9, [sp, #152]                  ; 8-byte Folded Spill
	b	LBB0_37
Ltmp111:
LBB0_34:                                ;   in Loop: Header=BB0_37 Depth=2
	;DEBUG_VALUE: hi <- [DW_OP_plus_uconst 164] [$sp+0]
	;DEBUG_VALUE: lo <- [DW_OP_plus_uconst 180] [$sp+0]
	;DEBUG_VALUE: mainSort:i <- [DW_OP_plus_uconst 64] [$sp+0]
	;DEBUG_VALUE: mainSort:numQSorted <- $w19
	;DEBUG_VALUE: mainSort:ptr <- $x28
	;DEBUG_VALUE: mainSort:block <- $x24
	;DEBUG_VALUE: mainSort:quadrant <- [DW_OP_plus_uconst 264] [$sp+0]
	;DEBUG_VALUE: mainSort:ftab <- $x20
	;DEBUG_VALUE: mainSort:budget <- [DW_OP_plus_uconst 284, DW_OP_stack_value] $sp
	;DEBUG_VALUE: BZ2_blockSort:budget <- [DW_OP_plus_uconst 284, DW_OP_deref] $sp
	;DEBUG_VALUE: BZ2_blockSort:quadrant <- [DW_OP_plus_uconst 264] [$sp+0]
	;DEBUG_VALUE: BZ2_blockSort:nblock <- [DW_OP_plus_uconst 272] [$sp+0]
	;DEBUG_VALUE: BZ2_blockSort:block <- $x24
	;DEBUG_VALUE: BZ2_blockSort:ftab <- $x20
	;DEBUG_VALUE: BZ2_blockSort:ptr <- $x28
	ldr	x9, [sp, #152]                  ; 8-byte Folded Reload
Ltmp112:
LBB0_35:                                ;   in Loop: Header=BB0_37 Depth=2
	;DEBUG_VALUE: mainSort:i <- [DW_OP_plus_uconst 64] [$sp+0]
	;DEBUG_VALUE: mainSort:numQSorted <- $w19
	;DEBUG_VALUE: mainSort:ptr <- $x28
	;DEBUG_VALUE: mainSort:block <- $x24
	;DEBUG_VALUE: mainSort:quadrant <- [DW_OP_plus_uconst 264] [$sp+0]
	;DEBUG_VALUE: mainSort:ftab <- $x20
	;DEBUG_VALUE: mainSort:budget <- [DW_OP_plus_uconst 284, DW_OP_stack_value] $sp
	;DEBUG_VALUE: BZ2_blockSort:budget <- [DW_OP_plus_uconst 284, DW_OP_deref] $sp
	;DEBUG_VALUE: BZ2_blockSort:quadrant <- [DW_OP_plus_uconst 264] [$sp+0]
	;DEBUG_VALUE: BZ2_blockSort:nblock <- [DW_OP_plus_uconst 272] [$sp+0]
	;DEBUG_VALUE: BZ2_blockSort:block <- $x24
	;DEBUG_VALUE: BZ2_blockSort:ftab <- $x20
	;DEBUG_VALUE: BZ2_blockSort:ptr <- $x28
	;DEBUG_VALUE: mainSort:numQSorted <- $w19
	.loc	1 905 22 is_stmt 1              ; blocksort.c:905:22
	orr	w8, w8, #0x200000
	ldr	x12, [sp, #224]                 ; 8-byte Folded Reload
	str	w8, [x20, x12, lsl  #2]
Ltmp113:
LBB0_36:                                ;   in Loop: Header=BB0_37 Depth=2
	;DEBUG_VALUE: mainSort:i <- [DW_OP_plus_uconst 64] [$sp+0]
	;DEBUG_VALUE: mainSort:numQSorted <- $w19
	;DEBUG_VALUE: mainSort:ptr <- $x28
	;DEBUG_VALUE: mainSort:block <- $x24
	;DEBUG_VALUE: mainSort:quadrant <- [DW_OP_plus_uconst 264] [$sp+0]
	;DEBUG_VALUE: mainSort:ftab <- $x20
	;DEBUG_VALUE: mainSort:budget <- [DW_OP_plus_uconst 284, DW_OP_stack_value] $sp
	;DEBUG_VALUE: BZ2_blockSort:budget <- [DW_OP_plus_uconst 284, DW_OP_deref] $sp
	;DEBUG_VALUE: BZ2_blockSort:quadrant <- [DW_OP_plus_uconst 264] [$sp+0]
	;DEBUG_VALUE: BZ2_blockSort:nblock <- [DW_OP_plus_uconst 272] [$sp+0]
	;DEBUG_VALUE: BZ2_blockSort:block <- $x24
	;DEBUG_VALUE: BZ2_blockSort:ftab <- $x20
	;DEBUG_VALUE: BZ2_blockSort:ptr <- $x28
	;DEBUG_VALUE: mainSort:numQSorted <- $w19
	.loc	1 886 30                        ; blocksort.c:886:30
	add	x11, x11, #1
Ltmp114:
	;DEBUG_VALUE: mainSort:j <- $x11
	.loc	1 886 7 is_stmt 0               ; blocksort.c:886:7
	cmp	x11, #256
	b.eq	LBB0_115
Ltmp115:
LBB0_37:                                ;   Parent Loop BB0_33 Depth=1
                                        ; =>  This Loop Header: Depth=2
                                        ;       Child Loop BB0_46 Depth 3
                                        ;         Child Loop BB0_48 Depth 4
                                        ;           Child Loop BB0_59 Depth 5
                                        ;             Child Loop BB0_61 Depth 6
                                        ;               Child Loop BB0_62 Depth 7
                                        ;           Child Loop BB0_51 Depth 5
                                        ;             Child Loop BB0_52 Depth 6
                                        ;         Child Loop BB0_99 Depth 4
                                        ;         Child Loop BB0_102 Depth 4
                                        ;         Child Loop BB0_108 Depth 4
                                        ;         Child Loop BB0_111 Depth 4
                                        ;         Child Loop BB0_73 Depth 4
                                        ;         Child Loop BB0_77 Depth 4
                                        ;           Child Loop BB0_80 Depth 5
                                        ;             Child Loop BB0_82 Depth 6
                                        ;             Child Loop BB0_87 Depth 6
                                        ;             Child Loop BB0_92 Depth 6
	;DEBUG_VALUE: mainSort:i <- [DW_OP_plus_uconst 64] [$sp+0]
	;DEBUG_VALUE: mainSort:numQSorted <- $w19
	;DEBUG_VALUE: mainSort:ptr <- $x28
	;DEBUG_VALUE: mainSort:block <- $x24
	;DEBUG_VALUE: mainSort:quadrant <- [DW_OP_plus_uconst 264] [$sp+0]
	;DEBUG_VALUE: mainSort:ftab <- $x20
	;DEBUG_VALUE: mainSort:budget <- [DW_OP_plus_uconst 284, DW_OP_stack_value] $sp
	;DEBUG_VALUE: BZ2_blockSort:budget <- [DW_OP_plus_uconst 284, DW_OP_deref] $sp
	;DEBUG_VALUE: BZ2_blockSort:quadrant <- [DW_OP_plus_uconst 264] [$sp+0]
	;DEBUG_VALUE: BZ2_blockSort:nblock <- [DW_OP_plus_uconst 272] [$sp+0]
	;DEBUG_VALUE: BZ2_blockSort:block <- $x24
	;DEBUG_VALUE: BZ2_blockSort:ftab <- $x20
	;DEBUG_VALUE: BZ2_blockSort:ptr <- $x28
	;DEBUG_VALUE: mainSort:j <- $x11
	;DEBUG_VALUE: mainSort:numQSorted <- $w19
	.loc	1 887 14 is_stmt 1              ; blocksort.c:887:14
	cmp	x11, x9
	b.eq	LBB0_36
Ltmp116:
; %bb.38:                               ;   in Loop: Header=BB0_37 Depth=2
	;DEBUG_VALUE: mainSort:j <- $x11
	;DEBUG_VALUE: mainSort:i <- [DW_OP_plus_uconst 64] [$sp+0]
	;DEBUG_VALUE: mainSort:numQSorted <- $w19
	;DEBUG_VALUE: mainSort:ptr <- $x28
	;DEBUG_VALUE: mainSort:block <- $x24
	;DEBUG_VALUE: mainSort:quadrant <- [DW_OP_plus_uconst 264] [$sp+0]
	;DEBUG_VALUE: mainSort:ftab <- $x20
	;DEBUG_VALUE: mainSort:budget <- [DW_OP_plus_uconst 284, DW_OP_stack_value] $sp
	;DEBUG_VALUE: BZ2_blockSort:budget <- [DW_OP_plus_uconst 284, DW_OP_deref] $sp
	;DEBUG_VALUE: BZ2_blockSort:quadrant <- [DW_OP_plus_uconst 264] [$sp+0]
	;DEBUG_VALUE: BZ2_blockSort:nblock <- [DW_OP_plus_uconst 272] [$sp+0]
	;DEBUG_VALUE: BZ2_blockSort:block <- $x24
	;DEBUG_VALUE: BZ2_blockSort:ftab <- $x20
	;DEBUG_VALUE: BZ2_blockSort:ptr <- $x28
	.loc	1 888 28                        ; blocksort.c:888:28
	add	x12, x11, x10
Ltmp117:
	;DEBUG_VALUE: mainSort:sb <- $x12
	.loc	1 889 21                        ; blocksort.c:889:21
	ldr	w8, [x20, x12, lsl  #2]
	str	x12, [sp, #224]                 ; 8-byte Folded Spill
Ltmp118:
	.loc	1 889 18 is_stmt 0              ; blocksort.c:889:18
	tbnz	w8, #21, LBB0_35
Ltmp119:
; %bb.39:                               ;   in Loop: Header=BB0_37 Depth=2
	;DEBUG_VALUE: mainSort:sb <- $x12
	;DEBUG_VALUE: mainSort:j <- $x11
	;DEBUG_VALUE: mainSort:i <- [DW_OP_plus_uconst 64] [$sp+0]
	;DEBUG_VALUE: mainSort:numQSorted <- $w19
	;DEBUG_VALUE: mainSort:ptr <- $x28
	;DEBUG_VALUE: mainSort:block <- $x24
	;DEBUG_VALUE: mainSort:quadrant <- [DW_OP_plus_uconst 264] [$sp+0]
	;DEBUG_VALUE: mainSort:ftab <- $x20
	;DEBUG_VALUE: mainSort:budget <- [DW_OP_plus_uconst 284, DW_OP_stack_value] $sp
	;DEBUG_VALUE: BZ2_blockSort:budget <- [DW_OP_plus_uconst 284, DW_OP_deref] $sp
	;DEBUG_VALUE: BZ2_blockSort:quadrant <- [DW_OP_plus_uconst 264] [$sp+0]
	;DEBUG_VALUE: BZ2_blockSort:nblock <- [DW_OP_plus_uconst 272] [$sp+0]
	;DEBUG_VALUE: BZ2_blockSort:block <- $x24
	;DEBUG_VALUE: BZ2_blockSort:ftab <- $x20
	;DEBUG_VALUE: BZ2_blockSort:ptr <- $x28
	.loc	1 890 36 is_stmt 1              ; blocksort.c:890:36
	and	w13, w8, #0xffdfffff
Ltmp120:
	;DEBUG_VALUE: lo <- $w13
	.loc	1 891 28                        ; blocksort.c:891:28
	add	x9, x20, x12, lsl #2
	ldr	w9, [x9, #4]
	.loc	1 891 39 is_stmt 0              ; blocksort.c:891:39
	and	w9, w9, #0xffdfffff
	.loc	1 891 57                        ; blocksort.c:891:57
	sub	w12, w9, #1
Ltmp121:
	;DEBUG_VALUE: hi <- $w12
	.loc	1 0 57                          ; blocksort.c:0:57
	str	w13, [sp, #180]                 ; 4-byte Folded Spill
Ltmp122:
	;DEBUG_VALUE: lo <- [DW_OP_plus_uconst 180] [$sp+0]
	str	w12, [sp, #164]                 ; 4-byte Folded Spill
Ltmp123:
	;DEBUG_VALUE: hi <- [DW_OP_plus_uconst 164] [$sp+0]
	.loc	1 892 20 is_stmt 1              ; blocksort.c:892:20
	cmp	w12, w13
	b.le	LBB0_34
Ltmp124:
; %bb.40:                               ;   in Loop: Header=BB0_37 Depth=2
	;DEBUG_VALUE: hi <- [DW_OP_plus_uconst 164] [$sp+0]
	;DEBUG_VALUE: lo <- [DW_OP_plus_uconst 180] [$sp+0]
	;DEBUG_VALUE: mainSort:j <- $x11
	;DEBUG_VALUE: mainSort:i <- [DW_OP_plus_uconst 64] [$sp+0]
	;DEBUG_VALUE: mainSort:numQSorted <- $w19
	;DEBUG_VALUE: mainSort:ptr <- $x28
	;DEBUG_VALUE: mainSort:block <- $x24
	;DEBUG_VALUE: mainSort:quadrant <- [DW_OP_plus_uconst 264] [$sp+0]
	;DEBUG_VALUE: mainSort:ftab <- $x20
	;DEBUG_VALUE: mainSort:budget <- [DW_OP_plus_uconst 284, DW_OP_stack_value] $sp
	;DEBUG_VALUE: BZ2_blockSort:budget <- [DW_OP_plus_uconst 284, DW_OP_deref] $sp
	;DEBUG_VALUE: BZ2_blockSort:quadrant <- [DW_OP_plus_uconst 264] [$sp+0]
	;DEBUG_VALUE: BZ2_blockSort:nblock <- [DW_OP_plus_uconst 272] [$sp+0]
	;DEBUG_VALUE: BZ2_blockSort:block <- $x24
	;DEBUG_VALUE: BZ2_blockSort:ftab <- $x20
	;DEBUG_VALUE: BZ2_blockSort:ptr <- $x28
	.loc	1 0 20 is_stmt 0                ; blocksort.c:0:20
	str	x11, [sp, #96]                  ; 8-byte Folded Spill
Ltmp125:
	;DEBUG_VALUE: mainSort:j <- [DW_OP_plus_uconst 96] [$sp+0]
	;DEBUG_VALUE: mainSort:j <- [DW_OP_plus_uconst 96] [$sp+0]
	.loc	1 893 23 is_stmt 1              ; blocksort.c:893:23
	cmp	w26, #4
	b.lt	LBB0_42
Ltmp126:
; %bb.41:                               ;   in Loop: Header=BB0_37 Depth=2
	;DEBUG_VALUE: mainSort:j <- [DW_OP_plus_uconst 96] [$sp+0]
	;DEBUG_VALUE: hi <- [DW_OP_plus_uconst 164] [$sp+0]
	;DEBUG_VALUE: lo <- [DW_OP_plus_uconst 180] [$sp+0]
	;DEBUG_VALUE: mainSort:i <- [DW_OP_plus_uconst 64] [$sp+0]
	;DEBUG_VALUE: mainSort:numQSorted <- $w19
	;DEBUG_VALUE: mainSort:ptr <- $x28
	;DEBUG_VALUE: mainSort:block <- $x24
	;DEBUG_VALUE: mainSort:quadrant <- [DW_OP_plus_uconst 264] [$sp+0]
	;DEBUG_VALUE: mainSort:ftab <- $x20
	;DEBUG_VALUE: mainSort:budget <- [DW_OP_plus_uconst 284, DW_OP_stack_value] $sp
	;DEBUG_VALUE: BZ2_blockSort:budget <- [DW_OP_plus_uconst 284, DW_OP_deref] $sp
	;DEBUG_VALUE: BZ2_blockSort:quadrant <- [DW_OP_plus_uconst 264] [$sp+0]
	;DEBUG_VALUE: BZ2_blockSort:nblock <- [DW_OP_plus_uconst 272] [$sp+0]
	;DEBUG_VALUE: BZ2_blockSort:block <- $x24
	;DEBUG_VALUE: BZ2_blockSort:ftab <- $x20
	;DEBUG_VALUE: BZ2_blockSort:ptr <- $x28
	.loc	1 894 30                        ; blocksort.c:894:30
	ldr	x0, [x22]
	ldr	w8, [sp, #180]                  ; 4-byte Folded Reload
	.loc	1 894 118 is_stmt 0             ; blocksort.c:894:118
	sub	w8, w9, w8
	.loc	1 894 22                        ; blocksort.c:894:22
	stp	x19, x8, [sp, #16]
	ldr	x9, [sp, #96]                   ; 8-byte Folded Reload
	ldr	x8, [sp, #152]                  ; 8-byte Folded Reload
	stp	x8, x9, [sp]
Lloh139:
	adrp	x1, l_.str.7@PAGE
Lloh140:
	add	x1, x1, l_.str.7@PAGEOFF
	bl	_fprintf
Ltmp127:
	.loc	1 0 22                          ; blocksort.c:0:22
	add	x7, sp, #3624
	add	x6, sp, #4024
	add	x5, sp, #1, lsl #12             ; =4096
	add	x5, x5, #328
Ltmp128:
LBB0_42:                                ;   in Loop: Header=BB0_37 Depth=2
	;DEBUG_VALUE: mainSort:j <- [DW_OP_plus_uconst 96] [$sp+0]
	;DEBUG_VALUE: hi <- [DW_OP_plus_uconst 164] [$sp+0]
	;DEBUG_VALUE: lo <- [DW_OP_plus_uconst 180] [$sp+0]
	;DEBUG_VALUE: mainSort:i <- [DW_OP_plus_uconst 64] [$sp+0]
	;DEBUG_VALUE: mainSort:numQSorted <- $w19
	;DEBUG_VALUE: mainSort:ptr <- $x28
	;DEBUG_VALUE: mainSort:block <- $x24
	;DEBUG_VALUE: mainSort:quadrant <- [DW_OP_plus_uconst 264] [$sp+0]
	;DEBUG_VALUE: mainSort:ftab <- $x20
	;DEBUG_VALUE: mainSort:budget <- [DW_OP_plus_uconst 284, DW_OP_stack_value] $sp
	;DEBUG_VALUE: BZ2_blockSort:budget <- [DW_OP_plus_uconst 284, DW_OP_deref] $sp
	;DEBUG_VALUE: BZ2_blockSort:quadrant <- [DW_OP_plus_uconst 264] [$sp+0]
	;DEBUG_VALUE: BZ2_blockSort:nblock <- [DW_OP_plus_uconst 272] [$sp+0]
	;DEBUG_VALUE: BZ2_blockSort:block <- $x24
	;DEBUG_VALUE: BZ2_blockSort:ftab <- $x20
	;DEBUG_VALUE: BZ2_blockSort:ptr <- $x28
	;DEBUG_VALUE: mainQSort3:ptr <- $x28
	;DEBUG_VALUE: mainQSort3:block <- $x24
	;DEBUG_VALUE: mainQSort3:quadrant <- [DW_OP_plus_uconst 264] [$sp+0]
	;DEBUG_VALUE: mainQSort3:loSt <- [DW_OP_plus_uconst 180] [$sp+0]
	;DEBUG_VALUE: mainQSort3:hiSt <- [DW_OP_plus_uconst 164] [$sp+0]
	;DEBUG_VALUE: mainQSort3:dSt <- 2
	;DEBUG_VALUE: mainQSort3:budget <- [DW_OP_plus_uconst 284, DW_OP_stack_value] $sp
	;DEBUG_VALUE: mainQSort3:sp <- 0
	ldr	w8, [sp, #180]                  ; 4-byte Folded Reload
Ltmp129:
	;DEBUG_VALUE: mainQSort3:loSt <- $w8
	.loc	1 642 18 is_stmt 1              ; blocksort.c:642:18
	str	w8, [sp, #4424]
Ltmp130:
	;DEBUG_VALUE: mainQSort3:loSt <- [DW_OP_plus_uconst 180] [$sp+0]
	.loc	1 0 18 is_stmt 0                ; blocksort.c:0:18
	ldr	w8, [sp, #164]                  ; 4-byte Folded Reload
Ltmp131:
	;DEBUG_VALUE: mainQSort3:hiSt <- $w8
	.loc	1 642 38                        ; blocksort.c:642:38
	str	w8, [sp, #4024]
Ltmp132:
	;DEBUG_VALUE: mainQSort3:hiSt <- [DW_OP_plus_uconst 164] [$sp+0]
	.loc	1 0 38                          ; blocksort.c:0:38
	mov	w27, #1
Ltmp133:
	;DEBUG_VALUE: mainQSort3:nblock <- undef
	;DEBUG_VALUE: mainQSort3:sp <- 1
	.loc	1 642 58                        ; blocksort.c:642:58
	mov	w8, #2
	str	w8, [sp, #3624]
	b	LBB0_46
Ltmp134:
LBB0_43:                                ; %mainSimpleSort.exit.i.i.loopexit
                                        ;   in Loop: Header=BB0_46 Depth=3
	;DEBUG_VALUE: mainQSort3:d <- $w22
	;DEBUG_VALUE: mainQSort3:budget <- [DW_OP_plus_uconst 284, DW_OP_stack_value] $sp
	;DEBUG_VALUE: mainQSort3:dSt <- 2
	;DEBUG_VALUE: mainQSort3:hiSt <- [DW_OP_plus_uconst 164] [$sp+0]
	;DEBUG_VALUE: mainQSort3:loSt <- [DW_OP_plus_uconst 180] [$sp+0]
	;DEBUG_VALUE: mainQSort3:quadrant <- [DW_OP_plus_uconst 264] [$sp+0]
	;DEBUG_VALUE: mainQSort3:block <- $x24
	;DEBUG_VALUE: mainQSort3:ptr <- $x28
	;DEBUG_VALUE: mainSort:j <- [DW_OP_plus_uconst 96] [$sp+0]
	;DEBUG_VALUE: hi <- [DW_OP_plus_uconst 164] [$sp+0]
	;DEBUG_VALUE: lo <- [DW_OP_plus_uconst 180] [$sp+0]
	;DEBUG_VALUE: mainSort:i <- [DW_OP_plus_uconst 64] [$sp+0]
	;DEBUG_VALUE: mainSort:ptr <- $x28
	;DEBUG_VALUE: mainSort:block <- $x24
	;DEBUG_VALUE: mainSort:quadrant <- [DW_OP_plus_uconst 264] [$sp+0]
	;DEBUG_VALUE: mainSort:ftab <- $x20
	;DEBUG_VALUE: mainSort:budget <- [DW_OP_plus_uconst 284, DW_OP_stack_value] $sp
	;DEBUG_VALUE: BZ2_blockSort:budget <- [DW_OP_plus_uconst 284, DW_OP_deref] $sp
	;DEBUG_VALUE: BZ2_blockSort:quadrant <- [DW_OP_plus_uconst 264] [$sp+0]
	;DEBUG_VALUE: BZ2_blockSort:nblock <- [DW_OP_plus_uconst 272] [$sp+0]
	;DEBUG_VALUE: BZ2_blockSort:block <- $x24
	;DEBUG_VALUE: BZ2_blockSort:ftab <- $x20
	;DEBUG_VALUE: BZ2_blockSort:ptr <- $x28
	.loc	1 652 14 is_stmt 1              ; blocksort.c:652:14
	ldr	w8, [sp, #284]
	str	w8, [sp, #256]                  ; 4-byte Folded Spill
	ldp	x25, x23, [sp, #120]            ; 16-byte Folded Reload
	ldr	w26, [sp, #116]                 ; 4-byte Folded Reload
	ldr	x19, [sp, #72]                  ; 8-byte Folded Reload
	add	x5, sp, #1, lsl #12             ; =4096
	add	x5, x5, #328
	add	x6, sp, #4024
	add	x7, sp, #3624
	ldr	x3, [sp, #48]                   ; 8-byte Folded Reload
Ltmp135:
LBB0_44:                                ; %mainSimpleSort.exit.i.i
                                        ;   in Loop: Header=BB0_46 Depth=3
	;DEBUG_VALUE: mainQSort3:d <- $w22
	;DEBUG_VALUE: mainQSort3:budget <- [DW_OP_plus_uconst 284, DW_OP_stack_value] $sp
	;DEBUG_VALUE: mainQSort3:dSt <- 2
	;DEBUG_VALUE: mainQSort3:hiSt <- [DW_OP_plus_uconst 164] [$sp+0]
	;DEBUG_VALUE: mainQSort3:loSt <- [DW_OP_plus_uconst 180] [$sp+0]
	;DEBUG_VALUE: mainQSort3:quadrant <- [DW_OP_plus_uconst 264] [$sp+0]
	;DEBUG_VALUE: mainQSort3:block <- $x24
	;DEBUG_VALUE: mainQSort3:ptr <- $x28
	;DEBUG_VALUE: mainSort:j <- [DW_OP_plus_uconst 96] [$sp+0]
	;DEBUG_VALUE: hi <- [DW_OP_plus_uconst 164] [$sp+0]
	;DEBUG_VALUE: lo <- [DW_OP_plus_uconst 180] [$sp+0]
	;DEBUG_VALUE: mainSort:i <- [DW_OP_plus_uconst 64] [$sp+0]
	;DEBUG_VALUE: mainSort:ptr <- $x28
	;DEBUG_VALUE: mainSort:block <- $x24
	;DEBUG_VALUE: mainSort:quadrant <- [DW_OP_plus_uconst 264] [$sp+0]
	;DEBUG_VALUE: mainSort:ftab <- $x20
	;DEBUG_VALUE: mainSort:budget <- [DW_OP_plus_uconst 284, DW_OP_stack_value] $sp
	;DEBUG_VALUE: BZ2_blockSort:budget <- [DW_OP_plus_uconst 284, DW_OP_deref] $sp
	;DEBUG_VALUE: BZ2_blockSort:quadrant <- [DW_OP_plus_uconst 264] [$sp+0]
	;DEBUG_VALUE: BZ2_blockSort:nblock <- [DW_OP_plus_uconst 272] [$sp+0]
	;DEBUG_VALUE: BZ2_blockSort:block <- $x24
	;DEBUG_VALUE: BZ2_blockSort:ftab <- $x20
	;DEBUG_VALUE: BZ2_blockSort:ptr <- $x28
	.loc	1 0 14 is_stmt 0                ; blocksort.c:0:14
	ldr	w8, [sp, #256]                  ; 4-byte Folded Reload
	.loc	1 652 14                        ; blocksort.c:652:14
	tbnz	w8, #31, LBB0_148
Ltmp136:
LBB0_45:                                ; %.outer247.backedge.i.i
                                        ;   in Loop: Header=BB0_46 Depth=3
	;DEBUG_VALUE: mainQSort3:d <- $w22
	;DEBUG_VALUE: mainQSort3:budget <- [DW_OP_plus_uconst 284, DW_OP_stack_value] $sp
	;DEBUG_VALUE: mainQSort3:dSt <- 2
	;DEBUG_VALUE: mainQSort3:hiSt <- [DW_OP_plus_uconst 164] [$sp+0]
	;DEBUG_VALUE: mainQSort3:loSt <- [DW_OP_plus_uconst 180] [$sp+0]
	;DEBUG_VALUE: mainQSort3:quadrant <- [DW_OP_plus_uconst 264] [$sp+0]
	;DEBUG_VALUE: mainQSort3:block <- $x24
	;DEBUG_VALUE: mainQSort3:ptr <- $x28
	;DEBUG_VALUE: mainSort:j <- [DW_OP_plus_uconst 96] [$sp+0]
	;DEBUG_VALUE: hi <- [DW_OP_plus_uconst 164] [$sp+0]
	;DEBUG_VALUE: lo <- [DW_OP_plus_uconst 180] [$sp+0]
	;DEBUG_VALUE: mainSort:i <- [DW_OP_plus_uconst 64] [$sp+0]
	;DEBUG_VALUE: mainSort:ptr <- $x28
	;DEBUG_VALUE: mainSort:block <- $x24
	;DEBUG_VALUE: mainSort:quadrant <- [DW_OP_plus_uconst 264] [$sp+0]
	;DEBUG_VALUE: mainSort:ftab <- $x20
	;DEBUG_VALUE: mainSort:budget <- [DW_OP_plus_uconst 284, DW_OP_stack_value] $sp
	;DEBUG_VALUE: BZ2_blockSort:budget <- [DW_OP_plus_uconst 284, DW_OP_deref] $sp
	;DEBUG_VALUE: BZ2_blockSort:quadrant <- [DW_OP_plus_uconst 264] [$sp+0]
	;DEBUG_VALUE: BZ2_blockSort:nblock <- [DW_OP_plus_uconst 272] [$sp+0]
	;DEBUG_VALUE: BZ2_blockSort:block <- $x24
	;DEBUG_VALUE: BZ2_blockSort:ftab <- $x20
	;DEBUG_VALUE: BZ2_blockSort:ptr <- $x28
	;DEBUG_VALUE: mainQSort3:sp <- $w3
	.loc	1 0 14                          ; blocksort.c:0:14
	mov	x27, x3
	.loc	1 644 4 is_stmt 1               ; blocksort.c:644:4
	cmp	w3, #0
	b.le	LBB0_113
Ltmp137:
LBB0_46:                                ; %.lr.ph320.i.i
                                        ;   Parent Loop BB0_33 Depth=1
                                        ;     Parent Loop BB0_37 Depth=2
                                        ; =>    This Loop Header: Depth=3
                                        ;         Child Loop BB0_48 Depth 4
                                        ;           Child Loop BB0_59 Depth 5
                                        ;             Child Loop BB0_61 Depth 6
                                        ;               Child Loop BB0_62 Depth 7
                                        ;           Child Loop BB0_51 Depth 5
                                        ;             Child Loop BB0_52 Depth 6
                                        ;         Child Loop BB0_99 Depth 4
                                        ;         Child Loop BB0_102 Depth 4
                                        ;         Child Loop BB0_108 Depth 4
                                        ;         Child Loop BB0_111 Depth 4
                                        ;         Child Loop BB0_73 Depth 4
                                        ;         Child Loop BB0_77 Depth 4
                                        ;           Child Loop BB0_80 Depth 5
                                        ;             Child Loop BB0_82 Depth 6
                                        ;             Child Loop BB0_87 Depth 6
                                        ;             Child Loop BB0_92 Depth 6
	;DEBUG_VALUE: mainQSort3:budget <- [DW_OP_plus_uconst 284, DW_OP_stack_value] $sp
	;DEBUG_VALUE: mainQSort3:dSt <- 2
	;DEBUG_VALUE: mainQSort3:hiSt <- [DW_OP_plus_uconst 164] [$sp+0]
	;DEBUG_VALUE: mainQSort3:loSt <- [DW_OP_plus_uconst 180] [$sp+0]
	;DEBUG_VALUE: mainQSort3:quadrant <- [DW_OP_plus_uconst 264] [$sp+0]
	;DEBUG_VALUE: mainQSort3:block <- $x24
	;DEBUG_VALUE: mainQSort3:ptr <- $x28
	;DEBUG_VALUE: mainSort:j <- [DW_OP_plus_uconst 96] [$sp+0]
	;DEBUG_VALUE: hi <- [DW_OP_plus_uconst 164] [$sp+0]
	;DEBUG_VALUE: lo <- [DW_OP_plus_uconst 180] [$sp+0]
	;DEBUG_VALUE: mainSort:i <- [DW_OP_plus_uconst 64] [$sp+0]
	;DEBUG_VALUE: mainSort:ptr <- $x28
	;DEBUG_VALUE: mainSort:block <- $x24
	;DEBUG_VALUE: mainSort:quadrant <- [DW_OP_plus_uconst 264] [$sp+0]
	;DEBUG_VALUE: mainSort:ftab <- $x20
	;DEBUG_VALUE: mainSort:budget <- [DW_OP_plus_uconst 284, DW_OP_stack_value] $sp
	;DEBUG_VALUE: BZ2_blockSort:budget <- [DW_OP_plus_uconst 284, DW_OP_deref] $sp
	;DEBUG_VALUE: BZ2_blockSort:quadrant <- [DW_OP_plus_uconst 264] [$sp+0]
	;DEBUG_VALUE: BZ2_blockSort:nblock <- [DW_OP_plus_uconst 272] [$sp+0]
	;DEBUG_VALUE: BZ2_blockSort:block <- $x24
	;DEBUG_VALUE: BZ2_blockSort:ftab <- $x20
	;DEBUG_VALUE: BZ2_blockSort:ptr <- $x28
	;DEBUG_VALUE: mainQSort3:sp <- $w27
	.loc	1 0 4 is_stmt 0                 ; blocksort.c:0:4
	sub	w3, w27, #1
Ltmp138:
	.loc	1 646 13 is_stmt 1              ; blocksort.c:646:13
	cmp	w27, #98
	b.lo	LBB0_48
Ltmp139:
LBB0_47:                                ;   in Loop: Header=BB0_46 Depth=3
	;DEBUG_VALUE: mainQSort3:sp <- $w27
	;DEBUG_VALUE: mainQSort3:budget <- [DW_OP_plus_uconst 284, DW_OP_stack_value] $sp
	;DEBUG_VALUE: mainQSort3:dSt <- 2
	;DEBUG_VALUE: mainQSort3:hiSt <- [DW_OP_plus_uconst 164] [$sp+0]
	;DEBUG_VALUE: mainQSort3:loSt <- [DW_OP_plus_uconst 180] [$sp+0]
	;DEBUG_VALUE: mainQSort3:quadrant <- [DW_OP_plus_uconst 264] [$sp+0]
	;DEBUG_VALUE: mainQSort3:block <- $x24
	;DEBUG_VALUE: mainQSort3:ptr <- $x28
	;DEBUG_VALUE: mainSort:j <- [DW_OP_plus_uconst 96] [$sp+0]
	;DEBUG_VALUE: hi <- [DW_OP_plus_uconst 164] [$sp+0]
	;DEBUG_VALUE: lo <- [DW_OP_plus_uconst 180] [$sp+0]
	;DEBUG_VALUE: mainSort:i <- [DW_OP_plus_uconst 64] [$sp+0]
	;DEBUG_VALUE: mainSort:ptr <- $x28
	;DEBUG_VALUE: mainSort:block <- $x24
	;DEBUG_VALUE: mainSort:quadrant <- [DW_OP_plus_uconst 264] [$sp+0]
	;DEBUG_VALUE: mainSort:ftab <- $x20
	;DEBUG_VALUE: mainSort:budget <- [DW_OP_plus_uconst 284, DW_OP_stack_value] $sp
	;DEBUG_VALUE: BZ2_blockSort:budget <- [DW_OP_plus_uconst 284, DW_OP_deref] $sp
	;DEBUG_VALUE: BZ2_blockSort:quadrant <- [DW_OP_plus_uconst 264] [$sp+0]
	;DEBUG_VALUE: BZ2_blockSort:nblock <- [DW_OP_plus_uconst 272] [$sp+0]
	;DEBUG_VALUE: BZ2_blockSort:block <- $x24
	;DEBUG_VALUE: BZ2_blockSort:ftab <- $x20
	;DEBUG_VALUE: BZ2_blockSort:ptr <- $x28
	.loc	1 646 30 is_stmt 0              ; blocksort.c:646:30
	mov	w0, #1001
	mov	x22, x3
	bl	_BZ2_bz__AssertH__fail
Ltmp140:
	.loc	1 0 30                          ; blocksort.c:0:30
	mov	x3, x22
	add	x7, sp, #3624
	add	x6, sp, #4024
	add	x5, sp, #1, lsl #12             ; =4096
	add	x5, x5, #328
Ltmp141:
LBB0_48:                                ;   Parent Loop BB0_33 Depth=1
                                        ;     Parent Loop BB0_37 Depth=2
                                        ;       Parent Loop BB0_46 Depth=3
                                        ; =>      This Loop Header: Depth=4
                                        ;           Child Loop BB0_59 Depth 5
                                        ;             Child Loop BB0_61 Depth 6
                                        ;               Child Loop BB0_62 Depth 7
                                        ;           Child Loop BB0_51 Depth 5
                                        ;             Child Loop BB0_52 Depth 6
	;DEBUG_VALUE: mainQSort3:sp <- $w27
	;DEBUG_VALUE: mainQSort3:budget <- [DW_OP_plus_uconst 284, DW_OP_stack_value] $sp
	;DEBUG_VALUE: mainQSort3:dSt <- 2
	;DEBUG_VALUE: mainQSort3:hiSt <- [DW_OP_plus_uconst 164] [$sp+0]
	;DEBUG_VALUE: mainQSort3:loSt <- [DW_OP_plus_uconst 180] [$sp+0]
	;DEBUG_VALUE: mainQSort3:quadrant <- [DW_OP_plus_uconst 264] [$sp+0]
	;DEBUG_VALUE: mainQSort3:block <- $x24
	;DEBUG_VALUE: mainQSort3:ptr <- $x28
	;DEBUG_VALUE: mainSort:j <- [DW_OP_plus_uconst 96] [$sp+0]
	;DEBUG_VALUE: hi <- [DW_OP_plus_uconst 164] [$sp+0]
	;DEBUG_VALUE: lo <- [DW_OP_plus_uconst 180] [$sp+0]
	;DEBUG_VALUE: mainSort:i <- [DW_OP_plus_uconst 64] [$sp+0]
	;DEBUG_VALUE: mainSort:ptr <- $x28
	;DEBUG_VALUE: mainSort:block <- $x24
	;DEBUG_VALUE: mainSort:quadrant <- [DW_OP_plus_uconst 264] [$sp+0]
	;DEBUG_VALUE: mainSort:ftab <- $x20
	;DEBUG_VALUE: mainSort:budget <- [DW_OP_plus_uconst 284, DW_OP_stack_value] $sp
	;DEBUG_VALUE: BZ2_blockSort:budget <- [DW_OP_plus_uconst 284, DW_OP_deref] $sp
	;DEBUG_VALUE: BZ2_blockSort:quadrant <- [DW_OP_plus_uconst 264] [$sp+0]
	;DEBUG_VALUE: BZ2_blockSort:nblock <- [DW_OP_plus_uconst 272] [$sp+0]
	;DEBUG_VALUE: BZ2_blockSort:block <- $x24
	;DEBUG_VALUE: BZ2_blockSort:ftab <- $x20
	;DEBUG_VALUE: BZ2_blockSort:ptr <- $x28
	;DEBUG_VALUE: mainQSort3:sp <- $w3
	.loc	1 648 20 is_stmt 1              ; blocksort.c:648:20
	lsl	x8, x3, #2
	ldr	w30, [x5, x8]
Ltmp142:
	;DEBUG_VALUE: mainQSort3:lo <- $w30
	.loc	1 648 38 is_stmt 0              ; blocksort.c:648:38
	ldr	w9, [x6, x8]
Ltmp143:
	.loc	1 658 27 is_stmt 1              ; blocksort.c:658:27
	sxtw	x13, w9
Ltmp144:
	;DEBUG_VALUE: mainQSort3:hi <- $w9
	.loc	1 648 55                        ; blocksort.c:648:55
	ldr	w22, [x7, x8]
Ltmp145:
	;DEBUG_VALUE: mainQSort3:d <- $w22
	.loc	1 649 14                        ; blocksort.c:649:14
	sub	w10, w9, w30
	.loc	1 649 24 is_stmt 0              ; blocksort.c:649:24
	cmp	w10, #20
	ccmp	w22, #15, #0, ge
	b.ge	LBB0_71
Ltmp146:
; %bb.49:                               ;   in Loop: Header=BB0_48 Depth=4
	;DEBUG_VALUE: mainQSort3:d <- $w22
	;DEBUG_VALUE: mainQSort3:hi <- $w9
	;DEBUG_VALUE: mainQSort3:lo <- $w30
	;DEBUG_VALUE: mainQSort3:sp <- $w3
	;DEBUG_VALUE: mainQSort3:budget <- [DW_OP_plus_uconst 284, DW_OP_stack_value] $sp
	;DEBUG_VALUE: mainQSort3:dSt <- 2
	;DEBUG_VALUE: mainQSort3:hiSt <- [DW_OP_plus_uconst 164] [$sp+0]
	;DEBUG_VALUE: mainQSort3:loSt <- [DW_OP_plus_uconst 180] [$sp+0]
	;DEBUG_VALUE: mainQSort3:quadrant <- [DW_OP_plus_uconst 264] [$sp+0]
	;DEBUG_VALUE: mainQSort3:block <- $x24
	;DEBUG_VALUE: mainQSort3:ptr <- $x28
	;DEBUG_VALUE: mainSort:j <- [DW_OP_plus_uconst 96] [$sp+0]
	;DEBUG_VALUE: hi <- [DW_OP_plus_uconst 164] [$sp+0]
	;DEBUG_VALUE: lo <- [DW_OP_plus_uconst 180] [$sp+0]
	;DEBUG_VALUE: mainSort:i <- [DW_OP_plus_uconst 64] [$sp+0]
	;DEBUG_VALUE: mainSort:ptr <- $x28
	;DEBUG_VALUE: mainSort:block <- $x24
	;DEBUG_VALUE: mainSort:quadrant <- [DW_OP_plus_uconst 264] [$sp+0]
	;DEBUG_VALUE: mainSort:ftab <- $x20
	;DEBUG_VALUE: mainSort:budget <- [DW_OP_plus_uconst 284, DW_OP_stack_value] $sp
	;DEBUG_VALUE: BZ2_blockSort:budget <- [DW_OP_plus_uconst 284, DW_OP_deref] $sp
	;DEBUG_VALUE: BZ2_blockSort:quadrant <- [DW_OP_plus_uconst 264] [$sp+0]
	;DEBUG_VALUE: BZ2_blockSort:nblock <- [DW_OP_plus_uconst 272] [$sp+0]
	;DEBUG_VALUE: BZ2_blockSort:block <- $x24
	;DEBUG_VALUE: BZ2_blockSort:ftab <- $x20
	;DEBUG_VALUE: BZ2_blockSort:ptr <- $x28
	.loc	1 0 0                           ; blocksort.c:0:0
	sxtw	x12, w30
	.loc	1 657 27 is_stmt 1              ; blocksort.c:657:27
	ldr	w10, [x28, x12, lsl  #2]
	.loc	1 657 36 is_stmt 0              ; blocksort.c:657:36
	add	w10, w10, w22
	.loc	1 657 21                        ; blocksort.c:657:21
	ldrb	w10, [x24, w10, uxtw]
	.loc	1 658 27 is_stmt 1              ; blocksort.c:658:27
	ldr	w11, [x28, x13, lsl  #2]
	.loc	1 658 36 is_stmt 0              ; blocksort.c:658:36
	add	w11, w11, w22
	.loc	1 658 21                        ; blocksort.c:658:21
	ldrb	w11, [x24, w11, uxtw]
	.loc	1 659 35 is_stmt 1              ; blocksort.c:659:35
	add	w13, w9, w30
	.loc	1 659 39 is_stmt 0              ; blocksort.c:659:39
	asr	w13, w13, #1
	.loc	1 659 27                        ; blocksort.c:659:27
	ldr	w13, [x28, w13, sxtw  #2]
	.loc	1 659 44                        ; blocksort.c:659:44
	add	w13, w13, w22
	.loc	1 659 21                        ; blocksort.c:659:21
	ldrb	w13, [x24, w13, uxtw]
Ltmp147:
	;DEBUG_VALUE: mmed3:c <- $w13
	.loc	1 586 8 is_stmt 1               ; blocksort.c:586:8
	cmp	w10, w11
Ltmp148:
	;DEBUG_VALUE: mmed3:a <- $w10
	;DEBUG_VALUE: mmed3:b <- $w11
	csel	w14, w10, w11, hi
	csel	w10, w10, w11, lo
Ltmp149:
	;DEBUG_VALUE: mmed3:a <- $w10
	;DEBUG_VALUE: mmed3:b <- $w14
	.loc	1 587 8                         ; blocksort.c:587:8
	cmp	w10, w13
	csel	w10, w10, w13, hi
Ltmp150:
	cmp	w14, w13
	csel	w15, w10, w14, hi
Ltmp151:
	;DEBUG_VALUE: mainQSort3:unHi <- $w9
	;DEBUG_VALUE: mainQSort3:gtHi <- $w9
	;DEBUG_VALUE: mainQSort3:unLo <- $w30
	;DEBUG_VALUE: mainQSort3:ltLo <- $w30
	;DEBUG_VALUE: mainQSort3:med <- [DW_OP_LLVM_convert 8 7, DW_OP_LLVM_convert 32 7, DW_OP_stack_value] $w15
	;DEBUG_VALUE: mmed3:b <- $w15
	.loc	1 0 8 is_stmt 0                 ; blocksort.c:0:8
	mov	x14, x9
	mov	x11, x30
	mov	x13, x9
Ltmp152:
	mov	x10, x30
Ltmp153:
	;DEBUG_VALUE: mainQSort3:ltLo <- $w11
	;DEBUG_VALUE: mainQSort3:unLo <- $w10
	;DEBUG_VALUE: mainQSort3:gtHi <- $w14
	;DEBUG_VALUE: mainQSort3:unHi <- $w13
	.loc	1 666 17 is_stmt 1              ; blocksort.c:666:17
	cmp	w10, w13
	b.gt	LBB0_59
Ltmp154:
LBB0_50:                                ; %.lr.ph.preheader.i.i
                                        ;   in Loop: Header=BB0_48 Depth=4
	;DEBUG_VALUE: mainQSort3:unHi <- $w13
	;DEBUG_VALUE: mainQSort3:gtHi <- $w14
	;DEBUG_VALUE: mainQSort3:unLo <- $w10
	;DEBUG_VALUE: mainQSort3:ltLo <- $w11
	;DEBUG_VALUE: mainQSort3:med <- [DW_OP_LLVM_convert 8 7, DW_OP_LLVM_convert 32 7, DW_OP_stack_value] $w15
	;DEBUG_VALUE: mainQSort3:d <- $w22
	;DEBUG_VALUE: mainQSort3:hi <- $w9
	;DEBUG_VALUE: mainQSort3:lo <- $w30
	;DEBUG_VALUE: mainQSort3:sp <- $w3
	;DEBUG_VALUE: mainQSort3:budget <- [DW_OP_plus_uconst 284, DW_OP_stack_value] $sp
	;DEBUG_VALUE: mainQSort3:dSt <- 2
	;DEBUG_VALUE: mainQSort3:hiSt <- [DW_OP_plus_uconst 164] [$sp+0]
	;DEBUG_VALUE: mainQSort3:loSt <- [DW_OP_plus_uconst 180] [$sp+0]
	;DEBUG_VALUE: mainQSort3:quadrant <- [DW_OP_plus_uconst 264] [$sp+0]
	;DEBUG_VALUE: mainQSort3:block <- $x24
	;DEBUG_VALUE: mainQSort3:ptr <- $x28
	;DEBUG_VALUE: mainSort:j <- [DW_OP_plus_uconst 96] [$sp+0]
	;DEBUG_VALUE: hi <- [DW_OP_plus_uconst 164] [$sp+0]
	;DEBUG_VALUE: lo <- [DW_OP_plus_uconst 180] [$sp+0]
	;DEBUG_VALUE: mainSort:i <- [DW_OP_plus_uconst 64] [$sp+0]
	;DEBUG_VALUE: mainSort:ptr <- $x28
	;DEBUG_VALUE: mainSort:block <- $x24
	;DEBUG_VALUE: mainSort:quadrant <- [DW_OP_plus_uconst 264] [$sp+0]
	;DEBUG_VALUE: mainSort:ftab <- $x20
	;DEBUG_VALUE: mainSort:budget <- [DW_OP_plus_uconst 284, DW_OP_stack_value] $sp
	;DEBUG_VALUE: BZ2_blockSort:budget <- [DW_OP_plus_uconst 284, DW_OP_deref] $sp
	;DEBUG_VALUE: BZ2_blockSort:quadrant <- [DW_OP_plus_uconst 264] [$sp+0]
	;DEBUG_VALUE: BZ2_blockSort:nblock <- [DW_OP_plus_uconst 272] [$sp+0]
	;DEBUG_VALUE: BZ2_blockSort:block <- $x24
	;DEBUG_VALUE: BZ2_blockSort:ftab <- $x20
	;DEBUG_VALUE: BZ2_blockSort:ptr <- $x28
	.loc	1 665 10                        ; blocksort.c:665:10
	sxtw	x11, w11
Ltmp155:
LBB0_51:                                ; %.lr.ph.i.i
                                        ;   Parent Loop BB0_33 Depth=1
                                        ;     Parent Loop BB0_37 Depth=2
                                        ;       Parent Loop BB0_46 Depth=3
                                        ;         Parent Loop BB0_48 Depth=4
                                        ; =>        This Loop Header: Depth=5
                                        ;             Child Loop BB0_52 Depth 6
	;DEBUG_VALUE: mainQSort3:unHi <- $w13
	;DEBUG_VALUE: mainQSort3:gtHi <- $w14
	;DEBUG_VALUE: mainQSort3:med <- [DW_OP_LLVM_convert 8 7, DW_OP_LLVM_convert 32 7, DW_OP_stack_value] $w15
	;DEBUG_VALUE: mainQSort3:d <- $w22
	;DEBUG_VALUE: mainQSort3:hi <- $w9
	;DEBUG_VALUE: mainQSort3:lo <- $w30
	;DEBUG_VALUE: mainQSort3:sp <- $w3
	;DEBUG_VALUE: mainQSort3:budget <- [DW_OP_plus_uconst 284, DW_OP_stack_value] $sp
	;DEBUG_VALUE: mainQSort3:dSt <- 2
	;DEBUG_VALUE: mainQSort3:hiSt <- [DW_OP_plus_uconst 164] [$sp+0]
	;DEBUG_VALUE: mainQSort3:loSt <- [DW_OP_plus_uconst 180] [$sp+0]
	;DEBUG_VALUE: mainQSort3:quadrant <- [DW_OP_plus_uconst 264] [$sp+0]
	;DEBUG_VALUE: mainQSort3:block <- $x24
	;DEBUG_VALUE: mainQSort3:ptr <- $x28
	;DEBUG_VALUE: mainSort:j <- [DW_OP_plus_uconst 96] [$sp+0]
	;DEBUG_VALUE: hi <- [DW_OP_plus_uconst 164] [$sp+0]
	;DEBUG_VALUE: lo <- [DW_OP_plus_uconst 180] [$sp+0]
	;DEBUG_VALUE: mainSort:i <- [DW_OP_plus_uconst 64] [$sp+0]
	;DEBUG_VALUE: mainSort:ptr <- $x28
	;DEBUG_VALUE: mainSort:block <- $x24
	;DEBUG_VALUE: mainSort:quadrant <- [DW_OP_plus_uconst 264] [$sp+0]
	;DEBUG_VALUE: mainSort:ftab <- $x20
	;DEBUG_VALUE: mainSort:budget <- [DW_OP_plus_uconst 284, DW_OP_stack_value] $sp
	;DEBUG_VALUE: BZ2_blockSort:budget <- [DW_OP_plus_uconst 284, DW_OP_deref] $sp
	;DEBUG_VALUE: BZ2_blockSort:quadrant <- [DW_OP_plus_uconst 264] [$sp+0]
	;DEBUG_VALUE: BZ2_blockSort:nblock <- [DW_OP_plus_uconst 272] [$sp+0]
	;DEBUG_VALUE: BZ2_blockSort:block <- $x24
	;DEBUG_VALUE: BZ2_blockSort:ftab <- $x20
	;DEBUG_VALUE: BZ2_blockSort:ptr <- $x28
	;DEBUG_VALUE: mainQSort3:ltLo <- $x11
	;DEBUG_VALUE: mainQSort3:unLo <- $w10
	.loc	1 666 17                        ; blocksort.c:666:17
	sxtw	x0, w10
	cmp	w10, w13
	csel	w16, w10, w13, gt
	sxtw	x1, w16
	add	x17, x28, w10, sxtw #2
	sub	x0, x1, x0
	add	x0, x0, #1
Ltmp156:
LBB0_52:                                ;   Parent Loop BB0_33 Depth=1
                                        ;     Parent Loop BB0_37 Depth=2
                                        ;       Parent Loop BB0_46 Depth=3
                                        ;         Parent Loop BB0_48 Depth=4
                                        ;           Parent Loop BB0_51 Depth=5
                                        ; =>          This Inner Loop Header: Depth=6
	;DEBUG_VALUE: mainQSort3:ltLo <- $x11
	;DEBUG_VALUE: mainQSort3:unHi <- $w13
	;DEBUG_VALUE: mainQSort3:gtHi <- $w14
	;DEBUG_VALUE: mainQSort3:med <- [DW_OP_LLVM_convert 8 7, DW_OP_LLVM_convert 32 7, DW_OP_stack_value] $w15
	;DEBUG_VALUE: mainQSort3:d <- $w22
	;DEBUG_VALUE: mainQSort3:hi <- $w9
	;DEBUG_VALUE: mainQSort3:lo <- $w30
	;DEBUG_VALUE: mainQSort3:sp <- $w3
	;DEBUG_VALUE: mainQSort3:budget <- [DW_OP_plus_uconst 284, DW_OP_stack_value] $sp
	;DEBUG_VALUE: mainQSort3:dSt <- 2
	;DEBUG_VALUE: mainQSort3:hiSt <- [DW_OP_plus_uconst 164] [$sp+0]
	;DEBUG_VALUE: mainQSort3:loSt <- [DW_OP_plus_uconst 180] [$sp+0]
	;DEBUG_VALUE: mainQSort3:quadrant <- [DW_OP_plus_uconst 264] [$sp+0]
	;DEBUG_VALUE: mainQSort3:block <- $x24
	;DEBUG_VALUE: mainQSort3:ptr <- $x28
	;DEBUG_VALUE: mainSort:j <- [DW_OP_plus_uconst 96] [$sp+0]
	;DEBUG_VALUE: hi <- [DW_OP_plus_uconst 164] [$sp+0]
	;DEBUG_VALUE: lo <- [DW_OP_plus_uconst 180] [$sp+0]
	;DEBUG_VALUE: mainSort:i <- [DW_OP_plus_uconst 64] [$sp+0]
	;DEBUG_VALUE: mainSort:ptr <- $x28
	;DEBUG_VALUE: mainSort:block <- $x24
	;DEBUG_VALUE: mainSort:quadrant <- [DW_OP_plus_uconst 264] [$sp+0]
	;DEBUG_VALUE: mainSort:ftab <- $x20
	;DEBUG_VALUE: mainSort:budget <- [DW_OP_plus_uconst 284, DW_OP_stack_value] $sp
	;DEBUG_VALUE: BZ2_blockSort:budget <- [DW_OP_plus_uconst 284, DW_OP_deref] $sp
	;DEBUG_VALUE: BZ2_blockSort:quadrant <- [DW_OP_plus_uconst 264] [$sp+0]
	;DEBUG_VALUE: BZ2_blockSort:nblock <- [DW_OP_plus_uconst 272] [$sp+0]
	;DEBUG_VALUE: BZ2_blockSort:block <- $x24
	;DEBUG_VALUE: BZ2_blockSort:ftab <- $x20
	;DEBUG_VALUE: BZ2_blockSort:ptr <- $x28
	;DEBUG_VALUE: mainQSort3:unLo <- [DW_OP_LLVM_arg 0, DW_OP_LLVM_arg 0, DW_OP_minus, DW_OP_LLVM_arg 0, DW_OP_LLVM_convert 64 5, DW_OP_plus, DW_OP_stack_value] $w10
	.loc	1 667 31                        ; blocksort.c:667:31
	ldr	w1, [x17]
	.loc	1 667 40 is_stmt 0              ; blocksort.c:667:40
	add	w2, w1, w22
	.loc	1 667 25                        ; blocksort.c:667:25
	ldrb	w2, [x24, w2, uxtw]
Ltmp157:
	;DEBUG_VALUE: mainQSort3:n <- [DW_OP_LLVM_arg 0, DW_OP_LLVM_convert 8 7, DW_OP_LLVM_convert 32 7, DW_OP_LLVM_arg 1, DW_OP_LLVM_convert 8 7, DW_OP_LLVM_convert 32 7, DW_OP_minus, DW_OP_stack_value] $w2, $w15
	.loc	1 668 17 is_stmt 1              ; blocksort.c:668:17
	cmp	w2, w15
	b.eq	LBB0_55
Ltmp158:
; %bb.53:                               ;   in Loop: Header=BB0_52 Depth=6
	;DEBUG_VALUE: mainQSort3:n <- [DW_OP_LLVM_arg 0, DW_OP_LLVM_convert 8 7, DW_OP_LLVM_convert 32 7, DW_OP_LLVM_arg 1, DW_OP_LLVM_convert 8 7, DW_OP_LLVM_convert 32 7, DW_OP_minus, DW_OP_stack_value] $w2, $w15
	;DEBUG_VALUE: mainQSort3:unLo <- [DW_OP_LLVM_arg 0, DW_OP_LLVM_arg 0, DW_OP_minus, DW_OP_LLVM_arg 0, DW_OP_LLVM_convert 64 5, DW_OP_plus, DW_OP_stack_value] $w10
	;DEBUG_VALUE: mainQSort3:ltLo <- $x11
	;DEBUG_VALUE: mainQSort3:unHi <- $w13
	;DEBUG_VALUE: mainQSort3:gtHi <- $w14
	;DEBUG_VALUE: mainQSort3:med <- [DW_OP_LLVM_convert 8 7, DW_OP_LLVM_convert 32 7, DW_OP_stack_value] $w15
	;DEBUG_VALUE: mainQSort3:d <- $w22
	;DEBUG_VALUE: mainQSort3:hi <- $w9
	;DEBUG_VALUE: mainQSort3:lo <- $w30
	;DEBUG_VALUE: mainQSort3:sp <- $w3
	;DEBUG_VALUE: mainQSort3:budget <- [DW_OP_plus_uconst 284, DW_OP_stack_value] $sp
	;DEBUG_VALUE: mainQSort3:dSt <- 2
	;DEBUG_VALUE: mainQSort3:hiSt <- [DW_OP_plus_uconst 164] [$sp+0]
	;DEBUG_VALUE: mainQSort3:loSt <- [DW_OP_plus_uconst 180] [$sp+0]
	;DEBUG_VALUE: mainQSort3:quadrant <- [DW_OP_plus_uconst 264] [$sp+0]
	;DEBUG_VALUE: mainQSort3:block <- $x24
	;DEBUG_VALUE: mainQSort3:ptr <- $x28
	;DEBUG_VALUE: mainSort:j <- [DW_OP_plus_uconst 96] [$sp+0]
	;DEBUG_VALUE: hi <- [DW_OP_plus_uconst 164] [$sp+0]
	;DEBUG_VALUE: lo <- [DW_OP_plus_uconst 180] [$sp+0]
	;DEBUG_VALUE: mainSort:i <- [DW_OP_plus_uconst 64] [$sp+0]
	;DEBUG_VALUE: mainSort:ptr <- $x28
	;DEBUG_VALUE: mainSort:block <- $x24
	;DEBUG_VALUE: mainSort:quadrant <- [DW_OP_plus_uconst 264] [$sp+0]
	;DEBUG_VALUE: mainSort:ftab <- $x20
	;DEBUG_VALUE: mainSort:budget <- [DW_OP_plus_uconst 284, DW_OP_stack_value] $sp
	;DEBUG_VALUE: BZ2_blockSort:budget <- [DW_OP_plus_uconst 284, DW_OP_deref] $sp
	;DEBUG_VALUE: BZ2_blockSort:quadrant <- [DW_OP_plus_uconst 264] [$sp+0]
	;DEBUG_VALUE: BZ2_blockSort:nblock <- [DW_OP_plus_uconst 272] [$sp+0]
	;DEBUG_VALUE: BZ2_blockSort:block <- $x24
	;DEBUG_VALUE: BZ2_blockSort:ftab <- $x20
	;DEBUG_VALUE: BZ2_blockSort:ptr <- $x28
	;DEBUG_VALUE: mainQSort3:n <- [DW_OP_LLVM_arg 0, DW_OP_LLVM_convert 8 7, DW_OP_LLVM_convert 32 7, DW_OP_LLVM_arg 0, DW_OP_LLVM_convert 8 7, DW_OP_LLVM_convert 32 7, DW_OP_minus, DW_OP_stack_value] undef
	.loc	1 672 17                        ; blocksort.c:672:17
	b.hi	LBB0_58
Ltmp159:
; %bb.54:                               ;   in Loop: Header=BB0_52 Depth=6
	;DEBUG_VALUE: mainQSort3:unLo <- [DW_OP_LLVM_arg 0, DW_OP_LLVM_arg 0, DW_OP_minus, DW_OP_LLVM_arg 0, DW_OP_LLVM_convert 64 5, DW_OP_plus, DW_OP_stack_value] $w10
	;DEBUG_VALUE: mainQSort3:ltLo <- $x11
	;DEBUG_VALUE: mainQSort3:unHi <- $w13
	;DEBUG_VALUE: mainQSort3:gtHi <- $w14
	;DEBUG_VALUE: mainQSort3:med <- [DW_OP_LLVM_convert 8 7, DW_OP_LLVM_convert 32 7, DW_OP_stack_value] $w15
	;DEBUG_VALUE: mainQSort3:d <- $w22
	;DEBUG_VALUE: mainQSort3:hi <- $w9
	;DEBUG_VALUE: mainQSort3:lo <- $w30
	;DEBUG_VALUE: mainQSort3:sp <- $w3
	;DEBUG_VALUE: mainQSort3:budget <- [DW_OP_plus_uconst 284, DW_OP_stack_value] $sp
	;DEBUG_VALUE: mainQSort3:dSt <- 2
	;DEBUG_VALUE: mainQSort3:hiSt <- [DW_OP_plus_uconst 164] [$sp+0]
	;DEBUG_VALUE: mainQSort3:loSt <- [DW_OP_plus_uconst 180] [$sp+0]
	;DEBUG_VALUE: mainQSort3:quadrant <- [DW_OP_plus_uconst 264] [$sp+0]
	;DEBUG_VALUE: mainQSort3:block <- $x24
	;DEBUG_VALUE: mainQSort3:ptr <- $x28
	;DEBUG_VALUE: mainSort:j <- [DW_OP_plus_uconst 96] [$sp+0]
	;DEBUG_VALUE: hi <- [DW_OP_plus_uconst 164] [$sp+0]
	;DEBUG_VALUE: lo <- [DW_OP_plus_uconst 180] [$sp+0]
	;DEBUG_VALUE: mainSort:i <- [DW_OP_plus_uconst 64] [$sp+0]
	;DEBUG_VALUE: mainSort:ptr <- $x28
	;DEBUG_VALUE: mainSort:block <- $x24
	;DEBUG_VALUE: mainSort:quadrant <- [DW_OP_plus_uconst 264] [$sp+0]
	;DEBUG_VALUE: mainSort:ftab <- $x20
	;DEBUG_VALUE: mainSort:budget <- [DW_OP_plus_uconst 284, DW_OP_stack_value] $sp
	;DEBUG_VALUE: BZ2_blockSort:budget <- [DW_OP_plus_uconst 284, DW_OP_deref] $sp
	;DEBUG_VALUE: BZ2_blockSort:quadrant <- [DW_OP_plus_uconst 264] [$sp+0]
	;DEBUG_VALUE: BZ2_blockSort:nblock <- [DW_OP_plus_uconst 272] [$sp+0]
	;DEBUG_VALUE: BZ2_blockSort:block <- $x24
	;DEBUG_VALUE: BZ2_blockSort:ftab <- $x20
	;DEBUG_VALUE: BZ2_blockSort:ptr <- $x28
	;DEBUG_VALUE: mainQSort3:ltLo <- $x11
	;DEBUG_VALUE: mainQSort3:unLo <- [DW_OP_LLVM_arg 0, DW_OP_LLVM_arg 0, DW_OP_minus, DW_OP_consts 1, DW_OP_LLVM_arg 0, DW_OP_LLVM_convert 64 5, DW_OP_plus, DW_OP_plus, DW_OP_stack_value] $w10
	.loc	1 666 22                        ; blocksort.c:666:22
	add	w10, w10, #1
Ltmp160:
	add	x17, x17, #4
	subs	x0, x0, #1
Ltmp161:
	.loc	1 666 17 is_stmt 0              ; blocksort.c:666:17
	b.ne	LBB0_52
	b	LBB0_57
Ltmp162:
LBB0_55:                                ; %.outer245.i.i
                                        ;   in Loop: Header=BB0_51 Depth=5
	;DEBUG_VALUE: mainQSort3:n <- [DW_OP_LLVM_arg 0, DW_OP_LLVM_convert 8 7, DW_OP_LLVM_convert 32 7, DW_OP_LLVM_arg 1, DW_OP_LLVM_convert 8 7, DW_OP_LLVM_convert 32 7, DW_OP_minus, DW_OP_stack_value] $w2, $w15
	;DEBUG_VALUE: mainQSort3:unLo <- [DW_OP_LLVM_arg 0, DW_OP_LLVM_arg 0, DW_OP_minus, DW_OP_LLVM_arg 0, DW_OP_LLVM_convert 64 5, DW_OP_plus, DW_OP_stack_value] $w10
	;DEBUG_VALUE: mainQSort3:ltLo <- $x11
	;DEBUG_VALUE: mainQSort3:unHi <- $w13
	;DEBUG_VALUE: mainQSort3:gtHi <- $w14
	;DEBUG_VALUE: mainQSort3:med <- [DW_OP_LLVM_convert 8 7, DW_OP_LLVM_convert 32 7, DW_OP_stack_value] $w15
	;DEBUG_VALUE: mainQSort3:d <- $w22
	;DEBUG_VALUE: mainQSort3:hi <- $w9
	;DEBUG_VALUE: mainQSort3:lo <- $w30
	;DEBUG_VALUE: mainQSort3:sp <- $w3
	;DEBUG_VALUE: mainQSort3:budget <- [DW_OP_plus_uconst 284, DW_OP_stack_value] $sp
	;DEBUG_VALUE: mainQSort3:dSt <- 2
	;DEBUG_VALUE: mainQSort3:hiSt <- [DW_OP_plus_uconst 164] [$sp+0]
	;DEBUG_VALUE: mainQSort3:loSt <- [DW_OP_plus_uconst 180] [$sp+0]
	;DEBUG_VALUE: mainQSort3:quadrant <- [DW_OP_plus_uconst 264] [$sp+0]
	;DEBUG_VALUE: mainQSort3:block <- $x24
	;DEBUG_VALUE: mainQSort3:ptr <- $x28
	;DEBUG_VALUE: mainSort:j <- [DW_OP_plus_uconst 96] [$sp+0]
	;DEBUG_VALUE: hi <- [DW_OP_plus_uconst 164] [$sp+0]
	;DEBUG_VALUE: lo <- [DW_OP_plus_uconst 180] [$sp+0]
	;DEBUG_VALUE: mainSort:i <- [DW_OP_plus_uconst 64] [$sp+0]
	;DEBUG_VALUE: mainSort:ptr <- $x28
	;DEBUG_VALUE: mainSort:block <- $x24
	;DEBUG_VALUE: mainSort:quadrant <- [DW_OP_plus_uconst 264] [$sp+0]
	;DEBUG_VALUE: mainSort:ftab <- $x20
	;DEBUG_VALUE: mainSort:budget <- [DW_OP_plus_uconst 284, DW_OP_stack_value] $sp
	;DEBUG_VALUE: BZ2_blockSort:budget <- [DW_OP_plus_uconst 284, DW_OP_deref] $sp
	;DEBUG_VALUE: BZ2_blockSort:quadrant <- [DW_OP_plus_uconst 264] [$sp+0]
	;DEBUG_VALUE: BZ2_blockSort:nblock <- [DW_OP_plus_uconst 272] [$sp+0]
	;DEBUG_VALUE: BZ2_blockSort:block <- $x24
	;DEBUG_VALUE: BZ2_blockSort:ftab <- $x20
	;DEBUG_VALUE: BZ2_blockSort:ptr <- $x28
	;DEBUG_VALUE: zztmp <- $w1
	.loc	1 669 55 is_stmt 1              ; blocksort.c:669:55
	lsl	x16, x11, #2
	ldr	w0, [x28, x16]
	.loc	1 669 53 is_stmt 0              ; blocksort.c:669:53
	str	w0, [x17]
	.loc	1 669 76                        ; blocksort.c:669:76
	str	w1, [x28, x16]
Ltmp163:
	.loc	1 670 20 is_stmt 1              ; blocksort.c:670:20
	add	x11, x11, #1
Ltmp164:
	;DEBUG_VALUE: mainQSort3:unLo <- [DW_OP_LLVM_convert 64 7, DW_OP_LLVM_convert 32 7, DW_OP_plus_uconst 1, DW_OP_stack_value] undef
	;DEBUG_VALUE: mainQSort3:ltLo <- $x11
	.loc	1 666 22                        ; blocksort.c:666:22
	add	w16, w10, #1
Ltmp165:
	.loc	1 666 17 is_stmt 0              ; blocksort.c:666:17
	cmp	w13, w10
	mov	x10, x16
	b.gt	LBB0_51
Ltmp166:
; %bb.56:                               ; %.outer245._crit_edge.loopexit338.i.i
                                        ;   in Loop: Header=BB0_48 Depth=4
	;DEBUG_VALUE: zztmp <- $w1
	;DEBUG_VALUE: mainQSort3:n <- [DW_OP_LLVM_arg 0, DW_OP_LLVM_convert 8 7, DW_OP_LLVM_convert 32 7, DW_OP_LLVM_arg 1, DW_OP_LLVM_convert 8 7, DW_OP_LLVM_convert 32 7, DW_OP_minus, DW_OP_stack_value] $w2, $w15
	;DEBUG_VALUE: mainQSort3:ltLo <- $x11
	;DEBUG_VALUE: mainQSort3:unHi <- $w13
	;DEBUG_VALUE: mainQSort3:gtHi <- $w14
	;DEBUG_VALUE: mainQSort3:med <- [DW_OP_LLVM_convert 8 7, DW_OP_LLVM_convert 32 7, DW_OP_stack_value] $w15
	;DEBUG_VALUE: mainQSort3:d <- $w22
	;DEBUG_VALUE: mainQSort3:hi <- $w9
	;DEBUG_VALUE: mainQSort3:lo <- $w30
	;DEBUG_VALUE: mainQSort3:sp <- $w3
	;DEBUG_VALUE: mainQSort3:budget <- [DW_OP_plus_uconst 284, DW_OP_stack_value] $sp
	;DEBUG_VALUE: mainQSort3:dSt <- 2
	;DEBUG_VALUE: mainQSort3:hiSt <- [DW_OP_plus_uconst 164] [$sp+0]
	;DEBUG_VALUE: mainQSort3:loSt <- [DW_OP_plus_uconst 180] [$sp+0]
	;DEBUG_VALUE: mainQSort3:quadrant <- [DW_OP_plus_uconst 264] [$sp+0]
	;DEBUG_VALUE: mainQSort3:block <- $x24
	;DEBUG_VALUE: mainQSort3:ptr <- $x28
	;DEBUG_VALUE: mainSort:j <- [DW_OP_plus_uconst 96] [$sp+0]
	;DEBUG_VALUE: hi <- [DW_OP_plus_uconst 164] [$sp+0]
	;DEBUG_VALUE: lo <- [DW_OP_plus_uconst 180] [$sp+0]
	;DEBUG_VALUE: mainSort:i <- [DW_OP_plus_uconst 64] [$sp+0]
	;DEBUG_VALUE: mainSort:ptr <- $x28
	;DEBUG_VALUE: mainSort:block <- $x24
	;DEBUG_VALUE: mainSort:quadrant <- [DW_OP_plus_uconst 264] [$sp+0]
	;DEBUG_VALUE: mainSort:ftab <- $x20
	;DEBUG_VALUE: mainSort:budget <- [DW_OP_plus_uconst 284, DW_OP_stack_value] $sp
	;DEBUG_VALUE: BZ2_blockSort:budget <- [DW_OP_plus_uconst 284, DW_OP_deref] $sp
	;DEBUG_VALUE: BZ2_blockSort:quadrant <- [DW_OP_plus_uconst 264] [$sp+0]
	;DEBUG_VALUE: BZ2_blockSort:nblock <- [DW_OP_plus_uconst 272] [$sp+0]
	;DEBUG_VALUE: BZ2_blockSort:block <- $x24
	;DEBUG_VALUE: BZ2_blockSort:ftab <- $x20
	;DEBUG_VALUE: BZ2_blockSort:ptr <- $x28
                                        ; kill: def $w11 killed $w11 killed $x11 def $x11
	.loc	1 0 17                          ; blocksort.c:0:17
	mov	x10, x16
	b	LBB0_59
Ltmp167:
LBB0_57:                                ; %.outer245._crit_edge.loopexit.split.loop.exit471.i.i
                                        ;   in Loop: Header=BB0_48 Depth=4
	;DEBUG_VALUE: mainQSort3:ltLo <- $x11
	;DEBUG_VALUE: mainQSort3:unHi <- $w13
	;DEBUG_VALUE: mainQSort3:gtHi <- $w14
	;DEBUG_VALUE: mainQSort3:med <- [DW_OP_LLVM_convert 8 7, DW_OP_LLVM_convert 32 7, DW_OP_stack_value] $w15
	;DEBUG_VALUE: mainQSort3:d <- $w22
	;DEBUG_VALUE: mainQSort3:hi <- $w9
	;DEBUG_VALUE: mainQSort3:lo <- $w30
	;DEBUG_VALUE: mainQSort3:sp <- $w3
	;DEBUG_VALUE: mainQSort3:budget <- [DW_OP_plus_uconst 284, DW_OP_stack_value] $sp
	;DEBUG_VALUE: mainQSort3:dSt <- 2
	;DEBUG_VALUE: mainQSort3:hiSt <- [DW_OP_plus_uconst 164] [$sp+0]
	;DEBUG_VALUE: mainQSort3:loSt <- [DW_OP_plus_uconst 180] [$sp+0]
	;DEBUG_VALUE: mainQSort3:quadrant <- [DW_OP_plus_uconst 264] [$sp+0]
	;DEBUG_VALUE: mainQSort3:block <- $x24
	;DEBUG_VALUE: mainQSort3:ptr <- $x28
	;DEBUG_VALUE: mainSort:j <- [DW_OP_plus_uconst 96] [$sp+0]
	;DEBUG_VALUE: hi <- [DW_OP_plus_uconst 164] [$sp+0]
	;DEBUG_VALUE: lo <- [DW_OP_plus_uconst 180] [$sp+0]
	;DEBUG_VALUE: mainSort:i <- [DW_OP_plus_uconst 64] [$sp+0]
	;DEBUG_VALUE: mainSort:ptr <- $x28
	;DEBUG_VALUE: mainSort:block <- $x24
	;DEBUG_VALUE: mainSort:quadrant <- [DW_OP_plus_uconst 264] [$sp+0]
	;DEBUG_VALUE: mainSort:ftab <- $x20
	;DEBUG_VALUE: mainSort:budget <- [DW_OP_plus_uconst 284, DW_OP_stack_value] $sp
	;DEBUG_VALUE: BZ2_blockSort:budget <- [DW_OP_plus_uconst 284, DW_OP_deref] $sp
	;DEBUG_VALUE: BZ2_blockSort:quadrant <- [DW_OP_plus_uconst 264] [$sp+0]
	;DEBUG_VALUE: BZ2_blockSort:nblock <- [DW_OP_plus_uconst 272] [$sp+0]
	;DEBUG_VALUE: BZ2_blockSort:block <- $x24
	;DEBUG_VALUE: BZ2_blockSort:ftab <- $x20
	;DEBUG_VALUE: BZ2_blockSort:ptr <- $x28
	.loc	1 666 17                        ; blocksort.c:666:17
	add	w10, w16, #1
Ltmp168:
LBB0_58:                                ; %.outer245._crit_edge.i.i
                                        ;   in Loop: Header=BB0_48 Depth=4
	;DEBUG_VALUE: mainQSort3:ltLo <- $x11
	;DEBUG_VALUE: mainQSort3:unHi <- $w13
	;DEBUG_VALUE: mainQSort3:gtHi <- $w14
	;DEBUG_VALUE: mainQSort3:med <- [DW_OP_LLVM_convert 8 7, DW_OP_LLVM_convert 32 7, DW_OP_stack_value] $w15
	;DEBUG_VALUE: mainQSort3:d <- $w22
	;DEBUG_VALUE: mainQSort3:hi <- $w9
	;DEBUG_VALUE: mainQSort3:lo <- $w30
	;DEBUG_VALUE: mainQSort3:sp <- $w3
	;DEBUG_VALUE: mainQSort3:budget <- [DW_OP_plus_uconst 284, DW_OP_stack_value] $sp
	;DEBUG_VALUE: mainQSort3:dSt <- 2
	;DEBUG_VALUE: mainQSort3:hiSt <- [DW_OP_plus_uconst 164] [$sp+0]
	;DEBUG_VALUE: mainQSort3:loSt <- [DW_OP_plus_uconst 180] [$sp+0]
	;DEBUG_VALUE: mainQSort3:quadrant <- [DW_OP_plus_uconst 264] [$sp+0]
	;DEBUG_VALUE: mainQSort3:block <- $x24
	;DEBUG_VALUE: mainQSort3:ptr <- $x28
	;DEBUG_VALUE: mainSort:j <- [DW_OP_plus_uconst 96] [$sp+0]
	;DEBUG_VALUE: hi <- [DW_OP_plus_uconst 164] [$sp+0]
	;DEBUG_VALUE: lo <- [DW_OP_plus_uconst 180] [$sp+0]
	;DEBUG_VALUE: mainSort:i <- [DW_OP_plus_uconst 64] [$sp+0]
	;DEBUG_VALUE: mainSort:ptr <- $x28
	;DEBUG_VALUE: mainSort:block <- $x24
	;DEBUG_VALUE: mainSort:quadrant <- [DW_OP_plus_uconst 264] [$sp+0]
	;DEBUG_VALUE: mainSort:ftab <- $x20
	;DEBUG_VALUE: mainSort:budget <- [DW_OP_plus_uconst 284, DW_OP_stack_value] $sp
	;DEBUG_VALUE: BZ2_blockSort:budget <- [DW_OP_plus_uconst 284, DW_OP_deref] $sp
	;DEBUG_VALUE: BZ2_blockSort:quadrant <- [DW_OP_plus_uconst 264] [$sp+0]
	;DEBUG_VALUE: BZ2_blockSort:nblock <- [DW_OP_plus_uconst 272] [$sp+0]
	;DEBUG_VALUE: BZ2_blockSort:block <- $x24
	;DEBUG_VALUE: BZ2_blockSort:ftab <- $x20
	;DEBUG_VALUE: BZ2_blockSort:ptr <- $x28
                                        ; kill: def $w11 killed $w11 killed $x11 def $x11
LBB0_59:                                ; %.outer245._crit_edge.i.i
                                        ;   Parent Loop BB0_33 Depth=1
                                        ;     Parent Loop BB0_37 Depth=2
                                        ;       Parent Loop BB0_46 Depth=3
                                        ;         Parent Loop BB0_48 Depth=4
                                        ; =>        This Loop Header: Depth=5
                                        ;             Child Loop BB0_61 Depth 6
                                        ;               Child Loop BB0_62 Depth 7
	;DEBUG_VALUE: mainQSort3:unHi <- $w13
	;DEBUG_VALUE: mainQSort3:gtHi <- $w14
	;DEBUG_VALUE: mainQSort3:med <- [DW_OP_LLVM_convert 8 7, DW_OP_LLVM_convert 32 7, DW_OP_stack_value] $w15
	;DEBUG_VALUE: mainQSort3:d <- $w22
	;DEBUG_VALUE: mainQSort3:hi <- $w9
	;DEBUG_VALUE: mainQSort3:lo <- $w30
	;DEBUG_VALUE: mainQSort3:sp <- $w3
	;DEBUG_VALUE: mainQSort3:budget <- [DW_OP_plus_uconst 284, DW_OP_stack_value] $sp
	;DEBUG_VALUE: mainQSort3:dSt <- 2
	;DEBUG_VALUE: mainQSort3:hiSt <- [DW_OP_plus_uconst 164] [$sp+0]
	;DEBUG_VALUE: mainQSort3:loSt <- [DW_OP_plus_uconst 180] [$sp+0]
	;DEBUG_VALUE: mainQSort3:quadrant <- [DW_OP_plus_uconst 264] [$sp+0]
	;DEBUG_VALUE: mainQSort3:block <- $x24
	;DEBUG_VALUE: mainQSort3:ptr <- $x28
	;DEBUG_VALUE: mainSort:j <- [DW_OP_plus_uconst 96] [$sp+0]
	;DEBUG_VALUE: hi <- [DW_OP_plus_uconst 164] [$sp+0]
	;DEBUG_VALUE: lo <- [DW_OP_plus_uconst 180] [$sp+0]
	;DEBUG_VALUE: mainSort:i <- [DW_OP_plus_uconst 64] [$sp+0]
	;DEBUG_VALUE: mainSort:ptr <- $x28
	;DEBUG_VALUE: mainSort:block <- $x24
	;DEBUG_VALUE: mainSort:quadrant <- [DW_OP_plus_uconst 264] [$sp+0]
	;DEBUG_VALUE: mainSort:ftab <- $x20
	;DEBUG_VALUE: mainSort:budget <- [DW_OP_plus_uconst 284, DW_OP_stack_value] $sp
	;DEBUG_VALUE: BZ2_blockSort:budget <- [DW_OP_plus_uconst 284, DW_OP_deref] $sp
	;DEBUG_VALUE: BZ2_blockSort:quadrant <- [DW_OP_plus_uconst 264] [$sp+0]
	;DEBUG_VALUE: BZ2_blockSort:nblock <- [DW_OP_plus_uconst 272] [$sp+0]
	;DEBUG_VALUE: BZ2_blockSort:block <- $x24
	;DEBUG_VALUE: BZ2_blockSort:ftab <- $x20
	;DEBUG_VALUE: BZ2_blockSort:ptr <- $x28
	;DEBUG_VALUE: mainQSort3:gtHi <- $w14
	;DEBUG_VALUE: mainQSort3:unHi <- $w13
	.loc	1 676 17 is_stmt 1              ; blocksort.c:676:17
	cmp	w10, w13
	b.gt	LBB0_69
Ltmp169:
; %bb.60:                               ; %.lr.ph298.preheader.i.i
                                        ;   in Loop: Header=BB0_59 Depth=5
	;DEBUG_VALUE: mainQSort3:unHi <- $w13
	;DEBUG_VALUE: mainQSort3:gtHi <- $w14
	;DEBUG_VALUE: mainQSort3:med <- [DW_OP_LLVM_convert 8 7, DW_OP_LLVM_convert 32 7, DW_OP_stack_value] $w15
	;DEBUG_VALUE: mainQSort3:d <- $w22
	;DEBUG_VALUE: mainQSort3:hi <- $w9
	;DEBUG_VALUE: mainQSort3:lo <- $w30
	;DEBUG_VALUE: mainQSort3:sp <- $w3
	;DEBUG_VALUE: mainQSort3:budget <- [DW_OP_plus_uconst 284, DW_OP_stack_value] $sp
	;DEBUG_VALUE: mainQSort3:dSt <- 2
	;DEBUG_VALUE: mainQSort3:hiSt <- [DW_OP_plus_uconst 164] [$sp+0]
	;DEBUG_VALUE: mainQSort3:loSt <- [DW_OP_plus_uconst 180] [$sp+0]
	;DEBUG_VALUE: mainQSort3:quadrant <- [DW_OP_plus_uconst 264] [$sp+0]
	;DEBUG_VALUE: mainQSort3:block <- $x24
	;DEBUG_VALUE: mainQSort3:ptr <- $x28
	;DEBUG_VALUE: mainSort:j <- [DW_OP_plus_uconst 96] [$sp+0]
	;DEBUG_VALUE: hi <- [DW_OP_plus_uconst 164] [$sp+0]
	;DEBUG_VALUE: lo <- [DW_OP_plus_uconst 180] [$sp+0]
	;DEBUG_VALUE: mainSort:i <- [DW_OP_plus_uconst 64] [$sp+0]
	;DEBUG_VALUE: mainSort:ptr <- $x28
	;DEBUG_VALUE: mainSort:block <- $x24
	;DEBUG_VALUE: mainSort:quadrant <- [DW_OP_plus_uconst 264] [$sp+0]
	;DEBUG_VALUE: mainSort:ftab <- $x20
	;DEBUG_VALUE: mainSort:budget <- [DW_OP_plus_uconst 284, DW_OP_stack_value] $sp
	;DEBUG_VALUE: BZ2_blockSort:budget <- [DW_OP_plus_uconst 284, DW_OP_deref] $sp
	;DEBUG_VALUE: BZ2_blockSort:quadrant <- [DW_OP_plus_uconst 264] [$sp+0]
	;DEBUG_VALUE: BZ2_blockSort:nblock <- [DW_OP_plus_uconst 272] [$sp+0]
	;DEBUG_VALUE: BZ2_blockSort:block <- $x24
	;DEBUG_VALUE: BZ2_blockSort:ftab <- $x20
	;DEBUG_VALUE: BZ2_blockSort:ptr <- $x28
	.loc	1 675 10                        ; blocksort.c:675:10
	mov	x16, x10
	sxtw	x16, w16
	sxtw	x14, w14
Ltmp170:
LBB0_61:                                ; %.lr.ph298.i.i
                                        ;   Parent Loop BB0_33 Depth=1
                                        ;     Parent Loop BB0_37 Depth=2
                                        ;       Parent Loop BB0_46 Depth=3
                                        ;         Parent Loop BB0_48 Depth=4
                                        ;           Parent Loop BB0_59 Depth=5
                                        ; =>          This Loop Header: Depth=6
                                        ;               Child Loop BB0_62 Depth 7
	;DEBUG_VALUE: mainQSort3:med <- [DW_OP_LLVM_convert 8 7, DW_OP_LLVM_convert 32 7, DW_OP_stack_value] $w15
	;DEBUG_VALUE: mainQSort3:d <- $w22
	;DEBUG_VALUE: mainQSort3:hi <- $w9
	;DEBUG_VALUE: mainQSort3:lo <- $w30
	;DEBUG_VALUE: mainQSort3:sp <- $w3
	;DEBUG_VALUE: mainQSort3:budget <- [DW_OP_plus_uconst 284, DW_OP_stack_value] $sp
	;DEBUG_VALUE: mainQSort3:dSt <- 2
	;DEBUG_VALUE: mainQSort3:hiSt <- [DW_OP_plus_uconst 164] [$sp+0]
	;DEBUG_VALUE: mainQSort3:loSt <- [DW_OP_plus_uconst 180] [$sp+0]
	;DEBUG_VALUE: mainQSort3:quadrant <- [DW_OP_plus_uconst 264] [$sp+0]
	;DEBUG_VALUE: mainQSort3:block <- $x24
	;DEBUG_VALUE: mainQSort3:ptr <- $x28
	;DEBUG_VALUE: mainSort:j <- [DW_OP_plus_uconst 96] [$sp+0]
	;DEBUG_VALUE: hi <- [DW_OP_plus_uconst 164] [$sp+0]
	;DEBUG_VALUE: lo <- [DW_OP_plus_uconst 180] [$sp+0]
	;DEBUG_VALUE: mainSort:i <- [DW_OP_plus_uconst 64] [$sp+0]
	;DEBUG_VALUE: mainSort:ptr <- $x28
	;DEBUG_VALUE: mainSort:block <- $x24
	;DEBUG_VALUE: mainSort:quadrant <- [DW_OP_plus_uconst 264] [$sp+0]
	;DEBUG_VALUE: mainSort:ftab <- $x20
	;DEBUG_VALUE: mainSort:budget <- [DW_OP_plus_uconst 284, DW_OP_stack_value] $sp
	;DEBUG_VALUE: BZ2_blockSort:budget <- [DW_OP_plus_uconst 284, DW_OP_deref] $sp
	;DEBUG_VALUE: BZ2_blockSort:quadrant <- [DW_OP_plus_uconst 264] [$sp+0]
	;DEBUG_VALUE: BZ2_blockSort:nblock <- [DW_OP_plus_uconst 272] [$sp+0]
	;DEBUG_VALUE: BZ2_blockSort:block <- $x24
	;DEBUG_VALUE: BZ2_blockSort:ftab <- $x20
	;DEBUG_VALUE: BZ2_blockSort:ptr <- $x28
	;DEBUG_VALUE: mainQSort3:gtHi <- $x14
	;DEBUG_VALUE: mainQSort3:unHi <- $w13
	.loc	1 676 17                        ; blocksort.c:676:17
	sxtw	x13, w13
Ltmp171:
	.loc	1 0 17 is_stmt 0                ; blocksort.c:0:17
	mov	x17, x13
Ltmp172:
LBB0_62:                                ;   Parent Loop BB0_33 Depth=1
                                        ;     Parent Loop BB0_37 Depth=2
                                        ;       Parent Loop BB0_46 Depth=3
                                        ;         Parent Loop BB0_48 Depth=4
                                        ;           Parent Loop BB0_59 Depth=5
                                        ;             Parent Loop BB0_61 Depth=6
                                        ; =>            This Inner Loop Header: Depth=7
	;DEBUG_VALUE: mainQSort3:gtHi <- $x14
	;DEBUG_VALUE: mainQSort3:med <- [DW_OP_LLVM_convert 8 7, DW_OP_LLVM_convert 32 7, DW_OP_stack_value] $w15
	;DEBUG_VALUE: mainQSort3:d <- $w22
	;DEBUG_VALUE: mainQSort3:hi <- $w9
	;DEBUG_VALUE: mainQSort3:lo <- $w30
	;DEBUG_VALUE: mainQSort3:sp <- $w3
	;DEBUG_VALUE: mainQSort3:budget <- [DW_OP_plus_uconst 284, DW_OP_stack_value] $sp
	;DEBUG_VALUE: mainQSort3:dSt <- 2
	;DEBUG_VALUE: mainQSort3:hiSt <- [DW_OP_plus_uconst 164] [$sp+0]
	;DEBUG_VALUE: mainQSort3:loSt <- [DW_OP_plus_uconst 180] [$sp+0]
	;DEBUG_VALUE: mainQSort3:quadrant <- [DW_OP_plus_uconst 264] [$sp+0]
	;DEBUG_VALUE: mainQSort3:block <- $x24
	;DEBUG_VALUE: mainQSort3:ptr <- $x28
	;DEBUG_VALUE: mainSort:j <- [DW_OP_plus_uconst 96] [$sp+0]
	;DEBUG_VALUE: hi <- [DW_OP_plus_uconst 164] [$sp+0]
	;DEBUG_VALUE: lo <- [DW_OP_plus_uconst 180] [$sp+0]
	;DEBUG_VALUE: mainSort:i <- [DW_OP_plus_uconst 64] [$sp+0]
	;DEBUG_VALUE: mainSort:ptr <- $x28
	;DEBUG_VALUE: mainSort:block <- $x24
	;DEBUG_VALUE: mainSort:quadrant <- [DW_OP_plus_uconst 264] [$sp+0]
	;DEBUG_VALUE: mainSort:ftab <- $x20
	;DEBUG_VALUE: mainSort:budget <- [DW_OP_plus_uconst 284, DW_OP_stack_value] $sp
	;DEBUG_VALUE: BZ2_blockSort:budget <- [DW_OP_plus_uconst 284, DW_OP_deref] $sp
	;DEBUG_VALUE: BZ2_blockSort:quadrant <- [DW_OP_plus_uconst 264] [$sp+0]
	;DEBUG_VALUE: BZ2_blockSort:nblock <- [DW_OP_plus_uconst 272] [$sp+0]
	;DEBUG_VALUE: BZ2_blockSort:block <- $x24
	;DEBUG_VALUE: BZ2_blockSort:ftab <- $x20
	;DEBUG_VALUE: BZ2_blockSort:ptr <- $x28
	;DEBUG_VALUE: mainQSort3:unHi <- $x17
	.loc	1 677 31 is_stmt 1              ; blocksort.c:677:31
	ldr	w0, [x28, x17, lsl  #2]
	.loc	1 677 40 is_stmt 0              ; blocksort.c:677:40
	add	w1, w0, w22
	.loc	1 677 25                        ; blocksort.c:677:25
	ldrb	w1, [x24, w1, uxtw]
Ltmp173:
	;DEBUG_VALUE: mainQSort3:n <- [DW_OP_LLVM_arg 0, DW_OP_LLVM_convert 8 7, DW_OP_LLVM_convert 32 7, DW_OP_LLVM_arg 1, DW_OP_LLVM_convert 8 7, DW_OP_LLVM_convert 32 7, DW_OP_minus, DW_OP_stack_value] $w1, $w15
	.loc	1 678 17 is_stmt 1              ; blocksort.c:678:17
	cmp	w1, w15
	b.eq	LBB0_65
Ltmp174:
; %bb.63:                               ;   in Loop: Header=BB0_62 Depth=7
	;DEBUG_VALUE: mainQSort3:n <- [DW_OP_LLVM_arg 0, DW_OP_LLVM_convert 8 7, DW_OP_LLVM_convert 32 7, DW_OP_LLVM_arg 1, DW_OP_LLVM_convert 8 7, DW_OP_LLVM_convert 32 7, DW_OP_minus, DW_OP_stack_value] $w1, $w15
	;DEBUG_VALUE: mainQSort3:unHi <- $x17
	;DEBUG_VALUE: mainQSort3:gtHi <- $x14
	;DEBUG_VALUE: mainQSort3:med <- [DW_OP_LLVM_convert 8 7, DW_OP_LLVM_convert 32 7, DW_OP_stack_value] $w15
	;DEBUG_VALUE: mainQSort3:d <- $w22
	;DEBUG_VALUE: mainQSort3:hi <- $w9
	;DEBUG_VALUE: mainQSort3:lo <- $w30
	;DEBUG_VALUE: mainQSort3:sp <- $w3
	;DEBUG_VALUE: mainQSort3:budget <- [DW_OP_plus_uconst 284, DW_OP_stack_value] $sp
	;DEBUG_VALUE: mainQSort3:dSt <- 2
	;DEBUG_VALUE: mainQSort3:hiSt <- [DW_OP_plus_uconst 164] [$sp+0]
	;DEBUG_VALUE: mainQSort3:loSt <- [DW_OP_plus_uconst 180] [$sp+0]
	;DEBUG_VALUE: mainQSort3:quadrant <- [DW_OP_plus_uconst 264] [$sp+0]
	;DEBUG_VALUE: mainQSort3:block <- $x24
	;DEBUG_VALUE: mainQSort3:ptr <- $x28
	;DEBUG_VALUE: mainSort:j <- [DW_OP_plus_uconst 96] [$sp+0]
	;DEBUG_VALUE: hi <- [DW_OP_plus_uconst 164] [$sp+0]
	;DEBUG_VALUE: lo <- [DW_OP_plus_uconst 180] [$sp+0]
	;DEBUG_VALUE: mainSort:i <- [DW_OP_plus_uconst 64] [$sp+0]
	;DEBUG_VALUE: mainSort:ptr <- $x28
	;DEBUG_VALUE: mainSort:block <- $x24
	;DEBUG_VALUE: mainSort:quadrant <- [DW_OP_plus_uconst 264] [$sp+0]
	;DEBUG_VALUE: mainSort:ftab <- $x20
	;DEBUG_VALUE: mainSort:budget <- [DW_OP_plus_uconst 284, DW_OP_stack_value] $sp
	;DEBUG_VALUE: BZ2_blockSort:budget <- [DW_OP_plus_uconst 284, DW_OP_deref] $sp
	;DEBUG_VALUE: BZ2_blockSort:quadrant <- [DW_OP_plus_uconst 264] [$sp+0]
	;DEBUG_VALUE: BZ2_blockSort:nblock <- [DW_OP_plus_uconst 272] [$sp+0]
	;DEBUG_VALUE: BZ2_blockSort:block <- $x24
	;DEBUG_VALUE: BZ2_blockSort:ftab <- $x20
	;DEBUG_VALUE: BZ2_blockSort:ptr <- $x28
	;DEBUG_VALUE: mainQSort3:n <- [DW_OP_LLVM_arg 0, DW_OP_LLVM_convert 8 7, DW_OP_LLVM_convert 32 7, DW_OP_LLVM_arg 0, DW_OP_LLVM_convert 8 7, DW_OP_LLVM_convert 32 7, DW_OP_minus, DW_OP_stack_value] undef
	.loc	1 682 17                        ; blocksort.c:682:17
	b.lo	LBB0_66
Ltmp175:
; %bb.64:                               ;   in Loop: Header=BB0_62 Depth=7
	;DEBUG_VALUE: mainQSort3:unHi <- $x17
	;DEBUG_VALUE: mainQSort3:gtHi <- $x14
	;DEBUG_VALUE: mainQSort3:med <- [DW_OP_LLVM_convert 8 7, DW_OP_LLVM_convert 32 7, DW_OP_stack_value] $w15
	;DEBUG_VALUE: mainQSort3:d <- $w22
	;DEBUG_VALUE: mainQSort3:hi <- $w9
	;DEBUG_VALUE: mainQSort3:lo <- $w30
	;DEBUG_VALUE: mainQSort3:sp <- $w3
	;DEBUG_VALUE: mainQSort3:budget <- [DW_OP_plus_uconst 284, DW_OP_stack_value] $sp
	;DEBUG_VALUE: mainQSort3:dSt <- 2
	;DEBUG_VALUE: mainQSort3:hiSt <- [DW_OP_plus_uconst 164] [$sp+0]
	;DEBUG_VALUE: mainQSort3:loSt <- [DW_OP_plus_uconst 180] [$sp+0]
	;DEBUG_VALUE: mainQSort3:quadrant <- [DW_OP_plus_uconst 264] [$sp+0]
	;DEBUG_VALUE: mainQSort3:block <- $x24
	;DEBUG_VALUE: mainQSort3:ptr <- $x28
	;DEBUG_VALUE: mainSort:j <- [DW_OP_plus_uconst 96] [$sp+0]
	;DEBUG_VALUE: hi <- [DW_OP_plus_uconst 164] [$sp+0]
	;DEBUG_VALUE: lo <- [DW_OP_plus_uconst 180] [$sp+0]
	;DEBUG_VALUE: mainSort:i <- [DW_OP_plus_uconst 64] [$sp+0]
	;DEBUG_VALUE: mainSort:ptr <- $x28
	;DEBUG_VALUE: mainSort:block <- $x24
	;DEBUG_VALUE: mainSort:quadrant <- [DW_OP_plus_uconst 264] [$sp+0]
	;DEBUG_VALUE: mainSort:ftab <- $x20
	;DEBUG_VALUE: mainSort:budget <- [DW_OP_plus_uconst 284, DW_OP_stack_value] $sp
	;DEBUG_VALUE: BZ2_blockSort:budget <- [DW_OP_plus_uconst 284, DW_OP_deref] $sp
	;DEBUG_VALUE: BZ2_blockSort:quadrant <- [DW_OP_plus_uconst 264] [$sp+0]
	;DEBUG_VALUE: BZ2_blockSort:nblock <- [DW_OP_plus_uconst 272] [$sp+0]
	;DEBUG_VALUE: BZ2_blockSort:block <- $x24
	;DEBUG_VALUE: BZ2_blockSort:ftab <- $x20
	;DEBUG_VALUE: BZ2_blockSort:ptr <- $x28
	.loc	1 683 17                        ; blocksort.c:683:17
	sub	x0, x17, #1
Ltmp176:
	;DEBUG_VALUE: mainQSort3:unHi <- $x0
	;DEBUG_VALUE: mainQSort3:gtHi <- $x14
	.loc	1 676 17                        ; blocksort.c:676:17
	cmp	x17, x16
	mov	x17, x0
Ltmp177:
	;DEBUG_VALUE: mainQSort3:unHi <- $x17
	b.gt	LBB0_62
	b	LBB0_67
Ltmp178:
LBB0_65:                                ; %.outer.i.i
                                        ;   in Loop: Header=BB0_61 Depth=6
	;DEBUG_VALUE: mainQSort3:n <- [DW_OP_LLVM_arg 0, DW_OP_LLVM_convert 8 7, DW_OP_LLVM_convert 32 7, DW_OP_LLVM_arg 1, DW_OP_LLVM_convert 8 7, DW_OP_LLVM_convert 32 7, DW_OP_minus, DW_OP_stack_value] $w1, $w15
	;DEBUG_VALUE: mainQSort3:unHi <- $x17
	;DEBUG_VALUE: mainQSort3:gtHi <- $x14
	;DEBUG_VALUE: mainQSort3:med <- [DW_OP_LLVM_convert 8 7, DW_OP_LLVM_convert 32 7, DW_OP_stack_value] $w15
	;DEBUG_VALUE: mainQSort3:d <- $w22
	;DEBUG_VALUE: mainQSort3:hi <- $w9
	;DEBUG_VALUE: mainQSort3:lo <- $w30
	;DEBUG_VALUE: mainQSort3:sp <- $w3
	;DEBUG_VALUE: mainQSort3:budget <- [DW_OP_plus_uconst 284, DW_OP_stack_value] $sp
	;DEBUG_VALUE: mainQSort3:dSt <- 2
	;DEBUG_VALUE: mainQSort3:hiSt <- [DW_OP_plus_uconst 164] [$sp+0]
	;DEBUG_VALUE: mainQSort3:loSt <- [DW_OP_plus_uconst 180] [$sp+0]
	;DEBUG_VALUE: mainQSort3:quadrant <- [DW_OP_plus_uconst 264] [$sp+0]
	;DEBUG_VALUE: mainQSort3:block <- $x24
	;DEBUG_VALUE: mainQSort3:ptr <- $x28
	;DEBUG_VALUE: mainSort:j <- [DW_OP_plus_uconst 96] [$sp+0]
	;DEBUG_VALUE: hi <- [DW_OP_plus_uconst 164] [$sp+0]
	;DEBUG_VALUE: lo <- [DW_OP_plus_uconst 180] [$sp+0]
	;DEBUG_VALUE: mainSort:i <- [DW_OP_plus_uconst 64] [$sp+0]
	;DEBUG_VALUE: mainSort:ptr <- $x28
	;DEBUG_VALUE: mainSort:block <- $x24
	;DEBUG_VALUE: mainSort:quadrant <- [DW_OP_plus_uconst 264] [$sp+0]
	;DEBUG_VALUE: mainSort:ftab <- $x20
	;DEBUG_VALUE: mainSort:budget <- [DW_OP_plus_uconst 284, DW_OP_stack_value] $sp
	;DEBUG_VALUE: BZ2_blockSort:budget <- [DW_OP_plus_uconst 284, DW_OP_deref] $sp
	;DEBUG_VALUE: BZ2_blockSort:quadrant <- [DW_OP_plus_uconst 264] [$sp+0]
	;DEBUG_VALUE: BZ2_blockSort:nblock <- [DW_OP_plus_uconst 272] [$sp+0]
	;DEBUG_VALUE: BZ2_blockSort:block <- $x24
	;DEBUG_VALUE: BZ2_blockSort:ftab <- $x20
	;DEBUG_VALUE: BZ2_blockSort:ptr <- $x28
	;DEBUG_VALUE: zztmp <- $w0
	.loc	1 679 55                        ; blocksort.c:679:55
	lsl	x13, x14, #2
	ldr	w1, [x28, x13]
Ltmp179:
	.loc	1 679 53 is_stmt 0              ; blocksort.c:679:53
	str	w1, [x28, x17, lsl  #2]
	.loc	1 679 76                        ; blocksort.c:679:76
	str	w0, [x28, x13]
Ltmp180:
	.loc	1 680 20 is_stmt 1              ; blocksort.c:680:20
	sub	x14, x14, #1
Ltmp181:
	;DEBUG_VALUE: mainQSort3:unHi <- [DW_OP_LLVM_convert 64 7, DW_OP_LLVM_convert 32 7, DW_OP_constu 1, DW_OP_minus, DW_OP_stack_value] $x17
	;DEBUG_VALUE: mainQSort3:gtHi <- $x14
	.loc	1 676 22                        ; blocksort.c:676:22
	sub	w13, w17, #1
Ltmp182:
	.loc	1 676 17 is_stmt 0              ; blocksort.c:676:17
	cmp	w10, w17
	b.lt	LBB0_61
	b	LBB0_68
Ltmp183:
LBB0_66:                                ;   in Loop: Header=BB0_59 Depth=5
	;DEBUG_VALUE: mainQSort3:unHi <- $x17
	;DEBUG_VALUE: mainQSort3:gtHi <- $x14
	;DEBUG_VALUE: mainQSort3:med <- [DW_OP_LLVM_convert 8 7, DW_OP_LLVM_convert 32 7, DW_OP_stack_value] $w15
	;DEBUG_VALUE: mainQSort3:d <- $w22
	;DEBUG_VALUE: mainQSort3:hi <- $w9
	;DEBUG_VALUE: mainQSort3:lo <- $w30
	;DEBUG_VALUE: mainQSort3:sp <- $w3
	;DEBUG_VALUE: mainQSort3:budget <- [DW_OP_plus_uconst 284, DW_OP_stack_value] $sp
	;DEBUG_VALUE: mainQSort3:dSt <- 2
	;DEBUG_VALUE: mainQSort3:hiSt <- [DW_OP_plus_uconst 164] [$sp+0]
	;DEBUG_VALUE: mainQSort3:loSt <- [DW_OP_plus_uconst 180] [$sp+0]
	;DEBUG_VALUE: mainQSort3:quadrant <- [DW_OP_plus_uconst 264] [$sp+0]
	;DEBUG_VALUE: mainQSort3:block <- $x24
	;DEBUG_VALUE: mainQSort3:ptr <- $x28
	;DEBUG_VALUE: mainSort:j <- [DW_OP_plus_uconst 96] [$sp+0]
	;DEBUG_VALUE: hi <- [DW_OP_plus_uconst 164] [$sp+0]
	;DEBUG_VALUE: lo <- [DW_OP_plus_uconst 180] [$sp+0]
	;DEBUG_VALUE: mainSort:i <- [DW_OP_plus_uconst 64] [$sp+0]
	;DEBUG_VALUE: mainSort:ptr <- $x28
	;DEBUG_VALUE: mainSort:block <- $x24
	;DEBUG_VALUE: mainSort:quadrant <- [DW_OP_plus_uconst 264] [$sp+0]
	;DEBUG_VALUE: mainSort:ftab <- $x20
	;DEBUG_VALUE: mainSort:budget <- [DW_OP_plus_uconst 284, DW_OP_stack_value] $sp
	;DEBUG_VALUE: BZ2_blockSort:budget <- [DW_OP_plus_uconst 284, DW_OP_deref] $sp
	;DEBUG_VALUE: BZ2_blockSort:quadrant <- [DW_OP_plus_uconst 264] [$sp+0]
	;DEBUG_VALUE: BZ2_blockSort:nblock <- [DW_OP_plus_uconst 272] [$sp+0]
	;DEBUG_VALUE: BZ2_blockSort:block <- $x24
	;DEBUG_VALUE: BZ2_blockSort:ftab <- $x20
	;DEBUG_VALUE: BZ2_blockSort:ptr <- $x28
	.loc	1 686 26 is_stmt 1              ; blocksort.c:686:26
	lsl	x13, x16, #2
	ldr	w16, [x28, x13]
Ltmp184:
	;DEBUG_VALUE: zztmp <- $w16
	.loc	1 686 47 is_stmt 0              ; blocksort.c:686:47
	str	w0, [x28, x13]
	.loc	1 686 70                        ; blocksort.c:686:70
	str	w16, [x28, x17, lsl  #2]
Ltmp185:
	.loc	1 686 86                        ; blocksort.c:686:86
	add	w10, w10, #1
Ltmp186:
	;DEBUG_VALUE: mainQSort3:unHi <- [DW_OP_LLVM_convert 64 7, DW_OP_LLVM_convert 32 7, DW_OP_constu 1, DW_OP_minus, DW_OP_stack_value] undef
	;DEBUG_VALUE: mainQSort3:unLo <- $w10
	.loc	1 664 7 is_stmt 1               ; blocksort.c:664:7
	sub	w13, w17, #1
                                        ; kill: def $w14 killed $w14 killed $x14 def $x14
Ltmp187:
	;DEBUG_VALUE: mainQSort3:ltLo <- $w11
	;DEBUG_VALUE: mainQSort3:unLo <- $w10
	;DEBUG_VALUE: mainQSort3:gtHi <- $w14
	;DEBUG_VALUE: mainQSort3:unHi <- $w13
	.loc	1 666 17                        ; blocksort.c:666:17
	cmp	w10, w13
	b.le	LBB0_50
	b	LBB0_59
Ltmp188:
LBB0_67:                                ; %.critedge.loopexit.i.i
                                        ;   in Loop: Header=BB0_48 Depth=4
	;DEBUG_VALUE: mainQSort3:unHi <- $x17
	;DEBUG_VALUE: mainQSort3:gtHi <- $x14
	;DEBUG_VALUE: mainQSort3:med <- [DW_OP_LLVM_convert 8 7, DW_OP_LLVM_convert 32 7, DW_OP_stack_value] $w15
	;DEBUG_VALUE: mainQSort3:d <- $w22
	;DEBUG_VALUE: mainQSort3:hi <- $w9
	;DEBUG_VALUE: mainQSort3:lo <- $w30
	;DEBUG_VALUE: mainQSort3:sp <- $w3
	;DEBUG_VALUE: mainQSort3:budget <- [DW_OP_plus_uconst 284, DW_OP_stack_value] $sp
	;DEBUG_VALUE: mainQSort3:dSt <- 2
	;DEBUG_VALUE: mainQSort3:hiSt <- [DW_OP_plus_uconst 164] [$sp+0]
	;DEBUG_VALUE: mainQSort3:loSt <- [DW_OP_plus_uconst 180] [$sp+0]
	;DEBUG_VALUE: mainQSort3:quadrant <- [DW_OP_plus_uconst 264] [$sp+0]
	;DEBUG_VALUE: mainQSort3:block <- $x24
	;DEBUG_VALUE: mainQSort3:ptr <- $x28
	;DEBUG_VALUE: mainSort:j <- [DW_OP_plus_uconst 96] [$sp+0]
	;DEBUG_VALUE: hi <- [DW_OP_plus_uconst 164] [$sp+0]
	;DEBUG_VALUE: lo <- [DW_OP_plus_uconst 180] [$sp+0]
	;DEBUG_VALUE: mainSort:i <- [DW_OP_plus_uconst 64] [$sp+0]
	;DEBUG_VALUE: mainSort:ptr <- $x28
	;DEBUG_VALUE: mainSort:block <- $x24
	;DEBUG_VALUE: mainSort:quadrant <- [DW_OP_plus_uconst 264] [$sp+0]
	;DEBUG_VALUE: mainSort:ftab <- $x20
	;DEBUG_VALUE: mainSort:budget <- [DW_OP_plus_uconst 284, DW_OP_stack_value] $sp
	;DEBUG_VALUE: BZ2_blockSort:budget <- [DW_OP_plus_uconst 284, DW_OP_deref] $sp
	;DEBUG_VALUE: BZ2_blockSort:quadrant <- [DW_OP_plus_uconst 264] [$sp+0]
	;DEBUG_VALUE: BZ2_blockSort:nblock <- [DW_OP_plus_uconst 272] [$sp+0]
	;DEBUG_VALUE: BZ2_blockSort:block <- $x24
	;DEBUG_VALUE: BZ2_blockSort:ftab <- $x20
	;DEBUG_VALUE: BZ2_blockSort:ptr <- $x28
	.loc	1 676 17                        ; blocksort.c:676:17
	cmp	x13, x16
	csel	x13, x13, x16, lt
Ltmp189:
	.loc	1 691 16                        ; blocksort.c:691:16
	sub	w13, w13, #1
Ltmp190:
LBB0_68:                                ; %.critedge.loopexit337.i.i
                                        ;   in Loop: Header=BB0_48 Depth=4
	;DEBUG_VALUE: mainQSort3:gtHi <- $x14
	;DEBUG_VALUE: mainQSort3:med <- [DW_OP_LLVM_convert 8 7, DW_OP_LLVM_convert 32 7, DW_OP_stack_value] $w15
	;DEBUG_VALUE: mainQSort3:d <- $w22
	;DEBUG_VALUE: mainQSort3:hi <- $w9
	;DEBUG_VALUE: mainQSort3:lo <- $w30
	;DEBUG_VALUE: mainQSort3:sp <- $w3
	;DEBUG_VALUE: mainQSort3:budget <- [DW_OP_plus_uconst 284, DW_OP_stack_value] $sp
	;DEBUG_VALUE: mainQSort3:dSt <- 2
	;DEBUG_VALUE: mainQSort3:hiSt <- [DW_OP_plus_uconst 164] [$sp+0]
	;DEBUG_VALUE: mainQSort3:loSt <- [DW_OP_plus_uconst 180] [$sp+0]
	;DEBUG_VALUE: mainQSort3:quadrant <- [DW_OP_plus_uconst 264] [$sp+0]
	;DEBUG_VALUE: mainQSort3:block <- $x24
	;DEBUG_VALUE: mainQSort3:ptr <- $x28
	;DEBUG_VALUE: mainSort:j <- [DW_OP_plus_uconst 96] [$sp+0]
	;DEBUG_VALUE: hi <- [DW_OP_plus_uconst 164] [$sp+0]
	;DEBUG_VALUE: lo <- [DW_OP_plus_uconst 180] [$sp+0]
	;DEBUG_VALUE: mainSort:i <- [DW_OP_plus_uconst 64] [$sp+0]
	;DEBUG_VALUE: mainSort:ptr <- $x28
	;DEBUG_VALUE: mainSort:block <- $x24
	;DEBUG_VALUE: mainSort:quadrant <- [DW_OP_plus_uconst 264] [$sp+0]
	;DEBUG_VALUE: mainSort:ftab <- $x20
	;DEBUG_VALUE: mainSort:budget <- [DW_OP_plus_uconst 284, DW_OP_stack_value] $sp
	;DEBUG_VALUE: BZ2_blockSort:budget <- [DW_OP_plus_uconst 284, DW_OP_deref] $sp
	;DEBUG_VALUE: BZ2_blockSort:quadrant <- [DW_OP_plus_uconst 264] [$sp+0]
	;DEBUG_VALUE: BZ2_blockSort:nblock <- [DW_OP_plus_uconst 272] [$sp+0]
	;DEBUG_VALUE: BZ2_blockSort:block <- $x24
	;DEBUG_VALUE: BZ2_blockSort:ftab <- $x20
	;DEBUG_VALUE: BZ2_blockSort:ptr <- $x28
                                        ; kill: def $w14 killed $w14 killed $x14 def $x14
LBB0_69:                                ; %.critedge.i.i
                                        ;   in Loop: Header=BB0_48 Depth=4
	;DEBUG_VALUE: mainQSort3:med <- [DW_OP_LLVM_convert 8 7, DW_OP_LLVM_convert 32 7, DW_OP_stack_value] $w15
	;DEBUG_VALUE: mainQSort3:d <- $w22
	;DEBUG_VALUE: mainQSort3:hi <- $w9
	;DEBUG_VALUE: mainQSort3:lo <- $w30
	;DEBUG_VALUE: mainQSort3:sp <- $w3
	;DEBUG_VALUE: mainQSort3:budget <- [DW_OP_plus_uconst 284, DW_OP_stack_value] $sp
	;DEBUG_VALUE: mainQSort3:dSt <- 2
	;DEBUG_VALUE: mainQSort3:hiSt <- [DW_OP_plus_uconst 164] [$sp+0]
	;DEBUG_VALUE: mainQSort3:loSt <- [DW_OP_plus_uconst 180] [$sp+0]
	;DEBUG_VALUE: mainQSort3:quadrant <- [DW_OP_plus_uconst 264] [$sp+0]
	;DEBUG_VALUE: mainQSort3:block <- $x24
	;DEBUG_VALUE: mainQSort3:ptr <- $x28
	;DEBUG_VALUE: mainSort:j <- [DW_OP_plus_uconst 96] [$sp+0]
	;DEBUG_VALUE: hi <- [DW_OP_plus_uconst 164] [$sp+0]
	;DEBUG_VALUE: lo <- [DW_OP_plus_uconst 180] [$sp+0]
	;DEBUG_VALUE: mainSort:i <- [DW_OP_plus_uconst 64] [$sp+0]
	;DEBUG_VALUE: mainSort:ptr <- $x28
	;DEBUG_VALUE: mainSort:block <- $x24
	;DEBUG_VALUE: mainSort:quadrant <- [DW_OP_plus_uconst 264] [$sp+0]
	;DEBUG_VALUE: mainSort:ftab <- $x20
	;DEBUG_VALUE: mainSort:budget <- [DW_OP_plus_uconst 284, DW_OP_stack_value] $sp
	;DEBUG_VALUE: BZ2_blockSort:budget <- [DW_OP_plus_uconst 284, DW_OP_deref] $sp
	;DEBUG_VALUE: BZ2_blockSort:quadrant <- [DW_OP_plus_uconst 264] [$sp+0]
	;DEBUG_VALUE: BZ2_blockSort:nblock <- [DW_OP_plus_uconst 272] [$sp+0]
	;DEBUG_VALUE: BZ2_blockSort:block <- $x24
	;DEBUG_VALUE: BZ2_blockSort:ftab <- $x20
	;DEBUG_VALUE: BZ2_blockSort:ptr <- $x28
	.loc	1 691 11 is_stmt 0              ; blocksort.c:691:11
	cmp	w14, w11
	b.ge	LBB0_94
Ltmp191:
; %bb.70:                               ;   in Loop: Header=BB0_48 Depth=4
	;DEBUG_VALUE: mainQSort3:med <- [DW_OP_LLVM_convert 8 7, DW_OP_LLVM_convert 32 7, DW_OP_stack_value] $w15
	;DEBUG_VALUE: mainQSort3:d <- $w22
	;DEBUG_VALUE: mainQSort3:hi <- $w9
	;DEBUG_VALUE: mainQSort3:lo <- $w30
	;DEBUG_VALUE: mainQSort3:sp <- $w3
	;DEBUG_VALUE: mainQSort3:budget <- [DW_OP_plus_uconst 284, DW_OP_stack_value] $sp
	;DEBUG_VALUE: mainQSort3:dSt <- 2
	;DEBUG_VALUE: mainQSort3:hiSt <- [DW_OP_plus_uconst 164] [$sp+0]
	;DEBUG_VALUE: mainQSort3:loSt <- [DW_OP_plus_uconst 180] [$sp+0]
	;DEBUG_VALUE: mainQSort3:quadrant <- [DW_OP_plus_uconst 264] [$sp+0]
	;DEBUG_VALUE: mainQSort3:block <- $x24
	;DEBUG_VALUE: mainQSort3:ptr <- $x28
	;DEBUG_VALUE: mainSort:j <- [DW_OP_plus_uconst 96] [$sp+0]
	;DEBUG_VALUE: hi <- [DW_OP_plus_uconst 164] [$sp+0]
	;DEBUG_VALUE: lo <- [DW_OP_plus_uconst 180] [$sp+0]
	;DEBUG_VALUE: mainSort:i <- [DW_OP_plus_uconst 64] [$sp+0]
	;DEBUG_VALUE: mainSort:ptr <- $x28
	;DEBUG_VALUE: mainSort:block <- $x24
	;DEBUG_VALUE: mainSort:quadrant <- [DW_OP_plus_uconst 264] [$sp+0]
	;DEBUG_VALUE: mainSort:ftab <- $x20
	;DEBUG_VALUE: mainSort:budget <- [DW_OP_plus_uconst 284, DW_OP_stack_value] $sp
	;DEBUG_VALUE: BZ2_blockSort:budget <- [DW_OP_plus_uconst 284, DW_OP_deref] $sp
	;DEBUG_VALUE: BZ2_blockSort:quadrant <- [DW_OP_plus_uconst 264] [$sp+0]
	;DEBUG_VALUE: BZ2_blockSort:nblock <- [DW_OP_plus_uconst 272] [$sp+0]
	;DEBUG_VALUE: BZ2_blockSort:block <- $x24
	;DEBUG_VALUE: BZ2_blockSort:ftab <- $x20
	;DEBUG_VALUE: BZ2_blockSort:ptr <- $x28
	.loc	1 692 63 is_stmt 1              ; blocksort.c:692:63
	add	w8, w22, #1
	.loc	1 692 60 is_stmt 0              ; blocksort.c:692:60
	str	w8, [x7, x3, lsl  #2]
Ltmp192:
	;DEBUG_VALUE: mainQSort3:sp <- $w27
	.loc	1 646 13 is_stmt 1              ; blocksort.c:646:13
	cmp	w27, #98
	b.hs	LBB0_47
	b	LBB0_48
Ltmp193:
LBB0_71:                                ;   in Loop: Header=BB0_46 Depth=3
	;DEBUG_VALUE: mainQSort3:d <- $w22
	;DEBUG_VALUE: mainQSort3:hi <- $w9
	;DEBUG_VALUE: mainQSort3:lo <- $w30
	;DEBUG_VALUE: mainQSort3:sp <- $w3
	;DEBUG_VALUE: mainQSort3:budget <- [DW_OP_plus_uconst 284, DW_OP_stack_value] $sp
	;DEBUG_VALUE: mainQSort3:dSt <- 2
	;DEBUG_VALUE: mainQSort3:hiSt <- [DW_OP_plus_uconst 164] [$sp+0]
	;DEBUG_VALUE: mainQSort3:loSt <- [DW_OP_plus_uconst 180] [$sp+0]
	;DEBUG_VALUE: mainQSort3:quadrant <- [DW_OP_plus_uconst 264] [$sp+0]
	;DEBUG_VALUE: mainQSort3:block <- $x24
	;DEBUG_VALUE: mainQSort3:ptr <- $x28
	;DEBUG_VALUE: mainSort:j <- [DW_OP_plus_uconst 96] [$sp+0]
	;DEBUG_VALUE: hi <- [DW_OP_plus_uconst 164] [$sp+0]
	;DEBUG_VALUE: lo <- [DW_OP_plus_uconst 180] [$sp+0]
	;DEBUG_VALUE: mainSort:i <- [DW_OP_plus_uconst 64] [$sp+0]
	;DEBUG_VALUE: mainSort:ptr <- $x28
	;DEBUG_VALUE: mainSort:block <- $x24
	;DEBUG_VALUE: mainSort:quadrant <- [DW_OP_plus_uconst 264] [$sp+0]
	;DEBUG_VALUE: mainSort:ftab <- $x20
	;DEBUG_VALUE: mainSort:budget <- [DW_OP_plus_uconst 284, DW_OP_stack_value] $sp
	;DEBUG_VALUE: BZ2_blockSort:budget <- [DW_OP_plus_uconst 284, DW_OP_deref] $sp
	;DEBUG_VALUE: BZ2_blockSort:quadrant <- [DW_OP_plus_uconst 264] [$sp+0]
	;DEBUG_VALUE: BZ2_blockSort:nblock <- [DW_OP_plus_uconst 272] [$sp+0]
	;DEBUG_VALUE: BZ2_blockSort:block <- $x24
	;DEBUG_VALUE: BZ2_blockSort:ftab <- $x20
	;DEBUG_VALUE: BZ2_blockSort:ptr <- $x28
	;DEBUG_VALUE: mainSimpleSort:ptr <- $x28
	;DEBUG_VALUE: mainSimpleSort:block <- $x24
	;DEBUG_VALUE: mainSimpleSort:quadrant <- [DW_OP_plus_uconst 264] [$sp+0]
	;DEBUG_VALUE: mainSimpleSort:lo <- $w30
	;DEBUG_VALUE: mainSimpleSort:hi <- undef
	;DEBUG_VALUE: mainSimpleSort:d <- $w22
	;DEBUG_VALUE: mainSimpleSort:budget <- [DW_OP_plus_uconst 284, DW_OP_stack_value] $sp
	;DEBUG_VALUE: mainSimpleSort:bigN <- [DW_OP_plus_uconst 1, DW_OP_stack_value] $w10
	.loc	1 498 8                         ; blocksort.c:498:8
	cmp	w10, #1
Ltmp194:
	;DEBUG_VALUE: mainSimpleSort:nblock <- undef
	b.lt	LBB0_44
Ltmp195:
; %bb.72:                               ; %.preheader120.i.i.i.preheader
                                        ;   in Loop: Header=BB0_46 Depth=3
	;DEBUG_VALUE: mainSimpleSort:bigN <- [DW_OP_plus_uconst 1, DW_OP_stack_value] $w10
	;DEBUG_VALUE: mainSimpleSort:budget <- [DW_OP_plus_uconst 284, DW_OP_stack_value] $sp
	;DEBUG_VALUE: mainSimpleSort:d <- $w22
	;DEBUG_VALUE: mainSimpleSort:lo <- $w30
	;DEBUG_VALUE: mainSimpleSort:quadrant <- [DW_OP_plus_uconst 264] [$sp+0]
	;DEBUG_VALUE: mainSimpleSort:block <- $x24
	;DEBUG_VALUE: mainSimpleSort:ptr <- $x28
	;DEBUG_VALUE: mainQSort3:d <- $w22
	;DEBUG_VALUE: mainQSort3:hi <- $w9
	;DEBUG_VALUE: mainQSort3:lo <- $w30
	;DEBUG_VALUE: mainQSort3:sp <- $w3
	;DEBUG_VALUE: mainQSort3:budget <- [DW_OP_plus_uconst 284, DW_OP_stack_value] $sp
	;DEBUG_VALUE: mainQSort3:dSt <- 2
	;DEBUG_VALUE: mainQSort3:hiSt <- [DW_OP_plus_uconst 164] [$sp+0]
	;DEBUG_VALUE: mainQSort3:loSt <- [DW_OP_plus_uconst 180] [$sp+0]
	;DEBUG_VALUE: mainQSort3:quadrant <- [DW_OP_plus_uconst 264] [$sp+0]
	;DEBUG_VALUE: mainQSort3:block <- $x24
	;DEBUG_VALUE: mainQSort3:ptr <- $x28
	;DEBUG_VALUE: mainSort:j <- [DW_OP_plus_uconst 96] [$sp+0]
	;DEBUG_VALUE: hi <- [DW_OP_plus_uconst 164] [$sp+0]
	;DEBUG_VALUE: lo <- [DW_OP_plus_uconst 180] [$sp+0]
	;DEBUG_VALUE: mainSort:i <- [DW_OP_plus_uconst 64] [$sp+0]
	;DEBUG_VALUE: mainSort:ptr <- $x28
	;DEBUG_VALUE: mainSort:block <- $x24
	;DEBUG_VALUE: mainSort:quadrant <- [DW_OP_plus_uconst 264] [$sp+0]
	;DEBUG_VALUE: mainSort:ftab <- $x20
	;DEBUG_VALUE: mainSort:budget <- [DW_OP_plus_uconst 284, DW_OP_stack_value] $sp
	;DEBUG_VALUE: BZ2_blockSort:budget <- [DW_OP_plus_uconst 284, DW_OP_deref] $sp
	;DEBUG_VALUE: BZ2_blockSort:quadrant <- [DW_OP_plus_uconst 264] [$sp+0]
	;DEBUG_VALUE: BZ2_blockSort:nblock <- [DW_OP_plus_uconst 272] [$sp+0]
	;DEBUG_VALUE: BZ2_blockSort:block <- $x24
	;DEBUG_VALUE: BZ2_blockSort:ftab <- $x20
	;DEBUG_VALUE: BZ2_blockSort:ptr <- $x28
	.loc	1 0 8 is_stmt 0                 ; blocksort.c:0:8
	mov	x8, #0
Lloh141:
	adrp	x11, _incs@PAGE
Lloh142:
	add	x11, x11, _incs@PAGEOFF
Ltmp196:
LBB0_73:                                ; %.preheader120.i.i.i
                                        ;   Parent Loop BB0_33 Depth=1
                                        ;     Parent Loop BB0_37 Depth=2
                                        ;       Parent Loop BB0_46 Depth=3
                                        ; =>      This Inner Loop Header: Depth=4
	;DEBUG_VALUE: mainSimpleSort:bigN <- [DW_OP_plus_uconst 1, DW_OP_stack_value] $w10
	;DEBUG_VALUE: mainSimpleSort:budget <- [DW_OP_plus_uconst 284, DW_OP_stack_value] $sp
	;DEBUG_VALUE: mainSimpleSort:d <- $w22
	;DEBUG_VALUE: mainSimpleSort:lo <- $w30
	;DEBUG_VALUE: mainSimpleSort:quadrant <- [DW_OP_plus_uconst 264] [$sp+0]
	;DEBUG_VALUE: mainSimpleSort:block <- $x24
	;DEBUG_VALUE: mainSimpleSort:ptr <- $x28
	;DEBUG_VALUE: mainQSort3:d <- $w22
	;DEBUG_VALUE: mainQSort3:lo <- $w30
	;DEBUG_VALUE: mainQSort3:sp <- $w3
	;DEBUG_VALUE: mainQSort3:budget <- [DW_OP_plus_uconst 284, DW_OP_stack_value] $sp
	;DEBUG_VALUE: mainQSort3:dSt <- 2
	;DEBUG_VALUE: mainQSort3:hiSt <- [DW_OP_plus_uconst 164] [$sp+0]
	;DEBUG_VALUE: mainQSort3:loSt <- [DW_OP_plus_uconst 180] [$sp+0]
	;DEBUG_VALUE: mainQSort3:quadrant <- [DW_OP_plus_uconst 264] [$sp+0]
	;DEBUG_VALUE: mainQSort3:block <- $x24
	;DEBUG_VALUE: mainQSort3:ptr <- $x28
	;DEBUG_VALUE: mainSort:j <- [DW_OP_plus_uconst 96] [$sp+0]
	;DEBUG_VALUE: hi <- [DW_OP_plus_uconst 164] [$sp+0]
	;DEBUG_VALUE: lo <- [DW_OP_plus_uconst 180] [$sp+0]
	;DEBUG_VALUE: mainSort:i <- [DW_OP_plus_uconst 64] [$sp+0]
	;DEBUG_VALUE: mainSort:ptr <- $x28
	;DEBUG_VALUE: mainSort:block <- $x24
	;DEBUG_VALUE: mainSort:quadrant <- [DW_OP_plus_uconst 264] [$sp+0]
	;DEBUG_VALUE: mainSort:ftab <- $x20
	;DEBUG_VALUE: mainSort:budget <- [DW_OP_plus_uconst 284, DW_OP_stack_value] $sp
	;DEBUG_VALUE: BZ2_blockSort:budget <- [DW_OP_plus_uconst 284, DW_OP_deref] $sp
	;DEBUG_VALUE: BZ2_blockSort:quadrant <- [DW_OP_plus_uconst 264] [$sp+0]
	;DEBUG_VALUE: BZ2_blockSort:nblock <- [DW_OP_plus_uconst 272] [$sp+0]
	;DEBUG_VALUE: BZ2_blockSort:block <- $x24
	;DEBUG_VALUE: BZ2_blockSort:ftab <- $x20
	;DEBUG_VALUE: BZ2_blockSort:ptr <- $x28
	;DEBUG_VALUE: mainSimpleSort:hp <- $x8
	.loc	1 501 11 is_stmt 1              ; blocksort.c:501:11
	ldr	w9, [x11, x8, lsl  #2]
	.loc	1 501 30 is_stmt 0              ; blocksort.c:501:30
	add	x8, x8, #1
Ltmp197:
	;DEBUG_VALUE: mainSimpleSort:hp <- $x8
	.loc	1 501 4                         ; blocksort.c:501:4
	cmp	w9, w10
	b.le	LBB0_73
Ltmp198:
; %bb.74:                               ; %.preheader.i.i.i
                                        ;   in Loop: Header=BB0_46 Depth=3
	;DEBUG_VALUE: mainSimpleSort:hp <- $x8
	;DEBUG_VALUE: mainSimpleSort:bigN <- [DW_OP_plus_uconst 1, DW_OP_stack_value] $w10
	;DEBUG_VALUE: mainSimpleSort:budget <- [DW_OP_plus_uconst 284, DW_OP_stack_value] $sp
	;DEBUG_VALUE: mainSimpleSort:d <- $w22
	;DEBUG_VALUE: mainSimpleSort:lo <- $w30
	;DEBUG_VALUE: mainSimpleSort:quadrant <- [DW_OP_plus_uconst 264] [$sp+0]
	;DEBUG_VALUE: mainSimpleSort:block <- $x24
	;DEBUG_VALUE: mainSimpleSort:ptr <- $x28
	;DEBUG_VALUE: mainQSort3:d <- $w22
	;DEBUG_VALUE: mainQSort3:lo <- $w30
	;DEBUG_VALUE: mainQSort3:sp <- $w3
	;DEBUG_VALUE: mainQSort3:budget <- [DW_OP_plus_uconst 284, DW_OP_stack_value] $sp
	;DEBUG_VALUE: mainQSort3:dSt <- 2
	;DEBUG_VALUE: mainQSort3:hiSt <- [DW_OP_plus_uconst 164] [$sp+0]
	;DEBUG_VALUE: mainQSort3:loSt <- [DW_OP_plus_uconst 180] [$sp+0]
	;DEBUG_VALUE: mainQSort3:quadrant <- [DW_OP_plus_uconst 264] [$sp+0]
	;DEBUG_VALUE: mainQSort3:block <- $x24
	;DEBUG_VALUE: mainQSort3:ptr <- $x28
	;DEBUG_VALUE: mainSort:j <- [DW_OP_plus_uconst 96] [$sp+0]
	;DEBUG_VALUE: hi <- [DW_OP_plus_uconst 164] [$sp+0]
	;DEBUG_VALUE: lo <- [DW_OP_plus_uconst 180] [$sp+0]
	;DEBUG_VALUE: mainSort:i <- [DW_OP_plus_uconst 64] [$sp+0]
	;DEBUG_VALUE: mainSort:ptr <- $x28
	;DEBUG_VALUE: mainSort:block <- $x24
	;DEBUG_VALUE: mainSort:quadrant <- [DW_OP_plus_uconst 264] [$sp+0]
	;DEBUG_VALUE: mainSort:ftab <- $x20
	;DEBUG_VALUE: mainSort:budget <- [DW_OP_plus_uconst 284, DW_OP_stack_value] $sp
	;DEBUG_VALUE: BZ2_blockSort:budget <- [DW_OP_plus_uconst 284, DW_OP_deref] $sp
	;DEBUG_VALUE: BZ2_blockSort:quadrant <- [DW_OP_plus_uconst 264] [$sp+0]
	;DEBUG_VALUE: BZ2_blockSort:nblock <- [DW_OP_plus_uconst 272] [$sp+0]
	;DEBUG_VALUE: BZ2_blockSort:block <- $x24
	;DEBUG_VALUE: BZ2_blockSort:ftab <- $x20
	;DEBUG_VALUE: BZ2_blockSort:ptr <- $x28
	;DEBUG_VALUE: mainSimpleSort:hp <- [DW_OP_LLVM_convert 64 7, DW_OP_LLVM_convert 32 7, DW_OP_constu 1, DW_OP_minus, DW_OP_stack_value] $x8
	.loc	1 504 14 is_stmt 1              ; blocksort.c:504:14
	sub	x8, x8, #1
Ltmp199:
	.loc	1 504 4 is_stmt 0               ; blocksort.c:504:4
	cbz	w8, LBB0_44
Ltmp200:
; %bb.75:                               ; %.lr.ph.preheader.i.i.i
                                        ;   in Loop: Header=BB0_46 Depth=3
	;DEBUG_VALUE: mainSimpleSort:bigN <- [DW_OP_plus_uconst 1, DW_OP_stack_value] $w10
	;DEBUG_VALUE: mainSimpleSort:budget <- [DW_OP_plus_uconst 284, DW_OP_stack_value] $sp
	;DEBUG_VALUE: mainSimpleSort:d <- $w22
	;DEBUG_VALUE: mainSimpleSort:lo <- $w30
	;DEBUG_VALUE: mainSimpleSort:quadrant <- [DW_OP_plus_uconst 264] [$sp+0]
	;DEBUG_VALUE: mainSimpleSort:block <- $x24
	;DEBUG_VALUE: mainSimpleSort:ptr <- $x28
	;DEBUG_VALUE: mainQSort3:d <- $w22
	;DEBUG_VALUE: mainQSort3:lo <- $w30
	;DEBUG_VALUE: mainQSort3:sp <- $w3
	;DEBUG_VALUE: mainQSort3:budget <- [DW_OP_plus_uconst 284, DW_OP_stack_value] $sp
	;DEBUG_VALUE: mainQSort3:dSt <- 2
	;DEBUG_VALUE: mainQSort3:hiSt <- [DW_OP_plus_uconst 164] [$sp+0]
	;DEBUG_VALUE: mainQSort3:loSt <- [DW_OP_plus_uconst 180] [$sp+0]
	;DEBUG_VALUE: mainQSort3:quadrant <- [DW_OP_plus_uconst 264] [$sp+0]
	;DEBUG_VALUE: mainQSort3:block <- $x24
	;DEBUG_VALUE: mainQSort3:ptr <- $x28
	;DEBUG_VALUE: mainSort:j <- [DW_OP_plus_uconst 96] [$sp+0]
	;DEBUG_VALUE: hi <- [DW_OP_plus_uconst 164] [$sp+0]
	;DEBUG_VALUE: lo <- [DW_OP_plus_uconst 180] [$sp+0]
	;DEBUG_VALUE: mainSort:i <- [DW_OP_plus_uconst 64] [$sp+0]
	;DEBUG_VALUE: mainSort:ptr <- $x28
	;DEBUG_VALUE: mainSort:block <- $x24
	;DEBUG_VALUE: mainSort:quadrant <- [DW_OP_plus_uconst 264] [$sp+0]
	;DEBUG_VALUE: mainSort:ftab <- $x20
	;DEBUG_VALUE: mainSort:budget <- [DW_OP_plus_uconst 284, DW_OP_stack_value] $sp
	;DEBUG_VALUE: BZ2_blockSort:budget <- [DW_OP_plus_uconst 284, DW_OP_deref] $sp
	;DEBUG_VALUE: BZ2_blockSort:quadrant <- [DW_OP_plus_uconst 264] [$sp+0]
	;DEBUG_VALUE: BZ2_blockSort:nblock <- [DW_OP_plus_uconst 272] [$sp+0]
	;DEBUG_VALUE: BZ2_blockSort:block <- $x24
	;DEBUG_VALUE: BZ2_blockSort:ftab <- $x20
	;DEBUG_VALUE: BZ2_blockSort:ptr <- $x28
	.loc	1 0 4                           ; blocksort.c:0:4
	str	x3, [sp, #48]                   ; 8-byte Folded Spill
	str	x19, [sp, #72]                  ; 8-byte Folded Spill
	.loc	1 504 4                         ; blocksort.c:504:4
	add	w10, w30, #1
Ltmp201:
	add	w9, w30, #2
	stp	w9, w10, [sp, #192]             ; 8-byte Folded Spill
	str	x30, [sp, #168]                 ; 8-byte Folded Spill
	str	x13, [sp, #240]                 ; 8-byte Folded Spill
	b	LBB0_77
Ltmp202:
LBB0_76:                                ;   in Loop: Header=BB0_77 Depth=4
	;DEBUG_VALUE: mainSimpleSort:h <- $w19
	;DEBUG_VALUE: mainSimpleSort:budget <- [DW_OP_plus_uconst 284, DW_OP_stack_value] $sp
	;DEBUG_VALUE: mainSimpleSort:d <- $w22
	;DEBUG_VALUE: mainSimpleSort:quadrant <- [DW_OP_plus_uconst 264] [$sp+0]
	;DEBUG_VALUE: mainSimpleSort:block <- $x24
	;DEBUG_VALUE: mainSimpleSort:ptr <- $x28
	;DEBUG_VALUE: mainQSort3:d <- $w22
	;DEBUG_VALUE: mainQSort3:budget <- [DW_OP_plus_uconst 284, DW_OP_stack_value] $sp
	;DEBUG_VALUE: mainQSort3:dSt <- 2
	;DEBUG_VALUE: mainQSort3:hiSt <- [DW_OP_plus_uconst 164] [$sp+0]
	;DEBUG_VALUE: mainQSort3:loSt <- [DW_OP_plus_uconst 180] [$sp+0]
	;DEBUG_VALUE: mainQSort3:quadrant <- [DW_OP_plus_uconst 264] [$sp+0]
	;DEBUG_VALUE: mainQSort3:block <- $x24
	;DEBUG_VALUE: mainQSort3:ptr <- $x28
	;DEBUG_VALUE: mainSort:j <- [DW_OP_plus_uconst 96] [$sp+0]
	;DEBUG_VALUE: hi <- [DW_OP_plus_uconst 164] [$sp+0]
	;DEBUG_VALUE: lo <- [DW_OP_plus_uconst 180] [$sp+0]
	;DEBUG_VALUE: mainSort:i <- [DW_OP_plus_uconst 64] [$sp+0]
	;DEBUG_VALUE: mainSort:ptr <- $x28
	;DEBUG_VALUE: mainSort:block <- $x24
	;DEBUG_VALUE: mainSort:quadrant <- [DW_OP_plus_uconst 264] [$sp+0]
	;DEBUG_VALUE: mainSort:ftab <- $x20
	;DEBUG_VALUE: mainSort:budget <- [DW_OP_plus_uconst 284, DW_OP_stack_value] $sp
	;DEBUG_VALUE: BZ2_blockSort:budget <- [DW_OP_plus_uconst 284, DW_OP_deref] $sp
	;DEBUG_VALUE: BZ2_blockSort:quadrant <- [DW_OP_plus_uconst 264] [$sp+0]
	;DEBUG_VALUE: BZ2_blockSort:nblock <- [DW_OP_plus_uconst 272] [$sp+0]
	;DEBUG_VALUE: BZ2_blockSort:block <- $x24
	;DEBUG_VALUE: BZ2_blockSort:ftab <- $x20
	;DEBUG_VALUE: BZ2_blockSort:ptr <- $x28
	;DEBUG_VALUE: mainSimpleSort:hp <- [DW_OP_plus_uconst 216, DW_OP_deref_size 8, DW_OP_constu 1, DW_OP_minus, DW_OP_stack_value] $sp
	.loc	1 0 4                           ; blocksort.c:0:4
	ldr	x8, [sp, #208]                  ; 8-byte Folded Reload
	.loc	1 504 4                         ; blocksort.c:504:4
	cmp	x8, #1
Lloh143:
	adrp	x11, _incs@PAGE
Lloh144:
	add	x11, x11, _incs@PAGEOFF
	ldr	x30, [sp, #168]                 ; 8-byte Folded Reload
	ldr	x8, [sp, #216]                  ; 8-byte Folded Reload
Ltmp203:
	;DEBUG_VALUE: mainSimpleSort:hp <- [DW_OP_constu 1, DW_OP_minus, DW_OP_stack_value] $x8
	b.le	LBB0_43
Ltmp204:
LBB0_77:                                ; %.lr.ph.i.i.i
                                        ;   Parent Loop BB0_33 Depth=1
                                        ;     Parent Loop BB0_37 Depth=2
                                        ;       Parent Loop BB0_46 Depth=3
                                        ; =>      This Loop Header: Depth=4
                                        ;           Child Loop BB0_80 Depth 5
                                        ;             Child Loop BB0_82 Depth 6
                                        ;             Child Loop BB0_87 Depth 6
                                        ;             Child Loop BB0_92 Depth 6
	;DEBUG_VALUE: mainSimpleSort:budget <- [DW_OP_plus_uconst 284, DW_OP_stack_value] $sp
	;DEBUG_VALUE: mainSimpleSort:d <- $w22
	;DEBUG_VALUE: mainSimpleSort:quadrant <- [DW_OP_plus_uconst 264] [$sp+0]
	;DEBUG_VALUE: mainSimpleSort:block <- $x24
	;DEBUG_VALUE: mainSimpleSort:ptr <- $x28
	;DEBUG_VALUE: mainQSort3:d <- $w22
	;DEBUG_VALUE: mainQSort3:budget <- [DW_OP_plus_uconst 284, DW_OP_stack_value] $sp
	;DEBUG_VALUE: mainQSort3:dSt <- 2
	;DEBUG_VALUE: mainQSort3:hiSt <- [DW_OP_plus_uconst 164] [$sp+0]
	;DEBUG_VALUE: mainQSort3:loSt <- [DW_OP_plus_uconst 180] [$sp+0]
	;DEBUG_VALUE: mainQSort3:quadrant <- [DW_OP_plus_uconst 264] [$sp+0]
	;DEBUG_VALUE: mainQSort3:block <- $x24
	;DEBUG_VALUE: mainQSort3:ptr <- $x28
	;DEBUG_VALUE: mainSort:j <- [DW_OP_plus_uconst 96] [$sp+0]
	;DEBUG_VALUE: hi <- [DW_OP_plus_uconst 164] [$sp+0]
	;DEBUG_VALUE: lo <- [DW_OP_plus_uconst 180] [$sp+0]
	;DEBUG_VALUE: mainSort:i <- [DW_OP_plus_uconst 64] [$sp+0]
	;DEBUG_VALUE: mainSort:ptr <- $x28
	;DEBUG_VALUE: mainSort:block <- $x24
	;DEBUG_VALUE: mainSort:quadrant <- [DW_OP_plus_uconst 264] [$sp+0]
	;DEBUG_VALUE: mainSort:ftab <- $x20
	;DEBUG_VALUE: mainSort:budget <- [DW_OP_plus_uconst 284, DW_OP_stack_value] $sp
	;DEBUG_VALUE: BZ2_blockSort:budget <- [DW_OP_plus_uconst 284, DW_OP_deref] $sp
	;DEBUG_VALUE: BZ2_blockSort:quadrant <- [DW_OP_plus_uconst 264] [$sp+0]
	;DEBUG_VALUE: BZ2_blockSort:nblock <- [DW_OP_plus_uconst 272] [$sp+0]
	;DEBUG_VALUE: BZ2_blockSort:block <- $x24
	;DEBUG_VALUE: BZ2_blockSort:ftab <- $x20
	;DEBUG_VALUE: BZ2_blockSort:ptr <- $x28
	.loc	1 0 4                           ; blocksort.c:0:4
	str	x8, [sp, #208]                  ; 8-byte Folded Spill
	sub	x8, x8, #1
	str	x8, [sp, #216]                  ; 8-byte Folded Spill
Ltmp205:
	.loc	1 505 11 is_stmt 1              ; blocksort.c:505:11
	ldr	w19, [x11, w8, uxtw  #2]
Ltmp206:
	;DEBUG_VALUE: mainSimpleSort:h <- $w19
	.loc	1 507 14                        ; blocksort.c:507:14
	add	w8, w19, w30
Ltmp207:
	;DEBUG_VALUE: mainSimpleSort:i <- $w8
	.loc	1 508 7                         ; blocksort.c:508:7
	sxtw	x23, w8
Ltmp208:
	;DEBUG_VALUE: BZ2_blockSort:s <- [DW_OP_LLVM_entry_value 1] $x0
	.loc	1 0 7 is_stmt 0                 ; blocksort.c:0:7
	ldr	w8, [sp, #192]                  ; 4-byte Folded Reload
Ltmp209:
	str	w8, [sp, #236]                  ; 4-byte Folded Spill
	ldr	w8, [sp, #196]                  ; 4-byte Folded Reload
	stp	w8, w30, [sp, #248]             ; 8-byte Folded Spill
	mov	x8, x30
	mov	x10, x23
	b	LBB0_80
Ltmp210:
LBB0_78:                                ;   in Loop: Header=BB0_80 Depth=5
	;DEBUG_VALUE: mainSimpleSort:v <- [DW_OP_plus_uconst 232] [$sp+0]
	;DEBUG_VALUE: mainSimpleSort:h <- $w19
	;DEBUG_VALUE: mainSimpleSort:budget <- [DW_OP_plus_uconst 284, DW_OP_stack_value] $sp
	;DEBUG_VALUE: mainSimpleSort:d <- $w22
	;DEBUG_VALUE: mainSimpleSort:quadrant <- [DW_OP_plus_uconst 264] [$sp+0]
	;DEBUG_VALUE: mainSimpleSort:block <- $x24
	;DEBUG_VALUE: mainSimpleSort:ptr <- $x28
	;DEBUG_VALUE: mainQSort3:d <- $w22
	;DEBUG_VALUE: mainQSort3:budget <- [DW_OP_plus_uconst 284, DW_OP_stack_value] $sp
	;DEBUG_VALUE: mainQSort3:dSt <- 2
	;DEBUG_VALUE: mainQSort3:hiSt <- [DW_OP_plus_uconst 164] [$sp+0]
	;DEBUG_VALUE: mainQSort3:loSt <- [DW_OP_plus_uconst 180] [$sp+0]
	;DEBUG_VALUE: mainQSort3:quadrant <- [DW_OP_plus_uconst 264] [$sp+0]
	;DEBUG_VALUE: mainQSort3:block <- $x24
	;DEBUG_VALUE: mainQSort3:ptr <- $x28
	;DEBUG_VALUE: mainSort:j <- [DW_OP_plus_uconst 96] [$sp+0]
	;DEBUG_VALUE: hi <- [DW_OP_plus_uconst 164] [$sp+0]
	;DEBUG_VALUE: lo <- [DW_OP_plus_uconst 180] [$sp+0]
	;DEBUG_VALUE: mainSort:i <- [DW_OP_plus_uconst 64] [$sp+0]
	;DEBUG_VALUE: mainSort:ptr <- $x28
	;DEBUG_VALUE: mainSort:block <- $x24
	;DEBUG_VALUE: mainSort:quadrant <- [DW_OP_plus_uconst 264] [$sp+0]
	;DEBUG_VALUE: mainSort:ftab <- $x20
	;DEBUG_VALUE: mainSort:budget <- [DW_OP_plus_uconst 284, DW_OP_stack_value] $sp
	;DEBUG_VALUE: BZ2_blockSort:budget <- [DW_OP_plus_uconst 284, DW_OP_deref] $sp
	;DEBUG_VALUE: BZ2_blockSort:quadrant <- [DW_OP_plus_uconst 264] [$sp+0]
	;DEBUG_VALUE: BZ2_blockSort:nblock <- [DW_OP_plus_uconst 272] [$sp+0]
	;DEBUG_VALUE: BZ2_blockSort:block <- $x24
	;DEBUG_VALUE: BZ2_blockSort:ftab <- $x20
	;DEBUG_VALUE: BZ2_blockSort:ptr <- $x28
	mov	x8, x9
Ltmp211:
LBB0_79:                                ; %split.i.i.i
                                        ;   in Loop: Header=BB0_80 Depth=5
	;DEBUG_VALUE: mainSimpleSort:v <- [DW_OP_plus_uconst 232] [$sp+0]
	;DEBUG_VALUE: mainSimpleSort:h <- $w19
	;DEBUG_VALUE: mainSimpleSort:budget <- [DW_OP_plus_uconst 284, DW_OP_stack_value] $sp
	;DEBUG_VALUE: mainSimpleSort:d <- $w22
	;DEBUG_VALUE: mainSimpleSort:quadrant <- [DW_OP_plus_uconst 264] [$sp+0]
	;DEBUG_VALUE: mainSimpleSort:block <- $x24
	;DEBUG_VALUE: mainSimpleSort:ptr <- $x28
	;DEBUG_VALUE: mainQSort3:d <- $w22
	;DEBUG_VALUE: mainQSort3:budget <- [DW_OP_plus_uconst 284, DW_OP_stack_value] $sp
	;DEBUG_VALUE: mainQSort3:dSt <- 2
	;DEBUG_VALUE: mainQSort3:hiSt <- [DW_OP_plus_uconst 164] [$sp+0]
	;DEBUG_VALUE: mainQSort3:loSt <- [DW_OP_plus_uconst 180] [$sp+0]
	;DEBUG_VALUE: mainQSort3:quadrant <- [DW_OP_plus_uconst 264] [$sp+0]
	;DEBUG_VALUE: mainQSort3:block <- $x24
	;DEBUG_VALUE: mainQSort3:ptr <- $x28
	;DEBUG_VALUE: mainSort:j <- [DW_OP_plus_uconst 96] [$sp+0]
	;DEBUG_VALUE: hi <- [DW_OP_plus_uconst 164] [$sp+0]
	;DEBUG_VALUE: lo <- [DW_OP_plus_uconst 180] [$sp+0]
	;DEBUG_VALUE: mainSort:i <- [DW_OP_plus_uconst 64] [$sp+0]
	;DEBUG_VALUE: mainSort:ptr <- $x28
	;DEBUG_VALUE: mainSort:block <- $x24
	;DEBUG_VALUE: mainSort:quadrant <- [DW_OP_plus_uconst 264] [$sp+0]
	;DEBUG_VALUE: mainSort:ftab <- $x20
	;DEBUG_VALUE: mainSort:budget <- [DW_OP_plus_uconst 284, DW_OP_stack_value] $sp
	;DEBUG_VALUE: BZ2_blockSort:budget <- [DW_OP_plus_uconst 284, DW_OP_deref] $sp
	;DEBUG_VALUE: BZ2_blockSort:quadrant <- [DW_OP_plus_uconst 264] [$sp+0]
	;DEBUG_VALUE: BZ2_blockSort:nblock <- [DW_OP_plus_uconst 272] [$sp+0]
	;DEBUG_VALUE: BZ2_blockSort:block <- $x24
	;DEBUG_VALUE: BZ2_blockSort:ftab <- $x20
	;DEBUG_VALUE: BZ2_blockSort:ptr <- $x28
	;DEBUG_VALUE: mainSimpleSort:j <- undef
	ldr	w9, [sp, #232]                  ; 4-byte Folded Reload
Ltmp212:
	.loc	1 549 17 is_stmt 1              ; blocksort.c:549:17
	str	w9, [x28, x8, lsl  #2]
	ldr	x10, [sp, #256]                 ; 8-byte Folded Reload
	.loc	1 550 11                        ; blocksort.c:550:11
	add	x10, x10, #3
Ltmp213:
	;DEBUG_VALUE: mainSimpleSort:i <- $x10
	.loc	1 552 14                        ; blocksort.c:552:14
	ldr	w8, [sp, #284]
	ldr	w9, [sp, #252]                  ; 4-byte Folded Reload
Ltmp214:
	.loc	1 552 14 is_stmt 0              ; blocksort.c:552:14
	add	w11, w9, #3
	ldr	w9, [sp, #248]                  ; 4-byte Folded Reload
	add	w9, w9, #3
	stp	w9, w11, [sp, #248]             ; 8-byte Folded Spill
	ldr	w9, [sp, #236]                  ; 4-byte Folded Reload
	add	w9, w9, #3
	str	w9, [sp, #236]                  ; 4-byte Folded Spill
	ldr	x13, [sp, #240]                 ; 8-byte Folded Reload
	tbnz	w8, #31, LBB0_147
Ltmp215:
LBB0_80:                                ;   Parent Loop BB0_33 Depth=1
                                        ;     Parent Loop BB0_37 Depth=2
                                        ;       Parent Loop BB0_46 Depth=3
                                        ;         Parent Loop BB0_77 Depth=4
                                        ; =>        This Loop Header: Depth=5
                                        ;             Child Loop BB0_82 Depth 6
                                        ;             Child Loop BB0_87 Depth 6
                                        ;             Child Loop BB0_92 Depth 6
	;DEBUG_VALUE: mainSimpleSort:h <- $w19
	;DEBUG_VALUE: mainSimpleSort:budget <- [DW_OP_plus_uconst 284, DW_OP_stack_value] $sp
	;DEBUG_VALUE: mainSimpleSort:d <- $w22
	;DEBUG_VALUE: mainSimpleSort:quadrant <- [DW_OP_plus_uconst 264] [$sp+0]
	;DEBUG_VALUE: mainSimpleSort:block <- $x24
	;DEBUG_VALUE: mainSimpleSort:ptr <- $x28
	;DEBUG_VALUE: mainQSort3:d <- $w22
	;DEBUG_VALUE: mainQSort3:budget <- [DW_OP_plus_uconst 284, DW_OP_stack_value] $sp
	;DEBUG_VALUE: mainQSort3:dSt <- 2
	;DEBUG_VALUE: mainQSort3:hiSt <- [DW_OP_plus_uconst 164] [$sp+0]
	;DEBUG_VALUE: mainQSort3:loSt <- [DW_OP_plus_uconst 180] [$sp+0]
	;DEBUG_VALUE: mainQSort3:quadrant <- [DW_OP_plus_uconst 264] [$sp+0]
	;DEBUG_VALUE: mainQSort3:block <- $x24
	;DEBUG_VALUE: mainQSort3:ptr <- $x28
	;DEBUG_VALUE: mainSort:j <- [DW_OP_plus_uconst 96] [$sp+0]
	;DEBUG_VALUE: hi <- [DW_OP_plus_uconst 164] [$sp+0]
	;DEBUG_VALUE: lo <- [DW_OP_plus_uconst 180] [$sp+0]
	;DEBUG_VALUE: mainSort:i <- [DW_OP_plus_uconst 64] [$sp+0]
	;DEBUG_VALUE: mainSort:ptr <- $x28
	;DEBUG_VALUE: mainSort:block <- $x24
	;DEBUG_VALUE: mainSort:quadrant <- [DW_OP_plus_uconst 264] [$sp+0]
	;DEBUG_VALUE: mainSort:ftab <- $x20
	;DEBUG_VALUE: mainSort:budget <- [DW_OP_plus_uconst 284, DW_OP_stack_value] $sp
	;DEBUG_VALUE: BZ2_blockSort:budget <- [DW_OP_plus_uconst 284, DW_OP_deref] $sp
	;DEBUG_VALUE: BZ2_blockSort:quadrant <- [DW_OP_plus_uconst 264] [$sp+0]
	;DEBUG_VALUE: BZ2_blockSort:nblock <- [DW_OP_plus_uconst 272] [$sp+0]
	;DEBUG_VALUE: BZ2_blockSort:block <- $x24
	;DEBUG_VALUE: BZ2_blockSort:ftab <- $x20
	;DEBUG_VALUE: BZ2_blockSort:ptr <- $x28
	;DEBUG_VALUE: mainSimpleSort:i <- $x10
	.loc	1 511 14 is_stmt 1              ; blocksort.c:511:14
	cmp	x10, x13
	b.gt	LBB0_76
Ltmp216:
; %bb.81:                               ;   in Loop: Header=BB0_80 Depth=5
	;DEBUG_VALUE: mainSimpleSort:i <- $x10
	;DEBUG_VALUE: mainSimpleSort:h <- $w19
	;DEBUG_VALUE: mainSimpleSort:budget <- [DW_OP_plus_uconst 284, DW_OP_stack_value] $sp
	;DEBUG_VALUE: mainSimpleSort:d <- $w22
	;DEBUG_VALUE: mainSimpleSort:quadrant <- [DW_OP_plus_uconst 264] [$sp+0]
	;DEBUG_VALUE: mainSimpleSort:block <- $x24
	;DEBUG_VALUE: mainSimpleSort:ptr <- $x28
	;DEBUG_VALUE: mainQSort3:d <- $w22
	;DEBUG_VALUE: mainQSort3:budget <- [DW_OP_plus_uconst 284, DW_OP_stack_value] $sp
	;DEBUG_VALUE: mainQSort3:dSt <- 2
	;DEBUG_VALUE: mainQSort3:hiSt <- [DW_OP_plus_uconst 164] [$sp+0]
	;DEBUG_VALUE: mainQSort3:loSt <- [DW_OP_plus_uconst 180] [$sp+0]
	;DEBUG_VALUE: mainQSort3:quadrant <- [DW_OP_plus_uconst 264] [$sp+0]
	;DEBUG_VALUE: mainQSort3:block <- $x24
	;DEBUG_VALUE: mainQSort3:ptr <- $x28
	;DEBUG_VALUE: mainSort:j <- [DW_OP_plus_uconst 96] [$sp+0]
	;DEBUG_VALUE: hi <- [DW_OP_plus_uconst 164] [$sp+0]
	;DEBUG_VALUE: lo <- [DW_OP_plus_uconst 180] [$sp+0]
	;DEBUG_VALUE: mainSort:i <- [DW_OP_plus_uconst 64] [$sp+0]
	;DEBUG_VALUE: mainSort:ptr <- $x28
	;DEBUG_VALUE: mainSort:block <- $x24
	;DEBUG_VALUE: mainSort:quadrant <- [DW_OP_plus_uconst 264] [$sp+0]
	;DEBUG_VALUE: mainSort:ftab <- $x20
	;DEBUG_VALUE: mainSort:budget <- [DW_OP_plus_uconst 284, DW_OP_stack_value] $sp
	;DEBUG_VALUE: BZ2_blockSort:budget <- [DW_OP_plus_uconst 284, DW_OP_deref] $sp
	;DEBUG_VALUE: BZ2_blockSort:quadrant <- [DW_OP_plus_uconst 264] [$sp+0]
	;DEBUG_VALUE: BZ2_blockSort:nblock <- [DW_OP_plus_uconst 272] [$sp+0]
	;DEBUG_VALUE: BZ2_blockSort:block <- $x24
	;DEBUG_VALUE: BZ2_blockSort:ftab <- $x20
	;DEBUG_VALUE: BZ2_blockSort:ptr <- $x28
	.loc	1 0 14 is_stmt 0                ; blocksort.c:0:14
	str	x10, [sp, #256]                 ; 8-byte Folded Spill
Ltmp217:
	;DEBUG_VALUE: mainSimpleSort:i <- [DW_OP_plus_uconst 256] [$sp+0]
	;DEBUG_VALUE: mainSimpleSort:i <- [DW_OP_plus_uconst 256] [$sp+0]
	.loc	1 512 14 is_stmt 1              ; blocksort.c:512:14
	ldr	w8, [x28, x10, lsl  #2]
Ltmp218:
	;DEBUG_VALUE: mainSimpleSort:j <- [DW_OP_plus_uconst 256] [$sp+0]
	;DEBUG_VALUE: mainSimpleSort:v <- $w8
	.loc	1 0 14 is_stmt 0                ; blocksort.c:0:14
	str	w8, [sp, #232]                  ; 4-byte Folded Spill
Ltmp219:
	;DEBUG_VALUE: mainSimpleSort:v <- [DW_OP_plus_uconst 232] [$sp+0]
	add	w27, w8, w22
	ldr	w21, [sp, #252]                 ; 4-byte Folded Reload
Ltmp220:
LBB0_82:                                ;   Parent Loop BB0_33 Depth=1
                                        ;     Parent Loop BB0_37 Depth=2
                                        ;       Parent Loop BB0_46 Depth=3
                                        ;         Parent Loop BB0_77 Depth=4
                                        ;           Parent Loop BB0_80 Depth=5
                                        ; =>          This Inner Loop Header: Depth=6
	;DEBUG_VALUE: mainSimpleSort:v <- [DW_OP_plus_uconst 232] [$sp+0]
	;DEBUG_VALUE: mainSimpleSort:i <- [DW_OP_plus_uconst 256] [$sp+0]
	;DEBUG_VALUE: mainSimpleSort:h <- $w19
	;DEBUG_VALUE: mainSimpleSort:budget <- [DW_OP_plus_uconst 284, DW_OP_stack_value] $sp
	;DEBUG_VALUE: mainSimpleSort:d <- $w22
	;DEBUG_VALUE: mainSimpleSort:quadrant <- [DW_OP_plus_uconst 264] [$sp+0]
	;DEBUG_VALUE: mainSimpleSort:block <- $x24
	;DEBUG_VALUE: mainSimpleSort:ptr <- $x28
	;DEBUG_VALUE: mainQSort3:d <- $w22
	;DEBUG_VALUE: mainQSort3:budget <- [DW_OP_plus_uconst 284, DW_OP_stack_value] $sp
	;DEBUG_VALUE: mainQSort3:dSt <- 2
	;DEBUG_VALUE: mainQSort3:hiSt <- [DW_OP_plus_uconst 164] [$sp+0]
	;DEBUG_VALUE: mainQSort3:loSt <- [DW_OP_plus_uconst 180] [$sp+0]
	;DEBUG_VALUE: mainQSort3:quadrant <- [DW_OP_plus_uconst 264] [$sp+0]
	;DEBUG_VALUE: mainQSort3:block <- $x24
	;DEBUG_VALUE: mainQSort3:ptr <- $x28
	;DEBUG_VALUE: mainSort:j <- [DW_OP_plus_uconst 96] [$sp+0]
	;DEBUG_VALUE: hi <- [DW_OP_plus_uconst 164] [$sp+0]
	;DEBUG_VALUE: lo <- [DW_OP_plus_uconst 180] [$sp+0]
	;DEBUG_VALUE: mainSort:i <- [DW_OP_plus_uconst 64] [$sp+0]
	;DEBUG_VALUE: mainSort:ptr <- $x28
	;DEBUG_VALUE: mainSort:block <- $x24
	;DEBUG_VALUE: mainSort:quadrant <- [DW_OP_plus_uconst 264] [$sp+0]
	;DEBUG_VALUE: mainSort:ftab <- $x20
	;DEBUG_VALUE: mainSort:budget <- [DW_OP_plus_uconst 284, DW_OP_stack_value] $sp
	;DEBUG_VALUE: BZ2_blockSort:budget <- [DW_OP_plus_uconst 284, DW_OP_deref] $sp
	;DEBUG_VALUE: BZ2_blockSort:quadrant <- [DW_OP_plus_uconst 264] [$sp+0]
	;DEBUG_VALUE: BZ2_blockSort:nblock <- [DW_OP_plus_uconst 272] [$sp+0]
	;DEBUG_VALUE: BZ2_blockSort:block <- $x24
	;DEBUG_VALUE: BZ2_blockSort:ftab <- $x20
	;DEBUG_VALUE: BZ2_blockSort:ptr <- $x28
	;DEBUG_VALUE: mainSimpleSort:j <- undef
	.loc	1 515 26 is_stmt 1              ; blocksort.c:515:26
	add	w25, w19, w21
	.loc	1 515 21 is_stmt 0              ; blocksort.c:515:21
	ldr	w26, [x28, w21, sxtw  #2]
	.loc	1 515 29                        ; blocksort.c:515:29
	add	w0, w26, w22
	.loc	1 514 18 is_stmt 1              ; blocksort.c:514:18
	add	x5, sp, #284
	mov	x1, x27
	mov	x2, x24
	ldp	x3, x4, [sp, #264]              ; 16-byte Folded Reload
                                        ; kill: def $w4 killed $w4 killed $x4
	bl	_mainGtU
Ltmp221:
	.loc	1 0 0 is_stmt 0                 ; blocksort.c:0:0
	sxtw	x9, w25
	.loc	1 514 10                        ; blocksort.c:514:10
	cbz	w0, LBB0_84
Ltmp222:
; %bb.83:                               ;   in Loop: Header=BB0_82 Depth=6
	;DEBUG_VALUE: mainSimpleSort:v <- [DW_OP_plus_uconst 232] [$sp+0]
	;DEBUG_VALUE: mainSimpleSort:i <- [DW_OP_plus_uconst 256] [$sp+0]
	;DEBUG_VALUE: mainSimpleSort:h <- $w19
	;DEBUG_VALUE: mainSimpleSort:budget <- [DW_OP_plus_uconst 284, DW_OP_stack_value] $sp
	;DEBUG_VALUE: mainSimpleSort:d <- $w22
	;DEBUG_VALUE: mainSimpleSort:quadrant <- [DW_OP_plus_uconst 264] [$sp+0]
	;DEBUG_VALUE: mainSimpleSort:block <- $x24
	;DEBUG_VALUE: mainSimpleSort:ptr <- $x28
	;DEBUG_VALUE: mainQSort3:d <- $w22
	;DEBUG_VALUE: mainQSort3:budget <- [DW_OP_plus_uconst 284, DW_OP_stack_value] $sp
	;DEBUG_VALUE: mainQSort3:dSt <- 2
	;DEBUG_VALUE: mainQSort3:hiSt <- [DW_OP_plus_uconst 164] [$sp+0]
	;DEBUG_VALUE: mainQSort3:loSt <- [DW_OP_plus_uconst 180] [$sp+0]
	;DEBUG_VALUE: mainQSort3:quadrant <- [DW_OP_plus_uconst 264] [$sp+0]
	;DEBUG_VALUE: mainQSort3:block <- $x24
	;DEBUG_VALUE: mainQSort3:ptr <- $x28
	;DEBUG_VALUE: mainSort:j <- [DW_OP_plus_uconst 96] [$sp+0]
	;DEBUG_VALUE: hi <- [DW_OP_plus_uconst 164] [$sp+0]
	;DEBUG_VALUE: lo <- [DW_OP_plus_uconst 180] [$sp+0]
	;DEBUG_VALUE: mainSort:i <- [DW_OP_plus_uconst 64] [$sp+0]
	;DEBUG_VALUE: mainSort:ptr <- $x28
	;DEBUG_VALUE: mainSort:block <- $x24
	;DEBUG_VALUE: mainSort:quadrant <- [DW_OP_plus_uconst 264] [$sp+0]
	;DEBUG_VALUE: mainSort:ftab <- $x20
	;DEBUG_VALUE: mainSort:budget <- [DW_OP_plus_uconst 284, DW_OP_stack_value] $sp
	;DEBUG_VALUE: BZ2_blockSort:budget <- [DW_OP_plus_uconst 284, DW_OP_deref] $sp
	;DEBUG_VALUE: BZ2_blockSort:quadrant <- [DW_OP_plus_uconst 264] [$sp+0]
	;DEBUG_VALUE: BZ2_blockSort:nblock <- [DW_OP_plus_uconst 272] [$sp+0]
	;DEBUG_VALUE: BZ2_blockSort:block <- $x24
	;DEBUG_VALUE: BZ2_blockSort:ftab <- $x20
	;DEBUG_VALUE: BZ2_blockSort:ptr <- $x28
	.loc	1 0 10                          ; blocksort.c:0:10
	sxtw	x8, w21
Ltmp223:
	.loc	1 517 20 is_stmt 1              ; blocksort.c:517:20
	str	w26, [x28, x9, lsl  #2]
Ltmp224:
	;DEBUG_VALUE: mainSimpleSort:j <- undef
	.loc	1 519 19                        ; blocksort.c:519:19
	sub	w21, w8, w19
Ltmp225:
	.loc	1 519 17 is_stmt 0              ; blocksort.c:519:17
	cmp	w8, w23
	b.ge	LBB0_82
	b	LBB0_85
Ltmp226:
LBB0_84:                                ;   in Loop: Header=BB0_80 Depth=5
	;DEBUG_VALUE: mainSimpleSort:v <- [DW_OP_plus_uconst 232] [$sp+0]
	;DEBUG_VALUE: mainSimpleSort:i <- [DW_OP_plus_uconst 256] [$sp+0]
	;DEBUG_VALUE: mainSimpleSort:h <- $w19
	;DEBUG_VALUE: mainSimpleSort:budget <- [DW_OP_plus_uconst 284, DW_OP_stack_value] $sp
	;DEBUG_VALUE: mainSimpleSort:d <- $w22
	;DEBUG_VALUE: mainSimpleSort:quadrant <- [DW_OP_plus_uconst 264] [$sp+0]
	;DEBUG_VALUE: mainSimpleSort:block <- $x24
	;DEBUG_VALUE: mainSimpleSort:ptr <- $x28
	;DEBUG_VALUE: mainQSort3:d <- $w22
	;DEBUG_VALUE: mainQSort3:budget <- [DW_OP_plus_uconst 284, DW_OP_stack_value] $sp
	;DEBUG_VALUE: mainQSort3:dSt <- 2
	;DEBUG_VALUE: mainQSort3:hiSt <- [DW_OP_plus_uconst 164] [$sp+0]
	;DEBUG_VALUE: mainQSort3:loSt <- [DW_OP_plus_uconst 180] [$sp+0]
	;DEBUG_VALUE: mainQSort3:quadrant <- [DW_OP_plus_uconst 264] [$sp+0]
	;DEBUG_VALUE: mainQSort3:block <- $x24
	;DEBUG_VALUE: mainQSort3:ptr <- $x28
	;DEBUG_VALUE: mainSort:j <- [DW_OP_plus_uconst 96] [$sp+0]
	;DEBUG_VALUE: hi <- [DW_OP_plus_uconst 164] [$sp+0]
	;DEBUG_VALUE: lo <- [DW_OP_plus_uconst 180] [$sp+0]
	;DEBUG_VALUE: mainSort:i <- [DW_OP_plus_uconst 64] [$sp+0]
	;DEBUG_VALUE: mainSort:ptr <- $x28
	;DEBUG_VALUE: mainSort:block <- $x24
	;DEBUG_VALUE: mainSort:quadrant <- [DW_OP_plus_uconst 264] [$sp+0]
	;DEBUG_VALUE: mainSort:ftab <- $x20
	;DEBUG_VALUE: mainSort:budget <- [DW_OP_plus_uconst 284, DW_OP_stack_value] $sp
	;DEBUG_VALUE: BZ2_blockSort:budget <- [DW_OP_plus_uconst 284, DW_OP_deref] $sp
	;DEBUG_VALUE: BZ2_blockSort:quadrant <- [DW_OP_plus_uconst 264] [$sp+0]
	;DEBUG_VALUE: BZ2_blockSort:nblock <- [DW_OP_plus_uconst 272] [$sp+0]
	;DEBUG_VALUE: BZ2_blockSort:block <- $x24
	;DEBUG_VALUE: BZ2_blockSort:ftab <- $x20
	;DEBUG_VALUE: BZ2_blockSort:ptr <- $x28
	.loc	1 0 17                          ; blocksort.c:0:17
	mov	x8, x9
Ltmp227:
LBB0_85:                                ; %split135.i.i.i
                                        ;   in Loop: Header=BB0_80 Depth=5
	;DEBUG_VALUE: mainSimpleSort:v <- [DW_OP_plus_uconst 232] [$sp+0]
	;DEBUG_VALUE: mainSimpleSort:i <- [DW_OP_plus_uconst 256] [$sp+0]
	;DEBUG_VALUE: mainSimpleSort:h <- $w19
	;DEBUG_VALUE: mainSimpleSort:budget <- [DW_OP_plus_uconst 284, DW_OP_stack_value] $sp
	;DEBUG_VALUE: mainSimpleSort:d <- $w22
	;DEBUG_VALUE: mainSimpleSort:quadrant <- [DW_OP_plus_uconst 264] [$sp+0]
	;DEBUG_VALUE: mainSimpleSort:block <- $x24
	;DEBUG_VALUE: mainSimpleSort:ptr <- $x28
	;DEBUG_VALUE: mainQSort3:d <- $w22
	;DEBUG_VALUE: mainQSort3:budget <- [DW_OP_plus_uconst 284, DW_OP_stack_value] $sp
	;DEBUG_VALUE: mainQSort3:dSt <- 2
	;DEBUG_VALUE: mainQSort3:hiSt <- [DW_OP_plus_uconst 164] [$sp+0]
	;DEBUG_VALUE: mainQSort3:loSt <- [DW_OP_plus_uconst 180] [$sp+0]
	;DEBUG_VALUE: mainQSort3:quadrant <- [DW_OP_plus_uconst 264] [$sp+0]
	;DEBUG_VALUE: mainQSort3:block <- $x24
	;DEBUG_VALUE: mainQSort3:ptr <- $x28
	;DEBUG_VALUE: mainSort:j <- [DW_OP_plus_uconst 96] [$sp+0]
	;DEBUG_VALUE: hi <- [DW_OP_plus_uconst 164] [$sp+0]
	;DEBUG_VALUE: lo <- [DW_OP_plus_uconst 180] [$sp+0]
	;DEBUG_VALUE: mainSort:i <- [DW_OP_plus_uconst 64] [$sp+0]
	;DEBUG_VALUE: mainSort:ptr <- $x28
	;DEBUG_VALUE: mainSort:block <- $x24
	;DEBUG_VALUE: mainSort:quadrant <- [DW_OP_plus_uconst 264] [$sp+0]
	;DEBUG_VALUE: mainSort:ftab <- $x20
	;DEBUG_VALUE: mainSort:budget <- [DW_OP_plus_uconst 284, DW_OP_stack_value] $sp
	;DEBUG_VALUE: BZ2_blockSort:budget <- [DW_OP_plus_uconst 284, DW_OP_deref] $sp
	;DEBUG_VALUE: BZ2_blockSort:quadrant <- [DW_OP_plus_uconst 264] [$sp+0]
	;DEBUG_VALUE: BZ2_blockSort:nblock <- [DW_OP_plus_uconst 272] [$sp+0]
	;DEBUG_VALUE: BZ2_blockSort:block <- $x24
	;DEBUG_VALUE: BZ2_blockSort:ftab <- $x20
	;DEBUG_VALUE: BZ2_blockSort:ptr <- $x28
	;DEBUG_VALUE: mainSimpleSort:j <- undef
	ldr	w9, [sp, #232]                  ; 4-byte Folded Reload
	.loc	1 521 17 is_stmt 1              ; blocksort.c:521:17
	str	w9, [x28, x8, lsl  #2]
Ltmp228:
	;DEBUG_VALUE: mainSimpleSort:i <- [DW_OP_plus_uconst 256, DW_OP_deref_size 8, DW_OP_plus_uconst 1, DW_OP_stack_value] $sp
	.loc	1 0 17 is_stmt 0                ; blocksort.c:0:17
	ldr	x13, [sp, #240]                 ; 8-byte Folded Reload
	ldr	x8, [sp, #256]                  ; 8-byte Folded Reload
	.loc	1 525 14 is_stmt 1              ; blocksort.c:525:14
	cmp	x8, x13
	b.ge	LBB0_76
Ltmp229:
; %bb.86:                               ;   in Loop: Header=BB0_80 Depth=5
	;DEBUG_VALUE: mainSimpleSort:i <- [DW_OP_plus_uconst 256, DW_OP_deref_size 8, DW_OP_plus_uconst 1, DW_OP_stack_value] $sp
	;DEBUG_VALUE: mainSimpleSort:v <- [DW_OP_plus_uconst 232] [$sp+0]
	;DEBUG_VALUE: mainSimpleSort:h <- $w19
	;DEBUG_VALUE: mainSimpleSort:budget <- [DW_OP_plus_uconst 284, DW_OP_stack_value] $sp
	;DEBUG_VALUE: mainSimpleSort:d <- $w22
	;DEBUG_VALUE: mainSimpleSort:quadrant <- [DW_OP_plus_uconst 264] [$sp+0]
	;DEBUG_VALUE: mainSimpleSort:block <- $x24
	;DEBUG_VALUE: mainSimpleSort:ptr <- $x28
	;DEBUG_VALUE: mainQSort3:d <- $w22
	;DEBUG_VALUE: mainQSort3:budget <- [DW_OP_plus_uconst 284, DW_OP_stack_value] $sp
	;DEBUG_VALUE: mainQSort3:dSt <- 2
	;DEBUG_VALUE: mainQSort3:hiSt <- [DW_OP_plus_uconst 164] [$sp+0]
	;DEBUG_VALUE: mainQSort3:loSt <- [DW_OP_plus_uconst 180] [$sp+0]
	;DEBUG_VALUE: mainQSort3:quadrant <- [DW_OP_plus_uconst 264] [$sp+0]
	;DEBUG_VALUE: mainQSort3:block <- $x24
	;DEBUG_VALUE: mainQSort3:ptr <- $x28
	;DEBUG_VALUE: mainSort:j <- [DW_OP_plus_uconst 96] [$sp+0]
	;DEBUG_VALUE: hi <- [DW_OP_plus_uconst 164] [$sp+0]
	;DEBUG_VALUE: lo <- [DW_OP_plus_uconst 180] [$sp+0]
	;DEBUG_VALUE: mainSort:i <- [DW_OP_plus_uconst 64] [$sp+0]
	;DEBUG_VALUE: mainSort:ptr <- $x28
	;DEBUG_VALUE: mainSort:block <- $x24
	;DEBUG_VALUE: mainSort:quadrant <- [DW_OP_plus_uconst 264] [$sp+0]
	;DEBUG_VALUE: mainSort:ftab <- $x20
	;DEBUG_VALUE: mainSort:budget <- [DW_OP_plus_uconst 284, DW_OP_stack_value] $sp
	;DEBUG_VALUE: BZ2_blockSort:budget <- [DW_OP_plus_uconst 284, DW_OP_deref] $sp
	;DEBUG_VALUE: BZ2_blockSort:quadrant <- [DW_OP_plus_uconst 264] [$sp+0]
	;DEBUG_VALUE: BZ2_blockSort:nblock <- [DW_OP_plus_uconst 272] [$sp+0]
	;DEBUG_VALUE: BZ2_blockSort:block <- $x24
	;DEBUG_VALUE: BZ2_blockSort:ftab <- $x20
	;DEBUG_VALUE: BZ2_blockSort:ptr <- $x28
	;DEBUG_VALUE: mainSimpleSort:i <- undef
	.loc	1 526 14                        ; blocksort.c:526:14
	add	x8, x28, x8, lsl #2
	ldr	w8, [x8, #4]
Ltmp230:
	;DEBUG_VALUE: mainSimpleSort:j <- [DW_OP_plus_uconst 256, DW_OP_deref_size 8, DW_OP_plus_uconst 1, DW_OP_stack_value] $sp
	;DEBUG_VALUE: mainSimpleSort:v <- $w8
	.loc	1 0 14 is_stmt 0                ; blocksort.c:0:14
	str	w8, [sp, #232]                  ; 4-byte Folded Spill
Ltmp231:
	;DEBUG_VALUE: mainSimpleSort:v <- [DW_OP_plus_uconst 232] [$sp+0]
	add	w27, w8, w22
	ldr	w21, [sp, #248]                 ; 4-byte Folded Reload
Ltmp232:
LBB0_87:                                ;   Parent Loop BB0_33 Depth=1
                                        ;     Parent Loop BB0_37 Depth=2
                                        ;       Parent Loop BB0_46 Depth=3
                                        ;         Parent Loop BB0_77 Depth=4
                                        ;           Parent Loop BB0_80 Depth=5
                                        ; =>          This Inner Loop Header: Depth=6
	;DEBUG_VALUE: mainSimpleSort:v <- [DW_OP_plus_uconst 232] [$sp+0]
	;DEBUG_VALUE: mainSimpleSort:h <- $w19
	;DEBUG_VALUE: mainSimpleSort:budget <- [DW_OP_plus_uconst 284, DW_OP_stack_value] $sp
	;DEBUG_VALUE: mainSimpleSort:d <- $w22
	;DEBUG_VALUE: mainSimpleSort:quadrant <- [DW_OP_plus_uconst 264] [$sp+0]
	;DEBUG_VALUE: mainSimpleSort:block <- $x24
	;DEBUG_VALUE: mainSimpleSort:ptr <- $x28
	;DEBUG_VALUE: mainQSort3:d <- $w22
	;DEBUG_VALUE: mainQSort3:budget <- [DW_OP_plus_uconst 284, DW_OP_stack_value] $sp
	;DEBUG_VALUE: mainQSort3:dSt <- 2
	;DEBUG_VALUE: mainQSort3:hiSt <- [DW_OP_plus_uconst 164] [$sp+0]
	;DEBUG_VALUE: mainQSort3:loSt <- [DW_OP_plus_uconst 180] [$sp+0]
	;DEBUG_VALUE: mainQSort3:quadrant <- [DW_OP_plus_uconst 264] [$sp+0]
	;DEBUG_VALUE: mainQSort3:block <- $x24
	;DEBUG_VALUE: mainQSort3:ptr <- $x28
	;DEBUG_VALUE: mainSort:j <- [DW_OP_plus_uconst 96] [$sp+0]
	;DEBUG_VALUE: hi <- [DW_OP_plus_uconst 164] [$sp+0]
	;DEBUG_VALUE: lo <- [DW_OP_plus_uconst 180] [$sp+0]
	;DEBUG_VALUE: mainSort:i <- [DW_OP_plus_uconst 64] [$sp+0]
	;DEBUG_VALUE: mainSort:ptr <- $x28
	;DEBUG_VALUE: mainSort:block <- $x24
	;DEBUG_VALUE: mainSort:quadrant <- [DW_OP_plus_uconst 264] [$sp+0]
	;DEBUG_VALUE: mainSort:ftab <- $x20
	;DEBUG_VALUE: mainSort:budget <- [DW_OP_plus_uconst 284, DW_OP_stack_value] $sp
	;DEBUG_VALUE: BZ2_blockSort:budget <- [DW_OP_plus_uconst 284, DW_OP_deref] $sp
	;DEBUG_VALUE: BZ2_blockSort:quadrant <- [DW_OP_plus_uconst 264] [$sp+0]
	;DEBUG_VALUE: BZ2_blockSort:nblock <- [DW_OP_plus_uconst 272] [$sp+0]
	;DEBUG_VALUE: BZ2_blockSort:block <- $x24
	;DEBUG_VALUE: BZ2_blockSort:ftab <- $x20
	;DEBUG_VALUE: BZ2_blockSort:ptr <- $x28
	;DEBUG_VALUE: mainSimpleSort:j <- undef
	.loc	1 529 26 is_stmt 1              ; blocksort.c:529:26
	add	w25, w19, w21
	.loc	1 529 21 is_stmt 0              ; blocksort.c:529:21
	ldr	w26, [x28, w21, sxtw  #2]
	.loc	1 529 29                        ; blocksort.c:529:29
	add	w0, w26, w22
	.loc	1 528 18 is_stmt 1              ; blocksort.c:528:18
	add	x5, sp, #284
	mov	x1, x27
	mov	x2, x24
	ldp	x3, x4, [sp, #264]              ; 16-byte Folded Reload
                                        ; kill: def $w4 killed $w4 killed $x4
	bl	_mainGtU
Ltmp233:
	.loc	1 0 0 is_stmt 0                 ; blocksort.c:0:0
	sxtw	x9, w25
	.loc	1 528 10                        ; blocksort.c:528:10
	cbz	w0, LBB0_89
Ltmp234:
; %bb.88:                               ;   in Loop: Header=BB0_87 Depth=6
	;DEBUG_VALUE: mainSimpleSort:v <- [DW_OP_plus_uconst 232] [$sp+0]
	;DEBUG_VALUE: mainSimpleSort:h <- $w19
	;DEBUG_VALUE: mainSimpleSort:budget <- [DW_OP_plus_uconst 284, DW_OP_stack_value] $sp
	;DEBUG_VALUE: mainSimpleSort:d <- $w22
	;DEBUG_VALUE: mainSimpleSort:quadrant <- [DW_OP_plus_uconst 264] [$sp+0]
	;DEBUG_VALUE: mainSimpleSort:block <- $x24
	;DEBUG_VALUE: mainSimpleSort:ptr <- $x28
	;DEBUG_VALUE: mainQSort3:d <- $w22
	;DEBUG_VALUE: mainQSort3:budget <- [DW_OP_plus_uconst 284, DW_OP_stack_value] $sp
	;DEBUG_VALUE: mainQSort3:dSt <- 2
	;DEBUG_VALUE: mainQSort3:hiSt <- [DW_OP_plus_uconst 164] [$sp+0]
	;DEBUG_VALUE: mainQSort3:loSt <- [DW_OP_plus_uconst 180] [$sp+0]
	;DEBUG_VALUE: mainQSort3:quadrant <- [DW_OP_plus_uconst 264] [$sp+0]
	;DEBUG_VALUE: mainQSort3:block <- $x24
	;DEBUG_VALUE: mainQSort3:ptr <- $x28
	;DEBUG_VALUE: mainSort:j <- [DW_OP_plus_uconst 96] [$sp+0]
	;DEBUG_VALUE: hi <- [DW_OP_plus_uconst 164] [$sp+0]
	;DEBUG_VALUE: lo <- [DW_OP_plus_uconst 180] [$sp+0]
	;DEBUG_VALUE: mainSort:i <- [DW_OP_plus_uconst 64] [$sp+0]
	;DEBUG_VALUE: mainSort:ptr <- $x28
	;DEBUG_VALUE: mainSort:block <- $x24
	;DEBUG_VALUE: mainSort:quadrant <- [DW_OP_plus_uconst 264] [$sp+0]
	;DEBUG_VALUE: mainSort:ftab <- $x20
	;DEBUG_VALUE: mainSort:budget <- [DW_OP_plus_uconst 284, DW_OP_stack_value] $sp
	;DEBUG_VALUE: BZ2_blockSort:budget <- [DW_OP_plus_uconst 284, DW_OP_deref] $sp
	;DEBUG_VALUE: BZ2_blockSort:quadrant <- [DW_OP_plus_uconst 264] [$sp+0]
	;DEBUG_VALUE: BZ2_blockSort:nblock <- [DW_OP_plus_uconst 272] [$sp+0]
	;DEBUG_VALUE: BZ2_blockSort:block <- $x24
	;DEBUG_VALUE: BZ2_blockSort:ftab <- $x20
	;DEBUG_VALUE: BZ2_blockSort:ptr <- $x28
	.loc	1 0 10                          ; blocksort.c:0:10
	sxtw	x8, w21
Ltmp235:
	.loc	1 531 20 is_stmt 1              ; blocksort.c:531:20
	str	w26, [x28, x9, lsl  #2]
Ltmp236:
	;DEBUG_VALUE: mainSimpleSort:j <- undef
	.loc	1 533 19                        ; blocksort.c:533:19
	sub	w21, w8, w19
Ltmp237:
	.loc	1 533 17 is_stmt 0              ; blocksort.c:533:17
	cmp	w8, w23
	b.ge	LBB0_87
	b	LBB0_90
Ltmp238:
LBB0_89:                                ;   in Loop: Header=BB0_80 Depth=5
	;DEBUG_VALUE: mainSimpleSort:v <- [DW_OP_plus_uconst 232] [$sp+0]
	;DEBUG_VALUE: mainSimpleSort:h <- $w19
	;DEBUG_VALUE: mainSimpleSort:budget <- [DW_OP_plus_uconst 284, DW_OP_stack_value] $sp
	;DEBUG_VALUE: mainSimpleSort:d <- $w22
	;DEBUG_VALUE: mainSimpleSort:quadrant <- [DW_OP_plus_uconst 264] [$sp+0]
	;DEBUG_VALUE: mainSimpleSort:block <- $x24
	;DEBUG_VALUE: mainSimpleSort:ptr <- $x28
	;DEBUG_VALUE: mainQSort3:d <- $w22
	;DEBUG_VALUE: mainQSort3:budget <- [DW_OP_plus_uconst 284, DW_OP_stack_value] $sp
	;DEBUG_VALUE: mainQSort3:dSt <- 2
	;DEBUG_VALUE: mainQSort3:hiSt <- [DW_OP_plus_uconst 164] [$sp+0]
	;DEBUG_VALUE: mainQSort3:loSt <- [DW_OP_plus_uconst 180] [$sp+0]
	;DEBUG_VALUE: mainQSort3:quadrant <- [DW_OP_plus_uconst 264] [$sp+0]
	;DEBUG_VALUE: mainQSort3:block <- $x24
	;DEBUG_VALUE: mainQSort3:ptr <- $x28
	;DEBUG_VALUE: mainSort:j <- [DW_OP_plus_uconst 96] [$sp+0]
	;DEBUG_VALUE: hi <- [DW_OP_plus_uconst 164] [$sp+0]
	;DEBUG_VALUE: lo <- [DW_OP_plus_uconst 180] [$sp+0]
	;DEBUG_VALUE: mainSort:i <- [DW_OP_plus_uconst 64] [$sp+0]
	;DEBUG_VALUE: mainSort:ptr <- $x28
	;DEBUG_VALUE: mainSort:block <- $x24
	;DEBUG_VALUE: mainSort:quadrant <- [DW_OP_plus_uconst 264] [$sp+0]
	;DEBUG_VALUE: mainSort:ftab <- $x20
	;DEBUG_VALUE: mainSort:budget <- [DW_OP_plus_uconst 284, DW_OP_stack_value] $sp
	;DEBUG_VALUE: BZ2_blockSort:budget <- [DW_OP_plus_uconst 284, DW_OP_deref] $sp
	;DEBUG_VALUE: BZ2_blockSort:quadrant <- [DW_OP_plus_uconst 264] [$sp+0]
	;DEBUG_VALUE: BZ2_blockSort:nblock <- [DW_OP_plus_uconst 272] [$sp+0]
	;DEBUG_VALUE: BZ2_blockSort:block <- $x24
	;DEBUG_VALUE: BZ2_blockSort:ftab <- $x20
	;DEBUG_VALUE: BZ2_blockSort:ptr <- $x28
	.loc	1 0 17                          ; blocksort.c:0:17
	mov	x8, x9
Ltmp239:
LBB0_90:                                ; %split133.i.i.i
                                        ;   in Loop: Header=BB0_80 Depth=5
	;DEBUG_VALUE: mainSimpleSort:v <- [DW_OP_plus_uconst 232] [$sp+0]
	;DEBUG_VALUE: mainSimpleSort:h <- $w19
	;DEBUG_VALUE: mainSimpleSort:budget <- [DW_OP_plus_uconst 284, DW_OP_stack_value] $sp
	;DEBUG_VALUE: mainSimpleSort:d <- $w22
	;DEBUG_VALUE: mainSimpleSort:quadrant <- [DW_OP_plus_uconst 264] [$sp+0]
	;DEBUG_VALUE: mainSimpleSort:block <- $x24
	;DEBUG_VALUE: mainSimpleSort:ptr <- $x28
	;DEBUG_VALUE: mainQSort3:d <- $w22
	;DEBUG_VALUE: mainQSort3:budget <- [DW_OP_plus_uconst 284, DW_OP_stack_value] $sp
	;DEBUG_VALUE: mainQSort3:dSt <- 2
	;DEBUG_VALUE: mainQSort3:hiSt <- [DW_OP_plus_uconst 164] [$sp+0]
	;DEBUG_VALUE: mainQSort3:loSt <- [DW_OP_plus_uconst 180] [$sp+0]
	;DEBUG_VALUE: mainQSort3:quadrant <- [DW_OP_plus_uconst 264] [$sp+0]
	;DEBUG_VALUE: mainQSort3:block <- $x24
	;DEBUG_VALUE: mainQSort3:ptr <- $x28
	;DEBUG_VALUE: mainSort:j <- [DW_OP_plus_uconst 96] [$sp+0]
	;DEBUG_VALUE: hi <- [DW_OP_plus_uconst 164] [$sp+0]
	;DEBUG_VALUE: lo <- [DW_OP_plus_uconst 180] [$sp+0]
	;DEBUG_VALUE: mainSort:i <- [DW_OP_plus_uconst 64] [$sp+0]
	;DEBUG_VALUE: mainSort:ptr <- $x28
	;DEBUG_VALUE: mainSort:block <- $x24
	;DEBUG_VALUE: mainSort:quadrant <- [DW_OP_plus_uconst 264] [$sp+0]
	;DEBUG_VALUE: mainSort:ftab <- $x20
	;DEBUG_VALUE: mainSort:budget <- [DW_OP_plus_uconst 284, DW_OP_stack_value] $sp
	;DEBUG_VALUE: BZ2_blockSort:budget <- [DW_OP_plus_uconst 284, DW_OP_deref] $sp
	;DEBUG_VALUE: BZ2_blockSort:quadrant <- [DW_OP_plus_uconst 264] [$sp+0]
	;DEBUG_VALUE: BZ2_blockSort:nblock <- [DW_OP_plus_uconst 272] [$sp+0]
	;DEBUG_VALUE: BZ2_blockSort:block <- $x24
	;DEBUG_VALUE: BZ2_blockSort:ftab <- $x20
	;DEBUG_VALUE: BZ2_blockSort:ptr <- $x28
	;DEBUG_VALUE: mainSimpleSort:j <- undef
	ldr	w9, [sp, #232]                  ; 4-byte Folded Reload
	.loc	1 535 17 is_stmt 1              ; blocksort.c:535:17
	str	w9, [x28, x8, lsl  #2]
	ldr	x8, [sp, #256]                  ; 8-byte Folded Reload
	.loc	1 536 11                        ; blocksort.c:536:11
	add	x8, x8, #2
Ltmp240:
	;DEBUG_VALUE: mainSimpleSort:i <- $x8
	.loc	1 0 11 is_stmt 0                ; blocksort.c:0:11
	ldr	x13, [sp, #240]                 ; 8-byte Folded Reload
	.loc	1 539 14 is_stmt 1              ; blocksort.c:539:14
	cmp	x8, x13
	b.gt	LBB0_76
Ltmp241:
; %bb.91:                               ;   in Loop: Header=BB0_80 Depth=5
	;DEBUG_VALUE: mainSimpleSort:i <- $x8
	;DEBUG_VALUE: mainSimpleSort:v <- [DW_OP_plus_uconst 232] [$sp+0]
	;DEBUG_VALUE: mainSimpleSort:h <- $w19
	;DEBUG_VALUE: mainSimpleSort:budget <- [DW_OP_plus_uconst 284, DW_OP_stack_value] $sp
	;DEBUG_VALUE: mainSimpleSort:d <- $w22
	;DEBUG_VALUE: mainSimpleSort:quadrant <- [DW_OP_plus_uconst 264] [$sp+0]
	;DEBUG_VALUE: mainSimpleSort:block <- $x24
	;DEBUG_VALUE: mainSimpleSort:ptr <- $x28
	;DEBUG_VALUE: mainQSort3:d <- $w22
	;DEBUG_VALUE: mainQSort3:budget <- [DW_OP_plus_uconst 284, DW_OP_stack_value] $sp
	;DEBUG_VALUE: mainQSort3:dSt <- 2
	;DEBUG_VALUE: mainQSort3:hiSt <- [DW_OP_plus_uconst 164] [$sp+0]
	;DEBUG_VALUE: mainQSort3:loSt <- [DW_OP_plus_uconst 180] [$sp+0]
	;DEBUG_VALUE: mainQSort3:quadrant <- [DW_OP_plus_uconst 264] [$sp+0]
	;DEBUG_VALUE: mainQSort3:block <- $x24
	;DEBUG_VALUE: mainQSort3:ptr <- $x28
	;DEBUG_VALUE: mainSort:j <- [DW_OP_plus_uconst 96] [$sp+0]
	;DEBUG_VALUE: hi <- [DW_OP_plus_uconst 164] [$sp+0]
	;DEBUG_VALUE: lo <- [DW_OP_plus_uconst 180] [$sp+0]
	;DEBUG_VALUE: mainSort:i <- [DW_OP_plus_uconst 64] [$sp+0]
	;DEBUG_VALUE: mainSort:ptr <- $x28
	;DEBUG_VALUE: mainSort:block <- $x24
	;DEBUG_VALUE: mainSort:quadrant <- [DW_OP_plus_uconst 264] [$sp+0]
	;DEBUG_VALUE: mainSort:ftab <- $x20
	;DEBUG_VALUE: mainSort:budget <- [DW_OP_plus_uconst 284, DW_OP_stack_value] $sp
	;DEBUG_VALUE: BZ2_blockSort:budget <- [DW_OP_plus_uconst 284, DW_OP_deref] $sp
	;DEBUG_VALUE: BZ2_blockSort:quadrant <- [DW_OP_plus_uconst 264] [$sp+0]
	;DEBUG_VALUE: BZ2_blockSort:nblock <- [DW_OP_plus_uconst 272] [$sp+0]
	;DEBUG_VALUE: BZ2_blockSort:block <- $x24
	;DEBUG_VALUE: BZ2_blockSort:ftab <- $x20
	;DEBUG_VALUE: BZ2_blockSort:ptr <- $x28
	.loc	1 540 14                        ; blocksort.c:540:14
	ldr	w8, [x28, x8, lsl  #2]
Ltmp242:
	;DEBUG_VALUE: mainSimpleSort:j <- undef
	;DEBUG_VALUE: mainSimpleSort:v <- $w8
	.loc	1 0 14 is_stmt 0                ; blocksort.c:0:14
	str	w8, [sp, #232]                  ; 4-byte Folded Spill
Ltmp243:
	;DEBUG_VALUE: mainSimpleSort:v <- [DW_OP_plus_uconst 232] [$sp+0]
	add	w27, w8, w22
	ldr	w21, [sp, #236]                 ; 4-byte Folded Reload
Ltmp244:
LBB0_92:                                ;   Parent Loop BB0_33 Depth=1
                                        ;     Parent Loop BB0_37 Depth=2
                                        ;       Parent Loop BB0_46 Depth=3
                                        ;         Parent Loop BB0_77 Depth=4
                                        ;           Parent Loop BB0_80 Depth=5
                                        ; =>          This Inner Loop Header: Depth=6
	;DEBUG_VALUE: mainSimpleSort:v <- [DW_OP_plus_uconst 232] [$sp+0]
	;DEBUG_VALUE: mainSimpleSort:h <- $w19
	;DEBUG_VALUE: mainSimpleSort:budget <- [DW_OP_plus_uconst 284, DW_OP_stack_value] $sp
	;DEBUG_VALUE: mainSimpleSort:d <- $w22
	;DEBUG_VALUE: mainSimpleSort:quadrant <- [DW_OP_plus_uconst 264] [$sp+0]
	;DEBUG_VALUE: mainSimpleSort:block <- $x24
	;DEBUG_VALUE: mainSimpleSort:ptr <- $x28
	;DEBUG_VALUE: mainQSort3:d <- $w22
	;DEBUG_VALUE: mainQSort3:budget <- [DW_OP_plus_uconst 284, DW_OP_stack_value] $sp
	;DEBUG_VALUE: mainQSort3:dSt <- 2
	;DEBUG_VALUE: mainQSort3:hiSt <- [DW_OP_plus_uconst 164] [$sp+0]
	;DEBUG_VALUE: mainQSort3:loSt <- [DW_OP_plus_uconst 180] [$sp+0]
	;DEBUG_VALUE: mainQSort3:quadrant <- [DW_OP_plus_uconst 264] [$sp+0]
	;DEBUG_VALUE: mainQSort3:block <- $x24
	;DEBUG_VALUE: mainQSort3:ptr <- $x28
	;DEBUG_VALUE: mainSort:j <- [DW_OP_plus_uconst 96] [$sp+0]
	;DEBUG_VALUE: hi <- [DW_OP_plus_uconst 164] [$sp+0]
	;DEBUG_VALUE: lo <- [DW_OP_plus_uconst 180] [$sp+0]
	;DEBUG_VALUE: mainSort:i <- [DW_OP_plus_uconst 64] [$sp+0]
	;DEBUG_VALUE: mainSort:ptr <- $x28
	;DEBUG_VALUE: mainSort:block <- $x24
	;DEBUG_VALUE: mainSort:quadrant <- [DW_OP_plus_uconst 264] [$sp+0]
	;DEBUG_VALUE: mainSort:ftab <- $x20
	;DEBUG_VALUE: mainSort:budget <- [DW_OP_plus_uconst 284, DW_OP_stack_value] $sp
	;DEBUG_VALUE: BZ2_blockSort:budget <- [DW_OP_plus_uconst 284, DW_OP_deref] $sp
	;DEBUG_VALUE: BZ2_blockSort:quadrant <- [DW_OP_plus_uconst 264] [$sp+0]
	;DEBUG_VALUE: BZ2_blockSort:nblock <- [DW_OP_plus_uconst 272] [$sp+0]
	;DEBUG_VALUE: BZ2_blockSort:block <- $x24
	;DEBUG_VALUE: BZ2_blockSort:ftab <- $x20
	;DEBUG_VALUE: BZ2_blockSort:ptr <- $x28
	;DEBUG_VALUE: mainSimpleSort:j <- undef
	.loc	1 543 26 is_stmt 1              ; blocksort.c:543:26
	add	w25, w19, w21
	.loc	1 543 21 is_stmt 0              ; blocksort.c:543:21
	ldr	w26, [x28, w21, sxtw  #2]
	.loc	1 543 29                        ; blocksort.c:543:29
	add	w0, w26, w22
	.loc	1 542 18 is_stmt 1              ; blocksort.c:542:18
	add	x5, sp, #284
	mov	x1, x27
	mov	x2, x24
	ldp	x3, x4, [sp, #264]              ; 16-byte Folded Reload
                                        ; kill: def $w4 killed $w4 killed $x4
	bl	_mainGtU
Ltmp245:
	.loc	1 0 0 is_stmt 0                 ; blocksort.c:0:0
	sxtw	x9, w25
	.loc	1 542 10                        ; blocksort.c:542:10
	cbz	w0, LBB0_78
Ltmp246:
; %bb.93:                               ;   in Loop: Header=BB0_92 Depth=6
	;DEBUG_VALUE: mainSimpleSort:v <- [DW_OP_plus_uconst 232] [$sp+0]
	;DEBUG_VALUE: mainSimpleSort:h <- $w19
	;DEBUG_VALUE: mainSimpleSort:budget <- [DW_OP_plus_uconst 284, DW_OP_stack_value] $sp
	;DEBUG_VALUE: mainSimpleSort:d <- $w22
	;DEBUG_VALUE: mainSimpleSort:quadrant <- [DW_OP_plus_uconst 264] [$sp+0]
	;DEBUG_VALUE: mainSimpleSort:block <- $x24
	;DEBUG_VALUE: mainSimpleSort:ptr <- $x28
	;DEBUG_VALUE: mainQSort3:d <- $w22
	;DEBUG_VALUE: mainQSort3:budget <- [DW_OP_plus_uconst 284, DW_OP_stack_value] $sp
	;DEBUG_VALUE: mainQSort3:dSt <- 2
	;DEBUG_VALUE: mainQSort3:hiSt <- [DW_OP_plus_uconst 164] [$sp+0]
	;DEBUG_VALUE: mainQSort3:loSt <- [DW_OP_plus_uconst 180] [$sp+0]
	;DEBUG_VALUE: mainQSort3:quadrant <- [DW_OP_plus_uconst 264] [$sp+0]
	;DEBUG_VALUE: mainQSort3:block <- $x24
	;DEBUG_VALUE: mainQSort3:ptr <- $x28
	;DEBUG_VALUE: mainSort:j <- [DW_OP_plus_uconst 96] [$sp+0]
	;DEBUG_VALUE: hi <- [DW_OP_plus_uconst 164] [$sp+0]
	;DEBUG_VALUE: lo <- [DW_OP_plus_uconst 180] [$sp+0]
	;DEBUG_VALUE: mainSort:i <- [DW_OP_plus_uconst 64] [$sp+0]
	;DEBUG_VALUE: mainSort:ptr <- $x28
	;DEBUG_VALUE: mainSort:block <- $x24
	;DEBUG_VALUE: mainSort:quadrant <- [DW_OP_plus_uconst 264] [$sp+0]
	;DEBUG_VALUE: mainSort:ftab <- $x20
	;DEBUG_VALUE: mainSort:budget <- [DW_OP_plus_uconst 284, DW_OP_stack_value] $sp
	;DEBUG_VALUE: BZ2_blockSort:budget <- [DW_OP_plus_uconst 284, DW_OP_deref] $sp
	;DEBUG_VALUE: BZ2_blockSort:quadrant <- [DW_OP_plus_uconst 264] [$sp+0]
	;DEBUG_VALUE: BZ2_blockSort:nblock <- [DW_OP_plus_uconst 272] [$sp+0]
	;DEBUG_VALUE: BZ2_blockSort:block <- $x24
	;DEBUG_VALUE: BZ2_blockSort:ftab <- $x20
	;DEBUG_VALUE: BZ2_blockSort:ptr <- $x28
	.loc	1 0 10                          ; blocksort.c:0:10
	sxtw	x8, w21
Ltmp247:
	.loc	1 545 20 is_stmt 1              ; blocksort.c:545:20
	str	w26, [x28, x9, lsl  #2]
Ltmp248:
	;DEBUG_VALUE: mainSimpleSort:j <- undef
	.loc	1 547 19                        ; blocksort.c:547:19
	sub	w21, w8, w19
Ltmp249:
	.loc	1 547 17 is_stmt 0              ; blocksort.c:547:17
	cmp	w8, w23
	b.ge	LBB0_92
	b	LBB0_79
Ltmp250:
LBB0_94:                                ;   in Loop: Header=BB0_46 Depth=3
	;DEBUG_VALUE: mainQSort3:med <- [DW_OP_LLVM_convert 8 7, DW_OP_LLVM_convert 32 7, DW_OP_stack_value] $w15
	;DEBUG_VALUE: mainQSort3:d <- $w22
	;DEBUG_VALUE: mainQSort3:hi <- $w9
	;DEBUG_VALUE: mainQSort3:lo <- $w30
	;DEBUG_VALUE: mainQSort3:sp <- $w3
	;DEBUG_VALUE: mainQSort3:budget <- [DW_OP_plus_uconst 284, DW_OP_stack_value] $sp
	;DEBUG_VALUE: mainQSort3:dSt <- 2
	;DEBUG_VALUE: mainQSort3:hiSt <- [DW_OP_plus_uconst 164] [$sp+0]
	;DEBUG_VALUE: mainQSort3:loSt <- [DW_OP_plus_uconst 180] [$sp+0]
	;DEBUG_VALUE: mainQSort3:quadrant <- [DW_OP_plus_uconst 264] [$sp+0]
	;DEBUG_VALUE: mainQSort3:block <- $x24
	;DEBUG_VALUE: mainQSort3:ptr <- $x28
	;DEBUG_VALUE: mainSort:j <- [DW_OP_plus_uconst 96] [$sp+0]
	;DEBUG_VALUE: hi <- [DW_OP_plus_uconst 164] [$sp+0]
	;DEBUG_VALUE: lo <- [DW_OP_plus_uconst 180] [$sp+0]
	;DEBUG_VALUE: mainSort:i <- [DW_OP_plus_uconst 64] [$sp+0]
	;DEBUG_VALUE: mainSort:ptr <- $x28
	;DEBUG_VALUE: mainSort:block <- $x24
	;DEBUG_VALUE: mainSort:quadrant <- [DW_OP_plus_uconst 264] [$sp+0]
	;DEBUG_VALUE: mainSort:ftab <- $x20
	;DEBUG_VALUE: mainSort:budget <- [DW_OP_plus_uconst 284, DW_OP_stack_value] $sp
	;DEBUG_VALUE: BZ2_blockSort:budget <- [DW_OP_plus_uconst 284, DW_OP_deref] $sp
	;DEBUG_VALUE: BZ2_blockSort:quadrant <- [DW_OP_plus_uconst 264] [$sp+0]
	;DEBUG_VALUE: BZ2_blockSort:nblock <- [DW_OP_plus_uconst 272] [$sp+0]
	;DEBUG_VALUE: BZ2_blockSort:block <- $x24
	;DEBUG_VALUE: BZ2_blockSort:ftab <- $x20
	;DEBUG_VALUE: BZ2_blockSort:ptr <- $x28
	.loc	1 696 17 is_stmt 1              ; blocksort.c:696:17
	sub	w15, w11, w30
Ltmp251:
	.loc	1 696 29 is_stmt 0              ; blocksort.c:696:29
	sub	w16, w10, w11
	.loc	1 696 11                        ; blocksort.c:696:11
	cmp	w15, w16
	csel	w15, w15, w16, lt
Ltmp252:
	;DEBUG_VALUE: yyp1 <- undef
	;DEBUG_VALUE: yyn <- $w15
	;DEBUG_VALUE: yyp2 <- [DW_OP_LLVM_arg 0, DW_OP_LLVM_arg 1, DW_OP_minus, DW_OP_stack_value] $w10, $w15
	;DEBUG_VALUE: mainQSort3:n <- $w15
	.loc	1 696 125                       ; blocksort.c:696:125
	subs	w17, w15, #1
	b.lt	LBB0_103
Ltmp253:
; %bb.95:                               ; %.lr.ph325.preheader.i.i
                                        ;   in Loop: Header=BB0_46 Depth=3
	;DEBUG_VALUE: mainQSort3:n <- $w15
	;DEBUG_VALUE: yyp2 <- [DW_OP_LLVM_arg 0, DW_OP_LLVM_arg 1, DW_OP_minus, DW_OP_stack_value] $w10, $w15
	;DEBUG_VALUE: yyn <- $w15
	;DEBUG_VALUE: mainQSort3:d <- $w22
	;DEBUG_VALUE: mainQSort3:hi <- $w9
	;DEBUG_VALUE: mainQSort3:lo <- $w30
	;DEBUG_VALUE: mainQSort3:sp <- $w3
	;DEBUG_VALUE: mainQSort3:budget <- [DW_OP_plus_uconst 284, DW_OP_stack_value] $sp
	;DEBUG_VALUE: mainQSort3:dSt <- 2
	;DEBUG_VALUE: mainQSort3:hiSt <- [DW_OP_plus_uconst 164] [$sp+0]
	;DEBUG_VALUE: mainQSort3:loSt <- [DW_OP_plus_uconst 180] [$sp+0]
	;DEBUG_VALUE: mainQSort3:quadrant <- [DW_OP_plus_uconst 264] [$sp+0]
	;DEBUG_VALUE: mainQSort3:block <- $x24
	;DEBUG_VALUE: mainQSort3:ptr <- $x28
	;DEBUG_VALUE: mainSort:j <- [DW_OP_plus_uconst 96] [$sp+0]
	;DEBUG_VALUE: hi <- [DW_OP_plus_uconst 164] [$sp+0]
	;DEBUG_VALUE: lo <- [DW_OP_plus_uconst 180] [$sp+0]
	;DEBUG_VALUE: mainSort:i <- [DW_OP_plus_uconst 64] [$sp+0]
	;DEBUG_VALUE: mainSort:ptr <- $x28
	;DEBUG_VALUE: mainSort:block <- $x24
	;DEBUG_VALUE: mainSort:quadrant <- [DW_OP_plus_uconst 264] [$sp+0]
	;DEBUG_VALUE: mainSort:ftab <- $x20
	;DEBUG_VALUE: mainSort:budget <- [DW_OP_plus_uconst 284, DW_OP_stack_value] $sp
	;DEBUG_VALUE: BZ2_blockSort:budget <- [DW_OP_plus_uconst 284, DW_OP_deref] $sp
	;DEBUG_VALUE: BZ2_blockSort:quadrant <- [DW_OP_plus_uconst 264] [$sp+0]
	;DEBUG_VALUE: BZ2_blockSort:nblock <- [DW_OP_plus_uconst 272] [$sp+0]
	;DEBUG_VALUE: BZ2_blockSort:block <- $x24
	;DEBUG_VALUE: BZ2_blockSort:ftab <- $x20
	;DEBUG_VALUE: BZ2_blockSort:ptr <- $x28
	.loc	1 696 103                       ; blocksort.c:696:103
	sub	w16, w10, w15
Ltmp254:
	;DEBUG_VALUE: yyp2 <- $w16
	.loc	1 696 125                       ; blocksort.c:696:125
	sxtw	x16, w16
Ltmp255:
	cmp	w15, #8
	b.lo	LBB0_101
Ltmp256:
; %bb.96:                               ; %vector.memcheck430
                                        ;   in Loop: Header=BB0_46 Depth=3
	;DEBUG_VALUE: mainQSort3:n <- $w15
	;DEBUG_VALUE: yyn <- $w15
	;DEBUG_VALUE: mainQSort3:d <- $w22
	;DEBUG_VALUE: mainQSort3:hi <- $w9
	;DEBUG_VALUE: mainQSort3:lo <- $w30
	;DEBUG_VALUE: mainQSort3:sp <- $w3
	;DEBUG_VALUE: mainQSort3:budget <- [DW_OP_plus_uconst 284, DW_OP_stack_value] $sp
	;DEBUG_VALUE: mainQSort3:dSt <- 2
	;DEBUG_VALUE: mainQSort3:hiSt <- [DW_OP_plus_uconst 164] [$sp+0]
	;DEBUG_VALUE: mainQSort3:loSt <- [DW_OP_plus_uconst 180] [$sp+0]
	;DEBUG_VALUE: mainQSort3:quadrant <- [DW_OP_plus_uconst 264] [$sp+0]
	;DEBUG_VALUE: mainQSort3:block <- $x24
	;DEBUG_VALUE: mainQSort3:ptr <- $x28
	;DEBUG_VALUE: mainSort:j <- [DW_OP_plus_uconst 96] [$sp+0]
	;DEBUG_VALUE: hi <- [DW_OP_plus_uconst 164] [$sp+0]
	;DEBUG_VALUE: lo <- [DW_OP_plus_uconst 180] [$sp+0]
	;DEBUG_VALUE: mainSort:i <- [DW_OP_plus_uconst 64] [$sp+0]
	;DEBUG_VALUE: mainSort:ptr <- $x28
	;DEBUG_VALUE: mainSort:block <- $x24
	;DEBUG_VALUE: mainSort:quadrant <- [DW_OP_plus_uconst 264] [$sp+0]
	;DEBUG_VALUE: mainSort:ftab <- $x20
	;DEBUG_VALUE: mainSort:budget <- [DW_OP_plus_uconst 284, DW_OP_stack_value] $sp
	;DEBUG_VALUE: BZ2_blockSort:budget <- [DW_OP_plus_uconst 284, DW_OP_deref] $sp
	;DEBUG_VALUE: BZ2_blockSort:quadrant <- [DW_OP_plus_uconst 264] [$sp+0]
	;DEBUG_VALUE: BZ2_blockSort:nblock <- [DW_OP_plus_uconst 272] [$sp+0]
	;DEBUG_VALUE: BZ2_blockSort:block <- $x24
	;DEBUG_VALUE: BZ2_blockSort:ftab <- $x20
	;DEBUG_VALUE: BZ2_blockSort:ptr <- $x28
	lsl	x0, x12, #2
	ubfiz	x2, x17, #2, #32
	lsl	x1, x16, #2
	add	x3, x1, x2
Ltmp257:
	.loc	1 0 125                         ; blocksort.c:0:125
	ldr	x4, [sp, #184]                  ; 8-byte Folded Reload
	.loc	1 696 125                       ; blocksort.c:696:125
	add	x3, x4, x3
	add	x4, x28, x0
	cmp	x4, x3
	b.hs	LBB0_98
Ltmp258:
; %bb.97:                               ; %vector.memcheck430
                                        ;   in Loop: Header=BB0_46 Depth=3
	;DEBUG_VALUE: mainQSort3:n <- $w15
	;DEBUG_VALUE: yyn <- $w15
	;DEBUG_VALUE: mainQSort3:d <- $w22
	;DEBUG_VALUE: mainQSort3:hi <- $w9
	;DEBUG_VALUE: mainQSort3:lo <- $w30
	;DEBUG_VALUE: mainQSort3:budget <- [DW_OP_plus_uconst 284, DW_OP_stack_value] $sp
	;DEBUG_VALUE: mainQSort3:dSt <- 2
	;DEBUG_VALUE: mainQSort3:hiSt <- [DW_OP_plus_uconst 164] [$sp+0]
	;DEBUG_VALUE: mainQSort3:loSt <- [DW_OP_plus_uconst 180] [$sp+0]
	;DEBUG_VALUE: mainQSort3:quadrant <- [DW_OP_plus_uconst 264] [$sp+0]
	;DEBUG_VALUE: mainQSort3:block <- $x24
	;DEBUG_VALUE: mainQSort3:ptr <- $x28
	;DEBUG_VALUE: mainSort:j <- [DW_OP_plus_uconst 96] [$sp+0]
	;DEBUG_VALUE: hi <- [DW_OP_plus_uconst 164] [$sp+0]
	;DEBUG_VALUE: lo <- [DW_OP_plus_uconst 180] [$sp+0]
	;DEBUG_VALUE: mainSort:i <- [DW_OP_plus_uconst 64] [$sp+0]
	;DEBUG_VALUE: mainSort:ptr <- $x28
	;DEBUG_VALUE: mainSort:block <- $x24
	;DEBUG_VALUE: mainSort:quadrant <- [DW_OP_plus_uconst 264] [$sp+0]
	;DEBUG_VALUE: mainSort:ftab <- $x20
	;DEBUG_VALUE: mainSort:budget <- [DW_OP_plus_uconst 284, DW_OP_stack_value] $sp
	;DEBUG_VALUE: BZ2_blockSort:budget <- [DW_OP_plus_uconst 284, DW_OP_deref] $sp
	;DEBUG_VALUE: BZ2_blockSort:quadrant <- [DW_OP_plus_uconst 264] [$sp+0]
	;DEBUG_VALUE: BZ2_blockSort:nblock <- [DW_OP_plus_uconst 272] [$sp+0]
	;DEBUG_VALUE: BZ2_blockSort:block <- $x24
	;DEBUG_VALUE: BZ2_blockSort:ftab <- $x20
	;DEBUG_VALUE: BZ2_blockSort:ptr <- $x28
	add	x0, x0, x2
	ldr	x2, [sp, #184]                  ; 8-byte Folded Reload
	add	x0, x2, x0
	add	x1, x28, x1
	cmp	x1, x0
	b.lo	LBB0_101
Ltmp259:
LBB0_98:                                ; %vector.ph443
                                        ;   in Loop: Header=BB0_46 Depth=3
	;DEBUG_VALUE: mainQSort3:n <- $w15
	;DEBUG_VALUE: yyn <- $w15
	;DEBUG_VALUE: mainQSort3:d <- $w22
	;DEBUG_VALUE: mainQSort3:hi <- $w9
	;DEBUG_VALUE: mainQSort3:lo <- $w30
	;DEBUG_VALUE: mainQSort3:budget <- [DW_OP_plus_uconst 284, DW_OP_stack_value] $sp
	;DEBUG_VALUE: mainQSort3:dSt <- 2
	;DEBUG_VALUE: mainQSort3:hiSt <- [DW_OP_plus_uconst 164] [$sp+0]
	;DEBUG_VALUE: mainQSort3:loSt <- [DW_OP_plus_uconst 180] [$sp+0]
	;DEBUG_VALUE: mainQSort3:quadrant <- [DW_OP_plus_uconst 264] [$sp+0]
	;DEBUG_VALUE: mainQSort3:block <- $x24
	;DEBUG_VALUE: mainQSort3:ptr <- $x28
	;DEBUG_VALUE: mainSort:j <- [DW_OP_plus_uconst 96] [$sp+0]
	;DEBUG_VALUE: hi <- [DW_OP_plus_uconst 164] [$sp+0]
	;DEBUG_VALUE: lo <- [DW_OP_plus_uconst 180] [$sp+0]
	;DEBUG_VALUE: mainSort:i <- [DW_OP_plus_uconst 64] [$sp+0]
	;DEBUG_VALUE: mainSort:ptr <- $x28
	;DEBUG_VALUE: mainSort:block <- $x24
	;DEBUG_VALUE: mainSort:quadrant <- [DW_OP_plus_uconst 264] [$sp+0]
	;DEBUG_VALUE: mainSort:ftab <- $x20
	;DEBUG_VALUE: mainSort:budget <- [DW_OP_plus_uconst 284, DW_OP_stack_value] $sp
	;DEBUG_VALUE: BZ2_blockSort:budget <- [DW_OP_plus_uconst 284, DW_OP_deref] $sp
	;DEBUG_VALUE: BZ2_blockSort:quadrant <- [DW_OP_plus_uconst 264] [$sp+0]
	;DEBUG_VALUE: BZ2_blockSort:nblock <- [DW_OP_plus_uconst 272] [$sp+0]
	;DEBUG_VALUE: BZ2_blockSort:block <- $x24
	;DEBUG_VALUE: BZ2_blockSort:ftab <- $x20
	;DEBUG_VALUE: BZ2_blockSort:ptr <- $x28
	add	x17, x17, #1
	and	x0, x17, #0x1fffffff8
	add	x1, x0, x12
	add	x2, x0, x16
	sub	w15, w15, w0
Ltmp260:
	.loc	1 0 125                         ; blocksort.c:0:125
	ldr	x3, [sp, #80]                   ; 8-byte Folded Reload
	.loc	1 696 125                       ; blocksort.c:696:125
	add	x12, x3, x12, lsl #2
	add	x16, x3, x16, lsl #2
	mov	x3, x0
Ltmp261:
LBB0_99:                                ; %vector.body454
                                        ;   Parent Loop BB0_33 Depth=1
                                        ;     Parent Loop BB0_37 Depth=2
                                        ;       Parent Loop BB0_46 Depth=3
                                        ; =>      This Inner Loop Header: Depth=4
	;DEBUG_VALUE: mainQSort3:d <- $w22
	;DEBUG_VALUE: mainQSort3:hi <- $w9
	;DEBUG_VALUE: mainQSort3:lo <- $w30
	;DEBUG_VALUE: mainQSort3:budget <- [DW_OP_plus_uconst 284, DW_OP_stack_value] $sp
	;DEBUG_VALUE: mainQSort3:dSt <- 2
	;DEBUG_VALUE: mainQSort3:hiSt <- [DW_OP_plus_uconst 164] [$sp+0]
	;DEBUG_VALUE: mainQSort3:loSt <- [DW_OP_plus_uconst 180] [$sp+0]
	;DEBUG_VALUE: mainQSort3:quadrant <- [DW_OP_plus_uconst 264] [$sp+0]
	;DEBUG_VALUE: mainQSort3:block <- $x24
	;DEBUG_VALUE: mainQSort3:ptr <- $x28
	;DEBUG_VALUE: mainSort:j <- [DW_OP_plus_uconst 96] [$sp+0]
	;DEBUG_VALUE: hi <- [DW_OP_plus_uconst 164] [$sp+0]
	;DEBUG_VALUE: lo <- [DW_OP_plus_uconst 180] [$sp+0]
	;DEBUG_VALUE: mainSort:i <- [DW_OP_plus_uconst 64] [$sp+0]
	;DEBUG_VALUE: mainSort:ptr <- $x28
	;DEBUG_VALUE: mainSort:block <- $x24
	;DEBUG_VALUE: mainSort:quadrant <- [DW_OP_plus_uconst 264] [$sp+0]
	;DEBUG_VALUE: mainSort:ftab <- $x20
	;DEBUG_VALUE: mainSort:budget <- [DW_OP_plus_uconst 284, DW_OP_stack_value] $sp
	;DEBUG_VALUE: BZ2_blockSort:budget <- [DW_OP_plus_uconst 284, DW_OP_deref] $sp
	;DEBUG_VALUE: BZ2_blockSort:quadrant <- [DW_OP_plus_uconst 264] [$sp+0]
	;DEBUG_VALUE: BZ2_blockSort:nblock <- [DW_OP_plus_uconst 272] [$sp+0]
	;DEBUG_VALUE: BZ2_blockSort:block <- $x24
	;DEBUG_VALUE: BZ2_blockSort:ftab <- $x20
	;DEBUG_VALUE: BZ2_blockSort:ptr <- $x28
	.loc	1 696 159                       ; blocksort.c:696:159
	ldp	q0, q1, [x12, #-16]
	.loc	1 696 182                       ; blocksort.c:696:182
	ldp	q2, q3, [x16, #-16]
	.loc	1 696 180                       ; blocksort.c:696:180
	stp	q2, q3, [x12, #-16]
	.loc	1 696 203                       ; blocksort.c:696:203
	stp	q0, q1, [x16, #-16]
	add	x12, x12, #32
	add	x16, x16, #32
	subs	x3, x3, #8
	b.ne	LBB0_99
Ltmp262:
; %bb.100:                              ; %middle.block440
                                        ;   in Loop: Header=BB0_46 Depth=3
	;DEBUG_VALUE: mainQSort3:d <- $w22
	;DEBUG_VALUE: mainQSort3:hi <- $w9
	;DEBUG_VALUE: mainQSort3:lo <- $w30
	;DEBUG_VALUE: mainQSort3:budget <- [DW_OP_plus_uconst 284, DW_OP_stack_value] $sp
	;DEBUG_VALUE: mainQSort3:dSt <- 2
	;DEBUG_VALUE: mainQSort3:hiSt <- [DW_OP_plus_uconst 164] [$sp+0]
	;DEBUG_VALUE: mainQSort3:loSt <- [DW_OP_plus_uconst 180] [$sp+0]
	;DEBUG_VALUE: mainQSort3:quadrant <- [DW_OP_plus_uconst 264] [$sp+0]
	;DEBUG_VALUE: mainQSort3:block <- $x24
	;DEBUG_VALUE: mainQSort3:ptr <- $x28
	;DEBUG_VALUE: mainSort:j <- [DW_OP_plus_uconst 96] [$sp+0]
	;DEBUG_VALUE: hi <- [DW_OP_plus_uconst 164] [$sp+0]
	;DEBUG_VALUE: lo <- [DW_OP_plus_uconst 180] [$sp+0]
	;DEBUG_VALUE: mainSort:i <- [DW_OP_plus_uconst 64] [$sp+0]
	;DEBUG_VALUE: mainSort:ptr <- $x28
	;DEBUG_VALUE: mainSort:block <- $x24
	;DEBUG_VALUE: mainSort:quadrant <- [DW_OP_plus_uconst 264] [$sp+0]
	;DEBUG_VALUE: mainSort:ftab <- $x20
	;DEBUG_VALUE: mainSort:budget <- [DW_OP_plus_uconst 284, DW_OP_stack_value] $sp
	;DEBUG_VALUE: BZ2_blockSort:budget <- [DW_OP_plus_uconst 284, DW_OP_deref] $sp
	;DEBUG_VALUE: BZ2_blockSort:quadrant <- [DW_OP_plus_uconst 264] [$sp+0]
	;DEBUG_VALUE: BZ2_blockSort:nblock <- [DW_OP_plus_uconst 272] [$sp+0]
	;DEBUG_VALUE: BZ2_blockSort:block <- $x24
	;DEBUG_VALUE: BZ2_blockSort:ftab <- $x20
	;DEBUG_VALUE: BZ2_blockSort:ptr <- $x28
	.loc	1 0 203                         ; blocksort.c:0:203
	mov	x12, x1
	mov	x16, x2
	.loc	1 696 125                       ; blocksort.c:696:125
	cmp	x17, x0
	b.eq	LBB0_103
Ltmp263:
LBB0_101:                               ; %.lr.ph325.i.i.preheader
                                        ;   in Loop: Header=BB0_46 Depth=3
	;DEBUG_VALUE: mainQSort3:d <- $w22
	;DEBUG_VALUE: mainQSort3:hi <- $w9
	;DEBUG_VALUE: mainQSort3:lo <- $w30
	;DEBUG_VALUE: mainQSort3:budget <- [DW_OP_plus_uconst 284, DW_OP_stack_value] $sp
	;DEBUG_VALUE: mainQSort3:dSt <- 2
	;DEBUG_VALUE: mainQSort3:hiSt <- [DW_OP_plus_uconst 164] [$sp+0]
	;DEBUG_VALUE: mainQSort3:loSt <- [DW_OP_plus_uconst 180] [$sp+0]
	;DEBUG_VALUE: mainQSort3:quadrant <- [DW_OP_plus_uconst 264] [$sp+0]
	;DEBUG_VALUE: mainQSort3:block <- $x24
	;DEBUG_VALUE: mainQSort3:ptr <- $x28
	;DEBUG_VALUE: mainSort:j <- [DW_OP_plus_uconst 96] [$sp+0]
	;DEBUG_VALUE: hi <- [DW_OP_plus_uconst 164] [$sp+0]
	;DEBUG_VALUE: lo <- [DW_OP_plus_uconst 180] [$sp+0]
	;DEBUG_VALUE: mainSort:i <- [DW_OP_plus_uconst 64] [$sp+0]
	;DEBUG_VALUE: mainSort:ptr <- $x28
	;DEBUG_VALUE: mainSort:block <- $x24
	;DEBUG_VALUE: mainSort:quadrant <- [DW_OP_plus_uconst 264] [$sp+0]
	;DEBUG_VALUE: mainSort:ftab <- $x20
	;DEBUG_VALUE: mainSort:budget <- [DW_OP_plus_uconst 284, DW_OP_stack_value] $sp
	;DEBUG_VALUE: BZ2_blockSort:budget <- [DW_OP_plus_uconst 284, DW_OP_deref] $sp
	;DEBUG_VALUE: BZ2_blockSort:quadrant <- [DW_OP_plus_uconst 264] [$sp+0]
	;DEBUG_VALUE: BZ2_blockSort:nblock <- [DW_OP_plus_uconst 272] [$sp+0]
	;DEBUG_VALUE: BZ2_blockSort:block <- $x24
	;DEBUG_VALUE: BZ2_blockSort:ftab <- $x20
	;DEBUG_VALUE: BZ2_blockSort:ptr <- $x28
	add	x12, x28, x12, lsl #2
	add	w15, w15, #1
	add	x16, x28, x16, lsl #2
Ltmp264:
LBB0_102:                               ; %.lr.ph325.i.i
                                        ;   Parent Loop BB0_33 Depth=1
                                        ;     Parent Loop BB0_37 Depth=2
                                        ;       Parent Loop BB0_46 Depth=3
                                        ; =>      This Inner Loop Header: Depth=4
	;DEBUG_VALUE: mainQSort3:d <- $w22
	;DEBUG_VALUE: mainQSort3:hi <- $w9
	;DEBUG_VALUE: mainQSort3:lo <- $w30
	;DEBUG_VALUE: mainQSort3:budget <- [DW_OP_plus_uconst 284, DW_OP_stack_value] $sp
	;DEBUG_VALUE: mainQSort3:dSt <- 2
	;DEBUG_VALUE: mainQSort3:hiSt <- [DW_OP_plus_uconst 164] [$sp+0]
	;DEBUG_VALUE: mainQSort3:loSt <- [DW_OP_plus_uconst 180] [$sp+0]
	;DEBUG_VALUE: mainQSort3:quadrant <- [DW_OP_plus_uconst 264] [$sp+0]
	;DEBUG_VALUE: mainQSort3:block <- $x24
	;DEBUG_VALUE: mainQSort3:ptr <- $x28
	;DEBUG_VALUE: mainSort:j <- [DW_OP_plus_uconst 96] [$sp+0]
	;DEBUG_VALUE: hi <- [DW_OP_plus_uconst 164] [$sp+0]
	;DEBUG_VALUE: lo <- [DW_OP_plus_uconst 180] [$sp+0]
	;DEBUG_VALUE: mainSort:i <- [DW_OP_plus_uconst 64] [$sp+0]
	;DEBUG_VALUE: mainSort:ptr <- $x28
	;DEBUG_VALUE: mainSort:block <- $x24
	;DEBUG_VALUE: mainSort:quadrant <- [DW_OP_plus_uconst 264] [$sp+0]
	;DEBUG_VALUE: mainSort:ftab <- $x20
	;DEBUG_VALUE: mainSort:budget <- [DW_OP_plus_uconst 284, DW_OP_stack_value] $sp
	;DEBUG_VALUE: BZ2_blockSort:budget <- [DW_OP_plus_uconst 284, DW_OP_deref] $sp
	;DEBUG_VALUE: BZ2_blockSort:quadrant <- [DW_OP_plus_uconst 264] [$sp+0]
	;DEBUG_VALUE: BZ2_blockSort:nblock <- [DW_OP_plus_uconst 272] [$sp+0]
	;DEBUG_VALUE: BZ2_blockSort:block <- $x24
	;DEBUG_VALUE: BZ2_blockSort:ftab <- $x20
	;DEBUG_VALUE: BZ2_blockSort:ptr <- $x28
	;DEBUG_VALUE: yyp2 <- [DW_OP_LLVM_arg 0, DW_OP_consts 4, DW_OP_LLVM_arg 0, DW_OP_mul, DW_OP_LLVM_arg 0, DW_OP_plus, DW_OP_minus, DW_OP_consts 4, DW_OP_div, DW_OP_LLVM_arg 0, DW_OP_plus, DW_OP_stack_value] undef
	;DEBUG_VALUE: yyn <- [DW_OP_LLVM_arg 0, DW_OP_consts 4, DW_OP_LLVM_arg 0, DW_OP_mul, DW_OP_LLVM_arg 0, DW_OP_plus, DW_OP_minus, DW_OP_consts 4, DW_OP_div, DW_OP_consts 18446744073709551615, DW_OP_mul, DW_OP_LLVM_arg 0, DW_OP_plus, DW_OP_stack_value] undef
	;DEBUG_VALUE: yyp1 <- [DW_OP_LLVM_arg 0, DW_OP_consts 4, DW_OP_LLVM_arg 0, DW_OP_mul, DW_OP_LLVM_arg 0, DW_OP_plus, DW_OP_minus, DW_OP_consts 4, DW_OP_div, DW_OP_LLVM_arg 0, DW_OP_plus, DW_OP_stack_value] undef
	.loc	1 696 159                       ; blocksort.c:696:159
	ldr	w17, [x12]
Ltmp265:
	;DEBUG_VALUE: zztmp <- $w17
	.loc	1 696 182                       ; blocksort.c:696:182
	ldr	w0, [x16]
	.loc	1 696 180                       ; blocksort.c:696:180
	str	w0, [x12], #4
	.loc	1 696 203                       ; blocksort.c:696:203
	str	w17, [x16], #4
Ltmp266:
	;DEBUG_VALUE: yyp1 <- [DW_OP_LLVM_arg 0, DW_OP_consts 4, DW_OP_LLVM_arg 0, DW_OP_mul, DW_OP_LLVM_arg 0, DW_OP_plus, DW_OP_minus, DW_OP_consts 4, DW_OP_div, DW_OP_consts 1, DW_OP_LLVM_arg 0, DW_OP_plus, DW_OP_plus, DW_OP_stack_value] undef
	;DEBUG_VALUE: yyn <- [DW_OP_LLVM_arg 0, DW_OP_consts 4, DW_OP_LLVM_arg 0, DW_OP_mul, DW_OP_LLVM_arg 0, DW_OP_plus, DW_OP_minus, DW_OP_consts 4, DW_OP_div, DW_OP_consts 18446744073709551615, DW_OP_mul, DW_OP_consts 18446744073709551615, DW_OP_LLVM_arg 0, DW_OP_plus, DW_OP_plus, DW_OP_stack_value] undef
	;DEBUG_VALUE: yyp2 <- [DW_OP_LLVM_arg 0, DW_OP_consts 4, DW_OP_LLVM_arg 0, DW_OP_mul, DW_OP_LLVM_arg 0, DW_OP_plus, DW_OP_minus, DW_OP_consts 4, DW_OP_div, DW_OP_consts 1, DW_OP_LLVM_arg 0, DW_OP_plus, DW_OP_plus, DW_OP_stack_value] undef
	.loc	1 696 136                       ; blocksort.c:696:136
	sub	w15, w15, #1
	.loc	1 696 125                       ; blocksort.c:696:125
	cmp	w15, #1
	b.hi	LBB0_102
Ltmp267:
LBB0_103:                               ; %._crit_edge326.i.i
                                        ;   in Loop: Header=BB0_46 Depth=3
	;DEBUG_VALUE: mainQSort3:d <- $w22
	;DEBUG_VALUE: mainQSort3:hi <- $w9
	;DEBUG_VALUE: mainQSort3:lo <- $w30
	;DEBUG_VALUE: mainQSort3:budget <- [DW_OP_plus_uconst 284, DW_OP_stack_value] $sp
	;DEBUG_VALUE: mainQSort3:dSt <- 2
	;DEBUG_VALUE: mainQSort3:hiSt <- [DW_OP_plus_uconst 164] [$sp+0]
	;DEBUG_VALUE: mainQSort3:loSt <- [DW_OP_plus_uconst 180] [$sp+0]
	;DEBUG_VALUE: mainQSort3:quadrant <- [DW_OP_plus_uconst 264] [$sp+0]
	;DEBUG_VALUE: mainQSort3:block <- $x24
	;DEBUG_VALUE: mainQSort3:ptr <- $x28
	;DEBUG_VALUE: mainSort:j <- [DW_OP_plus_uconst 96] [$sp+0]
	;DEBUG_VALUE: hi <- [DW_OP_plus_uconst 164] [$sp+0]
	;DEBUG_VALUE: lo <- [DW_OP_plus_uconst 180] [$sp+0]
	;DEBUG_VALUE: mainSort:i <- [DW_OP_plus_uconst 64] [$sp+0]
	;DEBUG_VALUE: mainSort:ptr <- $x28
	;DEBUG_VALUE: mainSort:block <- $x24
	;DEBUG_VALUE: mainSort:quadrant <- [DW_OP_plus_uconst 264] [$sp+0]
	;DEBUG_VALUE: mainSort:ftab <- $x20
	;DEBUG_VALUE: mainSort:budget <- [DW_OP_plus_uconst 284, DW_OP_stack_value] $sp
	;DEBUG_VALUE: BZ2_blockSort:budget <- [DW_OP_plus_uconst 284, DW_OP_deref] $sp
	;DEBUG_VALUE: BZ2_blockSort:quadrant <- [DW_OP_plus_uconst 264] [$sp+0]
	;DEBUG_VALUE: BZ2_blockSort:nblock <- [DW_OP_plus_uconst 272] [$sp+0]
	;DEBUG_VALUE: BZ2_blockSort:block <- $x24
	;DEBUG_VALUE: BZ2_blockSort:ftab <- $x20
	;DEBUG_VALUE: BZ2_blockSort:ptr <- $x28
	.loc	1 697 15 is_stmt 1              ; blocksort.c:697:15
	sub	w15, w9, w14
	.loc	1 697 29 is_stmt 0              ; blocksort.c:697:29
	sub	w12, w14, w13
	.loc	1 697 11                        ; blocksort.c:697:11
	cmp	w15, w12
	csel	w13, w15, w12, lt
Ltmp268:
	;DEBUG_VALUE: yyp1 <- $w10
	;DEBUG_VALUE: yyn <- $w13
	;DEBUG_VALUE: yyp2 <- [DW_OP_LLVM_arg 0, DW_OP_LLVM_arg 0, DW_OP_minus, DW_OP_plus_uconst 1, DW_OP_stack_value] undef
	;DEBUG_VALUE: mainQSort3:m <- $w13
	.loc	1 697 127                       ; blocksort.c:697:127
	subs	w16, w13, #1
	b.lt	LBB0_112
Ltmp269:
; %bb.104:                              ; %.lr.ph331.preheader.i.i
                                        ;   in Loop: Header=BB0_46 Depth=3
	;DEBUG_VALUE: mainQSort3:m <- $w13
	;DEBUG_VALUE: yyn <- $w13
	;DEBUG_VALUE: yyp1 <- $w10
	;DEBUG_VALUE: mainQSort3:d <- $w22
	;DEBUG_VALUE: mainQSort3:hi <- $w9
	;DEBUG_VALUE: mainQSort3:lo <- $w30
	;DEBUG_VALUE: mainQSort3:budget <- [DW_OP_plus_uconst 284, DW_OP_stack_value] $sp
	;DEBUG_VALUE: mainQSort3:dSt <- 2
	;DEBUG_VALUE: mainQSort3:hiSt <- [DW_OP_plus_uconst 164] [$sp+0]
	;DEBUG_VALUE: mainQSort3:loSt <- [DW_OP_plus_uconst 180] [$sp+0]
	;DEBUG_VALUE: mainQSort3:quadrant <- [DW_OP_plus_uconst 264] [$sp+0]
	;DEBUG_VALUE: mainQSort3:block <- $x24
	;DEBUG_VALUE: mainQSort3:ptr <- $x28
	;DEBUG_VALUE: mainSort:j <- [DW_OP_plus_uconst 96] [$sp+0]
	;DEBUG_VALUE: hi <- [DW_OP_plus_uconst 164] [$sp+0]
	;DEBUG_VALUE: lo <- [DW_OP_plus_uconst 180] [$sp+0]
	;DEBUG_VALUE: mainSort:i <- [DW_OP_plus_uconst 64] [$sp+0]
	;DEBUG_VALUE: mainSort:ptr <- $x28
	;DEBUG_VALUE: mainSort:block <- $x24
	;DEBUG_VALUE: mainSort:quadrant <- [DW_OP_plus_uconst 264] [$sp+0]
	;DEBUG_VALUE: mainSort:ftab <- $x20
	;DEBUG_VALUE: mainSort:budget <- [DW_OP_plus_uconst 284, DW_OP_stack_value] $sp
	;DEBUG_VALUE: BZ2_blockSort:budget <- [DW_OP_plus_uconst 284, DW_OP_deref] $sp
	;DEBUG_VALUE: BZ2_blockSort:quadrant <- [DW_OP_plus_uconst 264] [$sp+0]
	;DEBUG_VALUE: BZ2_blockSort:nblock <- [DW_OP_plus_uconst 272] [$sp+0]
	;DEBUG_VALUE: BZ2_blockSort:block <- $x24
	;DEBUG_VALUE: BZ2_blockSort:ftab <- $x20
	;DEBUG_VALUE: BZ2_blockSort:ptr <- $x28
	.loc	1 697 103                       ; blocksort.c:697:103
	sub	w14, w9, w13
Ltmp270:
	;DEBUG_VALUE: yyp2 <- [DW_OP_plus_uconst 1, DW_OP_stack_value] $w14
	.loc	1 697 127                       ; blocksort.c:697:127
	sxtw	x14, w14
Ltmp271:
	mov	x15, x10
	sxtw	x15, w15
	cmp	w13, #8
	b.lo	LBB0_110
Ltmp272:
; %bb.105:                              ; %vector.memcheck401
                                        ;   in Loop: Header=BB0_46 Depth=3
	;DEBUG_VALUE: mainQSort3:m <- $w13
	;DEBUG_VALUE: yyn <- $w13
	;DEBUG_VALUE: yyp1 <- $w10
	;DEBUG_VALUE: mainQSort3:d <- $w22
	;DEBUG_VALUE: mainQSort3:hi <- $w9
	;DEBUG_VALUE: mainQSort3:lo <- $w30
	;DEBUG_VALUE: mainQSort3:budget <- [DW_OP_plus_uconst 284, DW_OP_stack_value] $sp
	;DEBUG_VALUE: mainQSort3:dSt <- 2
	;DEBUG_VALUE: mainQSort3:hiSt <- [DW_OP_plus_uconst 164] [$sp+0]
	;DEBUG_VALUE: mainQSort3:loSt <- [DW_OP_plus_uconst 180] [$sp+0]
	;DEBUG_VALUE: mainQSort3:quadrant <- [DW_OP_plus_uconst 264] [$sp+0]
	;DEBUG_VALUE: mainQSort3:block <- $x24
	;DEBUG_VALUE: mainQSort3:ptr <- $x28
	;DEBUG_VALUE: mainSort:j <- [DW_OP_plus_uconst 96] [$sp+0]
	;DEBUG_VALUE: hi <- [DW_OP_plus_uconst 164] [$sp+0]
	;DEBUG_VALUE: lo <- [DW_OP_plus_uconst 180] [$sp+0]
	;DEBUG_VALUE: mainSort:i <- [DW_OP_plus_uconst 64] [$sp+0]
	;DEBUG_VALUE: mainSort:ptr <- $x28
	;DEBUG_VALUE: mainSort:block <- $x24
	;DEBUG_VALUE: mainSort:quadrant <- [DW_OP_plus_uconst 264] [$sp+0]
	;DEBUG_VALUE: mainSort:ftab <- $x20
	;DEBUG_VALUE: mainSort:budget <- [DW_OP_plus_uconst 284, DW_OP_stack_value] $sp
	;DEBUG_VALUE: BZ2_blockSort:budget <- [DW_OP_plus_uconst 284, DW_OP_deref] $sp
	;DEBUG_VALUE: BZ2_blockSort:quadrant <- [DW_OP_plus_uconst 264] [$sp+0]
	;DEBUG_VALUE: BZ2_blockSort:nblock <- [DW_OP_plus_uconst 272] [$sp+0]
	;DEBUG_VALUE: BZ2_blockSort:block <- $x24
	;DEBUG_VALUE: BZ2_blockSort:ftab <- $x20
	;DEBUG_VALUE: BZ2_blockSort:ptr <- $x28
	lsl	x17, x15, #2
	ubfiz	x1, x16, #2, #32
	lsl	x0, x14, #2
	add	x2, x0, x1
	ldr	x3, [sp, #88]                   ; 8-byte Folded Reload
	add	x2, x3, x2
	add	x3, x28, x17
	cmp	x3, x2
	b.hs	LBB0_107
Ltmp273:
; %bb.106:                              ; %vector.memcheck401
                                        ;   in Loop: Header=BB0_46 Depth=3
	;DEBUG_VALUE: mainQSort3:m <- $w13
	;DEBUG_VALUE: yyn <- $w13
	;DEBUG_VALUE: yyp1 <- $w10
	;DEBUG_VALUE: mainQSort3:d <- $w22
	;DEBUG_VALUE: mainQSort3:hi <- $w9
	;DEBUG_VALUE: mainQSort3:lo <- $w30
	;DEBUG_VALUE: mainQSort3:budget <- [DW_OP_plus_uconst 284, DW_OP_stack_value] $sp
	;DEBUG_VALUE: mainQSort3:dSt <- 2
	;DEBUG_VALUE: mainQSort3:hiSt <- [DW_OP_plus_uconst 164] [$sp+0]
	;DEBUG_VALUE: mainQSort3:loSt <- [DW_OP_plus_uconst 180] [$sp+0]
	;DEBUG_VALUE: mainQSort3:quadrant <- [DW_OP_plus_uconst 264] [$sp+0]
	;DEBUG_VALUE: mainQSort3:block <- $x24
	;DEBUG_VALUE: mainQSort3:ptr <- $x28
	;DEBUG_VALUE: mainSort:j <- [DW_OP_plus_uconst 96] [$sp+0]
	;DEBUG_VALUE: hi <- [DW_OP_plus_uconst 164] [$sp+0]
	;DEBUG_VALUE: lo <- [DW_OP_plus_uconst 180] [$sp+0]
	;DEBUG_VALUE: mainSort:i <- [DW_OP_plus_uconst 64] [$sp+0]
	;DEBUG_VALUE: mainSort:ptr <- $x28
	;DEBUG_VALUE: mainSort:block <- $x24
	;DEBUG_VALUE: mainSort:quadrant <- [DW_OP_plus_uconst 264] [$sp+0]
	;DEBUG_VALUE: mainSort:ftab <- $x20
	;DEBUG_VALUE: mainSort:budget <- [DW_OP_plus_uconst 284, DW_OP_stack_value] $sp
	;DEBUG_VALUE: BZ2_blockSort:budget <- [DW_OP_plus_uconst 284, DW_OP_deref] $sp
	;DEBUG_VALUE: BZ2_blockSort:quadrant <- [DW_OP_plus_uconst 264] [$sp+0]
	;DEBUG_VALUE: BZ2_blockSort:nblock <- [DW_OP_plus_uconst 272] [$sp+0]
	;DEBUG_VALUE: BZ2_blockSort:block <- $x24
	;DEBUG_VALUE: BZ2_blockSort:ftab <- $x20
	;DEBUG_VALUE: BZ2_blockSort:ptr <- $x28
	add	x17, x17, x1
	ldr	x1, [sp, #184]                  ; 8-byte Folded Reload
	add	x17, x1, x17
	add	x0, x1, x0
	cmp	x0, x17
	b.lo	LBB0_110
Ltmp274:
LBB0_107:                               ; %vector.ph414
                                        ;   in Loop: Header=BB0_46 Depth=3
	;DEBUG_VALUE: mainQSort3:m <- $w13
	;DEBUG_VALUE: yyn <- $w13
	;DEBUG_VALUE: yyp1 <- $w10
	;DEBUG_VALUE: mainQSort3:d <- $w22
	;DEBUG_VALUE: mainQSort3:hi <- $w9
	;DEBUG_VALUE: mainQSort3:lo <- $w30
	;DEBUG_VALUE: mainQSort3:budget <- [DW_OP_plus_uconst 284, DW_OP_stack_value] $sp
	;DEBUG_VALUE: mainQSort3:dSt <- 2
	;DEBUG_VALUE: mainQSort3:hiSt <- [DW_OP_plus_uconst 164] [$sp+0]
	;DEBUG_VALUE: mainQSort3:loSt <- [DW_OP_plus_uconst 180] [$sp+0]
	;DEBUG_VALUE: mainQSort3:quadrant <- [DW_OP_plus_uconst 264] [$sp+0]
	;DEBUG_VALUE: mainQSort3:block <- $x24
	;DEBUG_VALUE: mainQSort3:ptr <- $x28
	;DEBUG_VALUE: mainSort:j <- [DW_OP_plus_uconst 96] [$sp+0]
	;DEBUG_VALUE: hi <- [DW_OP_plus_uconst 164] [$sp+0]
	;DEBUG_VALUE: lo <- [DW_OP_plus_uconst 180] [$sp+0]
	;DEBUG_VALUE: mainSort:i <- [DW_OP_plus_uconst 64] [$sp+0]
	;DEBUG_VALUE: mainSort:ptr <- $x28
	;DEBUG_VALUE: mainSort:block <- $x24
	;DEBUG_VALUE: mainSort:quadrant <- [DW_OP_plus_uconst 264] [$sp+0]
	;DEBUG_VALUE: mainSort:ftab <- $x20
	;DEBUG_VALUE: mainSort:budget <- [DW_OP_plus_uconst 284, DW_OP_stack_value] $sp
	;DEBUG_VALUE: BZ2_blockSort:budget <- [DW_OP_plus_uconst 284, DW_OP_deref] $sp
	;DEBUG_VALUE: BZ2_blockSort:quadrant <- [DW_OP_plus_uconst 264] [$sp+0]
	;DEBUG_VALUE: BZ2_blockSort:nblock <- [DW_OP_plus_uconst 272] [$sp+0]
	;DEBUG_VALUE: BZ2_blockSort:block <- $x24
	;DEBUG_VALUE: BZ2_blockSort:ftab <- $x20
	;DEBUG_VALUE: BZ2_blockSort:ptr <- $x28
	add	x16, x16, #1
	and	x17, x16, #0x1fffffff8
	add	x0, x17, x15
	add	x1, x17, x14
	sub	w13, w13, w17
Ltmp275:
	.loc	1 0 127                         ; blocksort.c:0:127
	ldr	x2, [sp, #80]                   ; 8-byte Folded Reload
	.loc	1 697 127                       ; blocksort.c:697:127
	add	x15, x2, x15, lsl #2
	ldr	x2, [sp, #56]                   ; 8-byte Folded Reload
	add	x14, x2, x14, lsl #2
	mov	x2, x17
Ltmp276:
LBB0_108:                               ; %vector.body421
                                        ;   Parent Loop BB0_33 Depth=1
                                        ;     Parent Loop BB0_37 Depth=2
                                        ;       Parent Loop BB0_46 Depth=3
                                        ; =>      This Inner Loop Header: Depth=4
	;DEBUG_VALUE: yyp1 <- $w10
	;DEBUG_VALUE: mainQSort3:d <- $w22
	;DEBUG_VALUE: mainQSort3:hi <- $w9
	;DEBUG_VALUE: mainQSort3:lo <- $w30
	;DEBUG_VALUE: mainQSort3:budget <- [DW_OP_plus_uconst 284, DW_OP_stack_value] $sp
	;DEBUG_VALUE: mainQSort3:dSt <- 2
	;DEBUG_VALUE: mainQSort3:hiSt <- [DW_OP_plus_uconst 164] [$sp+0]
	;DEBUG_VALUE: mainQSort3:loSt <- [DW_OP_plus_uconst 180] [$sp+0]
	;DEBUG_VALUE: mainQSort3:quadrant <- [DW_OP_plus_uconst 264] [$sp+0]
	;DEBUG_VALUE: mainQSort3:block <- $x24
	;DEBUG_VALUE: mainQSort3:ptr <- $x28
	;DEBUG_VALUE: mainSort:j <- [DW_OP_plus_uconst 96] [$sp+0]
	;DEBUG_VALUE: hi <- [DW_OP_plus_uconst 164] [$sp+0]
	;DEBUG_VALUE: lo <- [DW_OP_plus_uconst 180] [$sp+0]
	;DEBUG_VALUE: mainSort:i <- [DW_OP_plus_uconst 64] [$sp+0]
	;DEBUG_VALUE: mainSort:ptr <- $x28
	;DEBUG_VALUE: mainSort:block <- $x24
	;DEBUG_VALUE: mainSort:quadrant <- [DW_OP_plus_uconst 264] [$sp+0]
	;DEBUG_VALUE: mainSort:ftab <- $x20
	;DEBUG_VALUE: mainSort:budget <- [DW_OP_plus_uconst 284, DW_OP_stack_value] $sp
	;DEBUG_VALUE: BZ2_blockSort:budget <- [DW_OP_plus_uconst 284, DW_OP_deref] $sp
	;DEBUG_VALUE: BZ2_blockSort:quadrant <- [DW_OP_plus_uconst 264] [$sp+0]
	;DEBUG_VALUE: BZ2_blockSort:nblock <- [DW_OP_plus_uconst 272] [$sp+0]
	;DEBUG_VALUE: BZ2_blockSort:block <- $x24
	;DEBUG_VALUE: BZ2_blockSort:ftab <- $x20
	;DEBUG_VALUE: BZ2_blockSort:ptr <- $x28
	.loc	1 697 161                       ; blocksort.c:697:161
	ldp	q0, q1, [x15, #-16]
	.loc	1 697 184                       ; blocksort.c:697:184
	ldp	q2, q3, [x14, #-16]
	.loc	1 697 182                       ; blocksort.c:697:182
	stp	q2, q3, [x15, #-16]
	.loc	1 697 205                       ; blocksort.c:697:205
	stp	q0, q1, [x14, #-16]
	add	x15, x15, #32
	add	x14, x14, #32
	subs	x2, x2, #8
	b.ne	LBB0_108
Ltmp277:
; %bb.109:                              ; %middle.block412
                                        ;   in Loop: Header=BB0_46 Depth=3
	;DEBUG_VALUE: yyp1 <- $w10
	;DEBUG_VALUE: mainQSort3:d <- $w22
	;DEBUG_VALUE: mainQSort3:hi <- $w9
	;DEBUG_VALUE: mainQSort3:lo <- $w30
	;DEBUG_VALUE: mainQSort3:budget <- [DW_OP_plus_uconst 284, DW_OP_stack_value] $sp
	;DEBUG_VALUE: mainQSort3:dSt <- 2
	;DEBUG_VALUE: mainQSort3:hiSt <- [DW_OP_plus_uconst 164] [$sp+0]
	;DEBUG_VALUE: mainQSort3:loSt <- [DW_OP_plus_uconst 180] [$sp+0]
	;DEBUG_VALUE: mainQSort3:quadrant <- [DW_OP_plus_uconst 264] [$sp+0]
	;DEBUG_VALUE: mainQSort3:block <- $x24
	;DEBUG_VALUE: mainQSort3:ptr <- $x28
	;DEBUG_VALUE: mainSort:j <- [DW_OP_plus_uconst 96] [$sp+0]
	;DEBUG_VALUE: hi <- [DW_OP_plus_uconst 164] [$sp+0]
	;DEBUG_VALUE: lo <- [DW_OP_plus_uconst 180] [$sp+0]
	;DEBUG_VALUE: mainSort:i <- [DW_OP_plus_uconst 64] [$sp+0]
	;DEBUG_VALUE: mainSort:ptr <- $x28
	;DEBUG_VALUE: mainSort:block <- $x24
	;DEBUG_VALUE: mainSort:quadrant <- [DW_OP_plus_uconst 264] [$sp+0]
	;DEBUG_VALUE: mainSort:ftab <- $x20
	;DEBUG_VALUE: mainSort:budget <- [DW_OP_plus_uconst 284, DW_OP_stack_value] $sp
	;DEBUG_VALUE: BZ2_blockSort:budget <- [DW_OP_plus_uconst 284, DW_OP_deref] $sp
	;DEBUG_VALUE: BZ2_blockSort:quadrant <- [DW_OP_plus_uconst 264] [$sp+0]
	;DEBUG_VALUE: BZ2_blockSort:nblock <- [DW_OP_plus_uconst 272] [$sp+0]
	;DEBUG_VALUE: BZ2_blockSort:block <- $x24
	;DEBUG_VALUE: BZ2_blockSort:ftab <- $x20
	;DEBUG_VALUE: BZ2_blockSort:ptr <- $x28
	.loc	1 0 205                         ; blocksort.c:0:205
	mov	x15, x0
	mov	x14, x1
	.loc	1 697 127                       ; blocksort.c:697:127
	cmp	x16, x17
	b.eq	LBB0_112
Ltmp278:
LBB0_110:                               ; %.lr.ph331.i.i.preheader
                                        ;   in Loop: Header=BB0_46 Depth=3
	;DEBUG_VALUE: yyp1 <- $w10
	;DEBUG_VALUE: mainQSort3:d <- $w22
	;DEBUG_VALUE: mainQSort3:hi <- $w9
	;DEBUG_VALUE: mainQSort3:lo <- $w30
	;DEBUG_VALUE: mainQSort3:budget <- [DW_OP_plus_uconst 284, DW_OP_stack_value] $sp
	;DEBUG_VALUE: mainQSort3:dSt <- 2
	;DEBUG_VALUE: mainQSort3:hiSt <- [DW_OP_plus_uconst 164] [$sp+0]
	;DEBUG_VALUE: mainQSort3:loSt <- [DW_OP_plus_uconst 180] [$sp+0]
	;DEBUG_VALUE: mainQSort3:quadrant <- [DW_OP_plus_uconst 264] [$sp+0]
	;DEBUG_VALUE: mainQSort3:block <- $x24
	;DEBUG_VALUE: mainQSort3:ptr <- $x28
	;DEBUG_VALUE: mainSort:j <- [DW_OP_plus_uconst 96] [$sp+0]
	;DEBUG_VALUE: hi <- [DW_OP_plus_uconst 164] [$sp+0]
	;DEBUG_VALUE: lo <- [DW_OP_plus_uconst 180] [$sp+0]
	;DEBUG_VALUE: mainSort:i <- [DW_OP_plus_uconst 64] [$sp+0]
	;DEBUG_VALUE: mainSort:ptr <- $x28
	;DEBUG_VALUE: mainSort:block <- $x24
	;DEBUG_VALUE: mainSort:quadrant <- [DW_OP_plus_uconst 264] [$sp+0]
	;DEBUG_VALUE: mainSort:ftab <- $x20
	;DEBUG_VALUE: mainSort:budget <- [DW_OP_plus_uconst 284, DW_OP_stack_value] $sp
	;DEBUG_VALUE: BZ2_blockSort:budget <- [DW_OP_plus_uconst 284, DW_OP_deref] $sp
	;DEBUG_VALUE: BZ2_blockSort:quadrant <- [DW_OP_plus_uconst 264] [$sp+0]
	;DEBUG_VALUE: BZ2_blockSort:nblock <- [DW_OP_plus_uconst 272] [$sp+0]
	;DEBUG_VALUE: BZ2_blockSort:block <- $x24
	;DEBUG_VALUE: BZ2_blockSort:ftab <- $x20
	;DEBUG_VALUE: BZ2_blockSort:ptr <- $x28
	add	x15, x28, x15, lsl #2
	add	w13, w13, #1
	ldr	x16, [sp, #184]                 ; 8-byte Folded Reload
	add	x14, x16, x14, lsl #2
Ltmp279:
LBB0_111:                               ; %.lr.ph331.i.i
                                        ;   Parent Loop BB0_33 Depth=1
                                        ;     Parent Loop BB0_37 Depth=2
                                        ;       Parent Loop BB0_46 Depth=3
                                        ; =>      This Inner Loop Header: Depth=4
	;DEBUG_VALUE: mainQSort3:d <- $w22
	;DEBUG_VALUE: mainQSort3:hi <- $w9
	;DEBUG_VALUE: mainQSort3:lo <- $w30
	;DEBUG_VALUE: mainQSort3:budget <- [DW_OP_plus_uconst 284, DW_OP_stack_value] $sp
	;DEBUG_VALUE: mainQSort3:dSt <- 2
	;DEBUG_VALUE: mainQSort3:hiSt <- [DW_OP_plus_uconst 164] [$sp+0]
	;DEBUG_VALUE: mainQSort3:loSt <- [DW_OP_plus_uconst 180] [$sp+0]
	;DEBUG_VALUE: mainQSort3:quadrant <- [DW_OP_plus_uconst 264] [$sp+0]
	;DEBUG_VALUE: mainQSort3:block <- $x24
	;DEBUG_VALUE: mainQSort3:ptr <- $x28
	;DEBUG_VALUE: mainSort:j <- [DW_OP_plus_uconst 96] [$sp+0]
	;DEBUG_VALUE: hi <- [DW_OP_plus_uconst 164] [$sp+0]
	;DEBUG_VALUE: lo <- [DW_OP_plus_uconst 180] [$sp+0]
	;DEBUG_VALUE: mainSort:i <- [DW_OP_plus_uconst 64] [$sp+0]
	;DEBUG_VALUE: mainSort:ptr <- $x28
	;DEBUG_VALUE: mainSort:block <- $x24
	;DEBUG_VALUE: mainSort:quadrant <- [DW_OP_plus_uconst 264] [$sp+0]
	;DEBUG_VALUE: mainSort:ftab <- $x20
	;DEBUG_VALUE: mainSort:budget <- [DW_OP_plus_uconst 284, DW_OP_stack_value] $sp
	;DEBUG_VALUE: BZ2_blockSort:budget <- [DW_OP_plus_uconst 284, DW_OP_deref] $sp
	;DEBUG_VALUE: BZ2_blockSort:quadrant <- [DW_OP_plus_uconst 264] [$sp+0]
	;DEBUG_VALUE: BZ2_blockSort:nblock <- [DW_OP_plus_uconst 272] [$sp+0]
	;DEBUG_VALUE: BZ2_blockSort:block <- $x24
	;DEBUG_VALUE: BZ2_blockSort:ftab <- $x20
	;DEBUG_VALUE: BZ2_blockSort:ptr <- $x28
	;DEBUG_VALUE: yyp2 <- [DW_OP_LLVM_arg 0, DW_OP_consts 4, DW_OP_LLVM_arg 0, DW_OP_mul, DW_OP_LLVM_arg 0, DW_OP_plus, DW_OP_minus, DW_OP_consts 4, DW_OP_div, DW_OP_consts 1, DW_OP_LLVM_arg 0, DW_OP_plus, DW_OP_plus, DW_OP_stack_value] undef
	;DEBUG_VALUE: yyn <- [DW_OP_LLVM_arg 0, DW_OP_consts 4, DW_OP_LLVM_arg 0, DW_OP_mul, DW_OP_LLVM_arg 0, DW_OP_plus, DW_OP_minus, DW_OP_consts 4, DW_OP_div, DW_OP_consts 18446744073709551615, DW_OP_mul, DW_OP_LLVM_arg 0, DW_OP_plus, DW_OP_stack_value] undef
	;DEBUG_VALUE: yyp1 <- [DW_OP_LLVM_arg 0, DW_OP_consts 4, DW_OP_LLVM_arg 0, DW_OP_mul, DW_OP_LLVM_arg 0, DW_OP_plus, DW_OP_minus, DW_OP_consts 4, DW_OP_div, DW_OP_LLVM_arg 0, DW_OP_plus, DW_OP_stack_value] undef
	.loc	1 697 161                       ; blocksort.c:697:161
	ldr	w16, [x15]
Ltmp280:
	;DEBUG_VALUE: zztmp <- $w16
	.loc	1 697 184                       ; blocksort.c:697:184
	ldr	w17, [x14]
	.loc	1 697 182                       ; blocksort.c:697:182
	str	w17, [x15], #4
	.loc	1 697 205                       ; blocksort.c:697:205
	str	w16, [x14], #4
Ltmp281:
	;DEBUG_VALUE: yyp1 <- [DW_OP_LLVM_arg 0, DW_OP_consts 4, DW_OP_LLVM_arg 0, DW_OP_mul, DW_OP_LLVM_arg 0, DW_OP_plus, DW_OP_minus, DW_OP_consts 4, DW_OP_div, DW_OP_consts 1, DW_OP_LLVM_arg 0, DW_OP_plus, DW_OP_plus, DW_OP_stack_value] undef
	;DEBUG_VALUE: yyn <- [DW_OP_LLVM_arg 0, DW_OP_consts 4, DW_OP_LLVM_arg 0, DW_OP_mul, DW_OP_LLVM_arg 0, DW_OP_plus, DW_OP_minus, DW_OP_consts 4, DW_OP_div, DW_OP_consts 18446744073709551615, DW_OP_mul, DW_OP_consts 18446744073709551615, DW_OP_LLVM_arg 0, DW_OP_plus, DW_OP_plus, DW_OP_stack_value] undef
	;DEBUG_VALUE: yyp2 <- [DW_OP_plus_uconst 1, DW_OP_stack_value] $x15
	.loc	1 697 138                       ; blocksort.c:697:138
	sub	w13, w13, #1
	.loc	1 697 127                       ; blocksort.c:697:127
	cmp	w13, #1
	b.hi	LBB0_111
Ltmp282:
LBB0_112:                               ; %._crit_edge332.i.i
                                        ;   in Loop: Header=BB0_46 Depth=3
	;DEBUG_VALUE: mainQSort3:d <- $w22
	;DEBUG_VALUE: mainQSort3:hi <- $w9
	;DEBUG_VALUE: mainQSort3:lo <- $w30
	;DEBUG_VALUE: mainQSort3:budget <- [DW_OP_plus_uconst 284, DW_OP_stack_value] $sp
	;DEBUG_VALUE: mainQSort3:dSt <- 2
	;DEBUG_VALUE: mainQSort3:hiSt <- [DW_OP_plus_uconst 164] [$sp+0]
	;DEBUG_VALUE: mainQSort3:loSt <- [DW_OP_plus_uconst 180] [$sp+0]
	;DEBUG_VALUE: mainQSort3:quadrant <- [DW_OP_plus_uconst 264] [$sp+0]
	;DEBUG_VALUE: mainQSort3:block <- $x24
	;DEBUG_VALUE: mainQSort3:ptr <- $x28
	;DEBUG_VALUE: mainSort:j <- [DW_OP_plus_uconst 96] [$sp+0]
	;DEBUG_VALUE: hi <- [DW_OP_plus_uconst 164] [$sp+0]
	;DEBUG_VALUE: lo <- [DW_OP_plus_uconst 180] [$sp+0]
	;DEBUG_VALUE: mainSort:i <- [DW_OP_plus_uconst 64] [$sp+0]
	;DEBUG_VALUE: mainSort:ptr <- $x28
	;DEBUG_VALUE: mainSort:block <- $x24
	;DEBUG_VALUE: mainSort:quadrant <- [DW_OP_plus_uconst 264] [$sp+0]
	;DEBUG_VALUE: mainSort:ftab <- $x20
	;DEBUG_VALUE: mainSort:budget <- [DW_OP_plus_uconst 284, DW_OP_stack_value] $sp
	;DEBUG_VALUE: BZ2_blockSort:budget <- [DW_OP_plus_uconst 284, DW_OP_deref] $sp
	;DEBUG_VALUE: BZ2_blockSort:quadrant <- [DW_OP_plus_uconst 264] [$sp+0]
	;DEBUG_VALUE: BZ2_blockSort:nblock <- [DW_OP_plus_uconst 272] [$sp+0]
	;DEBUG_VALUE: BZ2_blockSort:block <- $x24
	;DEBUG_VALUE: BZ2_blockSort:ftab <- $x20
	;DEBUG_VALUE: BZ2_blockSort:ptr <- $x28
	.loc	1 699 14 is_stmt 1              ; blocksort.c:699:14
	sub	w11, w30, w11
	.loc	1 699 21 is_stmt 0              ; blocksort.c:699:21
	add	w10, w11, w10
	.loc	1 699 28                        ; blocksort.c:699:28
	sub	w11, w10, #1
Ltmp283:
	;DEBUG_VALUE: mainQSort3:n <- $w11
	.loc	1 700 14 is_stmt 1              ; blocksort.c:700:14
	sub	w12, w9, w12
Ltmp284:
	.loc	1 707 45                        ; blocksort.c:707:45
	sub	w13, w12, w10
Ltmp285:
	.loc	1 700 30                        ; blocksort.c:700:30
	add	w14, w12, #1
Ltmp286:
	;DEBUG_VALUE: mainQSort3:nextD <- [DW_OP_LLVM_fragment 64 32] undef
	;DEBUG_VALUE: mainQSort3:nextHi <- [DW_OP_LLVM_fragment 64 32] $w12
	;DEBUG_VALUE: mainQSort3:nextLo <- [DW_OP_LLVM_fragment 64 32] $w10
	;DEBUG_VALUE: mainQSort3:nextD <- [DW_OP_LLVM_fragment 32 32] $w22
	;DEBUG_VALUE: mainQSort3:nextHi <- [DW_OP_LLVM_fragment 32 32] undef
	;DEBUG_VALUE: mainQSort3:nextD <- [DW_OP_LLVM_fragment 0 32] $w22
	;DEBUG_VALUE: mainQSort3:nextHi <- [DW_OP_LLVM_fragment 0 32] $w11
	;DEBUG_VALUE: mainQSort3:nextLo <- [DW_OP_LLVM_fragment 0 32] undef
	;DEBUG_VALUE: mainQSort3:nextLo <- [DW_OP_LLVM_fragment 32 32] $w14
	;DEBUG_VALUE: mainQSort3:m <- $w14
	.loc	1 706 21                        ; blocksort.c:706:21
	sub	w15, w11, w30
	.loc	1 706 45 is_stmt 0              ; blocksort.c:706:45
	sub	w14, w9, w14
Ltmp287:
	.loc	1 706 11                        ; blocksort.c:706:11
	cmp	w15, w14
Ltmp288:
	;DEBUG_VALUE: tz <- $w22
	;DEBUG_VALUE: mainQSort3:nextHi <- [DW_OP_LLVM_fragment 32 32] $w11
	;DEBUG_VALUE: mainQSort3:nextHi <- [DW_OP_LLVM_fragment 0 32] undef
	;DEBUG_VALUE: mainQSort3:nextLo <- [DW_OP_LLVM_fragment 0 32] undef
	;DEBUG_VALUE: mainQSort3:nextLo <- [DW_OP_LLVM_fragment 32 32] undef
	csel	w14, w14, w15, ge
	csinc	w15, w30, w12, lt
	csinc	w16, w30, w12, ge
	csel	w17, w9, w11, ge
	csel	w9, w11, w9, ge
Ltmp289:
	;DEBUG_VALUE: mainQSort3:nextHi <- [DW_OP_LLVM_fragment 32 32] $w17
	;DEBUG_VALUE: mainQSort3:nextHi <- [DW_OP_LLVM_fragment 0 32] $w9
	;DEBUG_VALUE: mainQSort3:nextLo <- [DW_OP_LLVM_fragment 0 32] $w16
	;DEBUG_VALUE: mainQSort3:nextLo <- [DW_OP_LLVM_fragment 32 32] $w15
	.loc	1 707 11 is_stmt 1              ; blocksort.c:707:11
	cmp	w14, w13
Ltmp290:
	;DEBUG_VALUE: tz <- $w22
	;DEBUG_VALUE: mainQSort3:nextD <- [DW_OP_LLVM_fragment 64 32] $w22
	;DEBUG_VALUE: mainQSort3:nextHi <- [DW_OP_LLVM_fragment 64 32] $w17
	;DEBUG_VALUE: mainQSort3:nextLo <- [DW_OP_LLVM_fragment 64 32] $w15
	;DEBUG_VALUE: mainQSort3:nextD <- [DW_OP_LLVM_fragment 32 32] undef
	;DEBUG_VALUE: mainQSort3:nextHi <- [DW_OP_LLVM_fragment 32 32] $w12
	;DEBUG_VALUE: mainQSort3:nextLo <- [DW_OP_LLVM_fragment 32 32] $w10
	csel	w11, w14, w13, ge
Ltmp291:
	csel	w13, w15, w10, ge
	csel	w14, w12, w17, ge
	csel	w12, w17, w12, ge
Ltmp292:
	cinc	w17, w22, ge
Ltmp293:
	cinc	w0, w22, lt
	csel	w10, w10, w15, ge
Ltmp294:
	;DEBUG_VALUE: mainQSort3:nextD <- [DW_OP_LLVM_fragment 64 32] $w17
	;DEBUG_VALUE: mainQSort3:nextHi <- [DW_OP_LLVM_fragment 64 32] $w14
	;DEBUG_VALUE: mainQSort3:nextLo <- [DW_OP_LLVM_fragment 64 32] $w10
	;DEBUG_VALUE: mainQSort3:nextD <- [DW_OP_LLVM_fragment 32 32] $w0
	;DEBUG_VALUE: mainQSort3:nextHi <- [DW_OP_LLVM_fragment 32 32] $w12
	;DEBUG_VALUE: mainQSort3:nextLo <- [DW_OP_LLVM_fragment 32 32] $w13
	.loc	1 708 21                        ; blocksort.c:708:21
	sub	w15, w9, w16
Ltmp295:
	.loc	1 708 11 is_stmt 0              ; blocksort.c:708:11
	cmp	w15, w11
Ltmp296:
	;DEBUG_VALUE: tz <- $w22
	;DEBUG_VALUE: mainQSort3:nextD <- [DW_OP_LLVM_fragment 32 32] $w22
	;DEBUG_VALUE: mainQSort3:nextHi <- [DW_OP_LLVM_fragment 32 32] $w9
	;DEBUG_VALUE: mainQSort3:nextD <- [DW_OP_LLVM_fragment 0 32] $w0
	;DEBUG_VALUE: mainQSort3:nextHi <- [DW_OP_LLVM_fragment 0 32] $w12
	;DEBUG_VALUE: mainQSort3:nextLo <- [DW_OP_LLVM_fragment 0 32] $w13
	;DEBUG_VALUE: mainQSort3:nextLo <- [DW_OP_LLVM_fragment 32 32] $w16
	csel	w11, w16, w13, ge
Ltmp297:
	.loc	1 713 21 is_stmt 1              ; blocksort.c:713:21
	str	w11, [x5, x8]
Ltmp298:
	.loc	1 708 11                        ; blocksort.c:708:11
	csel	w11, w9, w12, ge
Ltmp299:
	.loc	1 713 46                        ; blocksort.c:713:46
	str	w11, [x6, x8]
Ltmp300:
	.loc	1 708 11                        ; blocksort.c:708:11
	csel	w11, w22, w0, ge
Ltmp301:
	;DEBUG_VALUE: mainQSort3:nextD <- [DW_OP_LLVM_fragment 32 32] undef
	;DEBUG_VALUE: mainQSort3:nextHi <- [DW_OP_LLVM_fragment 32 32] undef
	;DEBUG_VALUE: mainQSort3:nextD <- [DW_OP_LLVM_fragment 0 32] $w11
	;DEBUG_VALUE: mainQSort3:nextHi <- [DW_OP_LLVM_fragment 0 32] undef
	;DEBUG_VALUE: mainQSort3:nextLo <- [DW_OP_LLVM_fragment 0 32] undef
	;DEBUG_VALUE: mainQSort3:nextLo <- [DW_OP_LLVM_fragment 32 32] undef
	.loc	1 713 71                        ; blocksort.c:713:71
	str	w11, [x7, x8]
Ltmp302:
	;DEBUG_VALUE: mainQSort3:sp <- $w27
	.loc	1 708 11                        ; blocksort.c:708:11
	csel	w8, w13, w16, ge
Ltmp303:
	.loc	1 714 9                         ; blocksort.c:714:9
	ubfiz	x11, x27, #2, #32
Ltmp304:
	.loc	1 714 21 is_stmt 0              ; blocksort.c:714:21
	str	w8, [x5, x11]
Ltmp305:
	.loc	1 708 11 is_stmt 1              ; blocksort.c:708:11
	csel	w8, w12, w9, ge
	csel	w9, w0, w22, ge
Ltmp306:
	.loc	1 714 46                        ; blocksort.c:714:46
	str	w8, [x6, x11]
	.loc	1 714 71 is_stmt 0              ; blocksort.c:714:71
	str	w9, [x7, x11]
	.loc	1 714 85                        ; blocksort.c:714:85
	sbfiz	x8, x27, #2, #32
Ltmp307:
	;DEBUG_VALUE: mainQSort3:sp <- undef
	.loc	1 715 9 is_stmt 1               ; blocksort.c:715:9
	add	x8, x8, #4
	.loc	1 715 21 is_stmt 0              ; blocksort.c:715:21
	str	w10, [x5, x8]
	.loc	1 715 46                        ; blocksort.c:715:46
	str	w14, [x6, x8]
	.loc	1 715 71                        ; blocksort.c:715:71
	str	w17, [x7, x8]
	.loc	1 715 85                        ; blocksort.c:715:85
	add	w3, w27, #2
Ltmp308:
	;DEBUG_VALUE: mainQSort3:sp <- $w3
	.loc	1 0 85                          ; blocksort.c:0:85
	b	LBB0_45
Ltmp309:
LBB0_113:                               ; %mainQSort3.exit.i
                                        ;   in Loop: Header=BB0_37 Depth=2
	;DEBUG_VALUE: mainSort:j <- [DW_OP_plus_uconst 96] [$sp+0]
	;DEBUG_VALUE: hi <- [DW_OP_plus_uconst 164] [$sp+0]
	;DEBUG_VALUE: lo <- [DW_OP_plus_uconst 180] [$sp+0]
	;DEBUG_VALUE: mainSort:i <- [DW_OP_plus_uconst 64] [$sp+0]
	;DEBUG_VALUE: mainSort:ptr <- $x28
	;DEBUG_VALUE: mainSort:block <- $x24
	;DEBUG_VALUE: mainSort:quadrant <- [DW_OP_plus_uconst 264] [$sp+0]
	;DEBUG_VALUE: mainSort:ftab <- $x20
	;DEBUG_VALUE: mainSort:budget <- [DW_OP_plus_uconst 284, DW_OP_stack_value] $sp
	;DEBUG_VALUE: BZ2_blockSort:budget <- [DW_OP_plus_uconst 284, DW_OP_deref] $sp
	;DEBUG_VALUE: BZ2_blockSort:quadrant <- [DW_OP_plus_uconst 264] [$sp+0]
	;DEBUG_VALUE: BZ2_blockSort:nblock <- [DW_OP_plus_uconst 272] [$sp+0]
	;DEBUG_VALUE: BZ2_blockSort:block <- $x24
	;DEBUG_VALUE: BZ2_blockSort:ftab <- $x20
	;DEBUG_VALUE: BZ2_blockSort:ptr <- $x28
	;DEBUG_VALUE: mainSort:numQSorted <- [DW_OP_LLVM_arg 0, DW_OP_plus_uconst 1, DW_OP_LLVM_arg 0, DW_OP_minus, DW_OP_LLVM_arg 0, DW_OP_plus, DW_OP_stack_value] undef
	ldr	w27, [sp, #148]                 ; 4-byte Folded Reload
	ldr	w8, [sp, #256]                  ; 4-byte Folded Reload
	ldr	x9, [sp, #224]                  ; 8-byte Folded Reload
	.loc	1 902 23 is_stmt 1              ; blocksort.c:902:23
	tbnz	w8, #31, LBB0_163
Ltmp310:
; %bb.114:                              ; %mainQSort3.exit._crit_edge.i
                                        ;   in Loop: Header=BB0_37 Depth=2
	;DEBUG_VALUE: mainSort:j <- [DW_OP_plus_uconst 96] [$sp+0]
	;DEBUG_VALUE: hi <- [DW_OP_plus_uconst 164] [$sp+0]
	;DEBUG_VALUE: lo <- [DW_OP_plus_uconst 180] [$sp+0]
	;DEBUG_VALUE: mainSort:i <- [DW_OP_plus_uconst 64] [$sp+0]
	;DEBUG_VALUE: mainSort:ptr <- $x28
	;DEBUG_VALUE: mainSort:block <- $x24
	;DEBUG_VALUE: mainSort:quadrant <- [DW_OP_plus_uconst 264] [$sp+0]
	;DEBUG_VALUE: mainSort:ftab <- $x20
	;DEBUG_VALUE: mainSort:budget <- [DW_OP_plus_uconst 284, DW_OP_stack_value] $sp
	;DEBUG_VALUE: BZ2_blockSort:budget <- [DW_OP_plus_uconst 284, DW_OP_deref] $sp
	;DEBUG_VALUE: BZ2_blockSort:quadrant <- [DW_OP_plus_uconst 264] [$sp+0]
	;DEBUG_VALUE: BZ2_blockSort:nblock <- [DW_OP_plus_uconst 272] [$sp+0]
	;DEBUG_VALUE: BZ2_blockSort:block <- $x24
	;DEBUG_VALUE: BZ2_blockSort:ftab <- $x20
	;DEBUG_VALUE: BZ2_blockSort:ptr <- $x28
	;DEBUG_VALUE: mainSort:numQSorted <- [DW_OP_LLVM_arg 0, DW_OP_LLVM_arg 2, DW_OP_minus, DW_OP_LLVM_arg 1, DW_OP_plus, DW_OP_stack_value] undef
	.loc	1 0 23 is_stmt 0                ; blocksort.c:0:23
	ldr	w8, [sp, #180]                  ; 4-byte Folded Reload
	.loc	1 901 42 is_stmt 1              ; blocksort.c:901:42
	sub	w8, w19, w8
	ldr	w10, [sp, #164]                 ; 4-byte Folded Reload
	add	w8, w8, w10
Ltmp311:
	;DEBUG_VALUE: mainSort:numQSorted <- [DW_OP_LLVM_arg 0, DW_OP_LLVM_arg 1, DW_OP_plus, DW_OP_stack_value] undef
	.loc	1 901 30 is_stmt 0              ; blocksort.c:901:30
	add	w19, w8, #1
Ltmp312:
	;DEBUG_VALUE: mainSort:numQSorted <- $w19
	.loc	1 905 22 is_stmt 1              ; blocksort.c:905:22
	ldr	w8, [x20, x9, lsl  #2]
Lloh145:
	adrp	x22, ___stderrp@GOTPAGE
Lloh146:
	ldr	x22, [x22, ___stderrp@GOTPAGEOFF]
	ldp	x11, x10, [sp, #96]             ; 16-byte Folded Reload
	b	LBB0_34
Ltmp313:
LBB0_115:                               ;   in Loop: Header=BB0_33 Depth=1
	;DEBUG_VALUE: mainSort:j <- $x11
	;DEBUG_VALUE: mainSort:i <- [DW_OP_plus_uconst 64] [$sp+0]
	;DEBUG_VALUE: mainSort:numQSorted <- $w19
	;DEBUG_VALUE: mainSort:ptr <- $x28
	;DEBUG_VALUE: mainSort:block <- $x24
	;DEBUG_VALUE: mainSort:quadrant <- [DW_OP_plus_uconst 264] [$sp+0]
	;DEBUG_VALUE: mainSort:ftab <- $x20
	;DEBUG_VALUE: mainSort:budget <- [DW_OP_plus_uconst 284, DW_OP_stack_value] $sp
	;DEBUG_VALUE: BZ2_blockSort:budget <- [DW_OP_plus_uconst 284, DW_OP_deref] $sp
	;DEBUG_VALUE: BZ2_blockSort:quadrant <- [DW_OP_plus_uconst 264] [$sp+0]
	;DEBUG_VALUE: BZ2_blockSort:nblock <- [DW_OP_plus_uconst 272] [$sp+0]
	;DEBUG_VALUE: BZ2_blockSort:block <- $x24
	;DEBUG_VALUE: BZ2_blockSort:ftab <- $x20
	;DEBUG_VALUE: BZ2_blockSort:ptr <- $x28
	.loc	1 0 22 is_stmt 0                ; blocksort.c:0:22
	str	x19, [sp, #72]                  ; 8-byte Folded Spill
Ltmp314:
